ccopy_reg
_reconstructor
p1
(ccore.trainer.store
TrainerStorage
p2
c__builtin__
object
p3
NtRp4
(dp5
S'visualization'
p6
(dp7
S'default'
p8
(dp9
S'all_weights'
p10
(dp11
I1
(lp12
(dp13
S'feature_weight'
p14
cnumpy.core.multiarray
scalar
p15
(cnumpy
dtype
p16
(S'f8'
I0
I1
tRp17
(I3
S'<'
NNNI-1
I-1
I0
tbS'\x8b<\x88\xb2\xd1\x97e?'
tRp18
sS'name'
p19
Vcontractor->dev_active_interviews
p20
sS'weight'
p21
g15
(g17
S'\xef\x9a\\\xd0\xd4^\x95?'
tRp22
sa(dp23
g14
g15
(g17
S'\x00\x00\x00\x00\x00\x00\x00\x00'
tRp24
sg19
Vcontractor->dev_adj_score
p25
sg21
g15
(g17
S'\x00\x00\x00\x00\x00\x00\x00\x00'
tRp26
sa(dp27
g14
g15
(g17
S'\x00\x00\x00\x00\x00\x00\x00\x00'
tRp28
sg19
Vcontractor->dev_adj_score_recent
p29
sg21
g15
(g17
S'\x00\x00\x00\x00\x00\x00\x00\x00'
tRp30
sa(dp31
g14
g15
(g17
S'\x00\x00\x00\x00\x00\x00\x00\x00'
tRp32
sg19
Vcontractor->dev_availability
p33
sg21
g15
(g17
S'\x00\x00\x00\x00\x00\x00\x00\x00'
tRp34
sa(dp35
g14
g15
(g17
S'\x00\x00\x00\x00\x00\x00\x00\x00'
tRp36
sg19
Vcontractor->dev_billed_assignments
p37
sg21
g15
(g17
S'\x00\x00\x00\x00\x00\x00\x00\x00'
tRp38
sa(dp39
g14
g15
(g17
S'\x00\x00\x00\x00\x00\x00\x00\x00'
tRp40
sg19
Vcontractor->dev_bill_rate
p41
sg21
g15
(g17
S'\x00\x00\x00\x00\x00\x00\x00\x00'
tRp42
sa(dp43
g14
g15
(g17
S';c\x8fkj)]?'
tRp44
sg19
Vcontractor->dev_blurb->all
p45
sg21
g15
(g17
S'^F\xcb\x87\xc8\xec\xaa?'
tRp46
sa(dp47
g14
g15
(g17
S'\x00\x00\x00\x00\x00\x00\x00\x00'
tRp48
sg19
Vcontractor->dev_blurb->also
p49
sg21
g15
(g17
S'\x00\x00\x00\x00\x00\x00\x00\x00'
tRp50
sa(dp51
g14
g15
(g17
S'g\x9d\x13\xdd\xec\xe2T?'
tRp52
sg19
Vcontractor->dev_blurb->always
p53
sg21
g15
(g17
S'\xb3\xac\x00rB\xdd\xb0?'
tRp54
sa(dp55
g14
g15
(g17
S'\x00\x00\x00\x00\x00\x00\x00\x00'
tRp56
sg19
Vcontractor->dev_blurb->am
p57
sg21
g15
(g17
S'\x00\x00\x00\x00\x00\x00\x00\x00'
tRp58
sa(dp59
g14
g15
(g17
S'\x00\x00\x00\x00\x00\x00\x00\x00'
tRp60
sg19
Vcontractor->dev_blurb->an
p61
sg21
g15
(g17
S'\x00\x00\x00\x00\x00\x00\x00\x00'
tRp62
sa(dp63
g14
g15
(g17
S'\x00\x00\x00\x00\x00\x00\x00\x00'
tRp64
sg19
Vcontractor->dev_blurb->and
p65
sg21
g15
(g17
S'\x00\x00\x00\x00\x00\x00\x00\x00'
tRp66
sa(dp67
g14
g15
(g17
S'\x00\x00\x00\x00\x00\x00\x00\x00'
tRp68
sg19
Vcontractor->dev_blurb->are
p69
sg21
g15
(g17
S'\x00\x00\x00\x00\x00\x00\x00\x00'
tRp70
sa(dp71
g14
g15
(g17
S'\x00\x00\x00\x00\x00\x00\x00\x00'
tRp72
sg19
Vcontractor->dev_blurb->as
p73
sg21
g15
(g17
S'\x00\x00\x00\x00\x00\x00\x00\x00'
tRp74
sa(dp75
g14
g15
(g17
S'\x00\x00\x00\x00\x00\x00\x00\x00'
tRp76
sg19
Vcontractor->dev_blurb->at
p77
sg21
g15
(g17
S'\x00\x00\x00\x00\x00\x00\x00\x00'
tRp78
sa(dp79
g14
g15
(g17
S'\x00\x00\x00\x00\x00\x00\x00\x00'
tRp80
sg19
Vcontractor->dev_blurb->be
p81
sg21
g15
(g17
S'\x00\x00\x00\x00\x00\x00\x00\x00'
tRp82
sa(dp83
g14
g15
(g17
S'\x00\x00\x00\x00\x00\x00\x00\x00'
tRp84
sg19
Vcontractor->dev_blurb->been
p85
sg21
g15
(g17
S'\x00\x00\x00\x00\x00\x00\x00\x00'
tRp86
sa(dp87
g14
g15
(g17
S'\x00\x00\x00\x00\x00\x00\x00\x00'
tRp88
sg19
Vcontractor->dev_blurb->best
p89
sg21
g15
(g17
S'\x00\x00\x00\x00\x00\x00\x00\x00'
tRp90
sa(dp91
g14
g15
(g17
S'\x00\x00\x00\x00\x00\x00\x00\x00'
tRp92
sg19
Vcontractor->dev_blurb->business
p93
sg21
g15
(g17
S'\x00\x00\x00\x00\x00\x00\x00\x00'
tRp94
sa(dp95
g14
g15
(g17
S'\x00\x00\x00\x00\x00\x00\x00\x00'
tRp96
sg19
Vcontractor->dev_blurb->but
p97
sg21
g15
(g17
S'\x00\x00\x00\x00\x00\x00\x00\x00'
tRp98
sa(dp99
g14
g15
(g17
S'\x00\x00\x00\x00\x00\x00\x00\x00'
tRp100
sg19
Vcontractor->dev_blurb->can
p101
sg21
g15
(g17
S'\x00\x00\x00\x00\x00\x00\x00\x00'
tRp102
sa(dp103
g14
g15
(g17
S'\x00\x00\x00\x00\x00\x00\x00\x00'
tRp104
sg19
Vcontractor->dev_blurb->client
p105
sg21
g15
(g17
S'\x00\x00\x00\x00\x00\x00\x00\x00'
tRp106
sa(dp107
g14
g15
(g17
S'\x00\x00\x00\x00\x00\x00\x00\x00'
tRp108
sg19
Vcontractor->dev_blurb->clients
p109
sg21
g15
(g17
S'\x00\x00\x00\x00\x00\x00\x00\x00'
tRp110
sa(dp111
g14
g15
(g17
S'\x00\x00\x00\x00\x00\x00\x00\x00'
tRp112
sg19
Vcontractor->dev_blurb->com
p113
sg21
g15
(g17
S'\x00\x00\x00\x00\x00\x00\x00\x00'
tRp114
sa(dp115
g14
g15
(g17
S'\x00\x00\x00\x00\x00\x00\x00\x00'
tRp116
sg19
Vcontractor->dev_blurb->companies
p117
sg21
g15
(g17
S'\x00\x00\x00\x00\x00\x00\x00\x00'
tRp118
sa(dp119
g14
g15
(g17
S'\x00\x00\x00\x00\x00\x00\x00\x00'
tRp120
sg19
Vcontractor->dev_blurb->company
p121
sg21
g15
(g17
S'\x00\x00\x00\x00\x00\x00\x00\x00'
tRp122
sa(dp123
g14
g15
(g17
S'\x00\x00\x00\x00\x00\x00\x00\x00'
tRp124
sg19
Vcontractor->dev_blurb->complete
p125
sg21
g15
(g17
S'\x00\x00\x00\x00\x00\x00\x00\x00'
tRp126
sa(dp127
g14
g15
(g17
S'\x00\x00\x00\x00\x00\x00\x00\x00'
tRp128
sg19
Vcontractor->dev_blurb->customer
p129
sg21
g15
(g17
S'\x00\x00\x00\x00\x00\x00\x00\x00'
tRp130
sa(dp131
g14
g15
(g17
S'\x00\x00\x00\x00\x00\x00\x00\x00'
tRp132
sg19
Vcontractor->dev_blurb->data
p133
sg21
g15
(g17
S'\x00\x00\x00\x00\x00\x00\x00\x00'
tRp134
sa(dp135
g14
g15
(g17
S'\x00\x00\x00\x00\x00\x00\x00\x00'
tRp136
sg19
Vcontractor->dev_blurb->design
p137
sg21
g15
(g17
S'\x00\x00\x00\x00\x00\x00\x00\x00'
tRp138
sa(dp139
g14
g15
(g17
S'\x00\x00\x00\x00\x00\x00\x00\x00'
tRp140
sg19
Vcontractor->dev_blurb->designer
p141
sg21
g15
(g17
S'\x00\x00\x00\x00\x00\x00\x00\x00'
tRp142
sa(dp143
g14
g15
(g17
S'\x00\x00\x00\x00\x00\x00\x00\x00'
tRp144
sg19
Vcontractor->dev_blurb->developed
p145
sg21
g15
(g17
S'\x00\x00\x00\x00\x00\x00\x00\x00'
tRp146
sa(dp147
g14
g15
(g17
S'\x00\x00\x00\x00\x00\x00\x00\x00'
tRp148
sg19
Vcontractor->dev_blurb->development
p149
sg21
g15
(g17
S'\x00\x00\x00\x00\x00\x00\x00\x00'
tRp150
sa(dp151
g14
g15
(g17
S'\x00\x00\x00\x00\x00\x00\x00\x00'
tRp152
sg19
Vcontractor->dev_blurb->do
p153
sg21
g15
(g17
S'\x00\x00\x00\x00\x00\x00\x00\x00'
tRp154
sa(dp155
g14
g15
(g17
S'\x00\x00\x00\x00\x00\x00\x00\x00'
tRp156
sg19
Vcontractor->dev_blurb->entry
p157
sg21
g15
(g17
S'\x00\x00\x00\x00\x00\x00\x00\x00'
tRp158
sa(dp159
g14
g15
(g17
S'\x00\x00\x00\x00\x00\x00\x00\x00'
tRp160
sg19
Vcontractor->dev_blurb->excel
p161
sg21
g15
(g17
S'\x00\x00\x00\x00\x00\x00\x00\x00'
tRp162
sa(dp163
g14
g15
(g17
S'\xf7\x1c\n#\x99Na?'
tRp164
sg19
Vcontractor->dev_blurb->experience
p165
sg21
g15
(g17
S'/\x1dY\xdd\xc8\xcb\x9d?'
tRp166
sa(dp167
g14
g15
(g17
S'\x00\x00\x00\x00\x00\x00\x00\x00'
tRp168
sg19
Vcontractor->dev_blurb->expertise
p169
sg21
g15
(g17
S'\x00\x00\x00\x00\x00\x00\x00\x00'
tRp170
sa(dp171
g14
g15
(g17
S'\x00\x00\x00\x00\x00\x00\x00\x00'
tRp172
sg19
Vcontractor->dev_blurb->following
p173
sg21
g15
(g17
S'\x00\x00\x00\x00\x00\x00\x00\x00'
tRp174
sa(dp175
g14
g15
(g17
S'\x00\x00\x00\x00\x00\x00\x00\x00'
tRp176
sg19
Vcontractor->dev_blurb->for
p177
sg21
g15
(g17
S'\x00\x00\x00\x00\x00\x00\x00\x00'
tRp178
sa(dp179
g14
g15
(g17
S'\x00\x00\x00\x00\x00\x00\x00\x00'
tRp180
sg19
Vcontractor->dev_blurb->from
p181
sg21
g15
(g17
S'\x00\x00\x00\x00\x00\x00\x00\x00'
tRp182
sa(dp183
g14
g15
(g17
S'\x00\x00\x00\x00\x00\x00\x00\x00'
tRp184
sg19
Vcontractor->dev_blurb->goal
p185
sg21
g15
(g17
S'\x00\x00\x00\x00\x00\x00\x00\x00'
tRp186
sa(dp187
g14
g15
(g17
S'\x00\x00\x00\x00\x00\x00\x00\x00'
tRp188
sg19
Vcontractor->dev_blurb->good
p189
sg21
g15
(g17
S'\x00\x00\x00\x00\x00\x00\x00\x00'
tRp190
sa(dp191
g14
g15
(g17
S'\x00\x00\x00\x00\x00\x00\x00\x00'
tRp192
sg19
Vcontractor->dev_blurb->have
p193
sg21
g15
(g17
S'\x00\x00\x00\x00\x00\x00\x00\x00'
tRp194
sa(dp195
g14
g15
(g17
S'\x00\x00\x00\x00\x00\x00\x00\x00'
tRp196
sg19
Vcontractor->dev_blurb->html
p197
sg21
g15
(g17
S'\x00\x00\x00\x00\x00\x00\x00\x00'
tRp198
sa(dp199
g14
g15
(g17
S'\xc0\xeaQ\xe3L\xfa@?'
tRp200
sg19
Vcontractor->dev_blurb->if
p201
sg21
g15
(g17
S'A-\x1aL\xaa\x98\x9e?'
tRp202
sa(dp203
g14
g15
(g17
S'\x00\x00\x00\x00\x00\x00\x00\x00'
tRp204
sg19
Vcontractor->dev_blurb->in
p205
sg21
g15
(g17
S'\x00\x00\x00\x00\x00\x00\x00\x00'
tRp206
sa(dp207
g14
g15
(g17
S'\x00\x00\x00\x00\x00\x00\x00\x00'
tRp208
sg19
Vcontractor->dev_blurb->is
p209
sg21
g15
(g17
S'\x00\x00\x00\x00\x00\x00\x00\x00'
tRp210
sa(dp211
g14
g15
(g17
S'\x00\x00\x00\x00\x00\x00\x00\x00'
tRp212
sg19
Vcontractor->dev_blurb->it
p213
sg21
g15
(g17
S'\x00\x00\x00\x00\x00\x00\x00\x00'
tRp214
sa(dp215
g14
g15
(g17
S'\x00\x00\x00\x00\x00\x00\x00\x00'
tRp216
sg19
Vcontractor->dev_blurb->jobs
p217
sg21
g15
(g17
S'\x00\x00\x00\x00\x00\x00\x00\x00'
tRp218
sa(dp219
g14
g15
(g17
S'\x00\x00\x00\x00\x00\x00\x00\x00'
tRp220
sg19
Vcontractor->dev_blurb->knowledge
p221
sg21
g15
(g17
S'\x00\x00\x00\x00\x00\x00\x00\x00'
tRp222
sa(dp223
g14
g15
(g17
S'\x00\x00\x00\x00\x00\x00\x00\x00'
tRp224
sg19
Vcontractor->dev_blurb->last
p225
sg21
g15
(g17
S'\x00\x00\x00\x00\x00\x00\x00\x00'
tRp226
sa(dp227
g14
g15
(g17
S'\x00\x00\x00\x00\x00\x00\x00\x00'
tRp228
sg19
Vcontractor->dev_blurb->like
p229
sg21
g15
(g17
S'\x00\x00\x00\x00\x00\x00\x00\x00'
tRp230
sa(dp231
g14
g15
(g17
S'\x00\x00\x00\x00\x00\x00\x00\x00'
tRp232
sg19
Vcontractor->dev_blurb->looking
p233
sg21
g15
(g17
S'\x00\x00\x00\x00\x00\x00\x00\x00'
tRp234
sa(dp235
g14
g15
(g17
S'\x00\x00\x00\x00\x00\x00\x00\x00'
tRp236
sg19
Vcontractor->dev_blurb->management
p237
sg21
g15
(g17
S'\x00\x00\x00\x00\x00\x00\x00\x00'
tRp238
sa(dp239
g14
g15
(g17
S'\x8c\x1d\x85fS\xba8?'
tRp240
sg19
Vcontractor->dev_blurb->marketing
p241
sg21
g15
(g17
S'\xce\x84\x98\xb2HQ\x92?'
tRp242
sa(dp243
g14
g15
(g17
S'\x00\x00\x00\x00\x00\x00\x00\x00'
tRp244
sg19
Vcontractor->dev_blurb->me
p245
sg21
g15
(g17
S'\x00\x00\x00\x00\x00\x00\x00\x00'
tRp246
sa(dp247
g14
g15
(g17
S'\x00\x00\x00\x00\x00\x00\x00\x00'
tRp248
sg19
Vcontractor->dev_blurb->more
p249
sg21
g15
(g17
S'\x00\x00\x00\x00\x00\x00\x00\x00'
tRp250
sa(dp251
g14
g15
(g17
S'\x10\xbcE\xf0j\xbc\x7f?'
tRp252
sg19
Vcontractor->dev_blurb->my
p253
sg21
g15
(g17
S'\xfc\xef\xeb\xb0\x89\xdd\xae?'
tRp254
sa(dp255
g14
g15
(g17
S'\x00\x00\x00\x00\x00\x00\x00\x00'
tRp256
sg19
Vcontractor->dev_blurb->mysql
p257
sg21
g15
(g17
S'\x00\x00\x00\x00\x00\x00\x00\x00'
tRp258
sa(dp259
g14
g15
(g17
S'\xb9v\xd5\x96\xf6\xa5D?'
tRp260
sg19
Vcontractor->dev_blurb->new
p261
sg21
g15
(g17
S'\xb7Tt\xdc\xca\xf3\xa1?'
tRp262
sa(dp263
g14
g15
(g17
S'\x00\x00\x00\x00\x00\x00\x00\x00'
tRp264
sg19
Vcontractor->dev_blurb->not
p265
sg21
g15
(g17
S'\x00\x00\x00\x00\x00\x00\x00\x00'
tRp266
sa(dp267
g14
g15
(g17
S'\x00\x00\x00\x00\x00\x00\x00\x00'
tRp268
sg19
Vcontractor->dev_blurb->objective
p269
sg21
g15
(g17
S'\x00\x00\x00\x00\x00\x00\x00\x00'
tRp270
sa(dp271
g14
g15
(g17
S'<\x91\x9b\x1d%\x1ao?'
tRp272
sg19
Vcontractor->dev_blurb->of
p273
sg21
g15
(g17
S'\x1d\x81\xa2\xad\x06\xcf\xa1?'
tRp274
sa(dp275
g14
g15
(g17
S'\x00\x00\x00\x00\x00\x00\x00\x00'
tRp276
sg19
Vcontractor->dev_blurb->on
p277
sg21
g15
(g17
S'\x00\x00\x00\x00\x00\x00\x00\x00'
tRp278
sa(dp279
g14
g15
(g17
S'\x00\x00\x00\x00\x00\x00\x00\x00'
tRp280
sg19
Vcontractor->dev_blurb->one
p281
sg21
g15
(g17
S'\x00\x00\x00\x00\x00\x00\x00\x00'
tRp282
sa(dp283
g14
g15
(g17
S'\x00\x00\x00\x00\x00\x00\x00\x00'
tRp284
sg19
Vcontractor->dev_blurb->or
p285
sg21
g15
(g17
S'\x00\x00\x00\x00\x00\x00\x00\x00'
tRp286
sa(dp287
g14
g15
(g17
S'\x00\x00\x00\x00\x00\x00\x00\x00'
tRp288
sg19
Vcontractor->dev_blurb->oriented
p289
sg21
g15
(g17
S'\x00\x00\x00\x00\x00\x00\x00\x00'
tRp290
sa(dp291
g14
g15
(g17
S'\x00\x00\x00\x00\x00\x00\x00\x00'
tRp292
sg19
Vcontractor->dev_blurb->other
p293
sg21
g15
(g17
S'\x00\x00\x00\x00\x00\x00\x00\x00'
tRp294
sa(dp295
g14
g15
(g17
S'\x00\x00\x00\x00\x00\x00\x00\x00'
tRp296
sg19
Vcontractor->dev_blurb->over
p297
sg21
g15
(g17
S'\x00\x00\x00\x00\x00\x00\x00\x00'
tRp298
sa(dp299
g14
g15
(g17
S'\x00\x00\x00\x00\x00\x00\x00\x00'
tRp300
sg19
Vcontractor->dev_blurb->php
p301
sg21
g15
(g17
S'\x00\x00\x00\x00\x00\x00\x00\x00'
tRp302
sa(dp303
g14
g15
(g17
S'\x00\x00\x00\x00\x00\x00\x00\x00'
tRp304
sg19
Vcontractor->dev_blurb->professional
p305
sg21
g15
(g17
S'\x00\x00\x00\x00\x00\x00\x00\x00'
tRp306
sa(dp307
g14
g15
(g17
S'\x00\x00\x00\x00\x00\x00\x00\x00'
tRp308
sg19
Vcontractor->dev_blurb->project
p309
sg21
g15
(g17
S'\x00\x00\x00\x00\x00\x00\x00\x00'
tRp310
sa(dp311
g14
g15
(g17
S'\x00\x00\x00\x00\x00\x00\x00\x00'
tRp312
sg19
Vcontractor->dev_blurb->provide
p313
sg21
g15
(g17
S'\x00\x00\x00\x00\x00\x00\x00\x00'
tRp314
sa(dp315
g14
g15
(g17
S'\x00\x00\x00\x00\x00\x00\x00\x00'
tRp316
sg19
Vcontractor->dev_blurb->quality
p317
sg21
g15
(g17
S'\x00\x00\x00\x00\x00\x00\x00\x00'
tRp318
sa(dp319
g14
g15
(g17
S'\x00\x00\x00\x00\x00\x00\x00\x00'
tRp320
sg19
Vcontractor->dev_blurb->research
p321
sg21
g15
(g17
S'\x00\x00\x00\x00\x00\x00\x00\x00'
tRp322
sa(dp323
g14
g15
(g17
S'\x00\x00\x00\x00\x00\x00\x00\x00'
tRp324
sg19
Vcontractor->dev_blurb->satisfaction
p325
sg21
g15
(g17
S'\x00\x00\x00\x00\x00\x00\x00\x00'
tRp326
sa(dp327
g14
g15
(g17
S'\x00\x00\x00\x00\x00\x00\x00\x00'
tRp328
sg19
Vcontractor->dev_blurb->seo
p329
sg21
g15
(g17
S'\x00\x00\x00\x00\x00\x00\x00\x00'
tRp330
sa(dp331
g14
g15
(g17
S'\x00\x00\x00\x00\x00\x00\x00\x00'
tRp332
sg19
Vcontractor->dev_blurb->service
p333
sg21
g15
(g17
S'\x00\x00\x00\x00\x00\x00\x00\x00'
tRp334
sa(dp335
g14
g15
(g17
S'\x00\x00\x00\x00\x00\x00\x00\x00'
tRp336
sg19
Vcontractor->dev_blurb->skills
p337
sg21
g15
(g17
S'\x00\x00\x00\x00\x00\x00\x00\x00'
tRp338
sa(dp339
g14
g15
(g17
S'\x00\x00\x00\x00\x00\x00\x00\x00'
tRp340
sg19
Vcontractor->dev_blurb->solutions
p341
sg21
g15
(g17
S'\x00\x00\x00\x00\x00\x00\x00\x00'
tRp342
sa(dp343
g14
g15
(g17
S'\x00\x00\x00\x00\x00\x00\x00\x00'
tRp344
sg19
Vcontractor->dev_blurb->some
p345
sg21
g15
(g17
S'\x00\x00\x00\x00\x00\x00\x00\x00'
tRp346
sa(dp347
g14
g15
(g17
S'\x00\x00\x00\x00\x00\x00\x00\x00'
tRp348
sg19
Vcontractor->dev_blurb->support
p349
sg21
g15
(g17
S'\x00\x00\x00\x00\x00\x00\x00\x00'
tRp350
sa(dp351
g14
g15
(g17
S'\x00\x00\x00\x00\x00\x00\x00\x00'
tRp352
sg19
Vcontractor->dev_blurb->tasks
p353
sg21
g15
(g17
S'\x00\x00\x00\x00\x00\x00\x00\x00'
tRp354
sa(dp355
g14
g15
(g17
S'\x00\x00\x00\x00\x00\x00\x00\x00'
tRp356
sg19
Vcontractor->dev_blurb->than
p357
sg21
g15
(g17
S'\x00\x00\x00\x00\x00\x00\x00\x00'
tRp358
sa(dp359
g14
g15
(g17
S'\xa5\xf2A\x0f\xf7\x84^?'
tRp360
sg19
Vcontractor->dev_blurb->that
p361
sg21
g15
(g17
S'\x95\xce\xd0\x15q~\x9c?'
tRp362
sa(dp363
g14
g15
(g17
S'\x00\x00\x00\x00\x00\x00\x00\x00'
tRp364
sg19
Vcontractor->dev_blurb->the
p365
sg21
g15
(g17
S'\x00\x00\x00\x00\x00\x00\x00\x00'
tRp366
sa(dp367
g14
g15
(g17
S'\xac\xac$\xa9&\xd3e?'
tRp368
sg19
Vcontractor->dev_blurb->time
p369
sg21
g15
(g17
S')\xde\xb3\x94\xce\xd0\xb5?'
tRp370
sa(dp371
g14
g15
(g17
S'\x00\x00\x00\x00\x00\x00\x00\x00'
tRp372
sg19
Vcontractor->dev_blurb->to
p373
sg21
g15
(g17
S'\x00\x00\x00\x00\x00\x00\x00\x00'
tRp374
sa(dp375
g14
g15
(g17
S'\x00\x00\x00\x00\x00\x00\x00\x00'
tRp376
sg19
Vcontractor->dev_blurb->use
p377
sg21
g15
(g17
S'\x00\x00\x00\x00\x00\x00\x00\x00'
tRp378
sa(dp379
g14
g15
(g17
S'\x91\xe9\x92\x92i\xbbS?'
tRp380
sg19
Vcontractor->dev_blurb->using
p381
sg21
g15
(g17
S'\x19\xcaA\x85\xff\xb9\xa3?'
tRp382
sa(dp383
g14
g15
(g17
S'\x00\x00\x00\x00\x00\x00\x00\x00'
tRp384
sg19
Vcontractor->dev_blurb->very
p385
sg21
g15
(g17
S'\x00\x00\x00\x00\x00\x00\x00\x00'
tRp386
sa(dp387
g14
g15
(g17
S'\x00\x00\x00\x00\x00\x00\x00\x00'
tRp388
sg19
Vcontractor->dev_blurb->web
p389
sg21
g15
(g17
S'\x00\x00\x00\x00\x00\x00\x00\x00'
tRp390
sa(dp391
g14
g15
(g17
S'\x00\x00\x00\x00\x00\x00\x00\x00'
tRp392
sg19
Vcontractor->dev_blurb->website
p393
sg21
g15
(g17
S'\x00\x00\x00\x00\x00\x00\x00\x00'
tRp394
sa(dp395
g14
g15
(g17
S'\x94\xd5f\xf7I\\8?'
tRp396
sg19
Vcontractor->dev_blurb->well
p397
sg21
g15
(g17
S'4tE\x9c\x1f\x07\x90?'
tRp398
sa(dp399
g14
g15
(g17
S'\x00\x00\x00\x00\x00\x00\x00\x00'
tRp400
sg19
Vcontractor->dev_blurb->what
p401
sg21
g15
(g17
S'\x00\x00\x00\x00\x00\x00\x00\x00'
tRp402
sa(dp403
g14
g15
(g17
S'\x00\x00\x00\x00\x00\x00\x00\x00'
tRp404
sg19
Vcontractor->dev_blurb->where
p405
sg21
g15
(g17
S'\x00\x00\x00\x00\x00\x00\x00\x00'
tRp406
sa(dp407
g14
g15
(g17
S'\x00\x00\x00\x00\x00\x00\x00\x00'
tRp408
sg19
Vcontractor->dev_blurb->will
p409
sg21
g15
(g17
S'\x00\x00\x00\x00\x00\x00\x00\x00'
tRp410
sa(dp411
g14
g15
(g17
S'\x00\x00\x00\x00\x00\x00\x00\x00'
tRp412
sg19
Vcontractor->dev_blurb->with
p413
sg21
g15
(g17
S'\x00\x00\x00\x00\x00\x00\x00\x00'
tRp414
sa(dp415
g14
g15
(g17
S'\x00\x00\x00\x00\x00\x00\x00\x00'
tRp416
sg19
Vcontractor->dev_blurb->word
p417
sg21
g15
(g17
S'\x00\x00\x00\x00\x00\x00\x00\x00'
tRp418
sa(dp419
g14
g15
(g17
S'\x00\x00\x00\x00\x00\x00\x00\x00'
tRp420
sg19
Vcontractor->dev_blurb->wordpress
p421
sg21
g15
(g17
S'\x00\x00\x00\x00\x00\x00\x00\x00'
tRp422
sa(dp423
g14
g15
(g17
S'\x00\x00\x00\x00\x00\x00\x00\x00'
tRp424
sg19
Vcontractor->dev_blurb->work
p425
sg21
g15
(g17
S'\x00\x00\x00\x00\x00\x00\x00\x00'
tRp426
sa(dp427
g14
g15
(g17
S'\x00\x00\x00\x00\x00\x00\x00\x00'
tRp428
sg19
Vcontractor->dev_blurb->working
p429
sg21
g15
(g17
S'\x00\x00\x00\x00\x00\x00\x00\x00'
tRp430
sa(dp431
g14
g15
(g17
S'\x00\x00\x00\x00\x00\x00\x00\x00'
tRp432
sg19
Vcontractor->dev_blurb->would
p433
sg21
g15
(g17
S'\x00\x00\x00\x00\x00\x00\x00\x00'
tRp434
sa(dp435
g14
g15
(g17
S'\x00\x00\x00\x00\x00\x00\x00\x00'
tRp436
sg19
Vcontractor->dev_blurb->writing
p437
sg21
g15
(g17
S'\x00\x00\x00\x00\x00\x00\x00\x00'
tRp438
sa(dp439
g14
g15
(g17
S'\x00\x00\x00\x00\x00\x00\x00\x00'
tRp440
sg19
Vcontractor->dev_blurb->years
p441
sg21
g15
(g17
S'\x00\x00\x00\x00\x00\x00\x00\x00'
tRp442
sa(dp443
g14
g15
(g17
S'`\xc5\x1e\x13mXk?'
tRp444
sg19
Vcontractor->dev_blurb->you
p445
sg21
g15
(g17
S"\xebo\xd4'\xb7t\xb0?"
tRp446
sa(dp447
g14
g15
(g17
S'\x00\x00\x00\x00\x00\x00\x00\x00'
tRp448
sg19
Vcontractor->dev_blurb->your
p449
sg21
g15
(g17
S'\x00\x00\x00\x00\x00\x00\x00\x00'
tRp450
sa(dp451
g14
g15
(g17
S'\x00\x00\x00\x00\x00\x00\x00\x00'
tRp452
sg19
Vcontractor->dev_cur_assignments
p453
sg21
g15
(g17
S'\x00\x00\x00\x00\x00\x00\x00\x00'
tRp454
sa(dp455
g14
g15
(g17
S'\x00\x00\x00\x00\x00\x00\x00\x00'
tRp456
sg19
Vcontractor->dev_eng_skill
p457
sg21
g15
(g17
S'\x00\x00\x00\x00\x00\x00\x00\x00'
tRp458
sa(dp459
g14
g15
(g17
S'\x00\x00\x00\x00\x00\x00\x00\x00'
tRp460
sg19
Vcontractor->dev_expose_full_name
p461
sg21
g15
(g17
S'\x00\x00\x00\x00\x00\x00\x00\x00'
tRp462
sa(dp463
g14
g15
(g17
S'\x00\x00\x00\x00\x00\x00\x00\x00'
tRp464
sg19
Vcontractor->dev_is_looking
p465
sg21
g15
(g17
S'\x00\x00\x00\x00\x00\x00\x00\x00'
tRp466
sa(dp467
g14
g15
(g17
S'\x00\x00\x00\x00\x00\x00\x00\x00'
tRp468
sg19
Vcontractor->dev_is_looking_week
p469
sg21
g15
(g17
S'\x00\x00\x00\x00\x00\x00\x00\x00'
tRp470
sa(dp471
g14
g15
(g17
S'\x00\x00\x00\x00\x00\x00\x00\x00'
tRp472
sg19
Vcontractor->dev_last_worked
p473
sg21
g15
(g17
S'\x00\x00\x00\x00\x00\x00\x00\x00'
tRp474
sa(dp475
g14
g15
(g17
S'K\xb3\x85$\xe2\xb3\x85?'
tRp476
sg19
Vcontractor->dev_pay_rate
p477
sg21
g15
(g17
S'\xf9\x92\xfc\x19,\x9a\xb3?'
tRp478
sa(dp479
g14
g15
(g17
S'\x00\x00\x00\x00\x00\x00\x00\x00'
tRp480
sg19
Vcontractor->dev_portfolio_items_count
p481
sg21
g15
(g17
S'\x00\x00\x00\x00\x00\x00\x00\x00'
tRp482
sa(dp483
g14
g15
(g17
S'\x00\x00\x00\x00\x00\x00\x00\x00'
tRp484
sg19
Vcontractor->dev_profile_title->administrative
p485
sg21
g15
(g17
S'\x00\x00\x00\x00\x00\x00\x00\x00'
tRp486
sa(dp487
g14
g15
(g17
S'\x00\x00\x00\x00\x00\x00\x00\x00'
tRp488
sg19
Vcontractor->dev_profile_title->analyst
p489
sg21
g15
(g17
S'\x00\x00\x00\x00\x00\x00\x00\x00'
tRp490
sa(dp491
g14
g15
(g17
S'\x00\x00\x00\x00\x00\x00\x00\x00'
tRp492
sg19
Vcontractor->dev_profile_title->and
p493
sg21
g15
(g17
S'\x00\x00\x00\x00\x00\x00\x00\x00'
tRp494
sa(dp495
g14
g15
(g17
S'\x00\x00\x00\x00\x00\x00\x00\x00'
tRp496
sg19
Vcontractor->dev_profile_title->architect
p497
sg21
g15
(g17
S'\x00\x00\x00\x00\x00\x00\x00\x00'
tRp498
sa(dp499
g14
g15
(g17
S'\x00\x00\x00\x00\x00\x00\x00\x00'
tRp500
sg19
Vcontractor->dev_profile_title->artist
p501
sg21
g15
(g17
S'\x00\x00\x00\x00\x00\x00\x00\x00'
tRp502
sa(dp503
g14
g15
(g17
S'\x00\x00\x00\x00\x00\x00\x00\x00'
tRp504
sg19
Vcontractor->dev_profile_title->assistant
p505
sg21
g15
(g17
S'\x00\x00\x00\x00\x00\x00\x00\x00'
tRp506
sa(dp507
g14
g15
(g17
S'\x00\x00\x00\x00\x00\x00\x00\x00'
tRp508
sg19
Vcontractor->dev_profile_title->best
p509
sg21
g15
(g17
S'\x00\x00\x00\x00\x00\x00\x00\x00'
tRp510
sa(dp511
g14
g15
(g17
S'\x00\x00\x00\x00\x00\x00\x00\x00'
tRp512
sg19
Vcontractor->dev_profile_title->css
p513
sg21
g15
(g17
S'\x00\x00\x00\x00\x00\x00\x00\x00'
tRp514
sa(dp515
g14
g15
(g17
S'\x00\x00\x00\x00\x00\x00\x00\x00'
tRp516
sg19
Vcontractor->dev_profile_title->customer
p517
sg21
g15
(g17
S'\x00\x00\x00\x00\x00\x00\x00\x00'
tRp518
sa(dp519
g14
g15
(g17
S'\x00\x00\x00\x00\x00\x00\x00\x00'
tRp520
sg19
Vcontractor->dev_profile_title->data
p521
sg21
g15
(g17
S'\x00\x00\x00\x00\x00\x00\x00\x00'
tRp522
sa(dp523
g14
g15
(g17
S'\x00\x00\x00\x00\x00\x00\x00\x00'
tRp524
sg19
Vcontractor->dev_profile_title->design
p525
sg21
g15
(g17
S'\x00\x00\x00\x00\x00\x00\x00\x00'
tRp526
sa(dp527
g14
g15
(g17
S'*W\x9f\xa2k\x8e`?'
tRp528
sg19
Vcontractor->dev_profile_title->designer
p529
sg21
g15
(g17
S'>XS\x88\xbf;\xa3?'
tRp530
sa(dp531
g14
g15
(g17
S'\x00\x00\x00\x00\x00\x00\x00\x00'
tRp532
sg19
Vcontractor->dev_profile_title->developer
p533
sg21
g15
(g17
S'\x00\x00\x00\x00\x00\x00\x00\x00'
tRp534
sa(dp535
g14
g15
(g17
S'\x00\x00\x00\x00\x00\x00\x00\x00'
tRp536
sg19
Vcontractor->dev_profile_title->editor
p537
sg21
g15
(g17
S'\x00\x00\x00\x00\x00\x00\x00\x00'
tRp538
sa(dp539
g14
g15
(g17
S'\x00\x00\x00\x00\x00\x00\x00\x00'
tRp540
sg19
Vcontractor->dev_profile_title->engineer
p541
sg21
g15
(g17
S'\x00\x00\x00\x00\x00\x00\x00\x00'
tRp542
sa(dp543
g14
g15
(g17
S'\x00\x00\x00\x00\x00\x00\x00\x00'
tRp544
sg19
Vcontractor->dev_profile_title->entry
p545
sg21
g15
(g17
S'\x00\x00\x00\x00\x00\x00\x00\x00'
tRp546
sa(dp547
g14
g15
(g17
S'\x00\x00\x00\x00\x00\x00\x00\x00'
tRp548
sg19
Vcontractor->dev_profile_title->excel
p549
sg21
g15
(g17
S'\x00\x00\x00\x00\x00\x00\x00\x00'
tRp550
sa(dp551
g14
g15
(g17
S'\x00\x00\x00\x00\x00\x00\x00\x00'
tRp552
sg19
Vcontractor->dev_profile_title->experienced
p553
sg21
g15
(g17
S'\x00\x00\x00\x00\x00\x00\x00\x00'
tRp554
sa(dp555
g14
g15
(g17
S'\x00\x00\x00\x00\x00\x00\x00\x00'
tRp556
sg19
Vcontractor->dev_profile_title->expert
p557
sg21
g15
(g17
S'\x00\x00\x00\x00\x00\x00\x00\x00'
tRp558
sa(dp559
g14
g15
(g17
S'\x00\x00\x00\x00\x00\x00\x00\x00'
tRp560
sg19
Vcontractor->dev_profile_title->for
p561
sg21
g15
(g17
S'\x00\x00\x00\x00\x00\x00\x00\x00'
tRp562
sa(dp563
g14
g15
(g17
S'\x00\x00\x00\x00\x00\x00\x00\x00'
tRp564
sg19
Vcontractor->dev_profile_title->freelance
p565
sg21
g15
(g17
S'\x00\x00\x00\x00\x00\x00\x00\x00'
tRp566
sa(dp567
g14
g15
(g17
S'\x00\x00\x00\x00\x00\x00\x00\x00'
tRp568
sg19
Vcontractor->dev_profile_title->game
p569
sg21
g15
(g17
S'\x00\x00\x00\x00\x00\x00\x00\x00'
tRp570
sa(dp571
g14
g15
(g17
S'\x00\x00\x00\x00\x00\x00\x00\x00'
tRp572
sg19
Vcontractor->dev_profile_title->graphic
p573
sg21
g15
(g17
S'\x00\x00\x00\x00\x00\x00\x00\x00'
tRp574
sa(dp575
g14
g15
(g17
S'\x00\x00\x00\x00\x00\x00\x00\x00'
tRp576
sg19
Vcontractor->dev_profile_title->html
p577
sg21
g15
(g17
S'\x00\x00\x00\x00\x00\x00\x00\x00'
tRp578
sa(dp579
g14
g15
(g17
S'\x00\x00\x00\x00\x00\x00\x00\x00'
tRp580
sg19
Vcontractor->dev_profile_title->in
p581
sg21
g15
(g17
S'\x00\x00\x00\x00\x00\x00\x00\x00'
tRp582
sa(dp583
g14
g15
(g17
S'\x00\x00\x00\x00\x00\x00\x00\x00'
tRp584
sg19
Vcontractor->dev_profile_title->jquery
p585
sg21
g15
(g17
S'\x00\x00\x00\x00\x00\x00\x00\x00'
tRp586
sa(dp587
g14
g15
(g17
S'\x00\x00\x00\x00\x00\x00\x00\x00'
tRp588
sg19
Vcontractor->dev_profile_title->ms
p589
sg21
g15
(g17
S'\x00\x00\x00\x00\x00\x00\x00\x00'
tRp590
sa(dp591
g14
g15
(g17
S'\x00\x00\x00\x00\x00\x00\x00\x00'
tRp592
sg19
Vcontractor->dev_profile_title->mysql
p593
sg21
g15
(g17
S'\x00\x00\x00\x00\x00\x00\x00\x00'
tRp594
sa(dp595
g14
g15
(g17
S'\x00\x00\x00\x00\x00\x00\x00\x00'
tRp596
sg19
Vcontractor->dev_profile_title->of
p597
sg21
g15
(g17
S'\x00\x00\x00\x00\x00\x00\x00\x00'
tRp598
sa(dp599
g14
g15
(g17
S'\x00\x00\x00\x00\x00\x00\x00\x00'
tRp600
sg19
Vcontractor->dev_profile_title->photoshop
p601
sg21
g15
(g17
S'\x00\x00\x00\x00\x00\x00\x00\x00'
tRp602
sa(dp603
g14
g15
(g17
S'\x00\x00\x00\x00\x00\x00\x00\x00'
tRp604
sg19
Vcontractor->dev_profile_title->php
p605
sg21
g15
(g17
S'\x00\x00\x00\x00\x00\x00\x00\x00'
tRp606
sa(dp607
g14
g15
(g17
S'\x00\x00\x00\x00\x00\x00\x00\x00'
tRp608
sg19
Vcontractor->dev_profile_title->professional
p609
sg21
g15
(g17
S'\x00\x00\x00\x00\x00\x00\x00\x00'
tRp610
sa(dp611
g14
g15
(g17
S'\x00\x00\x00\x00\x00\x00\x00\x00'
tRp612
sg19
Vcontractor->dev_profile_title->research
p613
sg21
g15
(g17
S'\x00\x00\x00\x00\x00\x00\x00\x00'
tRp614
sa(dp615
g14
g15
(g17
S'\x00\x00\x00\x00\x00\x00\x00\x00'
tRp616
sg19
Vcontractor->dev_profile_title->researcher
p617
sg21
g15
(g17
S'\x00\x00\x00\x00\x00\x00\x00\x00'
tRp618
sa(dp619
g14
g15
(g17
S'\x00\x00\x00\x00\x00\x00\x00\x00'
tRp620
sg19
Vcontractor->dev_profile_title->sem
p621
sg21
g15
(g17
S'\x00\x00\x00\x00\x00\x00\x00\x00'
tRp622
sa(dp623
g14
g15
(g17
S'\x00\x00\x00\x00\x00\x00\x00\x00'
tRp624
sg19
Vcontractor->dev_profile_title->seo
p625
sg21
g15
(g17
S'\x00\x00\x00\x00\x00\x00\x00\x00'
tRp626
sa(dp627
g14
g15
(g17
S'G\x9c\x0ed\x94\xc9S?'
tRp628
sg19
Vcontractor->dev_profile_title->service
p629
sg21
g15
(g17
S'\x88\x1fA;(f\xa4?'
tRp630
sa(dp631
g14
g15
(g17
S'\x00\x00\x00\x00\x00\x00\x00\x00'
tRp632
sg19
Vcontractor->dev_profile_title->smm
p633
sg21
g15
(g17
S'\x00\x00\x00\x00\x00\x00\x00\x00'
tRp634
sa(dp635
g14
g15
(g17
S'[\xe3\x9d1\x91\x1dV?'
tRp636
sg19
Vcontractor->dev_profile_title->software
p637
sg21
g15
(g17
S"s'\xed\x1b\xa4\x05\xa3?"
tRp638
sa(dp639
g14
g15
(g17
S'\x00\x00\x00\x00\x00\x00\x00\x00'
tRp640
sg19
Vcontractor->dev_profile_title->specialist
p641
sg21
g15
(g17
S'\x00\x00\x00\x00\x00\x00\x00\x00'
tRp642
sa(dp643
g14
g15
(g17
S'\x00\x00\x00\x00\x00\x00\x00\x00'
tRp644
sg19
Vcontractor->dev_profile_title->top
p645
sg21
g15
(g17
S'\x00\x00\x00\x00\x00\x00\x00\x00'
tRp646
sa(dp647
g14
g15
(g17
S'\x00\x00\x00\x00\x00\x00\x00\x00'
tRp648
sg19
Vcontractor->dev_profile_title->virtual
p649
sg21
g15
(g17
S'\x00\x00\x00\x00\x00\x00\x00\x00'
tRp650
sa(dp651
g14
g15
(g17
S'\xc4\xa0\xa9X\xc8\xe8c?'
tRp652
sg19
Vcontractor->dev_profile_title->web
p653
sg21
g15
(g17
S'\x8d\x15J@\xaa\x18\xa1?'
tRp654
sa(dp655
g14
g15
(g17
S'\x00\x00\x00\x00\x00\x00\x00\x00'
tRp656
sg19
Vcontractor->dev_profile_title->with
p657
sg21
g15
(g17
S'\x00\x00\x00\x00\x00\x00\x00\x00'
tRp658
sa(dp659
g14
g15
(g17
S'\x00\x00\x00\x00\x00\x00\x00\x00'
tRp660
sg19
Vcontractor->dev_profile_title->word
p661
sg21
g15
(g17
S'\x00\x00\x00\x00\x00\x00\x00\x00'
tRp662
sa(dp663
g14
g15
(g17
S'\x00\x00\x00\x00\x00\x00\x00\x00'
tRp664
sg19
Vcontractor->dev_profile_title->wordpress
p665
sg21
g15
(g17
S'\x00\x00\x00\x00\x00\x00\x00\x00'
tRp666
sa(dp667
g14
g15
(g17
S'\x00\x00\x00\x00\x00\x00\x00\x00'
tRp668
sg19
Vcontractor->dev_profile_title->writer
p669
sg21
g15
(g17
S'\x00\x00\x00\x00\x00\x00\x00\x00'
tRp670
sa(dp671
g14
g15
(g17
S'\x00\x00\x00\x00\x00\x00\x00\x00'
tRp672
sg19
Vcontractor->dev_profile_title->writing
p673
sg21
g15
(g17
S'\x00\x00\x00\x00\x00\x00\x00\x00'
tRp674
sa(dp675
g14
g15
(g17
S'\x00\x00\x00\x00\x00\x00\x00\x00'
tRp676
sg19
Vcontractor->dev_rank_percentile
p677
sg21
g15
(g17
S'\x00\x00\x00\x00\x00\x00\x00\x00'
tRp678
sa(dp679
g14
g15
(g17
S'\x00\x00\x00\x00\x00\x00\x00\x00'
tRp680
sg19
Vcontractor->dev_recent_fp_jobs
p681
sg21
g15
(g17
S'\x00\x00\x00\x00\x00\x00\x00\x00'
tRp682
sa(dp683
g14
g15
(g17
S'\x00\x00\x00\x00\x00\x00\x00\x00'
tRp684
sg19
Vcontractor->dev_recent_hourly_jobs
p685
sg21
g15
(g17
S'\x00\x00\x00\x00\x00\x00\x00\x00'
tRp686
sa(dp687
g14
g15
(g17
S'\x00\x00\x00\x00\x00\x00\x00\x00'
tRp688
sg19
Vcontractor->dev_recent_hours
p689
sg21
g15
(g17
S'\x00\x00\x00\x00\x00\x00\x00\x00'
tRp690
sa(dp691
g14
g15
(g17
S'\x00\x00\x00\x00\x00\x00\x00\x00'
tRp692
sg19
Vcontractor->dev_recent_rank_percentile
p693
sg21
g15
(g17
S'\x00\x00\x00\x00\x00\x00\x00\x00'
tRp694
sa(dp695
g14
g15
(g17
S'\x00\x00\x00\x00\x00\x00\x00\x00'
tRp696
sg19
Vcontractor->dev_skill_test_passed_count
p697
sg21
g15
(g17
S'\x00\x00\x00\x00\x00\x00\x00\x00'
tRp698
sa(dp699
g14
g15
(g17
S'\x00\x00\x00\x00\x00\x00\x00\x00'
tRp700
sg19
Vcontractor->dev_test_passed_count
p701
sg21
g15
(g17
S'\x00\x00\x00\x00\x00\x00\x00\x00'
tRp702
sa(dp703
g14
g15
(g17
S'\x00\x00\x00\x00\x00\x00\x00\x00'
tRp704
sg19
Vcontractor->dev_timezone
p705
sg21
g15
(g17
S'\x00\x00\x00\x00\x00\x00\x00\x00'
tRp706
sa(dp707
g14
g15
(g17
S'[\x05\x1b\x17\x12Hw?'
tRp708
sg19
Vcontractor->dev_total_hourly_jobs
p709
sg21
g15
(g17
S'\xb2j\xe2x\x0e\xa0\xa2?'
tRp710
sa(dp711
g14
g15
(g17
S'\x00\x00\x00\x00\x00\x00\x00\x00'
tRp712
sg19
Vcontractor->dev_total_hours_rounded
p713
sg21
g15
(g17
S'\x00\x00\x00\x00\x00\x00\x00\x00'
tRp714
sa(dp715
g14
g15
(g17
S'\x00\x00\x00\x00\x00\x00\x00\x00'
tRp716
sg19
Vcontractor->dev_total_revenue
p717
sg21
g15
(g17
S'\x00\x00\x00\x00\x00\x00\x00\x00'
tRp718
sa(dp719
g14
g15
(g17
S'\x00\x00\x00\x00\x00\x00\x00\x00'
tRp720
sg19
Vcontractor->dev_tot_feedback
p721
sg21
g15
(g17
S'\x00\x00\x00\x00\x00\x00\x00\x00'
tRp722
sa(dp723
g14
g15
(g17
S'\x00\x00\x00\x00\x00\x00\x00\x00'
tRp724
sg19
Vcontractor->dev_tot_feedback_recent
p725
sg21
g15
(g17
S'\x00\x00\x00\x00\x00\x00\x00\x00'
tRp726
sa(dp727
g14
g15
(g17
S'\x00\x00\x00\x00\x00\x00\x00\x00'
tRp728
sg19
Vcontractor->dev_year_exp
p729
sg21
g15
(g17
S'\x00\x00\x00\x00\x00\x00\x00\x00'
tRp730
sa(dp731
g14
g15
(g17
S'\x00\x00\x00\x00\x00\x00\x00\x00'
tRp732
sg19
Vcountry_pair->australia,bangladesh
p733
sg21
g15
(g17
S'\x00\x00\x00\x00\x00\x00\x00\x00'
tRp734
sa(dp735
g14
g15
(g17
S'\x00\x00\x00\x00\x00\x00\x00\x00'
tRp736
sg19
Vcountry_pair->australia,india
p737
sg21
g15
(g17
S'\x00\x00\x00\x00\x00\x00\x00\x00'
tRp738
sa(dp739
g14
g15
(g17
S'\x00\x00\x00\x00\x00\x00\x00\x00'
tRp740
sg19
Vcountry_pair->australia,pakistan
p741
sg21
g15
(g17
S'\x00\x00\x00\x00\x00\x00\x00\x00'
tRp742
sa(dp743
g14
g15
(g17
S'\x00\x00\x00\x00\x00\x00\x00\x00'
tRp744
sg19
Vcountry_pair->australia,philippines
p745
sg21
g15
(g17
S'\x00\x00\x00\x00\x00\x00\x00\x00'
tRp746
sa(dp747
g14
g15
(g17
S'\x00\x00\x00\x00\x00\x00\x00\x00'
tRp748
sg19
Vcountry_pair->australia,united kingdom
p749
sg21
g15
(g17
S'\x00\x00\x00\x00\x00\x00\x00\x00'
tRp750
sa(dp751
g14
g15
(g17
S'\x00\x00\x00\x00\x00\x00\x00\x00'
tRp752
sg19
Vcountry_pair->bangladesh,bangladesh
p753
sg21
g15
(g17
S'\x00\x00\x00\x00\x00\x00\x00\x00'
tRp754
sa(dp755
g14
g15
(g17
S'\x00\x00\x00\x00\x00\x00\x00\x00'
tRp756
sg19
Vcountry_pair->bangladesh,philippines
p757
sg21
g15
(g17
S'\x00\x00\x00\x00\x00\x00\x00\x00'
tRp758
sa(dp759
g14
g15
(g17
S'\x00\x00\x00\x00\x00\x00\x00\x00'
tRp760
sg19
Vcountry_pair->canada,philippines
p761
sg21
g15
(g17
S'\x00\x00\x00\x00\x00\x00\x00\x00'
tRp762
sa(dp763
g14
g15
(g17
S'\x00\x00\x00\x00\x00\x00\x00\x00'
tRp764
sg19
Vcountry_pair->canada,united states
p765
sg21
g15
(g17
S'\x00\x00\x00\x00\x00\x00\x00\x00'
tRp766
sa(dp767
g14
g15
(g17
S'\x00\x00\x00\x00\x00\x00\x00\x00'
tRp768
sg19
Vcountry_pair->croatia,pakistan
p769
sg21
g15
(g17
S'\x00\x00\x00\x00\x00\x00\x00\x00'
tRp770
sa(dp771
g14
g15
(g17
S'\x00\x00\x00\x00\x00\x00\x00\x00'
tRp772
sg19
Vcountry_pair->egypt,india
p773
sg21
g15
(g17
S'\x00\x00\x00\x00\x00\x00\x00\x00'
tRp774
sa(dp775
g14
g15
(g17
S'\x00\x00\x00\x00\x00\x00\x00\x00'
tRp776
sg19
Vcountry_pair->france,netherlands
p777
sg21
g15
(g17
S'\x00\x00\x00\x00\x00\x00\x00\x00'
tRp778
sa(dp779
g14
g15
(g17
S'\x00\x00\x00\x00\x00\x00\x00\x00'
tRp780
sg19
Vcountry_pair->germany,india
p781
sg21
g15
(g17
S'\x00\x00\x00\x00\x00\x00\x00\x00'
tRp782
sa(dp783
g14
g15
(g17
S'\x00\x00\x00\x00\x00\x00\x00\x00'
tRp784
sg19
Vcountry_pair->india,china
p785
sg21
g15
(g17
S'\x00\x00\x00\x00\x00\x00\x00\x00'
tRp786
sa(dp787
g14
g15
(g17
S'\x00\x00\x00\x00\x00\x00\x00\x00'
tRp788
sg19
Vcountry_pair->new zealand,philippines
p789
sg21
g15
(g17
S'\x00\x00\x00\x00\x00\x00\x00\x00'
tRp790
sa(dp791
g14
g15
(g17
S'\x00\x00\x00\x00\x00\x00\x00\x00'
tRp792
sg19
Vcountry_pair->portugal,argentina
p793
sg21
g15
(g17
S'\x00\x00\x00\x00\x00\x00\x00\x00'
tRp794
sa(dp795
g14
g15
(g17
S'\x00\x00\x00\x00\x00\x00\x00\x00'
tRp796
sg19
Vcountry_pair->sri lanka,bangladesh
p797
sg21
g15
(g17
S'\x00\x00\x00\x00\x00\x00\x00\x00'
tRp798
sa(dp799
g14
g15
(g17
S'\x00\x00\x00\x00\x00\x00\x00\x00'
tRp800
sg19
Vcountry_pair->sri lanka,philippines
p801
sg21
g15
(g17
S'\x00\x00\x00\x00\x00\x00\x00\x00'
tRp802
sa(dp803
g14
g15
(g17
S'\x00\x00\x00\x00\x00\x00\x00\x00'
tRp804
sg19
Vcountry_pair->united arab emirates,india
p805
sg21
g15
(g17
S'\x00\x00\x00\x00\x00\x00\x00\x00'
tRp806
sa(dp807
g14
g15
(g17
S'\x00\x00\x00\x00\x00\x00\x00\x00'
tRp808
sg19
Vcountry_pair->united arab emirates,united states
p809
sg21
g15
(g17
S'\x00\x00\x00\x00\x00\x00\x00\x00'
tRp810
sa(dp811
g14
g15
(g17
S'\x00\x00\x00\x00\x00\x00\x00\x00'
tRp812
sg19
Vcountry_pair->united kingdom,bangladesh
p813
sg21
g15
(g17
S'\x00\x00\x00\x00\x00\x00\x00\x00'
tRp814
sa(dp815
g14
g15
(g17
S'\x00\x00\x00\x00\x00\x00\x00\x00'
tRp816
sg19
Vcountry_pair->united kingdom,pakistan
p817
sg21
g15
(g17
S'\x00\x00\x00\x00\x00\x00\x00\x00'
tRp818
sa(dp819
g14
g15
(g17
S'\x00\x00\x00\x00\x00\x00\x00\x00'
tRp820
sg19
Vcountry_pair->united kingdom,sri lanka
p821
sg21
g15
(g17
S'\x00\x00\x00\x00\x00\x00\x00\x00'
tRp822
sa(dp823
g14
g15
(g17
S'\x00\x00\x00\x00\x00\x00\x00\x00'
tRp824
sg19
Vcountry_pair->united states,bangladesh
p825
sg21
g15
(g17
S'\x00\x00\x00\x00\x00\x00\x00\x00'
tRp826
sa(dp827
g14
g15
(g17
S'\x00\x00\x00\x00\x00\x00\x00\x00'
tRp828
sg19
Vcountry_pair->united states,canada
p829
sg21
g15
(g17
S'\x00\x00\x00\x00\x00\x00\x00\x00'
tRp830
sa(dp831
g14
g15
(g17
S'\x00\x00\x00\x00\x00\x00\x00\x00'
tRp832
sg19
Vcountry_pair->united states,china
p833
sg21
g15
(g17
S'\x00\x00\x00\x00\x00\x00\x00\x00'
tRp834
sa(dp835
g14
g15
(g17
S'\x00\x00\x00\x00\x00\x00\x00\x00'
tRp836
sg19
Vcountry_pair->united states,india
p837
sg21
g15
(g17
S'\x00\x00\x00\x00\x00\x00\x00\x00'
tRp838
sa(dp839
g14
g15
(g17
S'\x00\x00\x00\x00\x00\x00\x00\x00'
tRp840
sg19
Vcountry_pair->united states,kenya
p841
sg21
g15
(g17
S'\x00\x00\x00\x00\x00\x00\x00\x00'
tRp842
sa(dp843
g14
g15
(g17
S'\x00\x00\x00\x00\x00\x00\x00\x00'
tRp844
sg19
Vcountry_pair->united states,morocco
p845
sg21
g15
(g17
S'\x00\x00\x00\x00\x00\x00\x00\x00'
tRp846
sa(dp847
g14
g15
(g17
S'\x00\x00\x00\x00\x00\x00\x00\x00'
tRp848
sg19
Vcountry_pair->united states,nepal
p849
sg21
g15
(g17
S'\x00\x00\x00\x00\x00\x00\x00\x00'
tRp850
sa(dp851
g14
g15
(g17
S'\x00\x00\x00\x00\x00\x00\x00\x00'
tRp852
sg19
Vcountry_pair->united states,nigeria
p853
sg21
g15
(g17
S'\x00\x00\x00\x00\x00\x00\x00\x00'
tRp854
sa(dp855
g14
g15
(g17
S'\x00\x00\x00\x00\x00\x00\x00\x00'
tRp856
sg19
Vcountry_pair->united states,pakistan
p857
sg21
g15
(g17
S'\x00\x00\x00\x00\x00\x00\x00\x00'
tRp858
sa(dp859
g14
g15
(g17
S'\x00\x00\x00\x00\x00\x00\x00\x00'
tRp860
sg19
Vcountry_pair->united states,philippines
p861
sg21
g15
(g17
S'\x00\x00\x00\x00\x00\x00\x00\x00'
tRp862
sa(dp863
g14
g15
(g17
S'\x00\x00\x00\x00\x00\x00\x00\x00'
tRp864
sg19
Vcountry_pair->united states,ukraine
p865
sg21
g15
(g17
S'\x00\x00\x00\x00\x00\x00\x00\x00'
tRp866
sa(dp867
g14
g15
(g17
S'\x00\x00\x00\x00\x00\x00\x00\x00'
tRp868
sg19
Vcountry_pair->united states,united states
p869
sg21
g15
(g17
S'\x00\x00\x00\x00\x00\x00\x00\x00'
tRp870
sa(dp871
g14
g15
(g17
S'(\x8c\xee\x0b\xce\x82\xc9?'
tRp872
sg19
Vemployer->op_country_tz
p873
sg21
g15
(g17
S'\x8d\x15J@\xaa\x18\xa1?'
tRp874
sa(dp875
g14
g15
(g17
S'\x00\x00\x00\x00\x00\x00\x00\x00'
tRp876
sg19
Vemployer->op_timezone
p877
sg21
g15
(g17
S'\x00\x00\x00\x00\x00\x00\x00\x00'
tRp878
sa(dp879
g14
g15
(g17
S'\xb3\xbd?A\xbdbS?'
tRp880
sg19
Vemployer->op_tot_jobs_filled
p881
sg21
g15
(g17
S'\xef\x9a\\\xd0\xd4^\x95?'
tRp882
sa(dp883
g14
g15
(g17
S'\x92\x08Wbo\xd7\xb0?'
tRp884
sg19
Vopening_id
p885
sg21
g15
(g17
S'h\xb4+\x7f\xab\x17\xb2?'
tRp886
sa(dp887
g14
g15
(g17
S'\x00\x00\x00\x00\x00\x00\x00\x00'
tRp888
sg19
Vtsexams->3ds Max 7.0 Test
p889
sg21
g15
(g17
S'\x00\x00\x00\x00\x00\x00\x00\x00'
tRp890
sa(dp891
g14
g15
(g17
S'\x00\x00\x00\x00\x00\x00\x00\x00'
tRp892
sg19
Vtsexams->3ds Max 9 Test
p893
sg21
g15
(g17
S'\x00\x00\x00\x00\x00\x00\x00\x00'
tRp894
sa(dp895
g14
g15
(g17
S'\x00\x00\x00\x00\x00\x00\x00\x00'
tRp896
sg19
Vtsexams->ASP.Net 3.5 using C# Test
p897
sg21
g15
(g17
S'\x00\x00\x00\x00\x00\x00\x00\x00'
tRp898
sa(dp899
g14
g15
(g17
S'\x00\x00\x00\x00\x00\x00\x00\x00'
tRp900
sg19
Vtsexams->Accounting Principles Test
p901
sg21
g15
(g17
S'\x00\x00\x00\x00\x00\x00\x00\x00'
tRp902
sa(dp903
g14
g15
(g17
S'\x00\x00\x00\x00\x00\x00\x00\x00'
tRp904
sg19
Vtsexams->Accounting Skills Test (Assets and Revenue)
p905
sg21
g15
(g17
S'\x00\x00\x00\x00\x00\x00\x00\x00'
tRp906
sa(dp907
g14
g15
(g17
S'\x00\x00\x00\x00\x00\x00\x00\x00'
tRp908
sg19
Vtsexams->Accounting Skills Test (Cash Flow)
p909
sg21
g15
(g17
S'\x00\x00\x00\x00\x00\x00\x00\x00'
tRp910
sa(dp911
g14
g15
(g17
S'\x00\x00\x00\x00\x00\x00\x00\x00'
tRp912
sg19
Vtsexams->Accounts Payable Test
p913
sg21
g15
(g17
S'\x00\x00\x00\x00\x00\x00\x00\x00'
tRp914
sa(dp915
g14
g15
(g17
S'\x00\x00\x00\x00\x00\x00\x00\x00'
tRp916
sg19
Vtsexams->Accounts Receivable Test
p917
sg21
g15
(g17
S'\x00\x00\x00\x00\x00\x00\x00\x00'
tRp918
sa(dp919
g14
g15
(g17
S'\x00\x00\x00\x00\x00\x00\x00\x00'
tRp920
sg19
Vtsexams->Adobe After Effects 7.0 Test
p921
sg21
g15
(g17
S'\x00\x00\x00\x00\x00\x00\x00\x00'
tRp922
sa(dp923
g14
g15
(g17
S'\x00\x00\x00\x00\x00\x00\x00\x00'
tRp924
sg19
Vtsexams->Adobe Flex 3.0 Test
p925
sg21
g15
(g17
S'\x00\x00\x00\x00\x00\x00\x00\x00'
tRp926
sa(dp927
g14
g15
(g17
S'\x00\x00\x00\x00\x00\x00\x00\x00'
tRp928
sg19
Vtsexams->Adobe Illustrator CS3 Test
p929
sg21
g15
(g17
S'\x00\x00\x00\x00\x00\x00\x00\x00'
tRp930
sa(dp931
g14
g15
(g17
S'\x00\x00\x00\x00\x00\x00\x00\x00'
tRp932
sg19
Vtsexams->Adobe Illustrator CS4 Test
p933
sg21
g15
(g17
S'\x00\x00\x00\x00\x00\x00\x00\x00'
tRp934
sa(dp935
g14
g15
(g17
S'\x00\x00\x00\x00\x00\x00\x00\x00'
tRp936
sg19
Vtsexams->Adobe Illustrator Test
p937
sg21
g15
(g17
S'\x00\x00\x00\x00\x00\x00\x00\x00'
tRp938
sa(dp939
g14
g15
(g17
S'\x00\x00\x00\x00\x00\x00\x00\x00'
tRp940
sg19
Vtsexams->Adobe Photoshop 6.0
p941
sg21
g15
(g17
S'\x00\x00\x00\x00\x00\x00\x00\x00'
tRp942
sa(dp943
g14
g15
(g17
S'\x00\x00\x00\x00\x00\x00\x00\x00'
tRp944
sg19
Vtsexams->Adobe Photoshop CS3 Test
p945
sg21
g15
(g17
S'\x00\x00\x00\x00\x00\x00\x00\x00'
tRp946
sa(dp947
g14
g15
(g17
S'\x00\x00\x00\x00\x00\x00\x00\x00'
tRp948
sg19
Vtsexams->Adobe Photoshop CS4 Test
p949
sg21
g15
(g17
S'\x00\x00\x00\x00\x00\x00\x00\x00'
tRp950
sa(dp951
g14
g15
(g17
S'\x00\x00\x00\x00\x00\x00\x00\x00'
tRp952
sg19
Vtsexams->Adobe Premiere Test
p953
sg21
g15
(g17
S'\x00\x00\x00\x00\x00\x00\x00\x00'
tRp954
sa(dp955
g14
g15
(g17
S'\x00\x00\x00\x00\x00\x00\x00\x00'
tRp956
sg19
Vtsexams->Advanced PHP Test
p957
sg21
g15
(g17
S'\x00\x00\x00\x00\x00\x00\x00\x00'
tRp958
sa(dp959
g14
g15
(g17
S'\x00\x00\x00\x00\x00\x00\x00\x00'
tRp960
sg19
Vtsexams->Analytical Skills Test
p961
sg21
g15
(g17
S'\x00\x00\x00\x00\x00\x00\x00\x00'
tRp962
sa(dp963
g14
g15
(g17
S'\x00\x00\x00\x00\x00\x00\x00\x00'
tRp964
sg19
Vtsexams->AutoCad 2007 Test
p965
sg21
g15
(g17
S'\x00\x00\x00\x00\x00\x00\x00\x00'
tRp966
sa(dp967
g14
g15
(g17
S'\x00\x00\x00\x00\x00\x00\x00\x00'
tRp968
sg19
Vtsexams->Book keeping Test
p969
sg21
g15
(g17
S'\x00\x00\x00\x00\x00\x00\x00\x00'
tRp970
sa(dp971
g14
g15
(g17
S'\x00\x00\x00\x00\x00\x00\x00\x00'
tRp972
sg19
Vtsexams->Business Mathematics Test
p973
sg21
g15
(g17
S'\x00\x00\x00\x00\x00\x00\x00\x00'
tRp974
sa(dp975
g14
g15
(g17
S'\x00\x00\x00\x00\x00\x00\x00\x00'
tRp976
sg19
Vtsexams->CSS 2.0 Test
p977
sg21
g15
(g17
S'\x00\x00\x00\x00\x00\x00\x00\x00'
tRp978
sa(dp979
g14
g15
(g17
S'\x00\x00\x00\x00\x00\x00\x00\x00'
tRp980
sg19
Vtsexams->CSS 3 Test
p981
sg21
g15
(g17
S'\x00\x00\x00\x00\x00\x00\x00\x00'
tRp982
sa(dp983
g14
g15
(g17
S'%\x97#\xf3\xe1\x99\x8c?'
tRp984
sg19
Vtsexams->Call Center Skills Test
p985
sg21
g15
(g17
S"t\xcc'83\x9a\xa2?"
tRp986
sa(dp987
g14
g15
(g17
S'\x00\x00\x00\x00\x00\x00\x00\x00'
tRp988
sg19
Vtsexams->Chrome Product Test
p989
sg21
g15
(g17
S'\x00\x00\x00\x00\x00\x00\x00\x00'
tRp990
sa(dp991
g14
g15
(g17
S'\x00\x00\x00\x00\x00\x00\x00\x00'
tRp992
sg19
Vtsexams->Cocoa programming for Mac OS X 10.5 Test
p993
sg21
g15
(g17
S'\x00\x00\x00\x00\x00\x00\x00\x00'
tRp994
sa(dp995
g14
g15
(g17
S'\x00\x00\x00\x00\x00\x00\x00\x00'
tRp996
sg19
Vtsexams->Content Writing Skills Test
p997
sg21
g15
(g17
S'\x00\x00\x00\x00\x00\x00\x00\x00'
tRp998
sa(dp999
g14
g15
(g17
S'\x00\x00\x00\x00\x00\x00\x00\x00'
tRp1000
sg19
Vtsexams->Creative Writing Test - Fiction (U.S. Version)
p1001
sg21
g15
(g17
S'\x00\x00\x00\x00\x00\x00\x00\x00'
tRp1002
sa(dp1003
g14
g15
(g17
S'\x00\x00\x00\x00\x00\x00\x00\x00'
tRp1004
sg19
Vtsexams->Creative Writing Test - Non-fiction (U.S. Version)
p1005
sg21
g15
(g17
S'\x00\x00\x00\x00\x00\x00\x00\x00'
tRp1006
sa(dp1007
g14
g15
(g17
S'\x00\x00\x00\x00\x00\x00\x00\x00'
tRp1008
sg19
Vtsexams->Customer Service Test
p1009
sg21
g15
(g17
S'\x00\x00\x00\x00\x00\x00\x00\x00'
tRp1010
sa(dp1011
g14
g15
(g17
S'\x00\x00\x00\x00\x00\x00\x00\x00'
tRp1012
sg19
Vtsexams->Dreamweaver 8 Test
p1013
sg21
g15
(g17
S'\x00\x00\x00\x00\x00\x00\x00\x00'
tRp1014
sa(dp1015
g14
g15
(g17
S'\x00\x00\x00\x00\x00\x00\x00\x00'
tRp1016
sg19
Vtsexams->Drupal 6.14 Test
p1017
sg21
g15
(g17
S'\x00\x00\x00\x00\x00\x00\x00\x00'
tRp1018
sa(dp1019
g14
g15
(g17
S'\x00\x00\x00\x00\x00\x00\x00\x00'
tRp1020
sg19
Vtsexams->Email Etiquette Certification
p1021
sg21
g15
(g17
S'\x00\x00\x00\x00\x00\x00\x00\x00'
tRp1022
sa(dp1023
g14
g15
(g17
S'\x00\x00\x00\x00\x00\x00\x00\x00'
tRp1024
sg19
Vtsexams->English Spelling Test (U.S. Version)
p1025
sg21
g15
(g17
S'\x00\x00\x00\x00\x00\x00\x00\x00'
tRp1026
sa(dp1027
g14
g15
(g17
S'\x00\x00\x00\x00\x00\x00\x00\x00'
tRp1028
sg19
Vtsexams->English Spelling Test (UK Version)
p1029
sg21
g15
(g17
S'\x00\x00\x00\x00\x00\x00\x00\x00'
tRp1030
sa(dp1031
g14
g15
(g17
S'\x00\x00\x00\x00\x00\x00\x00\x00'
tRp1032
sg19
Vtsexams->English To French Translation Skills Test
p1033
sg21
g15
(g17
S'\x00\x00\x00\x00\x00\x00\x00\x00'
tRp1034
sa(dp1035
g14
g15
(g17
S'\x00\x00\x00\x00\x00\x00\x00\x00'
tRp1036
sg19
Vtsexams->English To Russian Translation Skills Test
p1037
sg21
g15
(g17
S'\x00\x00\x00\x00\x00\x00\x00\x00'
tRp1038
sa(dp1039
g14
g15
(g17
S'\x00\x00\x00\x00\x00\x00\x00\x00'
tRp1040
sg19
Vtsexams->English To Tagalog (Filipino) Translation Skills Test
p1041
sg21
g15
(g17
S'\x00\x00\x00\x00\x00\x00\x00\x00'
tRp1042
sa(dp1043
g14
g15
(g17
S'\x00\x00\x00\x00\x00\x00\x00\x00'
tRp1044
sg19
Vtsexams->English Vocabulary Test (U.S. Version)
p1045
sg21
g15
(g17
S'\x00\x00\x00\x00\x00\x00\x00\x00'
tRp1046
sa(dp1047
g14
g15
(g17
S'\x00\x00\x00\x00\x00\x00\x00\x00'
tRp1048
sg19
Vtsexams->English Vocabulary Test (UK Version)
p1049
sg21
g15
(g17
S'\x00\x00\x00\x00\x00\x00\x00\x00'
tRp1050
sa(dp1051
g14
g15
(g17
S'\x00\x00\x00\x00\x00\x00\x00\x00'
tRp1052
sg19
Vtsexams->Facebook Connect Test
p1053
sg21
g15
(g17
S'\x00\x00\x00\x00\x00\x00\x00\x00'
tRp1054
sa(dp1055
g14
g15
(g17
S'\x00\x00\x00\x00\x00\x00\x00\x00'
tRp1056
sg19
Vtsexams->French Spelling Skills Test
p1057
sg21
g15
(g17
S'\x00\x00\x00\x00\x00\x00\x00\x00'
tRp1058
sa(dp1059
g14
g15
(g17
S'\x00\x00\x00\x00\x00\x00\x00\x00'
tRp1060
sg19
Vtsexams->French To English Translation Skills Test
p1061
sg21
g15
(g17
S'\x00\x00\x00\x00\x00\x00\x00\x00'
tRp1062
sa(dp1063
g14
g15
(g17
S'\x00\x00\x00\x00\x00\x00\x00\x00'
tRp1064
sg19
Vtsexams->Generally Accepted Accounting Principles (GAAP) Test
p1065
sg21
g15
(g17
S'\x00\x00\x00\x00\x00\x00\x00\x00'
tRp1066
sa(dp1067
g14
g15
(g17
S'\x00\x00\x00\x00\x00\x00\x00\x00'
tRp1068
sg19
Vtsexams->Gmail Product Test
p1069
sg21
g15
(g17
S'\x00\x00\x00\x00\x00\x00\x00\x00'
tRp1070
sa(dp1071
g14
g15
(g17
S'\x00\x00\x00\x00\x00\x00\x00\x00'
tRp1072
sg19
Vtsexams->Google AdWords Test
p1073
sg21
g15
(g17
S'\x00\x00\x00\x00\x00\x00\x00\x00'
tRp1074
sa(dp1075
g14
g15
(g17
S'\x00\x00\x00\x00\x00\x00\x00\x00'
tRp1076
sg19
Vtsexams->Google Android Programming Test
p1077
sg21
g15
(g17
S'\x00\x00\x00\x00\x00\x00\x00\x00'
tRp1078
sa(dp1079
g14
g15
(g17
S'\x00\x00\x00\x00\x00\x00\x00\x00'
tRp1080
sg19
Vtsexams->HTML 4.01 Test
p1081
sg21
g15
(g17
S'\x00\x00\x00\x00\x00\x00\x00\x00'
tRp1082
sa(dp1083
g14
g15
(g17
S'\x00\x00\x00\x00\x00\x00\x00\x00'
tRp1084
sg19
Vtsexams->HTML 5 Test
p1085
sg21
g15
(g17
S'\x00\x00\x00\x00\x00\x00\x00\x00'
tRp1086
sa(dp1087
g14
g15
(g17
S'\x00\x00\x00\x00\x00\x00\x00\x00'
tRp1088
sg19
Vtsexams->Help Desk Certification
p1089
sg21
g15
(g17
S'\x00\x00\x00\x00\x00\x00\x00\x00'
tRp1090
sa(dp1091
g14
g15
(g17
S'\x00\x00\x00\x00\x00\x00\x00\x00'
tRp1092
sg19
Vtsexams->Hospitality Terminology Test
p1093
sg21
g15
(g17
S'\x00\x00\x00\x00\x00\x00\x00\x00'
tRp1094
sa(dp1095
g14
g15
(g17
S'\x00\x00\x00\x00\x00\x00\x00\x00'
tRp1096
sg19
Vtsexams->Internet Marketing Test
p1097
sg21
g15
(g17
S'\x00\x00\x00\x00\x00\x00\x00\x00'
tRp1098
sa(dp1099
g14
g15
(g17
S'\x00\x00\x00\x00\x00\x00\x00\x00'
tRp1100
sg19
Vtsexams->JSON Test
p1101
sg21
g15
(g17
S'\x00\x00\x00\x00\x00\x00\x00\x00'
tRp1102
sa(dp1103
g14
g15
(g17
S'\x00\x00\x00\x00\x00\x00\x00\x00'
tRp1104
sg19
Vtsexams->JSP 2.0 Test
p1105
sg21
g15
(g17
S'\x00\x00\x00\x00\x00\x00\x00\x00'
tRp1106
sa(dp1107
g14
g15
(g17
S'\x00\x00\x00\x00\x00\x00\x00\x00'
tRp1108
sg19
Vtsexams->Java Test
p1109
sg21
g15
(g17
S'\x00\x00\x00\x00\x00\x00\x00\x00'
tRp1110
sa(dp1111
g14
g15
(g17
S'\x00\x00\x00\x00\x00\x00\x00\x00'
tRp1112
sg19
Vtsexams->JavaScript 1.3 Test
p1113
sg21
g15
(g17
S'\x00\x00\x00\x00\x00\x00\x00\x00'
tRp1114
sa(dp1115
g14
g15
(g17
S'\x00\x00\x00\x00\x00\x00\x00\x00'
tRp1116
sg19
Vtsexams->JavaScript 1.8 Test
p1117
sg21
g15
(g17
S'\x00\x00\x00\x00\x00\x00\x00\x00'
tRp1118
sa(dp1119
g14
g15
(g17
S'\x00\x00\x00\x00\x00\x00\x00\x00'
tRp1120
sg19
Vtsexams->Joomla 1.5 Test
p1121
sg21
g15
(g17
S'\x00\x00\x00\x00\x00\x00\x00\x00'
tRp1122
sa(dp1123
g14
g15
(g17
S'\x00\x00\x00\x00\x00\x00\x00\x00'
tRp1124
sg19
Vtsexams->Knowledge of Microsoft Silverlight Skills Test
p1125
sg21
g15
(g17
S'\x00\x00\x00\x00\x00\x00\x00\x00'
tRp1126
sa(dp1127
g14
g15
(g17
S'\x00\x00\x00\x00\x00\x00\x00\x00'
tRp1128
sg19
Vtsexams->Knowledge of Windows 7 Skills Test
p1129
sg21
g15
(g17
S'\x00\x00\x00\x00\x00\x00\x00\x00'
tRp1130
sa(dp1131
g14
g15
(g17
S'\x00\x00\x00\x00\x00\x00\x00\x00'
tRp1132
sg19
Vtsexams->Knowledge of jQuery 1.3.2 Skills Test
p1133
sg21
g15
(g17
S'\x00\x00\x00\x00\x00\x00\x00\x00'
tRp1134
sa(dp1135
g14
g15
(g17
S'\x00\x00\x00\x00\x00\x00\x00\x00'
tRp1136
sg19
Vtsexams->MS Excel 2003 Test
p1137
sg21
g15
(g17
S'\x00\x00\x00\x00\x00\x00\x00\x00'
tRp1138
sa(dp1139
g14
g15
(g17
S'\x00\x00\x00\x00\x00\x00\x00\x00'
tRp1140
sg19
Vtsexams->MS Excel 2007 Test
p1141
sg21
g15
(g17
S'\x00\x00\x00\x00\x00\x00\x00\x00'
tRp1142
sa(dp1143
g14
g15
(g17
S'\x00\x00\x00\x00\x00\x00\x00\x00'
tRp1144
sg19
Vtsexams->MS PowerPoint 2007 Test
p1145
sg21
g15
(g17
S'\x00\x00\x00\x00\x00\x00\x00\x00'
tRp1146
sa(dp1147
g14
g15
(g17
S'\x00\x00\x00\x00\x00\x00\x00\x00'
tRp1148
sg19
Vtsexams->MS Word 2003 Test
p1149
sg21
g15
(g17
S'\x00\x00\x00\x00\x00\x00\x00\x00'
tRp1150
sa(dp1151
g14
g15
(g17
S'\x00\x00\x00\x00\x00\x00\x00\x00'
tRp1152
sg19
Vtsexams->MS Word 2007 Test
p1153
sg21
g15
(g17
S'\x00\x00\x00\x00\x00\x00\x00\x00'
tRp1154
sa(dp1155
g14
g15
(g17
S'\x00\x00\x00\x00\x00\x00\x00\x00'
tRp1156
sg19
Vtsexams->Magento eCommerce Test
p1157
sg21
g15
(g17
S'\x00\x00\x00\x00\x00\x00\x00\x00'
tRp1158
sa(dp1159
g14
g15
(g17
S'\x00\x00\x00\x00\x00\x00\x00\x00'
tRp1160
sg19
Vtsexams->Management Skills Test
p1161
sg21
g15
(g17
S'\x00\x00\x00\x00\x00\x00\x00\x00'
tRp1162
sa(dp1163
g14
g15
(g17
S'\x00\x00\x00\x00\x00\x00\x00\x00'
tRp1164
sg19
Vtsexams->Maya 7.0 Test
p1165
sg21
g15
(g17
S'\x00\x00\x00\x00\x00\x00\x00\x00'
tRp1166
sa(dp1167
g14
g15
(g17
S'\x00\x00\x00\x00\x00\x00\x00\x00'
tRp1168
sg19
Vtsexams->Medical Billing Certification
p1169
sg21
g15
(g17
S'\x00\x00\x00\x00\x00\x00\x00\x00'
tRp1170
sa(dp1171
g14
g15
(g17
S'\x00\x00\x00\x00\x00\x00\x00\x00'
tRp1172
sg19
Vtsexams->Microsoft Excel 2010 Test
p1173
sg21
g15
(g17
S'\x00\x00\x00\x00\x00\x00\x00\x00'
tRp1174
sa(dp1175
g14
g15
(g17
S'\x00\x00\x00\x00\x00\x00\x00\x00'
tRp1176
sg19
Vtsexams->MySQL 5.0 Test
p1177
sg21
g15
(g17
S'\x00\x00\x00\x00\x00\x00\x00\x00'
tRp1178
sa(dp1179
g14
g15
(g17
S'\x00\x00\x00\x00\x00\x00\x00\x00'
tRp1180
sg19
Vtsexams->Networking Concepts Test
p1181
sg21
g15
(g17
S'\x00\x00\x00\x00\x00\x00\x00\x00'
tRp1182
sa(dp1183
g14
g15
(g17
S'\x00\x00\x00\x00\x00\x00\x00\x00'
tRp1184
sg19
Vtsexams->Objective C Test
p1185
sg21
g15
(g17
S'\x00\x00\x00\x00\x00\x00\x00\x00'
tRp1186
sa(dp1187
g14
g15
(g17
S'\x00\x00\x00\x00\x00\x00\x00\x00'
tRp1188
sg19
Vtsexams->Office Skills Test
p1189
sg21
g15
(g17
S'\x00\x00\x00\x00\x00\x00\x00\x00'
tRp1190
sa(dp1191
g14
g15
(g17
S'\x00\x00\x00\x00\x00\x00\x00\x00'
tRp1192
sg19
Vtsexams->Online Article Writing and Blogging Test (U.S. Version)
p1193
sg21
g15
(g17
S'\x00\x00\x00\x00\x00\x00\x00\x00'
tRp1194
sa(dp1195
g14
g15
(g17
S'\x00\x00\x00\x00\x00\x00\x00\x00'
tRp1196
sg19
Vtsexams->Organizational Behavior Test
p1197
sg21
g15
(g17
S'\x00\x00\x00\x00\x00\x00\x00\x00'
tRp1198
sa(dp1199
g14
g15
(g17
S'\x00\x00\x00\x00\x00\x00\x00\x00'
tRp1200
sg19
Vtsexams->Outbound Sales Skills Test
p1201
sg21
g15
(g17
S'\x00\x00\x00\x00\x00\x00\x00\x00'
tRp1202
sa(dp1203
g14
g15
(g17
S'\x00\x00\x00\x00\x00\x00\x00\x00'
tRp1204
sg19
Vtsexams->PC Graphics Test
p1205
sg21
g15
(g17
S'\x00\x00\x00\x00\x00\x00\x00\x00'
tRp1206
sa(dp1207
g14
g15
(g17
S'\x00\x00\x00\x00\x00\x00\x00\x00'
tRp1208
sg19
Vtsexams->PHP4 Test
p1209
sg21
g15
(g17
S'\x00\x00\x00\x00\x00\x00\x00\x00'
tRp1210
sa(dp1211
g14
g15
(g17
S'\x00\x00\x00\x00\x00\x00\x00\x00'
tRp1212
sg19
Vtsexams->PHP5 Test
p1213
sg21
g15
(g17
S'\x00\x00\x00\x00\x00\x00\x00\x00'
tRp1214
sa(dp1215
g14
g15
(g17
S'\x00\x00\x00\x00\x00\x00\x00\x00'
tRp1216
sg19
Vtsexams->Perl 5 Test
p1217
sg21
g15
(g17
S'\x00\x00\x00\x00\x00\x00\x00\x00'
tRp1218
sa(dp1219
g14
g15
(g17
S'\x00\x00\x00\x00\x00\x00\x00\x00'
tRp1220
sg19
Vtsexams->Principles of  Web Graphics Design Test
p1221
sg21
g15
(g17
S'\x00\x00\x00\x00\x00\x00\x00\x00'
tRp1222
sa(dp1223
g14
g15
(g17
S'\x00\x00\x00\x00\x00\x00\x00\x00'
tRp1224
sg19
Vtsexams->Programming with C++ Test
p1225
sg21
g15
(g17
S'\x00\x00\x00\x00\x00\x00\x00\x00'
tRp1226
sa(dp1227
g14
g15
(g17
S'\x00\x00\x00\x00\x00\x00\x00\x00'
tRp1228
sg19
Vtsexams->Python 2.x Test
p1229
sg21
g15
(g17
S'\x00\x00\x00\x00\x00\x00\x00\x00'
tRp1230
sa(dp1231
g14
g15
(g17
S'\x00\x00\x00\x00\x00\x00\x00\x00'
tRp1232
sg19
Vtsexams->Quick Books Pro 2008 Test
p1233
sg21
g15
(g17
S'\x00\x00\x00\x00\x00\x00\x00\x00'
tRp1234
sa(dp1235
g14
g15
(g17
S'\x00\x00\x00\x00\x00\x00\x00\x00'
tRp1236
sg19
Vtsexams->Report Writing Test
p1237
sg21
g15
(g17
S'\x00\x00\x00\x00\x00\x00\x00\x00'
tRp1238
sa(dp1239
g14
g15
(g17
S'\x00\x00\x00\x00\x00\x00\x00\x00'
tRp1240
sg19
Vtsexams->Resume Writing Skills Test
p1241
sg21
g15
(g17
S'\x00\x00\x00\x00\x00\x00\x00\x00'
tRp1242
sa(dp1243
g14
g15
(g17
S'\x00\x00\x00\x00\x00\x00\x00\x00'
tRp1244
sg19
Vtsexams->Ruby on Rails  2.3 Test
p1245
sg21
g15
(g17
S'\x00\x00\x00\x00\x00\x00\x00\x00'
tRp1246
sa(dp1247
g14
g15
(g17
S'\x00\x00\x00\x00\x00\x00\x00\x00'
tRp1248
sg19
Vtsexams->Ruby on Rails Test
p1249
sg21
g15
(g17
S'\x00\x00\x00\x00\x00\x00\x00\x00'
tRp1250
sa(dp1251
g14
g15
(g17
S'\x00\x00\x00\x00\x00\x00\x00\x00'
tRp1252
sg19
Vtsexams->SQL Test
p1253
sg21
g15
(g17
S'\x00\x00\x00\x00\x00\x00\x00\x00'
tRp1254
sa(dp1255
g14
g15
(g17
S'\x00\x00\x00\x00\x00\x00\x00\x00'
tRp1256
sg19
Vtsexams->Search Engine Optimization Test
p1257
sg21
g15
(g17
S'\x00\x00\x00\x00\x00\x00\x00\x00'
tRp1258
sa(dp1259
g14
g15
(g17
S'\x00\x00\x00\x00\x00\x00\x00\x00'
tRp1260
sg19
Vtsexams->Slideshow Product Test
p1261
sg21
g15
(g17
S'\x00\x00\x00\x00\x00\x00\x00\x00'
tRp1262
sa(dp1263
g14
g15
(g17
S'\x00\x00\x00\x00\x00\x00\x00\x00'
tRp1264
sg19
Vtsexams->Social Media Marketing Test
p1265
sg21
g15
(g17
S'\x00\x00\x00\x00\x00\x00\x00\x00'
tRp1266
sa(dp1267
g14
g15
(g17
S'\x00\x00\x00\x00\x00\x00\x00\x00'
tRp1268
sg19
Vtsexams->Software Testing Test
p1269
sg21
g15
(g17
S'\x00\x00\x00\x00\x00\x00\x00\x00'
tRp1270
sa(dp1271
g14
g15
(g17
S'\x00\x00\x00\x00\x00\x00\x00\x00'
tRp1272
sg19
Vtsexams->Spanish To English Translation Skills Test
p1273
sg21
g15
(g17
S'\x00\x00\x00\x00\x00\x00\x00\x00'
tRp1274
sa(dp1275
g14
g15
(g17
S'\x00\x00\x00\x00\x00\x00\x00\x00'
tRp1276
sg19
Vtsexams->Technical Writing Skills Certification
p1277
sg21
g15
(g17
S'\x00\x00\x00\x00\x00\x00\x00\x00'
tRp1278
sa(dp1279
g14
g15
(g17
S'\x00\x00\x00\x00\x00\x00\x00\x00'
tRp1280
sg19
Vtsexams->Telephone Etiquette Certification
p1281
sg21
g15
(g17
S'\x00\x00\x00\x00\x00\x00\x00\x00'
tRp1282
sa(dp1283
g14
g15
(g17
S'\x00\x00\x00\x00\x00\x00\x00\x00'
tRp1284
sg19
Vtsexams->U.S. English Basic Skills Test
p1285
sg21
g15
(g17
S'\x00\x00\x00\x00\x00\x00\x00\x00'
tRp1286
sa(dp1287
g14
g15
(g17
S'\x00\x00\x00\x00\x00\x00\x00\x00'
tRp1288
sg19
Vtsexams->U.S. English Chicago Style Editing Skills Test (For Writing Professionals)
p1289
sg21
g15
(g17
S'\x00\x00\x00\x00\x00\x00\x00\x00'
tRp1290
sa(dp1291
g14
g15
(g17
S'\x00\x00\x00\x00\x00\x00\x00\x00'
tRp1292
sg19
Vtsexams->U.S. English Punctuation and Mechanics Test
p1293
sg21
g15
(g17
S'\x00\x00\x00\x00\x00\x00\x00\x00'
tRp1294
sa(dp1295
g14
g15
(g17
S'\x00\x00\x00\x00\x00\x00\x00\x00'
tRp1296
sg19
Vtsexams->U.S. English Sentence Structure Test (For Writing Professionals)
p1297
sg21
g15
(g17
S'\x00\x00\x00\x00\x00\x00\x00\x00'
tRp1298
sa(dp1299
g14
g15
(g17
S'\x00\x00\x00\x00\x00\x00\x00\x00'
tRp1300
sg19
Vtsexams->U.S. Word Usage Test
p1301
sg21
g15
(g17
S'\x00\x00\x00\x00\x00\x00\x00\x00'
tRp1302
sa(dp1303
g14
g15
(g17
S'\x00\x00\x00\x00\x00\x00\x00\x00'
tRp1304
sg19
Vtsexams->UK English Basic Skills Test
p1305
sg21
g15
(g17
S'\x00\x00\x00\x00\x00\x00\x00\x00'
tRp1306
sa(dp1307
g14
g15
(g17
S'\x00\x00\x00\x00\x00\x00\x00\x00'
tRp1308
sg19
Vtsexams->UK English Grammar Test (For Writing Professionals)
p1309
sg21
g15
(g17
S'\x00\x00\x00\x00\x00\x00\x00\x00'
tRp1310
sa(dp1311
g14
g15
(g17
S'\x00\x00\x00\x00\x00\x00\x00\x00'
tRp1312
sg19
Vtsexams->Windows XP Test
p1313
sg21
g15
(g17
S'\x00\x00\x00\x00\x00\x00\x00\x00'
tRp1314
sa(dp1315
g14
g15
(g17
S'\x00\x00\x00\x00\x00\x00\x00\x00'
tRp1316
sg19
Vtsexams->WordPress 2.8 Test
p1317
sg21
g15
(g17
S'\x00\x00\x00\x00\x00\x00\x00\x00'
tRp1318
sa(dp1319
g14
g15
(g17
S'\x00\x00\x00\x00\x00\x00\x00\x00'
tRp1320
sg19
Vtsexams->Wordpress Test
p1321
sg21
g15
(g17
S'\x00\x00\x00\x00\x00\x00\x00\x00'
tRp1322
sa(dp1323
g14
g15
(g17
S'\x00\x00\x00\x00\x00\x00\x00\x00'
tRp1324
sg19
Vtsexams->XHTML 1.0 Test
p1325
sg21
g15
(g17
S'\x00\x00\x00\x00\x00\x00\x00\x00'
tRp1326
sa(dp1327
g14
g15
(g17
S'\x00\x00\x00\x00\x00\x00\x00\x00'
tRp1328
sg19
Vtsexams->XML 1.0 Test
p1329
sg21
g15
(g17
S'\x00\x00\x00\x00\x00\x00\x00\x00'
tRp1330
sa(dp1331
g14
g15
(g17
S'\x00\x00\x00\x00\x00\x00\x00\x00'
tRp1332
sg19
Vtsexams->iPhone Programming OS 2.1 Test
p1333
sg21
g15
(g17
S'\x00\x00\x00\x00\x00\x00\x00\x00'
tRp1334
sa(dp1335
g14
g15
(g17
S'\x00\x00\x00\x00\x00\x00\x00\x00'
tRp1336
sg19
Vtsexams->iPhone Programming OS 4.0 Test
p1337
sg21
g15
(g17
S'\x00\x00\x00\x00\x00\x00\x00\x00'
tRp1338
sa(dp1339
g14
g15
(g17
S'\x00\x00\x00\x00\x00\x00\x00\x00'
tRp1340
sg19
Vtsexams->oDesk Readiness Test for Affiliated Contractors
p1341
sg21
g15
(g17
S'\x00\x00\x00\x00\x00\x00\x00\x00'
tRp1342
sa(dp1343
g14
g15
(g17
S'\x00\x00\x00\x00\x00\x00\x00\x00'
tRp1344
sg19
Vtsexams->oDesk Readiness Test for Agency Contractors
p1345
sg21
g15
(g17
S'\x00\x00\x00\x00\x00\x00\x00\x00'
tRp1346
sa(dp1347
g14
g15
(g17
S'\x00\x00\x00\x00\x00\x00\x00\x00'
tRp1348
sg19
Vtsexams->oDesk Readiness Test for Independent Contractors and Company Managers
p1349
sg21
g15
(g17
S'\x00\x00\x00\x00\x00\x00\x00\x00'
tRp1350
sa(dp1351
g14
g15
(g17
S'\x00\x00\x00\x00\x00\x00\x00\x00'
tRp1352
sg19
Vtsexams->oDesk Readiness Test for Independent Contractors and Staffing Managers
p1353
sg21
g15
(g17
S'\x00\x00\x00\x00\x00\x00\x00\x00'
tRp1354
sassS'parameters'
p1355
(dp1356
S'deep'
p1357
I10
ssS'weights'
p1358
(dp1359
I1
(dp1360
S'positive'
p1361
(lp1362
g983
ag883
ag879
ag871
ag707
ag651
ag635
ag627
ag527
ag475
ag443
ag395
ag379
ag367
ag359
ag271
ag259
ag251
ag239
ag199
ag163
ag51
ag43
ag13
asS'negative'
p1363
(lp1364
g23
ag27
ag31
ag39
ag35
ag47
ag55
ag59
ag63
ag67
ag71
ag75
ag79
ag83
ag87
ag91
ag95
ag99
ag103
ag107
ag111
ag115
ag119
ag123
ag127
ag131
ag135
ag139
ag143
ag147
ag151
ag155
ag159
ag167
ag171
ag175
ag179
ag183
ag187
ag191
ag195
ag203
ag207
ag211
ag215
ag219
ag223
ag227
ag231
ag235
ag243
ag247
ag255
ag263
ag267
ag275
ag279
ag283
ag287
ag291
ag295
ag299
ag303
ag307
ag311
ag315
ag319
ag323
ag327
ag331
ag335
ag339
ag343
ag347
ag351
ag355
ag363
ag371
ag375
ag383
ag387
ag391
ag399
ag403
ag407
ag411
ag415
ag419
ag423
ag427
ag431
ag435
ag439
ag447
ag451
ag455
ag459
ag463
ag467
ag471
ag479
ag483
ag487
ag491
ag495
ag499
ag503
ag507
ag511
ag515
ag519
ag523
ag531
ag535
ag539
ag543
ag547
ag551
ag555
ag559
ag563
ag567
ag571
ag575
ag579
ag583
ag587
ag591
ag595
ag599
ag603
ag607
ag611
ag615
ag619
ag623
ag631
ag639
ag643
ag647
ag655
ag659
ag663
ag667
ag671
ag675
ag679
ag683
ag687
ag691
ag695
ag699
ag703
ag719
ag723
ag711
ag715
ag727
ag731
ag735
ag739
ag743
ag747
ag751
ag755
ag759
ag763
ag767
ag771
ag775
ag779
ag783
ag787
ag791
ag795
ag799
ag803
ag807
ag811
ag815
ag819
ag823
ag827
ag831
ag835
ag839
ag843
ag847
ag851
ag855
ag859
ag863
ag867
ag875
ag887
ag891
ag895
ag899
ag903
ag907
ag911
ag915
ag919
ag923
ag927
ag931
ag935
ag939
ag943
ag947
ag951
ag955
ag959
ag963
ag967
ag971
ag975
ag979
ag987
ag991
ag995
ag999
ag1003
ag1007
ag1011
ag1015
ag1019
ag1023
ag1027
ag1031
ag1035
ag1039
ag1043
ag1047
ag1051
ag1055
ag1059
ag1063
ag1067
ag1071
ag1075
ag1079
ag1083
ag1087
ag1091
ag1095
ag1099
ag1103
ag1107
ag1111
ag1115
ag1119
ag1123
ag1127
ag1131
ag1135
ag1139
ag1143
ag1147
ag1151
ag1155
ag1159
ag1163
ag1167
ag1171
ag1175
ag1179
ag1183
ag1187
ag1191
ag1195
ag1199
ag1203
ag1207
ag1211
ag1215
ag1219
ag1223
ag1227
ag1231
ag1235
ag1239
ag1243
ag1247
ag1251
ag1255
ag1259
ag1263
ag1267
ag1271
ag1275
ag1279
ag1283
ag1287
ag1291
ag1295
ag1299
ag1303
ag1307
ag1311
ag1315
ag1319
ag1323
ag1327
ag1331
ag1335
ag1339
ag1343
ag1347
ag1351
asssS'classifier_type'
p1365
Vdecision tree classifier
p1366
sS'tree'
p1367
(dp1368
S'children'
p1369
(lp1370
(dp1371
g1369
(lp1372
(dp1373
g1369
(lp1374
(dp1375
g1369
(lp1376
(dp1377
g1369
(lp1378
(dp1379
g1369
(lp1380
(dp1381
g1369
(lp1382
(dp1383
g1369
(lp1384
(dp1385
g1369
(lp1386
(dp1387
g1369
(lp1388
sS'node_type'
p1389
S'branch'
p1390
sS'impurity'
p1391
F0.48609999999999998
sS'samples'
p1392
I12
sS'type'
p1393
S'yes'
p1394
sS'id'
p1395
S'9'
sS'rule'
p1396
g369
sg19
Vcontractor->dev_blurb->time <= 0.0869
p1397
sa(dp1398
g1369
(lp1399
sg1389
g1390
sg1391
F0.13270000000000001
sg1392
I14
sg1393
S'no'
p1400
sg1395
S'16'
p1401
sg1396
g241
sg19
Vcontractor->dev_blurb->marketing <= 0.1284
p1402
sasg1389
g1390
sg1391
F0.42599999999999999
sg1392
I26
sg1393
g1394
sg1395
S'8'
sg1396
g885
sg19
Vopening_id <= 0.9968
p1403
sa(dp1404
g1391
g15
(g17
S'\x00\x00\x00\x00\x00\x00\x00\x00'
tRp1405
sS'value'
p1406
(lp1407
F0
aF2
asg1389
S'leaf'
p1408
sS'criterion'
p1409
g1391
sg1392
I2
sg1393
g1400
sg1395
S'21'
p1410
sasg1389
g1390
sg1391
F0.4592
sg1392
I28
sg1393
g1394
sg1395
S'7'
sg1396
g637
sg19
Vcontractor->dev_profile_title->software <= 0.3451
p1411
sa(dp1412
g1369
(lp1413
(dp1414
g1391
g15
(g17
S'\x00\x00\x00\x00\x00\x00\x00\x00'
tRp1415
sg1406
(lp1416
F12
aF0
asg1389
g1408
sg1409
g1391
sg1392
I12
sg1393
g1394
sg1395
S'23'
p1417
sa(dp1418
g1391
g15
(g17
S'\x00\x00\x00\x00\x00\x00\x00\x00'
tRp1419
sg1406
(lp1420
F0
aF1
asg1389
g1408
sg1409
g1391
sg1392
I1
sg1393
g1400
sg1395
S'24'
p1421
sasg1389
g1390
sg1391
F0.14199999999999999
sg1392
I13
sg1393
g1400
sg1395
S'22'
p1422
sg1396
g381
sg19
Vcontractor->dev_blurb->using <= 0.3612
p1423
sasg1389
g1390
sg1391
F0.3926
sg1392
I41
sg1393
g1394
sg1395
S'6'
sg1396
g165
sg19
Vcontractor->dev_blurb->experience <= 0.0947
p1424
sa(dp1425
g1369
(lp1426
(dp1427
g1391
g15
(g17
S'\x00\x00\x00\x00\x00\x00\x00\x00'
tRp1428
sg1406
(lp1429
F0
aF4
asg1389
g1408
sg1409
g1391
sg1392
I4
sg1393
g1394
sg1395
S'26'
p1430
sa(dp1431
g1391
g15
(g17
S'\x00\x00\x00\x00\x00\x00\x00\x00'
tRp1432
sg1406
(lp1433
F1
aF0
asg1389
g1408
sg1409
g1391
sg1392
I1
sg1393
g1400
sg1395
S'27'
p1434
sasg1389
g1390
sg1391
F0.32000000000000001
sg1392
I5
sg1393
g1400
sg1395
S'25'
p1435
sg1396
g653
sg19
Vcontractor->dev_profile_title->web <= 0.3889
p1436
sasg1389
g1390
sg1391
F0.4395
sg1392
I46
sg1393
g1394
sg1395
S'5'
sg1396
g45
sg19
Vcontractor->dev_blurb->all <= 0.1474
p1437
sa(dp1438
g1391
g15
(g17
S'\x00\x00\x00\x00\x00\x00\x00\x00'
tRp1439
sg1406
(lp1440
F0
aF2
asg1389
g1408
sg1409
g1391
sg1392
I2
sg1393
g1400
sg1395
S'28'
p1441
sasg1389
g1390
sg1391
F0.45750000000000002
sg1392
I48
sg1393
g1394
sg1395
S'4'
sg1396
g985
sg19
Vtsexams->Call Center Skills Test <= 2.0000
p1442
sa(dp1443
g1391
g15
(g17
S'\x00\x00\x00\x00\x00\x00\x00\x00'
tRp1444
sg1406
(lp1445
F0
aF4
asg1389
g1408
sg1409
g1391
sg1392
I4
sg1393
g1400
sg1395
S'29'
p1446
sasg1389
g1390
sg1391
F0.48149999999999998
sg1392
I52
sg1393
g1394
sg1395
S'3'
sg1396
g445
sg19
Vcontractor->dev_blurb->you <= 0.1912
p1447
sa(dp1448
g1369
(lp1449
(dp1450
g1391
g15
(g17
S'\x00\x00\x00\x00\x00\x00\x00\x00'
tRp1451
sg1406
(lp1452
F0
aF4
asg1389
g1408
sg1409
g1391
sg1392
I4
sg1393
g1394
sg1395
S'31'
p1453
sa(dp1454
g1391
g15
(g17
S'\x00\x00\x00\x00\x00\x00\x00\x00'
tRp1455
sg1406
(lp1456
F1
aF0
asg1389
g1408
sg1409
g1391
sg1392
I1
sg1393
g1400
sg1395
S'32'
p1457
sasg1389
g1390
sg1391
F0.32000000000000001
sg1392
I5
sg1393
g1400
sg1395
S'30'
p1458
sg1396
g873
sg19
Vemployer->op_country_tz <= 7.5000
p1459
sasg1389
g1390
sg1391
F0.49249999999999999
sg1392
I57
sg1393
g1394
sg1395
S'2'
sg1396
g201
sg19
Vcontractor->dev_blurb->if <= 0.0604
p1460
sa(dp1461
g1369
(lp1462
(dp1463
g1369
(lp1464
(dp1465
g1369
(lp1466
(dp1467
g1369
(lp1468
(dp1469
g1391
g15
(g17
S'\x00\x00\x00\x00\x00\x00\x00\x00'
tRp1470
sg1406
(lp1471
F0
aF21
asg1389
g1408
sg1409
g1391
sg1392
I21
sg1393
g1394
sg1395
S'37'
p1472
sa(dp1473
g1391
g15
(g17
S'\x00\x00\x00\x00\x00\x00\x00\x00'
tRp1474
sg1406
(lp1475
F1
aF0
asg1389
g1408
sg1409
g1391
sg1392
I1
sg1393
g1400
sg1395
S'38'
p1476
sasg1389
g1390
sg1391
F0.086800000000000002
sg1392
I22
sg1393
g1394
sg1395
S'36'
p1477
sg1396
g629
sg19
Vcontractor->dev_profile_title->service <= 0.6043
p1478
sa(dp1479
g1391
g15
(g17
S'\x00\x00\x00\x00\x00\x00\x00\x00'
tRp1480
sg1406
(lp1481
F1
aF0
asg1389
g1408
sg1409
g1391
sg1392
I1
sg1393
g1400
sg1395
S'39'
p1482
sasg1389
g1390
sg1391
F0.1588
sg1392
I23
sg1393
g1394
sg1395
S'35'
p1483
sg1396
g709
sg19
Vcontractor->dev_total_hourly_jobs <= 0.6800
p1484
sa(dp1485
g1369
(lp1486
(dp1487
g1369
(lp1488
(dp1489
g1369
(lp1490
(dp1491
g1391
g15
(g17
S'\x00\x00\x00\x00\x00\x00\x00\x00'
tRp1492
sg1406
(lp1493
F0
aF2
asg1389
g1408
sg1409
g1391
sg1392
I2
sg1393
g1394
sg1395
S'43'
p1494
sa(dp1495
g1391
g15
(g17
S'\x00\x00\x00\x00\x00\x00\x00\x00'
tRp1496
sg1406
(lp1497
F1
aF0
asg1389
g1408
sg1409
g1391
sg1392
I1
sg1393
g1400
sg1395
S'44'
p1498
sasg1389
g1390
sg1391
F0.44440000000000002
sg1392
I3
sg1393
g1394
sg1395
S'42'
p1499
sg1396
g361
sg19
Vcontractor->dev_blurb->that <= 0.2291
p1500
sa(dp1501
g1391
g15
(g17
S'\x00\x00\x00\x00\x00\x00\x00\x00'
tRp1502
sg1406
(lp1503
F5
aF0
asg1389
g1408
sg1409
g1391
sg1392
I5
sg1393
g1400
sg1395
S'45'
p1504
sasg1389
g1390
sg1391
F0.375
sg1392
I8
sg1393
g1394
sg1395
S'41'
p1505
sg1396
g273
sg19
Vcontractor->dev_blurb->of <= 0.0629
p1506
sa(dp1507
g1391
g15
(g17
S'\x00\x00\x00\x00\x00\x00\x00\x00'
tRp1508
sg1406
(lp1509
F0
aF2
asg1389
g1408
sg1409
g1391
sg1392
I2
sg1393
g1400
sg1395
S'46'
p1510
sasg1389
g1390
sg1391
F0.47999999999999998
sg1392
I10
sg1393
g1400
sg1395
S'40'
p1511
sg1396
g529
sg19
Vcontractor->dev_profile_title->designer <= 0.2251
p1512
sasg1389
g1390
sg1391
F0.36730000000000002
sg1392
I33
sg1393
g1394
sg1395
S'34'
p1513
sg1396
g477
sg19
Vcontractor->dev_pay_rate <= 0.1408
p1514
sa(dp1515
g1391
g15
(g17
S'\x00\x00\x00\x00\x00\x00\x00\x00'
tRp1516
sg1406
(lp1517
F3
aF0
asg1389
g1408
sg1409
g1391
sg1392
I3
sg1393
g1400
sg1395
S'47'
p1518
sasg1389
g1390
sg1391
F0.4244
sg1392
I36
sg1393
g1400
sg1395
S'33'
p1519
sg1396
g53
sg19
Vcontractor->dev_blurb->always <= 0.1771
p1520
sasg1389
g1390
sg1391
F0.49719999999999998
sg1392
I93
sg1393
g1394
sg1395
S'1'
sg1396
g253
sg19
Vcontractor->dev_blurb->my <= 0.1480
p1521
sa(dp1522
g1391
g15
(g17
S'\x00\x00\x00\x00\x00\x00\x00\x00'
tRp1523
sg1406
(lp1524
F3
aF0
asg1389
g1408
sg1409
g1391
sg1392
I3
sg1393
g1400
sg1395
S'48'
p1525
sasg1389
g1390
sg1391
F0.49909999999999999
sg1392
I96
sg1393
g1394
sg1395
S'0'
sg1396
g261
sg19
Vcontractor->dev_blurb->new <= 0.1746
p1526
ssssS'_classifier'
p1527
(dp1528
g8
g1
(csklearn.tree.tree
DecisionTreeClassifier
p1529
g3
NtRp1530
(dp1531
S'splitter'
p1532
Vbest
p1533
sS'tree_'
p1534
csklearn.tree._tree
Tree
p1535
(I334
cnumpy.core.multiarray
_reconstruct
p1536
(cnumpy
ndarray
p1537
(I0
tS'b'
tRp1538
(I1
(I1
tg16
(S'i4'
I0
I1
tRp1539
(I3
S'<'
NNNI-1
I-1
I0
tbI00
S'\x02\x00\x00\x00'
tbI1
tRp1540
(dp1541
S'node_count'
p1542
I49
sS'values'
p1543
g1536
(g1537
(I0
tS'b'
tRp1544
(I1
(I49
I1
I2
tg17
I00
S'\x00\x00\x00\x00\x00\x00\x00\x00\x00\x00\x00\x00\x00\x00\x00\x00\x00\x00\x00\x00\x00\x00\x00\x00\x00\x00\x00\x00\x00\x00\x00\x00\x00\x00\x00\x00\x00\x00\x00\x00\x00\x00\x00\x00\x00\x00\x00\x00\x00\x00\x00\x00\x00\x00\x00\x00\x00\x00\x00\x00\x00\x00\x00\x00\x00\x00\x00\x00\x00\x00\x00\x00\x00\x00\x00\x00\x00\x00\x00\x00\x00\x00\x00\x00\x00\x00\x00\x00\x00\x00\x00\x00\x00\x00\x00\x00\x00\x00\x00\x00\x00\x00\x00\x00\x00\x00\x00\x00\x00\x00\x00\x00\x00\x00\x00\x00\x00\x00\x00\x00\x00\x00\x00\x00\x00\x00\x00\x00\x00\x00\x00\x00\x00\x00\x00\x00\x00\x00\x00\x00\x00\x00\x00\x00\x00\x00\x00\x00\x00\x00\x00\x00\x00\x00\x00\x00\x00\x00\x00\x00\x00\x00\x00\x00\x00\x00\x00\x00\x00\x00\x00\x00\x00\x00\x00\x00\x00\x00\x00\x00\x00\x00\x00\x00\x00\x00\x00\x00\x00\x00\x18@\x00\x00\x00\x00\x00\x00\x00\x00\x00\x00\x00\x00\x00\x00\x00\x00\x00\x00\x00\x00\x00\x00\x00\x00\x00\x00\x00\x00\x00\x00\xf0?\x00\x00\x00\x00\x00\x00\xf0?\x00\x00\x00\x00\x00\x00\x00\x00\x00\x00\x00\x00\x00\x00\x10@\x00\x00\x00\x00\x00\x00\x00\x00\x00\x00\x00\x00\x00\x00\x00\x00\x00\x00\x00\x00\x00\x00\x00\x00\x00\x00\x00\x00\x00\x00(@\x00\x00\x00\x00\x00\x00\x00\x00\x00\x00\x00\x00\x00\x00\x00\x00\x00\x00\x00\x00\x00\x00\x00\x00\x00\x00\x00\x00\x00\x00\x00\x00\x00\x00\x00\x00\x00\x00\xf0?\x00\x00\x00\x00\x00\x00\xf0?\x00\x00\x00\x00\x00\x00\x00\x00\x00\x00\x00\x00\x00\x00\x00\x00\x00\x00\x00\x00\x00\x00\x00@\x00\x00\x00\x00\x00\x00\x00\x00\x00\x00\x00\x00\x00\x00\x00\x00\x00\x00\x00\x00\x00\x00(@\x00\x00\x00\x00\x00\x00\x00\x00\x00\x00\x00\x00\x00\x00\x00\x00\x00\x00\x00\x00\x00\x00\xf0?\x00\x00\x00\x00\x00\x00\x00\x00\x00\x00\x00\x00\x00\x00\x00\x00\x00\x00\x00\x00\x00\x00\x00\x00\x00\x00\x00\x00\x00\x00\x10@\x00\x00\x00\x00\x00\x00\xf0?\x00\x00\x00\x00\x00\x00\x00\x00\x00\x00\x00\x00\x00\x00\x00\x00\x00\x00\x00\x00\x00\x00\x00@\x00\x00\x00\x00\x00\x00\x00\x00\x00\x00\x00\x00\x00\x00\x10@\x00\x00\x00\x00\x00\x00\x00\x00\x00\x00\x00\x00\x00\x00\x00\x00\x00\x00\x00\x00\x00\x00\x00\x00\x00\x00\x00\x00\x00\x00\x10@\x00\x00\x00\x00\x00\x00\xf0?\x00\x00\x00\x00\x00\x00\x00\x00\x00\x00\x00\x00\x00\x00\x00\x00\x00\x00\x00\x00\x00\x00\x00\x00\x00\x00\x00\x00\x00\x00\x00\x00\x00\x00\x00\x00\x00\x00\x00\x00\x00\x00\x00\x00\x00\x00\x00\x00\x00\x00\x00\x00\x00\x00\x00\x00\x00\x00\x00\x00\x00\x00\x00\x00\x00\x00\x00\x00\x00\x00\x00\x00\x00\x00\x00\x00\x00\x00\x00\x00\x00\x00\x00\x00\x00\x005@\x00\x00\x00\x00\x00\x00\xf0?\x00\x00\x00\x00\x00\x00\x00\x00\x00\x00\x00\x00\x00\x00\xf0?\x00\x00\x00\x00\x00\x00\x00\x00\x00\x00\x00\x00\x00\x00\x00\x00\x00\x00\x00\x00\x00\x00\x00\x00\x00\x00\x00\x00\x00\x00\x00\x00\x00\x00\x00\x00\x00\x00\x00\x00\x00\x00\x00\x00\x00\x00\x00\x00\x00\x00\x00\x00\x00\x00\x00\x00\x00\x00\x00\x00\x00\x00\x00\x00\x00\x00\x00\x00\x00\x00\x00@\x00\x00\x00\x00\x00\x00\xf0?\x00\x00\x00\x00\x00\x00\x00\x00\x00\x00\x00\x00\x00\x00\x14@\x00\x00\x00\x00\x00\x00\x00\x00\x00\x00\x00\x00\x00\x00\x00\x00\x00\x00\x00\x00\x00\x00\x00@\x00\x00\x00\x00\x00\x00\x08@\x00\x00\x00\x00\x00\x00\x00\x00\x00\x00\x00\x00\x00\x00\x08@\x00\x00\x00\x00\x00\x00\x00\x00'
tbsS'nodes'
p1545
g1536
(g1537
(I0
tS'b'
tRp1546
(I1
(I49
tg16
(S'V40'
I0
I1
tRp1547
(I3
S'|'
N(S'left_child'
p1548
S'right_child'
p1549
S'feature'
p1550
S'threshold'
p1551
g1391
S'n_node_samples'
p1552
S'weighted_n_node_samples'
p1553
tp1554
(dp1555
g1553
(g17
I32
tp1556
sg1391
(g17
I20
tp1557
sg1549
(g1539
I4
tp1558
sg1550
(g1539
I8
tp1559
sg1551
(g17
I12
tp1560
sg1548
(g1539
I0
tp1561
sg1552
(g1539
I28
tp1562
sI40
I1
I0
tbI00
S'\x01\x00\x00\x000\x00\x00\x00<\x00\x00\x00\x00\x00\x00\xa0HY\xc6?\x1c\xc7q\x1c\xc7\xf1\xdf?`\x00\x00\x00\x00\x00\x00\x00\x00\x00X@\x02\x00\x00\x00!\x00\x00\x00:\x00\x00\x00\x00\x00\x00\x90\x9c\xf1\xc2?\xf8\xb9M\xce\x96\xd1\xdf?]\x00\x00\x00\x00\x00\x00\x00\x00@W@\x03\x00\x00\x00\x1e\x00\x00\x00-\x00\x00\x00\x00\x00\x00\xc0R\xea\xae?U\xdd7\xabs\x84\xdf?9\x00\x00\x00\x00\x00\x00\x00\x00\x80L@\x04\x00\x00\x00\x1d\x00\x00\x00j\x00\x00\x00\x00\x00\x00\xa0xz\xc8?\xaeE\x82\x9a\n\xd1\xde?4\x00\x00\x00\x00\x00\x00\x00\x00\x00J@\x05\x00\x00\x00\x1c\x00\x00\x00\xf1\x00\x00\x00\x00\x00\x00\x00\x00\x00\x00@r\x1c\xc7q\x1cG\xdd?0\x00\x00\x00\x00\x00\x00\x00\x00\x00H@\x06\x00\x00\x00\x19\x00\x00\x00\x06\x00\x00\x00\x00\x00\x00Xx\xdc\xc2?\x8a\xc2\x8eI\xe8 \xdc?.\x00\x00\x00\x00\x00\x00\x00\x00\x00G@\x07\x00\x00\x00\x16\x00\x00\x00$\x00\x00\x00\x00\x00\x00\xb00;\xb8?\xbd\xa8\xec\x0e\xbe \xd9?)\x00\x00\x00\x00\x00\x00\x00\x00\x80D@\x08\x00\x00\x00\x15\x00\x00\x00\x9a\x00\x00\x00\x00\x00\x00\xc0\xbf\x16\xd6?Y\x1f\x1a\xebCc\xdd?\x1c\x00\x00\x00\x00\x00\x00\x00\x00\x00<@\t\x00\x00\x00\x10\x00\x00\x00\xd8\x00\x00\x00\x00\x00\x00`\x19\xe6\xef?\xb9\x16\tj*D\xdb?\x1a\x00\x00\x00\x00\x00\x00\x00\x00\x00:@\n\x00\x00\x00\x0f\x00\x00\x00W\x00\x00\x00\x00\x00\x000\xc7<\xb6?\xc7q\x1c\xc7q\x1c\xdf?\x0c\x00\x00\x00\x00\x00\x00\x00\x00\x00(@\x0b\x00\x00\x00\x0c\x00\x00\x00^\x00\x00\x00\x00\x00\x00@8\xa7\xa9?\x00\x00\x00\x00\x00\x00\xcc?\x08\x00\x00\x00\x00\x00\x00\x00\x00\x00 @\xff\xff\xff\xff\xff\xff\xff\xff\xfe\xff\xff\xff\x00\x00\x00\x00\x00\x00\x00\xc0\x00\x00\x00\x00\x00\x00\x00\x00\x06\x00\x00\x00\x00\x00\x00\x00\x00\x00\x18@\r\x00\x00\x00\x0e\x00\x00\x00\xd7\x00\x00\x00\x00\x00\x00\xc0\x90\xb5m?\x00\x00\x00\x00\x00\x00\xe0?\x02\x00\x00\x00\x00\x00\x00\x00\x00\x00\x00@\xff\xff\xff\xff\xff\xff\xff\xff\xfe\xff\xff\xff\x00\x00\x00\x00\x00\x00\x00\xc0\x00\x00\x00\x00\x00\x00\x00\x00\x01\x00\x00\x00\x00\x00\x00\x00\x00\x00\xf0?\xff\xff\xff\xff\xff\xff\xff\xff\xfe\xff\xff\xff\x00\x00\x00\x00\x00\x00\x00\xc0\x00\x00\x00\x00\x00\x00\x00\x00\x01\x00\x00\x00\x00\x00\x00\x00\x00\x00\xf0?\xff\xff\xff\xff\xff\xff\xff\xff\xfe\xff\xff\xff\x00\x00\x00\x00\x00\x00\x00\xc0\x00\x00\x00\x00\x00\x00\x00\x00\x04\x00\x00\x00\x00\x00\x00\x00\x00\x00\x10@\x11\x00\x00\x00\x12\x00\x00\x007\x00\x00\x00\x00\x00\x00\xe0\x93n\xc0??4\xd6\x87\xc6\xfa\xc0?\x0e\x00\x00\x00\x00\x00\x00\x00\x00\x00,@\xff\xff\xff\xff\xff\xff\xff\xff\xfe\xff\xff\xff\x00\x00\x00\x00\x00\x00\x00\xc0\x00\x00\x00\x00\x00\x00\x00\x00\x0c\x00\x00\x00\x00\x00\x00\x00\x00\x00(@\x13\x00\x00\x00\x14\x00\x00\x00\x00\x00\x00\x00\x00\x00\x00\x00\x00\x00\xb0?\x00\x00\x00\x00\x00\x00\xe0?\x02\x00\x00\x00\x00\x00\x00\x00\x00\x00\x00@\xff\xff\xff\xff\xff\xff\xff\xff\xfe\xff\xff\xff\x00\x00\x00\x00\x00\x00\x00\xc0\x00\x00\x00\x00\x00\x00\x00\x00\x01\x00\x00\x00\x00\x00\x00\x00\x00\x00\xf0?\xff\xff\xff\xff\xff\xff\xff\xff\xfe\xff\xff\xff\x00\x00\x00\x00\x00\x00\x00\xc0\x00\x00\x00\x00\x00\x00\x00\x00\x01\x00\x00\x00\x00\x00\x00\x00\x00\x00\xf0?\xff\xff\xff\xff\xff\xff\xff\xff\xfe\xff\xff\xff\x00\x00\x00\x00\x00\x00\x00\xc0\x00\x00\x00\x00\x00\x00\x00\x00\x02\x00\x00\x00\x00\x00\x00\x00\x00\x00\x00@\x17\x00\x00\x00\x18\x00\x00\x00Z\x00\x00\x00\x00\x00\x00\xf8\x7f\x1e\xd7?&\x0f\x06\x9cq-\xc2?\r\x00\x00\x00\x00\x00\x00\x00\x00\x00*@\xff\xff\xff\xff\xff\xff\xff\xff\xfe\xff\xff\xff\x00\x00\x00\x00\x00\x00\x00\xc0\x00\x00\x00\x00\x00\x00\x00\x00\x0c\x00\x00\x00\x00\x00\x00\x00\x00\x00(@\xff\xff\xff\xff\xff\xff\xff\xff\xfe\xff\xff\xff\x00\x00\x00\x00\x00\x00\x00\xc0\x00\x00\x00\x00\x00\x00\x00\x00\x01\x00\x00\x00\x00\x00\x00\x00\x00\x00\xf0?\x1a\x00\x00\x00\x1b\x00\x00\x00\x9e\x00\x00\x00\x00\x00\x00\xd0\xab\xe3\xd8?{\x14\xaeG\xe1z\xd4?\x05\x00\x00\x00\x00\x00\x00\x00\x00\x00\x14@\xff\xff\xff\xff\xff\xff\xff\xff\xfe\xff\xff\xff\x00\x00\x00\x00\x00\x00\x00\xc0\x00\x00\x00\x00\x00\x00\x00\x00\x04\x00\x00\x00\x00\x00\x00\x00\x00\x00\x10@\xff\xff\xff\xff\xff\xff\xff\xff\xfe\xff\xff\xff\x00\x00\x00\x00\x00\x00\x00\xc0\x00\x00\x00\x00\x00\x00\x00\x00\x01\x00\x00\x00\x00\x00\x00\x00\x00\x00\xf0?\xff\xff\xff\xff\xff\xff\xff\xff\xfe\xff\xff\xff\x00\x00\x00\x00\x00\x00\x00\xc0\x00\x00\x00\x00\x00\x00\x00\x00\x02\x00\x00\x00\x00\x00\x00\x00\x00\x00\x00@\xff\xff\xff\xff\xff\xff\xff\xff\xfe\xff\xff\xff\x00\x00\x00\x00\x00\x00\x00\xc0\x00\x00\x00\x00\x00\x00\x00\x00\x04\x00\x00\x00\x00\x00\x00\x00\x00\x00\x10@\x1f\x00\x00\x00 \x00\x00\x00\xd5\x00\x00\x00\x00\x00\x00\x00\x00\x00\x1e@{\x14\xaeG\xe1z\xd4?\x05\x00\x00\x00\x00\x00\x00\x00\x00\x00\x14@\xff\xff\xff\xff\xff\xff\xff\xff\xfe\xff\xff\xff\x00\x00\x00\x00\x00\x00\x00\xc0\x00\x00\x00\x00\x00\x00\x00\x00\x04\x00\x00\x00\x00\x00\x00\x00\x00\x00\x10@\xff\xff\xff\xff\xff\xff\xff\xff\xfe\xff\xff\xff\x00\x00\x00\x00\x00\x00\x00\xc0\x00\x00\x00\x00\x00\x00\x00\x00\x01\x00\x00\x00\x00\x00\x00\x00\x00\x00\xf0?"\x00\x00\x00/\x00\x00\x00\x08\x00\x00\x00\x00\x00\x00 \x92\xaa\xc6?<\xdd\x9a\x1f\x16)\xdb?$\x00\x00\x00\x00\x00\x00\x00\x00\x00B@#\x00\x00\x00(\x00\x00\x00r\x00\x00\x00\x00\x00\x00\xa0\xd3\x06\xc2?r\xd9\xa3\x87\xff\x81\xd7?!\x00\x00\x00\x00\x00\x00\x00\x00\x80@@$\x00\x00\x00\'\x00\x00\x00\xac\x00\x00\x00\x00\x00\x00`\x8f\xc2\xe5?\xa9\x82\xd2}<S\xc4?\x17\x00\x00\x00\x00\x00\x00\x00\x00\x007@%\x00\x00\x00&\x00\x00\x00\x98\x00\x00\x00\x00\x00\x000\x1bV\xe3?}\xad\x9e\x1d\x027\xb6?\x16\x00\x00\x00\x00\x00\x00\x00\x00\x006@\xff\xff\xff\xff\xff\xff\xff\xff\xfe\xff\xff\xff\x00\x00\x00\x00\x00\x00\x00\xc0\x00\x00\x00\x00\x00\x00\x00\x00\x15\x00\x00\x00\x00\x00\x00\x00\x00\x005@\xff\xff\xff\xff\xff\xff\xff\xff\xfe\xff\xff\xff\x00\x00\x00\x00\x00\x00\x00\xc0\x00\x00\x00\x00\x00\x00\x00\x00\x01\x00\x00\x00\x00\x00\x00\x00\x00\x00\xf0?\xff\xff\xff\xff\xff\xff\xff\xff\xfe\xff\xff\xff\x00\x00\x00\x00\x00\x00\x00\xc0\x00\x00\x00\x00\x00\x00\x00\x00\x01\x00\x00\x00\x00\x00\x00\x00\x00\x00\xf0?)\x00\x00\x00.\x00\x00\x00\x7f\x00\x00\x00\x00\x00\x00\xe0#\xd0\xcc?\xb8\x1e\x85\xebQ\xb8\xde?\n\x00\x00\x00\x00\x00\x00\x00\x00\x00$@*\x00\x00\x00-\x00\x00\x00?\x00\x00\x00\x00\x00\x00\xf8E\x18\xb0?\x00\x00\x00\x00\x00\x00\xd8?\x08\x00\x00\x00\x00\x00\x00\x00\x00\x00 @+\x00\x00\x00,\x00\x00\x00U\x00\x00\x00\x00\x00\x00\x00\xe3Q\xcd?\x1c\xc7q\x1c\xc7q\xdc?\x03\x00\x00\x00\x00\x00\x00\x00\x00\x00\x08@\xff\xff\xff\xff\xff\xff\xff\xff\xfe\xff\xff\xff\x00\x00\x00\x00\x00\x00\x00\xc0\x00\x00\x00\x00\x00\x00\x00\x00\x02\x00\x00\x00\x00\x00\x00\x00\x00\x00\x00@\xff\xff\xff\xff\xff\xff\xff\xff\xfe\xff\xff\xff\x00\x00\x00\x00\x00\x00\x00\xc0\x00\x00\x00\x00\x00\x00\x00\x00\x01\x00\x00\x00\x00\x00\x00\x00\x00\x00\xf0?\xff\xff\xff\xff\xff\xff\xff\xff\xfe\xff\xff\xff\x00\x00\x00\x00\x00\x00\x00\xc0\x00\x00\x00\x00\x00\x00\x00\x00\x05\x00\x00\x00\x00\x00\x00\x00\x00\x00\x14@\xff\xff\xff\xff\xff\xff\xff\xff\xfe\xff\xff\xff\x00\x00\x00\x00\x00\x00\x00\xc0\x00\x00\x00\x00\x00\x00\x00\x00\x02\x00\x00\x00\x00\x00\x00\x00\x00\x00\x00@\xff\xff\xff\xff\xff\xff\xff\xff\xfe\xff\xff\xff\x00\x00\x00\x00\x00\x00\x00\xc0\x00\x00\x00\x00\x00\x00\x00\x00\x03\x00\x00\x00\x00\x00\x00\x00\x00\x00\x08@\xff\xff\xff\xff\xff\xff\xff\xff\xfe\xff\xff\xff\x00\x00\x00\x00\x00\x00\x00\xc0\x00\x00\x00\x00\x00\x00\x00\x00\x03\x00\x00\x00\x00\x00\x00\x00\x00\x00\x08@'
tbsbsS'n_features_'
p1563
I334
sS'n_outputs_'
p1564
I1
sS'n_classes_'
p1565
g15
(g1539
S'\x02\x00\x00\x00'
tRp1566
sS'random_state'
p1567
NsS'classes_'
p1568
g1536
(g1537
(I0
tS'b'
tRp1569
(I1
(I2
tg16
(S'S1'
I0
I1
tRp1570
(I3
S'|'
NNNI1
I1
I0
tbI00
S'01'
tbsS'max_features_'
p1571
I18
sS'min_samples_leaf'
p1572
I1
sS'max_features'
p1573
Vauto
p1574
sS'min_weight_fraction_leaf'
p1575
F0
sg1409
Vgini
p1576
sS'max_leaf_nodes'
p1577
NsS'min_samples_split'
p1578
I2
sS'max_depth'
p1579
NsS'class_weight'
p1580
NsbssS'version'
p1581
S'0.0.2-SNAPSHOT'
p1582
sS'_segments'
p1583
(dp1584
g8
I96
ssS'_feature_model'
p1585
g1
(ccore.trainer.config
FeatureModel
p1586
g3
NtRp1587
(dp1588
S'features'
p1589
ccollections
OrderedDict
p1590
((lp1591
(lp1592
Vcontractor.dev_active_interviews
p1593
a(dp1594
S'input-format'
p1595
S'plain'
p1596
sS'transformer'
p1597
Nsg19
g1593
sS'transformer-type'
p1598
Nsg8
NsS'scaler'
p1599
g1
(csklearn.preprocessing.data
MinMaxScaler
p1600
g3
NtRp1601
(dp1602
S'copy'
p1603
I01
sS'feature_range'
p1604
(I0
I1
tp1605
sbsS'required'
p1606
I01
sg1393
g1
(ccore.trainer.feature_types.primitive_types
PrimitiveFeatureTypeInstance
p1607
g3
NtRp1608
(dp1609
S'_default_params'
p1610
(lp1611
sS'python_type'
p1612
c__builtin__
int
p1613
sS'_default_value'
p1614
NsS'preprocessor'
p1615
NsS'default_scaler'
p1616
S'MinMaxScaler'
p1617
sS'_params'
p1618
Nsbsaa(lp1619
Vcontractor.dev_adj_score
p1620
a(dp1621
g1595
g1596
sg1597
Nsg19
g1620
sg1598
Nsg8
Nsg1599
g1
(g1600
g3
NtRp1622
(dp1623
g1603
I01
sg1604
(I0
I1
tp1624
sbsg1606
I01
sg1393
g1
(g1607
g3
NtRp1625
(dp1626
g1610
g1611
sg1612
c__builtin__
float
p1627
sg1614
Nsg1615
Nsg1616
g1617
sg1618
Nsbsaa(lp1628
Vcontractor.dev_adj_score_recent
p1629
a(dp1630
g1595
g1596
sg1597
Nsg19
g1629
sg1598
Nsg8
Nsg1599
g1
(g1600
g3
NtRp1631
(dp1632
g1603
I01
sg1604
(I0
I1
tp1633
sbsg1606
I01
sg1393
g1
(g1607
g3
NtRp1634
(dp1635
g1610
g1611
sg1612
g1627
sg1614
Nsg1615
Nsg1616
g1617
sg1618
Nsbsaa(lp1636
Vcontractor.dev_availability
p1637
a(dp1638
g1595
g1596
sg1597
Nsg19
g1637
sg1598
Nsg8
Nsg1599
g1
(g1600
g3
NtRp1639
(dp1640
g1603
I01
sg1604
(I0
I1
tp1641
sbsg1606
I01
sg1393
g1
(g1607
g3
NtRp1642
(dp1643
g1610
g1611
sg1612
g1613
sg1614
Nsg1615
Nsg1616
g1617
sg1618
Nsbsaa(lp1644
Vcontractor.dev_billed_assignments
p1645
a(dp1646
g1595
g1596
sg1597
Nsg19
g1645
sg1598
Nsg8
Nsg1599
g1
(g1600
g3
NtRp1647
(dp1648
g1603
I01
sg1604
(I0
I1
tp1649
sbsg1606
I01
sg1393
g1
(g1607
g3
NtRp1650
(dp1651
g1610
g1611
sg1612
g1613
sg1614
Nsg1615
Nsg1616
g1617
sg1618
Nsbsaa(lp1652
Vcontractor.dev_bill_rate
p1653
a(dp1654
g1595
g1596
sg1597
Nsg19
g1653
sg1598
Nsg8
Nsg1599
g1
(g1600
g3
NtRp1655
(dp1656
g1603
I01
sg1604
(I0
I1
tp1657
sbsg1606
I01
sg1393
g1
(g1607
g3
NtRp1658
(dp1659
g1610
g1611
sg1612
g1627
sg1614
Nsg1615
Nsg1616
g1617
sg1618
Nsbsaa(lp1660
Vcontractor.dev_blurb
p1661
a(dp1662
g1595
g1596
sg1597
g1
(csklearn.feature_extraction.text
TfidfVectorizer
p1663
g3
NtRp1664
(dp1665
S'decode_error'
p1666
Vstrict
p1667
sS'lowercase'
p1668
I01
sS'stop_words'
p1669
NsS'vocabulary'
p1670
NsS'tokenizer'
p1671
NsS'encoding'
p1672
Vutf-8
p1673
sS'token_pattern'
p1674
V(?u)\u005cb\u005cw\u005cw+\u005cb
p1675
sS'max_df'
p1676
F1
sS'analyzer'
p1677
Vword
p1678
sS'binary'
p1679
I00
sS'ngram_range'
p1680
(I1
I1
tp1681
sg1615
NsS'min_df'
p1682
I10
sg1573
NsS'input'
p1683
Vcontent
p1684
sS'_tfidf'
p1685
g1
(csklearn.feature_extraction.text
TfidfTransformer
p1686
g3
NtRp1687
(dp1688
S'use_idf'
p1689
I01
sS'smooth_idf'
p1690
I01
sS'sublinear_tf'
p1691
I00
sS'norm'
p1692
Vl2
p1693
sbsS'dtype'
p1694
cnumpy
int64
p1695
sS'strip_accents'
p1696
Nsbsg19
g1661
sg1598
VTfidf
p1697
sg8
Nsg1599
g1
(g1600
g3
NtRp1698
(dp1699
g1603
I01
sg1604
(I0
I1
tp1700
sbsg1606
I01
sg1393
g1
(g1607
g3
NtRp1701
(dp1702
g1610
g1611
sg1612
c__builtin__
str
p1703
sg1614
Nsg1615
Nsg1616
g1617
sg1618
Nsbsaa(lp1704
Vcontractor.dev_cur_assignments
p1705
a(dp1706
g1595
g1596
sg1597
Nsg19
g1705
sg1598
Nsg8
Nsg1599
g1
(g1600
g3
NtRp1707
(dp1708
g1603
I01
sg1604
(I0
I1
tp1709
sbsg1606
I01
sg1393
g1
(g1607
g3
NtRp1710
(dp1711
g1610
g1611
sg1612
g1613
sg1614
Nsg1615
Nsg1616
g1617
sg1618
Nsbsaa(lp1712
Vcontractor.dev_eng_skill
p1713
a(dp1714
g1595
g1596
sg1597
Nsg19
g1713
sg1598
Nsg8
Nsg1599
g1
(g1600
g3
NtRp1715
(dp1716
g1603
I01
sg1604
(I0
I1
tp1717
sbsg1606
I01
sg1393
g1
(g1607
g3
NtRp1718
(dp1719
g1610
g1611
sg1612
g1613
sg1614
Nsg1615
Nsg1616
g1617
sg1618
Nsbsaa(lp1720
Vcontractor.dev_expose_full_name
p1721
a(dp1722
g1595
g1596
sg1597
Nsg19
g1721
sg1598
Nsg8
Nsg1599
g1
(g1600
g3
NtRp1723
(dp1724
g1603
I01
sg1604
(I0
I1
tp1725
sbsg1606
I01
sg1393
g1
(g1607
g3
NtRp1726
(dp1727
g1610
g1611
sg1612
g1627
sg1614
Nsg1615
Nsg1616
g1617
sg1618
Nsbsaa(lp1728
Vcontractor.dev_is_looking
p1729
a(dp1730
g1595
g1596
sg1597
Nsg19
g1729
sg1598
Nsg8
Nsg1599
g1
(g1600
g3
NtRp1731
(dp1732
g1603
I01
sg1604
(I0
I1
tp1733
sbsg1606
I01
sg1393
g1
(g1607
g3
NtRp1734
(dp1735
g1610
g1611
sg1612
c__builtin__
bool
p1736
sg1614
Nsg1615
Nsg1616
g1617
sg1618
Nsbsaa(lp1737
Vcontractor.dev_is_looking_week
p1738
a(dp1739
g1595
g1596
sg1597
Nsg19
g1738
sg1598
Nsg8
Nsg1599
g1
(g1600
g3
NtRp1740
(dp1741
g1603
I01
sg1604
(I0
I1
tp1742
sbsg1606
I01
sg1393
g1
(g1607
g3
NtRp1743
(dp1744
g1610
g1611
sg1612
g1736
sg1614
Nsg1615
Nsg1616
g1617
sg1618
Nsbsaa(lp1745
Vcontractor.dev_last_worked
p1746
a(dp1747
g1595
g1596
sg1597
Nsg19
g1746
sg1598
Nsg8
I946684800
sg1599
g1
(g1600
g3
NtRp1748
(dp1749
g1603
I01
sg1604
(I0
I1
tp1750
sbsg1606
I01
sg1393
g1
(ccore.trainer.feature_types.date
DateFeatureTypeInstance
p1751
g3
NtRp1752
(dp1753
g1616
g1617
sg1614
I946684800
sg1610
g1611
sg1615
Nsg1618
(dp1754
Vpattern
p1755
V%B %d, %Y
p1756
ssbsaa(lp1757
Vcontractor.dev_pay_rate
p1758
a(dp1759
g1595
g1596
sg1597
Nsg19
g1758
sg1598
Nsg8
Nsg1599
g1
(g1600
g3
NtRp1760
(dp1761
g1603
I01
sg1604
(I0
I1
tp1762
sbsg1606
I01
sg1393
g1
(g1607
g3
NtRp1763
(dp1764
g1610
g1611
sg1612
g1627
sg1614
Nsg1615
Nsg1616
g1617
sg1618
Nsbsaa(lp1765
Vcontractor.dev_portfolio_items_count
p1766
a(dp1767
g1595
g1596
sg1597
Nsg19
g1766
sg1598
Nsg8
Nsg1599
g1
(g1600
g3
NtRp1768
(dp1769
g1603
I01
sg1604
(I0
I1
tp1770
sbsg1606
I01
sg1393
g1
(g1607
g3
NtRp1771
(dp1772
g1610
g1611
sg1612
g1613
sg1614
Nsg1615
Nsg1616
g1617
sg1618
Nsbsaa(lp1773
Vcontractor.dev_profile_title
p1774
a(dp1775
g1595
g1596
sg1597
g1
(g1663
g3
NtRp1776
(dp1777
g1666
g1667
sg1668
I01
sg1669
Nsg1670
Nsg1671
Nsg1672
g1673
sg1674
g1675
sg1676
F1
sg1677
g1678
sg1679
I00
sg1680
(I1
I1
tp1778
sg1615
Nsg1682
I3
sg1573
Nsg1683
g1684
sg1685
g1
(g1686
g3
NtRp1779
(dp1780
g1689
I01
sg1690
I01
sg1691
I00
sg1692
g1693
sbsg1694
g1695
sg1696
Nsbsg19
g1774
sg1598
VTfidf
p1781
sg8
Nsg1599
g1
(g1600
g3
NtRp1782
(dp1783
g1603
I01
sg1604
(I0
I1
tp1784
sbsg1606
I01
sg1393
g1
(g1607
g3
NtRp1785
(dp1786
g1610
g1611
sg1612
g1703
sg1614
Nsg1615
Nsg1616
g1617
sg1618
Nsbsaa(lp1787
Vcontractor.dev_rank_percentile
p1788
a(dp1789
g1595
g1596
sg1597
Nsg19
g1788
sg1598
Nsg8
Nsg1599
g1
(g1600
g3
NtRp1790
(dp1791
g1603
I01
sg1604
(I0
I1
tp1792
sbsg1606
I01
sg1393
g1
(g1607
g3
NtRp1793
(dp1794
g1610
g1611
sg1612
g1627
sg1614
Nsg1615
Nsg1616
g1617
sg1618
Nsbsaa(lp1795
Vcontractor.dev_recent_fp_jobs
p1796
a(dp1797
g1595
g1596
sg1597
Nsg19
g1796
sg1598
Nsg8
Nsg1599
g1
(g1600
g3
NtRp1798
(dp1799
g1603
I01
sg1604
(I0
I1
tp1800
sbsg1606
I01
sg1393
g1
(g1607
g3
NtRp1801
(dp1802
g1610
g1611
sg1612
g1613
sg1614
Nsg1615
Nsg1616
g1617
sg1618
Nsbsaa(lp1803
Vcontractor.dev_recent_hourly_jobs
p1804
a(dp1805
g1595
g1596
sg1597
Nsg19
g1804
sg1598
Nsg8
Nsg1599
g1
(g1600
g3
NtRp1806
(dp1807
g1603
I01
sg1604
(I0
I1
tp1808
sbsg1606
I01
sg1393
g1
(g1607
g3
NtRp1809
(dp1810
g1610
g1611
sg1612
g1613
sg1614
Nsg1615
Nsg1616
g1617
sg1618
Nsbsaa(lp1811
Vcontractor.dev_recent_hours
p1812
a(dp1813
g1595
g1596
sg1597
Nsg19
g1812
sg1598
Nsg8
Nsg1599
g1
(g1600
g3
NtRp1814
(dp1815
g1603
I01
sg1604
(I0
I1
tp1816
sbsg1606
I01
sg1393
g1
(g1607
g3
NtRp1817
(dp1818
g1610
g1611
sg1612
g1613
sg1614
Nsg1615
Nsg1616
g1617
sg1618
Nsbsaa(lp1819
Vcontractor.dev_recent_rank_percentile
p1820
a(dp1821
g1595
g1596
sg1597
Nsg19
g1820
sg1598
Nsg8
Nsg1599
g1
(g1600
g3
NtRp1822
(dp1823
g1603
I01
sg1604
(I0
I1
tp1824
sbsg1606
I01
sg1393
g1
(g1607
g3
NtRp1825
(dp1826
g1610
g1611
sg1612
g1627
sg1614
Nsg1615
Nsg1616
g1617
sg1618
Nsbsaa(lp1827
Vcontractor.dev_skill_test_passed_count
p1828
a(dp1829
g1595
g1596
sg1597
Nsg19
g1828
sg1598
Nsg8
Nsg1599
g1
(g1600
g3
NtRp1830
(dp1831
g1603
I01
sg1604
(I0
I1
tp1832
sbsg1606
I01
sg1393
g1
(g1607
g3
NtRp1833
(dp1834
g1610
g1611
sg1612
g1613
sg1614
Nsg1615
Nsg1616
g1617
sg1618
Nsbsaa(lp1835
Vcontractor.dev_test_passed_count
p1836
a(dp1837
g1595
g1596
sg1597
Nsg19
g1836
sg1598
Nsg8
Nsg1599
g1
(g1600
g3
NtRp1838
(dp1839
g1603
I01
sg1604
(I0
I1
tp1840
sbsg1606
I01
sg1393
g1
(g1607
g3
NtRp1841
(dp1842
g1610
g1611
sg1612
g1613
sg1614
Nsg1615
Nsg1616
g1617
sg1618
Nsbsaa(lp1843
Vcontractor.dev_timezone
p1844
a(dp1845
g1595
g1596
sg1597
Nsg19
g1844
sg1598
Nsg8
Nsg1599
Nsg1606
I01
sg1393
g1
(ccore.trainer.feature_types.composite
CompositeFeatureTypeInstance
p1846
g3
NtRp1847
(dp1848
g1610
Nsg1614
Nsg1615
Nsg1616
NsS'strategies'
p1849
(lp1850
g1
(ccore.trainer.feature_types.regex
RegexFeatureTypeInstance
p1851
g3
NtRp1852
(dp1853
g1616
g1617
sg1614
Nsg1610
g1611
sg1615
Nsg1618
(dp1854
Vpattern
p1855
VUTC([-\u005c+]+\u005cd\u005cd).*
p1856
ssbag1
(g1607
g3
NtRp1857
(dp1858
g1610
g1611
sg1612
g1613
sg1614
Nsg1615
Nsg1616
g1617
sg1618
Nsbasg1618
Nsbsaa(lp1859
Vcontractor.dev_total_hourly_jobs
p1860
a(dp1861
g1595
g1596
sg1597
Nsg19
g1860
sg1598
Nsg8
Nsg1599
g1
(g1600
g3
NtRp1862
(dp1863
g1603
I01
sg1604
(I0
I1
tp1864
sbsg1606
I01
sg1393
g1
(g1607
g3
NtRp1865
(dp1866
g1610
g1611
sg1612
g1613
sg1614
Nsg1615
Nsg1616
g1617
sg1618
Nsbsaa(lp1867
Vcontractor.dev_total_hours_rounded
p1868
a(dp1869
g1595
g1596
sg1597
Nsg19
g1868
sg1598
Nsg8
Nsg1599
g1
(g1600
g3
NtRp1870
(dp1871
g1603
I01
sg1604
(I0
I1
tp1872
sbsg1606
I01
sg1393
g1
(g1607
g3
NtRp1873
(dp1874
g1610
g1611
sg1612
g1613
sg1614
Nsg1615
Nsg1616
g1617
sg1618
Nsbsaa(lp1875
Vcontractor.dev_total_revenue
p1876
a(dp1877
g1595
g1596
sg1597
Nsg19
g1876
sg1598
Nsg8
Nsg1599
g1
(g1600
g3
NtRp1878
(dp1879
g1603
I01
sg1604
(I0
I1
tp1880
sbsg1606
I01
sg1393
g1
(g1607
g3
NtRp1881
(dp1882
g1610
g1611
sg1612
g1627
sg1614
Nsg1615
Nsg1616
g1617
sg1618
Nsbsaa(lp1883
Vcontractor.dev_tot_feedback
p1884
a(dp1885
g1595
g1596
sg1597
Nsg19
g1884
sg1598
Nsg8
Nsg1599
g1
(g1600
g3
NtRp1886
(dp1887
g1603
I01
sg1604
(I0
I1
tp1888
sbsg1606
I01
sg1393
g1
(g1607
g3
NtRp1889
(dp1890
g1610
g1611
sg1612
g1613
sg1614
Nsg1615
Nsg1616
g1617
sg1618
Nsbsaa(lp1891
Vcontractor.dev_tot_feedback_recent
p1892
a(dp1893
g1595
g1596
sg1597
Nsg19
g1892
sg1598
Nsg8
Nsg1599
g1
(g1600
g3
NtRp1894
(dp1895
g1603
I01
sg1604
(I0
I1
tp1896
sbsg1606
I01
sg1393
g1
(g1607
g3
NtRp1897
(dp1898
g1610
g1611
sg1612
g1613
sg1614
Nsg1615
Nsg1616
g1617
sg1618
Nsbsaa(lp1899
Vcontractor.dev_year_exp
p1900
a(dp1901
g1595
g1596
sg1597
Nsg19
g1900
sg1598
Nsg8
Nsg1599
g1
(g1600
g3
NtRp1902
(dp1903
g1603
I01
sg1604
(I0
I1
tp1904
sbsg1606
I01
sg1393
g1
(g1607
g3
NtRp1905
(dp1906
g1610
g1611
sg1612
g1613
sg1614
Nsg1615
Nsg1616
g1617
sg1618
Nsbsaa(lp1907
Vcountry_pair
p1908
a(dp1909
g1595
g1596
sg1597
Nsg19
g1908
sg1598
Nsg8
Nsg1599
Nsg1606
I01
sg1393
g1
(ccore.trainer.feature_types.categorical
CategoricalFeatureTypeInstance
p1910
g3
NtRp1911
(dp1912
g1616
Nsg1614
Nsg1610
g1611
sg1615
g1
(csklearn.feature_extraction.text
CountVectorizer
p1913
g3
NtRp1914
(dp1915
g1666
Vstrict
p1916
sg1668
I01
sg1669
Nsg1670
Nsg1671
Nsg1672
Vutf-8
p1917
sg1674
S'.+'
p1918
sg1676
F1
sg1677
Vword
p1919
sg1679
I01
sg1680
(I1
I1
tp1920
sg1615
Nsg1682
I0
sg1573
Nsg1683
Vcontent
p1921
sg1694
g1695
sg1696
Nsbsg1618
Nsbsaa(lp1922
Vemployer.op_country_tz
p1923
a(dp1924
g1595
g1596
sg1597
Nsg19
g1923
sg1598
Nsg8
Nsg1599
Nsg1606
I01
sg1393
g1847
saa(lp1925
Vemployer.op_timezone
p1926
a(dp1927
g1595
g1596
sg1597
Nsg19
g1926
sg1598
Nsg8
Nsg1599
Nsg1606
I01
sg1393
g1847
saa(lp1928
Vemployer.op_tot_jobs_filled
p1929
a(dp1930
g1595
g1596
sg1597
Nsg19
g1929
sg1598
Nsg8
Nsg1599
g1
(g1600
g3
NtRp1931
(dp1932
g1603
I01
sg1604
(I0
I1
tp1933
sbsg1606
I01
sg1393
g1
(g1607
g3
NtRp1934
(dp1935
g1610
g1611
sg1612
g1613
sg1614
Nsg1615
Nsg1616
g1617
sg1618
Nsbsaa(lp1936
Vhire_outcome
p1937
a(dp1938
g1595
g1596
sg1597
Nsg19
g1937
sg1598
Nsg8
Nsg1599
g1
(g1600
g3
NtRp1939
(dp1940
g1603
I01
sg1604
(I0
I1
tp1941
sbsg1606
I01
sg1393
g1
(ccore.trainer.feature_types.ordinal
OrdinalFeatureTypeInstance
p1942
g3
NtRp1943
(dp1944
g1616
g1617
sg1614
Nsg1610
g1611
sg1615
Nsg1618
(dp1945
Vmappings
p1946
(dp1947
Vclass2
p1948
I0
sVclass1
p1949
I1
sssbsaa(lp1950
g885
a(dp1951
g1595
g1596
sg1597
Nsg19
g885
sg1598
Nsg8
Nsg1599
g1
(g1600
g3
NtRp1952
(dp1953
g1603
I01
sg1604
(I0
I1
tp1954
sbsg1606
I01
sg1393
g1
(g1607
g3
NtRp1955
(dp1956
g1610
g1611
sg1612
g1613
sg1614
Nsg1615
Nsg1616
g1617
sg1618
Nsbsaa(lp1957
Vtsexams
p1958
a(dp1959
g1595
Vdict
p1960
sg1597
Nsg19
g1958
sg1598
Nsg8
F0.33000000000000002
sg1599
g1
(g1600
g3
NtRp1961
(dp1962
g1603
I01
sg1604
(I0
I1
tp1963
sbsg1606
I01
sg1393
g1
(g1607
g3
NtRp1964
(dp1965
g1610
g1611
sg1612
g1627
sg1614
Nsg1615
g1
(csklearn.feature_extraction.dict_vectorizer
DictVectorizer
p1966
g3
NtRp1967
(dp1968
S'sort'
p1969
I01
sg1694
cnumpy
float64
p1970
sS'separator'
p1971
S'='
sS'sparse'
p1972
I01
sbsg1616
g1617
sg1618
NsbsaatRp1973
sS'required_feature_names'
p1974
(lp1975
g1593
ag1620
ag1629
ag1637
ag1645
ag1653
ag1661
ag1705
ag1713
ag1721
ag1729
ag1738
ag1746
ag1758
ag1766
ag1774
ag1788
ag1796
ag1804
ag1812
ag1820
ag1828
ag1836
ag1844
ag1860
ag1868
ag1876
ag1884
ag1892
ag1900
ag1908
ag1923
ag1926
ag1929
ag1937
ag885
ag1958
asS'group_by'
p1976
(lp1977
sS'target_variable'
p1978
g1937
sS'schema_name'
p1979
Vbestmatch
p1980
sS'_named_feature_types'
p1981
(dp1982
Vstr_to_timezone
p1983
g1847
ssS'classifier_cls'
p1984
g1529
sS'classifier'
p1985
(dp1986
g1573
g1574
sg1532
g1533
sg1578
I2
sg1409
g1576
sg1572
I1
ssg1365
g1366
sbsS'_features'
p1987
(dp1988
g8
g1590
((lp1989
(lp1990
g1593
a(dp1991
g1597
Nsg19
g1593
sg1599
g1
(g1600
g3
NtRp1992
(dp1993
g1604
g1605
sS'scale_'
p1994
g1536
(g1537
(I0
tS'b'
tRp1995
(I1
(I1
tg17
I00
S'\x00\x00\x00\x00\x00\x00\xc0?'
tbsS'data_range'
p1996
g1536
(g1537
(I0
tS'b'
tRp1997
(I1
(I1
tg17
I00
S'\x00\x00\x00\x00\x00\x00 @'
tbsS'data_min'
p1998
g1536
(g1537
(I0
tS'b'
tRp1999
(I1
(I1
tg17
I00
S'\x00\x00\x00\x00\x00\x00\x00\x00'
tbsS'min_'
p2000
g1536
(g1537
(I0
tS'b'
tRp2001
(I1
(I1
tg17
I00
S'\x00\x00\x00\x00\x00\x00\x00\x00'
tbsg1603
I01
sbsg8
Nsg1606
I01
sg1595
g1596
sg1598
Nsg1393
g1
(g1607
g3
NtRp2002
(dp2003
g1610
(lp2004
sg1614
Nsg1612
g1613
sg1616
g1617
sg1618
Nsg1615
Nsbsaa(lp2005
g1620
a(dp2006
g1597
Nsg19
g1620
sg1599
g1
(g1600
g3
NtRp2007
(dp2008
g1604
g1624
sg1994
g1536
(g1537
(I0
tS'b'
tRp2009
(I1
(I1
tg17
I00
S'\x00\x00\x00\x00\x00\x00\xf0?'
tbsg1996
g1536
(g1537
(I0
tS'b'
tRp2010
(I1
(I1
tg17
I00
S'\x00\x00\x00\x00\x00\x00\xf0?'
tbsg1998
g1536
(g1537
(I0
tS'b'
tRp2011
(I1
(I1
tg17
I00
S'\x00\x00\x00\x00\x00\x00\x00\x00'
tbsg2000
g1536
(g1537
(I0
tS'b'
tRp2012
(I1
(I1
tg17
I00
S'\x00\x00\x00\x00\x00\x00\x00\x00'
tbsg1603
I01
sbsg8
Nsg1606
I01
sg1595
g1596
sg1598
Nsg1393
g1
(g1607
g3
NtRp2013
(dp2014
g1610
g2004
sg1614
Nsg1612
g1627
sg1616
g1617
sg1618
Nsg1615
Nsbsaa(lp2015
g1629
a(dp2016
g1597
Nsg19
g1629
sg1599
g1
(g1600
g3
NtRp2017
(dp2018
g1604
g1633
sg1994
g1536
(g1537
(I0
tS'b'
tRp2019
(I1
(I1
tg17
I00
S'\x9a\x99\x99\x99\x99\x99\xc9?'
tbsg1996
g1536
(g1537
(I0
tS'b'
tRp2020
(I1
(I1
tg17
I00
S'\x00\x00\x00\x00\x00\x00\x14@'
tbsg1998
g1536
(g1537
(I0
tS'b'
tRp2021
(I1
(I1
tg17
I00
S'\x00\x00\x00\x00\x00\x00\x00\x00'
tbsg2000
g1536
(g1537
(I0
tS'b'
tRp2022
(I1
(I1
tg17
I00
S'\x00\x00\x00\x00\x00\x00\x00\x00'
tbsg1603
I01
sbsg8
Nsg1606
I01
sg1595
g1596
sg1598
Nsg1393
g1
(g1607
g3
NtRp2023
(dp2024
g1610
g2004
sg1614
Nsg1612
g1627
sg1616
g1617
sg1618
Nsg1615
Nsbsaa(lp2025
g1637
a(dp2026
g1597
Nsg19
g1637
sg1599
g1
(g1600
g3
NtRp2027
(dp2028
g1604
g1641
sg1994
g1536
(g1537
(I0
tS'b'
tRp2029
(I1
(I1
tg17
I00
S'\x9a\x99\x99\x99\x99\x99\x99?'
tbsg1996
g1536
(g1537
(I0
tS'b'
tRp2030
(I1
(I1
tg17
I00
S'\x00\x00\x00\x00\x00\x00D@'
tbsg1998
g1536
(g1537
(I0
tS'b'
tRp2031
(I1
(I1
tg17
I00
S'\x00\x00\x00\x00\x00\x00\x00\x00'
tbsg2000
g1536
(g1537
(I0
tS'b'
tRp2032
(I1
(I1
tg17
I00
S'\x00\x00\x00\x00\x00\x00\x00\x00'
tbsg1603
I01
sbsg8
Nsg1606
I01
sg1595
g1596
sg1598
Nsg1393
g1
(g1607
g3
NtRp2033
(dp2034
g1610
g2004
sg1614
Nsg1612
g1613
sg1616
g1617
sg1618
Nsg1615
Nsbsaa(lp2035
g1645
a(dp2036
g1597
Nsg19
g1645
sg1599
g1
(g1600
g3
NtRp2037
(dp2038
g1604
g1649
sg1994
g1536
(g1537
(I0
tS'b'
tRp2039
(I1
(I1
tg17
I00
S'ysB\x89\x06nq?'
tbsg1996
g1536
(g1537
(I0
tS'b'
tRp2040
(I1
(I1
tg17
I00
S'\x00\x00\x00\x00\x00`m@'
tbsg1998
g1536
(g1537
(I0
tS'b'
tRp2041
(I1
(I1
tg17
I00
S'\x00\x00\x00\x00\x00\x00\x00\x00'
tbsg2000
g1536
(g1537
(I0
tS'b'
tRp2042
(I1
(I1
tg17
I00
S'\x00\x00\x00\x00\x00\x00\x00\x00'
tbsg1603
I01
sbsg8
Nsg1606
I01
sg1595
g1596
sg1598
Nsg1393
g1
(g1607
g3
NtRp2043
(dp2044
g1610
g2004
sg1614
Nsg1612
g1613
sg1616
g1617
sg1618
Nsg1615
Nsbsaa(lp2045
g1653
a(dp2046
g1597
Nsg19
g1653
sg1599
g1
(g1600
g3
NtRp2047
(dp2048
g1604
g1657
sg1994
g1536
(g1537
(I0
tS'b'
tRp2049
(I1
(I1
tg17
I00
S'\xba0\x01C\xed\xb7\x8e?'
tbsg1996
g1536
(g1537
(I0
tS'b'
tRp2050
(I1
(I1
tg17
I00
S'{\x14\xaeG\xe1\xaaP@'
tbsg1998
g1536
(g1537
(I0
tS'b'
tRp2051
(I1
(I1
tg17
I00
S'\x00\x00\x00\x00\x00\x00\x00\x00'
tbsg2000
g1536
(g1537
(I0
tS'b'
tRp2052
(I1
(I1
tg17
I00
S'\x00\x00\x00\x00\x00\x00\x00\x00'
tbsg1603
I01
sbsg8
Nsg1606
I01
sg1595
g1596
sg1598
Nsg1393
g1
(g1607
g3
NtRp2053
(dp2054
g1610
g2004
sg1614
Nsg1612
g1627
sg1616
g1617
sg1618
Nsg1615
Nsbsaa(lp2055
g1661
a(dp2056
g1597
g1
(g1663
g3
NtRp2057
(dp2058
g1666
g1667
sg1670
Nsg1672
g1673
sg1674
g1675
sg1677
g1678
sg1680
g1681
sg1615
Nsg1676
F1
sg1682
I10
sg1573
NsS'fixed_vocabulary_'
p2059
I00
sS'stop_words_'
p2060
c__builtin__
set
p2061
((lp2062
Vaided
p2063
aVpersonally
p2064
aVdynamic
p2065
aVyellow
p2066
aVrapid
p2067
aVrelationships
p2068
aVwhose
p2069
aVpatches
p2070
aVjavaee
p2071
aVcreated
p2072
aVunder
p2073
aVstationery
p2074
aVteaching
p2075
aVpride
p2076
aVspec
p2077
aVicecast
p2078
aVevery
p2079
aVvoip
p2080
aVunity3d
p2081
aVschool
p2082
aVadministrating
p2083
aVsolution
p2084
aVsolutios
p2085
aVsamurai
p2086
aVvector
p2087
aVenhance
p2088
aVcms
p2089
aVenjoy
p2090
aVaeronautics
p2091
aVpragmatic
p2092
aVconsistent
p2093
aVdirect
p2094
aVdisciplined
p2095
aVsecond
p2096
aVsubordinate
p2097
aVimplemented
p2098
aVgetacoder
p2099
aVeven
p2100
aVestablished
p2101
aVhp
p2102
aVdecoding
p2103
aVabove
p2104
aVdesigning
p2105
aVsupplier
p2106
aVnet
p2107
aVever
p2108
aVseeks
p2109
aVspecialist
p2110
aVcentric
p2111
aVsimultaneously
p2112
aVnever
p2113
aVhere
p2114
aVmet
p2115
aVstudio
p2116
aVactive
p2117
aVpath
p2118
aV100
p2119
aVpractices
p2120
aVkids
p2121
aVforum
p2122
aVventures
p2123
aVstudy
p2124
aVreports
p2125
aVcredit
p2126
aVchanges
p2127
aVastute
p2128
aVsecure
p2129
aVhighly
p2130
aVpatience
p2131
aVplesk
p2132
aVchartboost
p2133
aVcatchy
p2134
aVtyps
p2135
aVplayed
p2136
aVleaks
p2137
aVcall
p2138
aVasset
p2139
aVtype
p2140
aVuntil
p2141
aVposting
p2142
aVsuccessful
p2143
aVyahoo
p2144
aVaward
p2145
aVglass
p2146
aVexcellent
p2147
aVhole
p2148
aV95
p2149
aVmust
p2150
aV1991
p2151
aVroom
p2152
aV1996
p2153
aVpursue
p2154
aVsetup
p2155
aVworth
p2156
aVms
p2157
aVmr
p2158
aVroot
p2159
aVgoood
p2160
aVgive
p2161
aVturnmill
p2162
aVindia
p2163
aVhoned
p2164
aVinvolve
p2165
aVcaptcha
p2166
aVwant
p2167
aVscheduling
p2168
aVguarantee
p2169
aVend
p2170
aVthing
p2171
aVreturning
p2172
aVrhinoceros
p2173
aVhow
p2174
aVwriters
p2175
aVactionscript
p2176
aVplace
p2177
aVordinary
p2178
aVvf3
p2179
aVcadence
p2180
aVgaming
p2181
aVdescription
p2182
aVmanuals
p2183
aVafter
p2184
aVreassess
p2185
aVpresident
p2186
aVlaw
p2187
aVtypes
p2188
aVpurchase
p2189
aVeffective
p2190
aVappreciate
p2191
aVorder
p2192
aV16mar2011
p2193
aVfeedback
p2194
aVoffice
p2195
aVdevote
p2196
aVdreamed
p2197
aVzen
p2198
aVsatisfied
p2199
aVpartnered
p2200
aVkeyboard
p2201
aVresponsive
p2202
aVfit
p2203
aVmypics
p2204
aVpersonal
p2205
aVexpectations
p2206
aVclc
p2207
aVbetter
p2208
aVproduction
p2209
aV400
p2210
aVfotocommunity
p2211
aVthen
p2212
aVthem
p2213
aVenrich
p2214
aVtrevisd
p2215
aVeffects
p2216
aVthey
p2217
aVlifelong
p2218
aVrepresents
p2219
aVeach
p2220
aVside
p2221
aVmean
p2222
aVadobe
p2223
aVindependent
p2224
aVseries
p2225
aVmagneto
p2226
aVaide
p2227
aVlaboratory
p2228
aVchannal
p2229
aVnetwork
p2230
aVcontent
p2231
aVre
p2232
aVsmm
p2233
aVbranch
p2234
aVoscommerce
p2235
aVgot
p2236
aVfoundation
p2237
aVlinear
p2238
aVresume
p2239
aVlittle
p2240
aVfree
p2241
aVstandard
p2242
aVputty
p2243
aV45wpm
p2244
aVboosting
p2245
aVwanted
p2246
aVacrobat
p2247
aVcertified
p2248
aVshelves
p2249
aVsatisfication
p2250
aVdays
p2251
aVpriorities
p2252
aVmvc
p2253
aVuser
p2254
aValready
p2255
aVfeatures
p2256
aVresearcher
p2257
aVcoding
p2258
aVrank
p2259
aVcustomization
p2260
aVelectronic
p2261
aVresearched
p2262
aVillustrate
p2263
aVtoy
p2264
aVguinness
p2265
aVtop
p2266
aVneeded
p2267
aVrates
p2268
aVtoo
p2269
aVupshot
p2270
aVcycle
p2271
aVenhancing
p2272
aVoverhead
p2273
aVserve
p2274
aVtook
p2275
aVcollaterals
p2276
aVmaintaining
p2277
aVpakistani
p2278
aVtarget
p2279
aVroles
p2280
aVzero
p2281
aVebay
p2282
aVpreparation
p2283
aVmatter
p2284
aVcoregraphics
p2285
aVhacking
p2286
aVperspective
p2287
aVrewrite
p2288
aVmodern
p2289
aVmind
p2290
aVmanner
p2291
aVseek
p2292
aVdozen
p2293
aVdbms
p2294
aVzoho
p2295
aVresponsible
p2296
aVeagerly
p2297
aVupholding
p2298
aVcontact
p2299
aVcompleted
p2300
aVdavidson
p2301
aVcommitting
p2302
aVthough
p2303
aVobject
p2304
aVtranslator
p2305
aVchangeworkssystem
p2306
aVoptimized
p2307
aVinvolving
p2308
aVodesk
p2309
aVscripts
p2310
aVdoj
p2311
aVassisting
p2312
aVdon
p2313
aVmedical
p2314
aVfineartprint
p2315
aVcrowd
p2316
aVconsumer
p2317
aVmeetings
p2318
aVperconal
p2319
aVearth
p2320
aVsolusvm
p2321
aVnortheast
p2322
aVimplementation
p2323
aVsummarizing
p2324
aVmatters
p2325
aVpursuing
p2326
aV10
p2327
aVde
p2328
aVdb
p2329
aVscalable
p2330
aVpreferred
p2331
aVgeek
p2332
aVamazon
p2333
aVreport
p2334
aVtoolbox
p2335
aVdr
p2336
aVcomply
p2337
aVfields
p2338
aVarchitecture
p2339
aVrelease
p2340
aVtrevis
p2341
aVthumbs
p2342
aVfair
p2343
aVbranding
p2344
aVtesting
p2345
aVresult
p2346
aVtechniques
p2347
aVsaid
p2348
aVaway
p2349
aVupgraded
p2350
aVnarrates
p2351
aVbookmarking
p2352
aVapproach
p2353
aVhandwritten
p2354
aVwe
p2355
aVterms
p2356
aVextend
p2357
aVhowever
p2358
aVhtml5
p2359
aVdedication
p2360
aVnews
p2361
aVmotto
p2362
aVpackages
p2363
aVimprove
p2364
aVreceived
p2365
aVgames
p2366
aVexceeds
p2367
aVchina
p2368
aVlogin
p2369
aVskill
p2370
aVhardworking
p2371
aVvexel
p2372
aVkohana
p2373
aVspeak
p2374
aVcustomisation
p2375
aVstrong
p2376
aVproceeded
p2377
aVengines
p2378
aVbasis
p2379
aVunion
p2380
aVfrm
p2381
aVquickly
p2382
aVconfident
p2383
aVmuch
p2384
aVdreamweaver
p2385
aVbasic
p2386
aVflexible
p2387
aVpro
p2388
aVlife
p2389
aVworker
p2390
aVcatering
p2391
aVcraft
p2392
aVraphaeljs
p2393
aVworked
p2394
aVspin
p2395
aVcommerce
p2396
aVwfl
p2397
aVsubmissions
p2398
aVprofessionally
p2399
aVemploy
p2400
aVadwirl
p2401
aVemployees
p2402
aVnodejs
p2403
aVip
p2404
aVplayer
p2405
aVid
p2406
aVtrusted
p2407
aVhone
p2408
aVspecialization
p2409
aVperform
p2410
aVthings
p2411
aVmake
p2412
aVlinked
p2413
aVcraigslist
p2414
aVcomplex
p2415
aVseveral
p2416
aVevolve
p2417
aVsocial
p2418
aVqualifications
p2419
aVworkforce
p2420
aVhand
p2421
aVportal
p2422
aVbitkeeper
p2423
aVpotentials
p2424
aVopportunity
p2425
aVnit
p2426
aVkid
p2427
aVpracticed
p2428
aVlucas
p2429
aVthy
p2430
aVprograms
p2431
aVuploading
p2432
aVezinearticles
p2433
aVmaterials
p2434
aVgreatest
p2435
aVqualities
p2436
aVclaims
p2437
aVcorporate
p2438
aVyours
p2439
aVseasonal
p2440
aVetiquette
p2441
aVisourceph
p2442
aVjust
p2443
aVversed
p2444
aVphoto
p2445
aVgrades
p2446
aVthanks
p2447
aVhuman
p2448
aVyet
p2449
aVprevious
p2450
aVsuccessfactors
p2451
aVhad
p2452
aVadvancement
p2453
aVanimation
p2454
aVbrainstorming
p2455
aVeasy
p2456
aVhas
p2457
aVhat
p2458
aVpossible
p2459
aVbackground
p2460
aVclustered
p2461
aVunique
p2462
aV328
p2463
aVadvanced
p2464
aVdesire
p2465
aVgifs
p2466
aVperforming
p2467
aVmanual
p2468
aV50
p2469
aVbpo
p2470
aVspecific
p2471
aVmajored
p2472
aVdimention
p2473
aVsecurity
p2474
aVwww
p2475
aVright
p2476
aVhonored
p2477
aVcentos
p2478
aVpeople
p2479
aVsuccessfully
p2480
aVborn
p2481
aVdear
p2482
aVcarts
p2483
aVcordoba
p2484
aVfox
p2485
aVcreative
p2486
aVeverything
p2487
aVtracker
p2488
aVbooking
p2489
aVcore
p2490
aVexprience
p2491
aVplz
p2492
aVauthkey
p2493
aVanimtor
p2494
aVarchitectural
p2495
aVgraduated
p2496
aVeye
p2497
aVplm
p2498
aVmanufacturing
p2499
aVpostgresql
p2500
aVmonths
p2501
aVjoomla
p2502
aVplus
p2503
aVconsulting
p2504
aVtarpaulin
p2505
aVcivic
p2506
aVsugarcrm
p2507
aVprofession
p2508
aVsergij
p2509
aVparsing
p2510
aVdown
p2511
aVlies
p2512
aVold
p2513
aVoften
p2514
aVgit
p2515
aVfabric
p2516
aVclass
p2517
aVeditor
p2518
aVway
p2519
aVmusic
p2520
aVwas
p2521
aVhead
p2522
aVmedium
p2523
aVamateur
p2524
aVoffer
p2525
aVbecoming
p2526
aVanalyse
p2527
aVlanding
p2528
aVencoder
p2529
aVfreelancer
p2530
aVtalents
p2531
aVresponding
p2532
aVsophienczuk
p2533
aVwebs
p2534
aVdevices
p2535
aVtell
p2536
aVproud
p2537
aVzend
p2538
aVcovers
p2539
aVdrive
p2540
aVaccounting
p2541
aVmold
p2542
aVcheck
p2543
aVspecially
p2544
aVnl
p2545
aVno
p2546
aVnc
p2547
aVwhen
p2548
aVnx
p2549
aVinterested
p2550
aVrole
p2551
aVpapers
p2552
aVtest
p2553
aVjenkins
p2554
aVdevelopers
p2555
aVmodels
p2556
aVwelcome
p2557
aVnotepad
p2558
aVconcurrent
p2559
aVsql
p2560
aVhappening
p2561
aVphone
p2562
aVserious
p2563
aVbanners
p2564
aVpaced
p2565
aVanimator
p2566
aVconcept
p2567
aVmanaged
p2568
aVremarkable
p2569
aVswitched
p2570
aVfocus
p2571
aVmanager
p2572
aVllc
p2573
aVror
p2574
aVvarnish
p2575
aVdepend
p2576
aVgraph
p2577
aVfreelance
p2578
aVflash
p2579
aVgigs
p2580
aVenvironment
p2581
aVpeachtree
p2582
aVfoursquare
p2583
aVjvm
p2584
aVtext
p2585
aVadvantage
p2586
aVunfamiliar
p2587
aVchoice
p2588
aV21dec2011
p2589
aVartwork
p2590
aVexact
p2591
aVimpressive
p2592
aVsolver
p2593
aVphilippines
p2594
aVwowza
p2595
aVstandards
p2596
aVleave
p2597
aVexcellence
p2598
aVteam
p2599
aVquick
p2600
aVsays
p2601
aVdealing
p2602
aVhtm
p2603
aVdiscover
p2604
aVprofessionalism
p2605
aVcost
p2606
aVpmb
p2607
aVcurrent
p2608
aVremembered
p2609
aVhungry
p2610
aVgoes
p2611
aVrelational
p2612
aVenthusiast
p2613
aVheavily
p2614
aVassertive
p2615
aVfrench
p2616
aVunderstanding
p2617
aVmarkkiessling
p2618
aVaddress
p2619
aVapache
p2620
aValong
p2621
aVchange
p2622
aVwait
p2623
aVbox
p2624
aVweb2
p2625
aVthirty
p2626
aVhealthy
p2627
aV6500
p2628
aVexams
p2629
aVlove
p2630
aVconfidentiality
p2631
aVapd62ohyvblhm0u
p2632
aVlogical
p2633
aVsincerely
p2634
aVxero
p2635
aV1st
p2636
aVforefront
p2637
aVshould
p2638
aVpost
p2639
aVmarket
p2640
aVhandled
p2641
aVprove
p2642
aVby
p2643
aVlive
p2644
aViphone
p2645
aVhttps
p2646
aVmemory
p2647
aVtoday
p2648
aVafford
p2649
aVorganized
p2650
aVacceptable
p2651
aVenvelope
p2652
aVdistribution
p2653
aVvisual
p2654
aVeverywhere
p2655
aVoop
p2656
aVcases
p2657
aVeffort
p2658
aVeasiest
p2659
aVorganizations
p2660
aVgraphic
p2661
aVdhtml
p2662
aVtitanium
p2663
aVpretend
p2664
aVreviews
p2665
aVvalues
p2666
aVhope
p2667
aVcam
p2668
aVgrowing
p2669
aVmaking
p2670
aVcae
p2671
aVcad
p2672
aVdedicated
p2673
aVnursing
p2674
aVfigure
p2675
aVnexus
p2676
aVnewsletters
p2677
aVagent
p2678
aVcritic
p2679
aVproductive
p2680
aVmonitoring
p2681
aVexceptional
p2682
aVmagazine
p2683
aVwrite
p2684
aVtill
p2685
aVxhtml
p2686
aVspeaks
p2687
aVeconomy
p2688
aVmap
p2689
aVproduct
p2690
aV140
p2691
aVinformation
p2692
aVmay
p2693
aVmax
p2694
aVbrazen
p2695
aVapplications
p2696
aVmac
p2697
aVproduce
p2698
aVdesigned
p2699
aVimproving
p2700
aVsuch
p2701
aVsuck
p2702
aVgrow
p2703
aVman
p2704
aVsucceeded
p2705
aVconscious
p2706
aVcorona
p2707
aVfluent
p2708
aVcapistrano
p2709
aVso
p2710
aVrepresentation
p2711
aVse
p2712
aVssh
p2713
aVspreadsheets
p2714
aVhiring
p2715
aVcold
p2716
aVmachine
p2717
aVgroup
p2718
aVthank
p2719
aVrossica
p2720
aVencompasses
p2721
aVforms
p2722
aVplatform
p2723
aVlisting
p2724
aVmail
p2725
aVmain
p2726
aVviews
p2727
aVsooner
p2728
aVscaling
p2729
aVrecords
p2730
aVqualified
p2731
aVcourse
p2732
aV1950
p2733
aVhalf
p2734
aVispconfig
p2735
aVnor
p2736
aVpossess
p2737
aVterm
p2738
aVname
p2739
aVadmob
p2740
aVoffshore
p2741
aVshowcasing
p2742
aVtopsolid
p2743
aVdomain
p2744
aVsquare
p2745
aVmysql5
p2746
aVchallenges
p2747
aVyear
p2748
aVcalling
p2749
aVcanada
p2750
aVliving
p2751
aVcanvas
p2752
aVaccomplish
p2753
aVgamers
p2754
aV3rd
p2755
aVmultiplayer
p2756
aVincrease
p2757
aVinternet
p2758
aVassurance
p2759
aVsuperiors
p2760
aVcart
p2761
aVquite
p2762
aVajax
p2763
aVmimi
p2764
aVorg
p2765
aVcare
p2766
aVtraining
p2767
aVjournalist
p2768
aVlanguage
p2769
aVselections
p2770
aVlistings
p2771
aVprogramming
p2772
aVhonest
p2773
aVmotion
p2774
aVturn
p2775
aVyum
p2776
aVpromotion
p2777
aVthink
p2778
aVprograming
p2779
aVfirst
p2780
aVenhances
p2781
aVclause
p2782
aVfast
p2783
aVdirectly
p2784
aVcarry
p2785
aVopen
p2786
aVgeorge
p2787
aVengineer
p2788
aVsurveys
p2789
aVnecessarily
p2790
aViad
p2791
aVcaught
p2792
aVyii
p2793
aVanyone
p2794
aVrenderings
p2795
aVreturns
p2796
aVtyping
p2797
aVwhite
p2798
aVspeaking
p2799
aVmining
p2800
aVreleases
p2801
aVcontinuous
p2802
aVcerebro
p2803
aVspecialists
p2804
aVcopy
p2805
aVintrinsically
p2806
aVwide
p2807
aV13
p2808
aV12
p2809
aV15
p2810
aV18
p2811
aVrequire
p2812
aVtypography
p2813
aVventure
p2814
aVcards
p2815
aVpre
p2816
aVregister
p2817
aVtopics
p2818
aVlocations
p2819
aVant
p2820
aVsay
p2821
aVworksheets
p2822
aVsap
p2823
aVany
p2824
aVcassandra
p2825
aVconversion
p2826
aVefficient
p2827
aVtranscription
p2828
aVediting
p2829
aVanswering
p2830
aVideas
p2831
aVnote
p2832
aVacumen
p2833
aVsquad
p2834
aVtranscribed
p2835
aVtake
p2836
aVonline
p2837
aVcreatively
p2838
aVperformance
p2839
aVstrengths
p2840
aVhanding
p2841
aVsure
p2842
aVmultiple
p2843
aVukrainian
p2844
aVtrack
p2845
aVprice
p2846
aVvisitors
p2847
aVprinted
p2848
aVremarks
p2849
aVpages
p2850
aVlater
p2851
aVsale
p2852
aVsenior
p2853
aVshop
p2854
aVnextag
p2855
aVshot
p2856
aVoutsourcing
p2857
aVdrawings
p2858
aVinjection
p2859
aVground
p2860
aVxml
p2861
aVratio
p2862
aVoutside
p2863
aVonly
p2864
aVgoing
p2865
aVblack
p2866
aVequipped
p2867
aVget
p2868
aVassistant
p2869
aVtrustworty
p2870
aVoverdeliver
p2871
aVemployers
p2872
aVaim
p2873
aVnearly
p2874
aVhonours
p2875
aVsecondary
p2876
aVresource
p2877
aVintuitive
p2878
aVartist
p2879
aVexplore
p2880
aVrounder
p2881
aVsummary
p2882
aVadvertisor
p2883
aVsource
p2884
aVinnovative
p2885
aVcollege
p2886
aVpebble
p2887
aVenhacement
p2888
aVsatisfying
p2889
aVmorocco
p2890
aVmanaging
p2891
aVrajeev
p2892
aVsites
p2893
aVcuello022206
p2894
aVwojczyszyn
p2895
aVbehind
p2896
aVbetween
p2897
aVinfrastructure
p2898
aVscreen
p2899
aVflow
p2900
aVjs
p2901
aVjd
p2902
aVarticle
p2903
aVcome
p2904
aVassess
p2905
aVconcentrated
p2906
aVfliers
p2907
aVmany
p2908
aVsolidworks
p2909
aVaccording
p2910
aVenabling
p2911
aVcolumnist
p2912
aVworkplace
p2913
aVcomes
p2914
aVsymfony
p2915
aVamong
p2916
aV60
p2917
aVcoredata
p2918
aVlearning
p2919
aVmoreover
p2920
aVendeavor
p2921
aVconsidering
p2922
aVarts
p2923
aVtuning
p2924
aVcapable
p2925
aVmark
p2926
aVdelcam
p2927
aVglassfish
p2928
aVdependable
p2929
aVtheam
p2930
aV500
p2931
aVengine
p2932
aVenable
p2933
aVshopping
p2934
aVoffered
p2935
aVcreo
p2936
aVproven
p2937
aVebusiness
p2938
aVattentive
p2939
aVruby
p2940
aVformer
p2941
aVprotocols
p2942
aVsound
p2943
aVmyself
p2944
aVdeveloping
p2945
aVthese
p2946
aVadmin
p2947
aVpromising
p2948
aVnewspaper
p2949
aVsituation
p2950
aVcoolest
p2951
aVtelephone
p2952
aVsudden
p2953
aVconverts
p2954
aVsomebody
p2955
aVtechnology
p2956
aVdifferent
p2957
aVdevelop
p2958
aVetc
p2959
aVpay
p2960
aVsame
p2961
aVtranscribing
p2962
aVauthentication
p2963
aVgeodatix
p2964
aVlite
p2965
aVdocument
p2966
aVweek
p2967
aVextended
p2968
aVassist
p2969
aVdriven
p2970
aVwpm
p2971
aVchanging
p2972
aVcck
p2973
aVmodel
p2974
aVdimension
p2975
aVresearchers
p2976
aVedwards
p2977
aVnosql
p2978
aVpakistan
p2979
aVbeing
p2980
aVknowledgeable
p2981
aVvaluable
p2982
aVreputable
p2983
aVgreetings
p2984
aV6days
p2985
aVsummed
p2986
aVtouch
p2987
aVspeed
p2988
aVweekly
p2989
aVautocad
p2990
aVhsphere
p2991
aVdesktop
p2992
aVblog
p2993
aVcomplements
p2994
aVextensive
p2995
aVreal
p2996
aVaspects
p2997
aVaround
p2998
aVdelhi
p2999
aVpsd
p3000
aVbreedlove
p3001
aVtraffic
p3002
aVmom
p3003
aVworld
p3004
aVweb2py
p3005
aVdisappointed
p3006
aVmod
p3007
aVfortune
p3008
aVidentifying
p3009
aVserver
p3010
aVbenefit
p3011
aVeither
p3012
aVoutput
p3013
aVpassionate
p3014
aVsatisfactory
p3015
aVverbal
p3016
aVcompetition
p3017
aVspecified
p3018
aVimages
p3019
aVorganizing
p3020
aVthinks
p3021
aVprovided
p3022
aVhighest
p3023
aVredis
p3024
aVredir
p3025
aVlegal
p3026
aVpioneer
p3027
aVcritical
p3028
aVprovider
p3029
aVdirector
p3030
aVspecializing
p3031
aVkvm
p3032
aVscientific
p3033
aVpower
p3034
aVconvincing
p3035
aVliveshare
p3036
aVflyers
p3037
aVknowleadge
p3038
aVcentral
p3039
aVindustry
p3040
aVhiatus
p3041
aVhardcopies
p3042
aVstand
p3043
aVbackup
p3044
aVprocessor
p3045
aVpsh2html
p3046
aVcommunication
p3047
aVimage
p3048
aVskilled
p3049
aVreferences
p3050
aVfinancial
p3051
aVtechnically
p3052
aVbuds
p3053
aVprepare
p3054
aVarea
p3055
aVremoving
p3056
aVthere
p3057
aVdeadlines
p3058
aVbangladeshi
p3059
aVstart
p3060
aVlow
p3061
aVlot
p3062
aVshoutcast
p3063
aVapis
p3064
aVtechnologies
p3065
aVtrying
p3066
aVhire
p3067
aVcacti
p3068
aVillustrator
p3069
aVdetailed
p3070
aVad
p3071
aVvideos
p3072
aVtaste
p3073
aVdescribe
p3074
aVsales
p3075
aVdeep
p3076
aVnagios
p3077
aVreliability
p3078
aVfile
p3079
aVlogo
p3080
aVquickbooks
p3081
aVagain
p3082
aVdrafts
p3083
aV1562408
p3084
aVpersonnel
p3085
aVgraduate
p3086
aVproductively
p3087
aVfield
p3088
aV28078
p3089
aVmathematics
p3090
aV2007
p3091
aVoneself
p3092
aVobsessed
p3093
aVtranslated
p3094
aVpear
p3095
aVincludes
p3096
aVimportant
p3097
aVnapier
p3098
aVsuited
p3099
aVmechanical
p3100
aVbuilding
p3101
aVremote
p3102
aVcalls
p3103
aVwife
p3104
aVcpa
p3105
aVtricks
p3106
aVwebsites
p3107
aVhello
p3108
aVdirectory
p3109
aVoral
p3110
aVoriginal
p3111
aVmigrated
p3112
aValm
p3113
aVb43b054378357819
p3114
aVfounder
p3115
aVmonth
p3116
aVpostponing
p3117
aVdeadline
p3118
aVfollow
p3119
aVdecisions
p3120
aVsmo
p3121
aVhunting
p3122
aVicons
p3123
aVtv
p3124
aVopportunities
p3125
aVprogram
p3126
aVopensource
p3127
aVpresentation
p3128
aVfax
p3129
aVreturned
p3130
aVsitting
p3131
aVminded
p3132
aVdifference
p3133
aVcondition
p3134
aVlist
p3135
aVapplicable
p3136
aVlarge
p3137
aVscrapping
p3138
aVsmall
p3139
aVten
p3140
aVpast
p3141
aVrate
p3142
aVenhancement
p3143
aVfurther
p3144
aVfunctioning
p3145
aVpinterest
p3146
aVsun
p3147
aVsection
p3148
aVassociate
p3149
aVlearner
p3150
aVversion
p3151
aVlearned
p3152
aVmemcached
p3153
aVpublic
p3154
aV5002
p3155
aVfull
p3156
aVtags
p3157
aV21st
p3158
aVhours
p3159
aVoperating
p3160
aVdirections
p3161
aVmanagerial
p3162
aVobserving
p3163
aVhass
p3164
aVsearch
p3165
aVahead
p3166
aVinspired
p3167
aVcompliance
p3168
aVprior
p3169
aVadvertising
p3170
aVpublished
p3171
aVaction
p3172
aVformation
p3173
aVvia
p3174
aVfamily
p3175
aVtoyo
p3176
aVglitch
p3177
aVanalyzing
p3178
aVtrained
p3179
aVestablish
p3180
aVselect
p3181
aVintensive
p3182
aVflaws
p3183
aVtakes
p3184
aVobjectives
p3185
aVfaint
p3186
aVtwo
p3187
aVsaasu
p3188
aVmarkets
p3189
aVachieving
p3190
aVdiamond
p3191
aVdoor
p3192
aVknows
p3193
aVopenvz
p3194
aVbasically
p3195
aVparticular
p3196
aVproducing
p3197
aVwebmaster
p3198
aVglad
p3199
aVkeeping
p3200
aVsalesforce
p3201
aVscience
p3202
aVequation
p3203
aVspecializes
p3204
aVfronted
p3205
aVatari
p3206
aVlearn
p3207
aVstrategies
p3208
aVchallenging
p3209
aVstated
p3210
aVshare
p3211
aVvirtuemart
p3212
aVminimum
p3213
aVmagento
p3214
aVaxis
p3215
aVhuge
p3216
aVneeds
p3217
aVrather
p3218
aVutilize
p3219
aVmaps
p3220
aVbuenos
p3221
aVjustin
p3222
aVtibay
p3223
aVreflect
p3224
aVcatalog
p3225
aVdisable
p3226
aVlighting
p3227
aVcairngorm
p3228
aVresponse
p3229
aVshort
p3230
aVpostfix
p3231
aVmeticulous
p3232
aVdocumentation
p3233
aVbugs
p3234
aVdjango
p3235
aVresponsibility
p3236
aVmedia
p3237
aVcs5
p3238
aVdream
p3239
aVplaying
p3240
aVcs3
p3241
aVreplied
p3242
aVphotoshop
p3243
aVhelp
p3244
aVmission
p3245
aVlicensure
p3246
aVheld
p3247
aVattitude
p3248
aVpaper
p3249
aVthrough
p3250
aVcommitted
p3251
aVits
p3252
aVdeveloper
p3253
aV25
p3254
aVstyle
p3255
aV20
p3256
aV22
p3257
aV23
p3258
aVsolving
p3259
aV29
p3260
aVparts
p3261
aVsystems
p3262
aVbox2d
p3263
aVsomeone
p3264
aVmotivated
p3265
aVseeking
p3266
aVfood
p3267
aVscheglov
p3268
aVframework
p3269
aVfoot
p3270
aVformulating
p3271
aVyr
p3272
aVbigger
p3273
aVinstructions
p3274
aVeasily
p3275
aVlevel
p3276
aV2d
p3277
aVuploads
p3278
aVgnucash
p3279
aVeveryone
p3280
aVgeneration
p3281
aVhard
p3282
aVnumeric
p3283
aVclockwork
p3284
aVexpect
p3285
aVoperation
p3286
aVscribe
p3287
aVinsurance
p3288
aVreally
p3289
aVftp
p3290
aVcatia
p3291
aVconceptualizing
p3292
aVsencha
p3293
aVsince
p3294
aVhealth
p3295
aVprint
p3296
aVoffline
p3297
aVasp
p3298
aVupon
p3299
aVreason
p3300
aVbase
p3301
aVmembers
p3302
aVcss
p3303
aVput
p3304
aVteach
p3305
aVash
p3306
aVrevolutionary
p3307
aVcheers
p3308
aVdrupal
p3309
aVdashcommerce
p3310
aVneeding
p3311
aVamerican
p3312
aVexpecting
p3313
aVthrows
p3314
aVmajor
p3315
aVv6
p3316
aVencoding
p3317
aVfeel
p3318
aVnumber
p3319
aVzurb
p3320
aVdone
p3321
aVdefects
p3322
aVmiss
p3323
aVecommerce
p3324
aVleast
p3325
aV1077457
p3326
aVpassed
p3327
aVweblogic
p3328
aVstore
p3329
aVgps
p3330
aVhim
p3331
aVrelationship
p3332
aVhotel
p3333
aVpart
p3334
aVtranslation
p3335
aVbelieve
p3336
aVonetieva
p3337
aVjquery
p3338
aVkind
p3339
aVdetermines
p3340
aVkindly
p3341
aValphanumeric
p3342
aVglusterfs
p3343
aVaims
p3344
aVrecording
p3345
aVveportal
p3346
aVpolishing
p3347
aVhurco
p3348
aVinteractive
p3349
aVmotivation
p3350
aVoutstanding
p3351
aVchipmunk
p3352
aVmootools
p3353
aVw4m
p3354
aVself
p3355
aVdianwei
p3356
aVbuild
p3357
aVplay
p3358
aVcompetencies
p3359
aVcomponents
p3360
aVsets
p3361
aVchart
p3362
aVmost
p3363
aVexperiences
p3364
aVaires
p3365
aVservices
p3366
aVextremely
p3367
aVachievement
p3368
aVwindows
p3369
aVpopularity
p3370
aVtieva
p3371
aVgiving
p3372
aVartistic
p3373
aVclean
p3374
aVnotch
p3375
aVphysics
p3376
aVmicrosoft
p3377
aVjoining
p3378
aVperseverance
p3379
aVrelation
p3380
aVheadlines
p3381
aVfind
p3382
aVmorisiki
p3383
aVaccess
p3384
aVdepended
p3385
aVwriter
p3386
aVdistributed
p3387
aVfailed
p3388
aVpretty
p3389
aVmoney
p3390
aVdarwin
p3391
aVaccurate
p3392
aVhis
p3393
aVprowess
p3394
aVexpress
p3395
aVrest
p3396
aVinternational
p3397
aVduring
p3398
aVbanner
p3399
aVblogging
p3400
aVexhibiting
p3401
aVadapts
p3402
aVsleeve
p3403
aVrfx
p3404
aVweaver
p3405
aVcrm
p3406
aVbars
p3407
aVset
p3408
aVart
p3409
aVcocos2d
p3410
aVcreator
p3411
aV317
p3412
aVsee
p3413
aVindividual
p3414
aVsem
p3415
aVbudypress
p3416
aVthreats
p3417
aVexpert
p3418
aVmovie
p3419
aVcurrently
p3420
aVkeepalived
p3421
aVrepresentatives
p3422
aVvarious
p3423
aVeurope
p3424
aVprofiling
p3425
aVrecently
p3426
aVcreating
p3427
aVjavascript
p3428
aVmaintainability
p3429
aV1521986
p3430
aVcoffee
p3431
aVscriptlance
p3432
aVfluently
p3433
aVvasilisbankov
p3434
aVleague
p3435
aVrestaurant
p3436
aVannual
p3437
aVevent
p3438
aVthinking
p3439
aVpdm
p3440
aVimproves
p3441
aVhesitand
p3442
aVpdf
p3443
aVlancing
p3444
aVload
p3445
aVpoint
p3446
aVsimple
p3447
aVcomposting
p3448
aVwhatever
p3449
aVdimensional
p3450
aVheader
p3451
aVsimply
p3452
aVlikes
p3453
aVlinux
p3454
aVthroughout
p3455
aVexpensive
p3456
aVpr
p3457
aVjava
p3458
aVpublishing
p3459
aVcreate
p3460
aVcreativity
p3461
aVdue
p3462
aVstrategy
p3463
aVpc
p3464
aVmaintenance
p3465
aVmeeting
p3466
aVfirm
p3467
aVflight
p3468
aVfreelancing
p3469
aVraj
p3470
aVproprietary
p3471
aVprecision
p3472
aVadaptable
p3473
aVdetermination
p3474
aVrepresentative
p3475
aVdemand
p3476
aVinstructor
p3477
aVresid
p3478
aVhandling
p3479
aVlook
p3480
aVsolid
p3481
aVreliable
p3482
aVbudget
p3483
aVtechnical
p3484
aVwhile
p3485
aVoptimization
p3486
aVkick
p3487
aVbehavior
p3488
aVfun
p3489
aVanimated
p3490
aVstudied
p3491
aVcentury
p3492
aVitself
p3493
aVskype
p3494
aVready
p3495
aVria
p3496
aVclerical
p3497
aVshirt
p3498
aVmint
p3499
aVmailing
p3500
aVorders
p3501
aVorientated
p3502
aVcopying
p3503
aVpeoples
p3504
aVcomposition
p3505
aVused
p3506
aVinterpersonal
p3507
aVflurry
p3508
aV000
p3509
aVpurpose
p3510
aVstack
p3511
aVlower
p3512
aVtask
p3513
aVdatabase
p3514
aVpersuasive
p3515
aVspent
p3516
aVanalysis
p3517
aVnoisymusic
p3518
aVperson
p3519
aVsavvy
p3520
aVparametric
p3521
aVspend
p3522
aVwhmcs
p3523
aVabilities
p3524
aVendeavour
p3525
aVlistening
p3526
aVphotoworks
p3527
aVcompetitive
p3528
aVopenstack
p3529
aVgems
p3530
aVcut
p3531
aVadvertisements
p3532
aVcontractor
p3533
aVeager
p3534
aVdixon
p3535
aVinput
p3536
aVcum
p3537
aVadministrative
p3538
aVcustomers
p3539
aVdemands
p3540
aVbig
p3541
aVunlimited
p3542
aVnginx
p3543
aVgame
p3544
aVfalcon
p3545
aVbit
p3546
aVprojects
p3547
aVoutright
p3548
aVsorting
p3549
aVsuccess
p3550
aVsubmission
p3551
aVconfront
p3552
aVfacets
p3553
aVcontinue
p3554
aVpopular
p3555
aVgoogle
p3556
aVmethods
p3557
aVspring
p3558
aVcreation
p3559
aVback
p3560
aVstreaming
p3561
aVtrends
p3562
aVtowards
p3563
aVkeyword
p3564
aVpreparing
p3565
aVdepartmental
p3566
aVshall
p3567
aVintegration
p3568
aVper
p3569
aVscalr
p3570
aVprod
p3571
aVminimal
p3572
aVinclination
p3573
aVprofessionals
p3574
aV300
p3575
aVopencart
p3576
aVprocessing
p3577
aVrus
p3578
aVwsdl
p3579
aVreadability
p3580
aVhamra
p3581
aVtensionmanagementinstitute
p3582
aVanything
p3583
aVgraduation
p3584
aVsimulation
p3585
aVrange
p3586
aVjsp
p3587
aVplan
p3588
aVhometown
p3589
aVinto
p3590
aVwithin
p3591
aVnonsense
p3592
aVservers
p3593
aVperl
p3594
aVcalming
p3595
aVstatistics
p3596
aVinnate
p3597
aVspecifically
p3598
aVcustom
p3599
aVheritage
p3600
aVforward
p3601
aVcarnaudmetalbox
p3602
aVpromotions
p3603
aVsolanghansen
p3604
aVposter
p3605
aVspecialty
p3606
aV987
p3607
aVlink
p3608
aVpytalhost
p3609
aVrussian
p3610
aVline
p3611
aVdirected
p3612
aVconsist
p3613
aVmunin
p3614
aVup
p3615
aVus
p3616
aVmobile
p3617
aVthose
p3618
aVceridian
p3619
aVindividuality
p3620
aVvekperevoda
p3621
aVwilled
p3622
aVbeckoning
p3623
aVdoesn
p3624
aVassociates
p3625
aVchat
p3626
aVorganizational
p3627
aVhuron
p3628
aVmssql
p3629
aVstreamlining
p3630
aVpeace
p3631
aVgooglemap
p3632
aVrewriting
p3633
aVapplication
p3634
aVincome
p3635
aVdepartment
p3636
aVnice
p3637
aVusers
p3638
aVfavourite
p3639
aVmongodb
p3640
aVproblems
p3641
aVrestoration
p3642
aVposters
p3643
aVsvn
p3644
aVhappier
p3645
aVsvg
p3646
aVrequired
p3647
aVdepartments
p3648
aVmonit
p3649
aV2003
p3650
aVdepth
p3651
aV2006
p3652
aVpresenting
p3653
aV2005
p3654
aVoracle
p3655
aV2008
p3656
aV2009
p3657
aVhaving
p3658
aVcode
p3659
aVbroaden
p3660
aVresults
p3661
aVexisting
p3662
aVvsftp
p3663
aVgo
p3664
aVsend
p3665
aVsuits
p3666
aVliterary
p3667
aVhelps
p3668
aVsuite
p3669
aVinclude
p3670
aVfriendly
p3671
aVresources
p3672
aVuploaded
p3673
aVlogos
p3674
aVlisted
p3675
aVmastering
p3676
aVfacebook
p3677
aVstackoverflow
p3678
aVmixing
p3679
aVcategories
p3680
aVtimely
p3681
aVmercurial
p3682
aVtry
p3683
aVassignments
p3684
aVsearchability
p3685
aVbusinesses
p3686
aVhardening
p3687
aVrecruitment
p3688
aVlayouts
p3689
aVvideo
p3690
aVdynamics
p3691
aVclick
p3692
aVvmware
p3693
aVuniversities
p3694
aVhourly
p3695
aVchicago
p3696
aVphonegap
p3697
aVassisted
p3698
aVmultimedia
p3699
aVnetworks
p3700
aVjboss
p3701
aVconsistently
p3702
aVturnaround
p3703
aVtapjoy
p3704
aVfirms
p3705
aVmarketer
p3706
aVexercise
p3707
aV3d
p3708
aVdegree
p3709
aVdelivering
p3710
aVbachelor
p3711
aVbusy
p3712
aVlet
p3713
aVothers
p3714
aVmaven
p3715
aVgreat
p3716
aVengage
p3717
aVtalent
p3718
aVreceive
p3719
aVinvolved
p3720
aV30
p3721
aVkiessling
p3722
aVproducts
p3723
aVmakes
p3724
aVhonor
p3725
aVinvolves
p3726
aVapp
p3727
aVmanage
p3728
aVportals
p3729
aVunderpromise
p3730
aVapi
p3731
aVlodging
p3732
aVapply
p3733
aVtools
p3734
aVcloud
p3735
aVconfidence
p3736
aVhears
p3737
aVusa
p3738
aVguideline
p3739
aVfew
p3740
aVdoubt
p3741
aVthemselves
p3742
aVgained
p3743
aVjournalists
p3744
aVstarted
p3745
aVarranging
p3746
aVpotential
p3747
aVstarter
p3748
aVsubscription
p3749
aVaccount
p3750
aVpracticing
p3751
aVphing
p3752
aVlanguages
p3753
aVthis
p3754
aVchallenge
p3755
aVmeet
p3756
aVcontrol
p3757
aVsqlite
p3758
aVperfecting
p3759
aVreserved
p3760
aVprocess
p3761
aVtax
p3762
aVhigh
p3763
aVsomething
p3764
aVtab
p3765
aVeducational
p3766
aVsit
p3767
aVpoetry
p3768
aVarrangement
p3769
aVlamp
p3770
aVrevision
p3771
aVprofile
p3772
aVadministrator
p3773
aVwatch
p3774
aVfits
p3775
aVcommunicator
p3776
aVmarrow
p3777
aVefficiently
p3778
aVos
p3779
aVzenoss
p3780
aVzbrush
p3781
aVtexturing
p3782
aVelement
p3783
aVencyclopedia
p3784
aVallow
p3785
aVtenure
p3786
aVquotations
p3787
aVfastest
p3788
aVresearching
p3789
aVincluding
p3790
aVlooks
p3791
aVconverting
p3792
aVhbase
p3793
aVchosen
p3794
aVll
p3795
aVemails
p3796
aVwilling
p3797
aVfirmly
p3798
aVchoose
p3799
aVhobby
p3800
aV2011
p3801
aV2012
p3802
aVflex
p3803
aVdesigns
p3804
aVcrash
p3805
aVpython
p3806
aVpractice
p3807
aVindexing
p3808
aVskydrive
p3809
aVeffectatious
p3810
aVsmarty
p3811
aVhands
p3812
aVfront
p3813
aVcakephp
p3814
aVday
p3815
aVstrive
p3816
aVarticles
p3817
aVmasters
p3818
aVkronos
p3819
aVedit
p3820
aVuniversity
p3821
aV3ds
p3822
aVaccounts
p3823
aVluster
p3824
aVexperienced
p3825
aV709
p3826
aVdoing
p3827
aVrelated
p3828
aVsociety
p3829
aVmeta
p3830
aVstatic
p3831
aVcpanel
p3832
aVmxml
p3833
aVour
p3834
aVprogrammer
p3835
aVspecial
p3836
aVout
p3837
aVproofreader
p3838
aVchaos
p3839
aVricky
p3840
aVmate
p3841
aVimpart
p3842
aVred
p3843
aVproficient
p3844
aVipod
p3845
aVloyola
p3846
aVanalytical
p3847
aVcompletely
p3848
aVsurely
p3849
aVtenant
p3850
aVorganic
p3851
aVcould
p3852
aVopengl
p3853
aVask
p3854
aVtimes
p3855
aVkeen
p3856
aVpasting
p3857
aVstimulate
p3858
aVplastics
p3859
aVindesign
p3860
aVblogger
p3861
aVpowerful
p3862
aVstrategic
p3863
aVimprovements
p3864
aVpuppet
p3865
aVhonestly
p3866
aVowner
p3867
aVlong
p3868
aVstrict
p3869
aVdetailing
p3870
aVsystem
p3871
aVpriority
p3872
aVtheir
p3873
aVmechnisam
p3874
aVperfectly
p3875
aVfinal
p3876
aVaodrgsiggnrjrzs
p3877
aVexplanation
p3878
aVrsa
p3879
aVregards
p3880
aVmanipulation
p3881
aVhaven
p3882
aVupdating
p3883
aVrss
p3884
aVipad
p3885
aVbother
p3886
aVsubmitted
p3887
aVdmu50
p3888
aVproviding
p3889
aVcollecting
p3890
aVvericut
p3891
aVneed
p3892
aVclearly
p3893
aVcompetency
p3894
aVdocuments
p3895
aVstudying
p3896
aVable
p3897
aVstegloff
p3898
aVconcerns
p3899
aVwhich
p3900
aVlinda
p3901
aVsingh
p3902
aVsubject
p3903
aVsoap
p3904
aVaccuracy
p3905
aVworldwide
p3906
aVunless
p3907
aVcentre
p3908
aVwho
p3909
aVaws
p3910
aVdelve
p3911
aVsegment
p3912
aVwhy
p3913
aVvolume
p3914
aVurl
p3915
aVarchiving
p3916
aVhi
p3917
aVdatabases
p3918
aVgain
p3919
aVselection
p3920
aVdba
p3921
aVplease
p3922
aVretouching
p3923
aVplanning
p3924
aVmanchester
p3925
aVportfolio
p3926
aVdebate
p3927
aVlitigation
p3928
aVha
p3929
aVbased
p3930
aVearned
p3931
aVcache
p3932
aVemployer
p3933
aVemployee
p3934
aVemployed
p3935
aVlocal
p3936
aVachieve
p3937
aVmeans
p3938
aVfamiliar
p3939
aVones
p3940
aVwords
p3941
aVdb2
p3942
aVprocedures
p3943
aVareas
p3944
aVnetsuite
p3945
aVteams
p3946
aVqc
p3947
aVstuff
p3948
aVshe
p3949
aVqueries
p3950
aVgrab
p3951
aVconversions
p3952
aVavailable
p3953
aVrightscale
p3954
aVacquired
p3955
aVtravis
p3956
aVcomputer
p3957
aVwritten
p3958
aVcopywriting
p3959
aVprogress
p3960
aVemail
p3961
aVattention
p3962
aVability
p3963
aVopening
p3964
aVimportance
p3965
aVdeliver
p3966
aVimplementing
p3967
aVjob
p3968
aVkey
p3969
aVconfiguration
p3970
aVswift
p3971
aVker
p3972
aVdiligent
p3973
aVcareer
p3974
aVtaking
p3975
aVpresentations
p3976
aVassure
p3977
aVwaiters
p3978
aVmentoring
p3979
aVmodeling
p3980
aVjson
p3981
aVseasoned
p3982
aVpoet
p3983
aVutilizing
p3984
aVwaste
p3985
aVmike
p3986
aVboth
p3987
aVsufficient
p3988
aVal
p3989
aVcontroller
p3990
aVgraphics
p3991
aVgeneral
p3992
aVpresent
p3993
aVhmc
p3994
aVmulti
p3995
aVvalue
p3996
aVframeworks
p3997
aVstunning
p3998
aVscanned
p3999
aVve
p4000
aValmost
p4001
aVsite
p4002
aVlinkedin
p4003
aVhelped
p4004
aVarabic
p4005
aVregression
p4006
aVbegan
p4007
aVadministration
p4008
aVmember
p4009
aVunity
p4010
aVbecame
p4011
aVparty
p4012
aVandroid
p4013
aVresiding
p4014
aVhttp
p4015
aVreporting
p4016
aVios
p4017
aVautomation
p4018
aVproficiency
p4019
aVv5
p4020
aVstudent
p4021
aVuni
p4022
aVtransaction
p4023
aVoff
p4024
aVcenter
p4025
aVcontest
p4026
aVthought
p4027
aVpatterns
p4028
aVcommand
p4029
aVoops
p4030
aVenglish
p4031
aVposition
p4032
aVaudio
p4033
aVdrawing
p4034
aVlatest
p4035
aVrestore
p4036
aVless
p4037
aVxen
p4038
aVexecutive
p4039
aVobtain
p4040
aVdose
p4041
aVsourcer
p4042
aVprotecting
p4043
aVpaul
p4044
aVnow
p4045
aVads
p4046
aVadp
p4047
aVcomunications
p4048
aVjeff
p4049
aVcapabilities
p4050
aVdevelopments
p4051
aVusage
p4052
aV280
p4053
aVsuit
p4054
aVsmart
p4055
aVcss3
p4056
aVcss2
p4057
aVcaptivating
p4058
aVample
p4059
aVmolding
p4060
aVmillturn
p4061
aVexecute
p4062
aVfive
p4063
aVknow
p4064
aVdeployment
p4065
aVpress
p4066
aVloader
p4067
aVprominent
p4068
aVnecessary
p4069
aVhelpful
p4070
aVexcluding
p4071
aVefficiency
p4072
aVdictionaries
p4073
aVcandy
p4074
aVpayments
p4075
aVbecome
p4076
aVworks
p4077
aVpage
p4078
aVexceed
p4079
aVbecause
p4080
aVpropel
p4081
aVactuarial
p4082
aVtwitter
p4083
aVsearching
p4084
aVplatforms
p4085
aVgrowth
p4086
aV110
p4087
aVconvey
p4088
aVproper
p4089
aVhome
p4090
aVprojection
p4091
aVlead
p4092
aVsketching
p4093
aVpassion
p4094
aVcapability
p4095
aVleader
p4096
aVschedule
p4097
aVstellar
p4098
aVpressure
p4099
aValthough
p4100
aVtestflight
p4101
aVshopify
p4102
aVhaproxy
p4103
aVabout
p4104
aVcodeigniter
p4105
aVgetting
p4106
aVcolumn
p4107
aValtb6kgfpg9btvc
p4108
aVpowerpoint
p4109
aVsoftware
p4110
aVown
p4111
aVpolished
p4112
aVcauselle
p4113
aVh2
p4114
aVh1
p4115
aVfunctional
p4116
aVarticulate
p4117
aVcocoa
p4118
aVvirtualbox
p4119
aV1987
p4120
aVnetworking
p4121
aVadditional
p4122
aVtransfer
p4123
aVapps
p4124
aVawarded
p4125
aV704
p4126
aVaccountant
p4127
aVliceanse
p4128
aVblackprojectstudios
p4129
aVbiggest
p4130
aVyrs
p4131
aVelastix
p4132
aVnaturally
p4133
aVinterest
p4134
aVpeechtree
p4135
aVhr
p4136
aVbrand
p4137
aVdelivery
p4138
aVconstruction
p4139
aVgoals
p4140
aVoverflow
p4141
aVsqueeze
p4142
aVbug
p4143
aVversatile
p4144
aVcount
p4145
aVmade
p4146
aVdmg
p4147
aVsmooth
p4148
aVcurrentaly
p4149
aVrecord
p4150
aVbelow
p4151
aVbooks
p4152
aVlimit
p4153
aVproblem
p4154
aVpiece
p4155
aVpim
p4156
aVrecognize
p4157
aVbrochures
p4158
aVcontribute
p4159
aVmyi
p4160
aVinn
p4161
aVperiods
p4162
aVeducation
p4163
aVmyd
p4164
aVinc
p4165
aVfunctions
p4166
aVvariety
p4167
aVdetail
p4168
aVvirtual
p4169
aVpeoplesoft
p4170
aVbook
p4171
aVdetails
p4172
aVboon
p4173
aVphp5
p4174
aVasterisk
p4175
aVlearnings
p4176
aVrepeat
p4177
aVchance
p4178
aVadditionally
p4179
aVmultinationals
p4180
aVextjs
p4181
aVlaude
p4182
aVexposure
p4183
aVfocused
p4184
aVsphinx
p4185
aVblogs
p4186
aVcompete
p4187
aVquestionnaires
p4188
aVunderstand
p4189
aVstrategical
p4190
atRp4191
sg1679
I00
sg1668
I01
sg1669
Nsg1671
NsS'vocabulary_'
p4192
(dp4193
Vskills
p4194
g15
(g1539
S'I\x00\x00\x00'
tRp4195
sVcompanies
p4196
g15
(g1539
S'\x12\x00\x00\x00'
tRp4197
sVnew
p4198
g15
(g1539
S'6\x00\x00\x00'
tRp4199
sVwould
p4200
g15
(g1539
S'a\x00\x00\x00'
tRp4201
sVme
p4202
g15
(g1539
S'2\x00\x00\x00'
tRp4203
sVword
p4204
g15
(g1539
S']\x00\x00\x00'
tRp4205
sVwork
p4206
g15
(g1539
S'_\x00\x00\x00'
tRp4207
sVprovide
p4208
g15
(g1539
S'C\x00\x00\x00'
tRp4209
sVover
p4210
g15
(g1539
S'?\x00\x00\x00'
tRp4211
sVwriting
p4212
g15
(g1539
S'b\x00\x00\x00'
tRp4213
sVgood
p4214
g15
(g1539
S'$\x00\x00\x00'
tRp4215
sVservice
p4216
g15
(g1539
S'H\x00\x00\x00'
tRp4217
sVproject
p4218
g15
(g1539
S'B\x00\x00\x00'
tRp4219
sVoriented
p4220
g15
(g1539
S'=\x00\x00\x00'
tRp4221
sVclient
p4222
g15
(g1539
S'\x0f\x00\x00\x00'
tRp4223
sVsolutions
p4224
g15
(g1539
S'J\x00\x00\x00'
tRp4225
sVdo
p4226
g15
(g1539
S'\x1b\x00\x00\x00'
tRp4227
sVbest
p4228
g15
(g1539
S'\x0b\x00\x00\x00'
tRp4229
sVcom
p4230
g15
(g1539
S'\x11\x00\x00\x00'
tRp4231
sVand
p4232
g15
(g1539
S'\x05\x00\x00\x00'
tRp4233
sVbeen
p4234
g15
(g1539
S'\n\x00\x00\x00'
tRp4235
sVwebsite
p4236
g15
(g1539
S'W\x00\x00\x00'
tRp4237
sVis
p4238
g15
(g1539
S')\x00\x00\x00'
tRp4239
sVit
p4240
g15
(g1539
S'*\x00\x00\x00'
tRp4241
sVin
p4242
g15
(g1539
S'(\x00\x00\x00'
tRp4243
sVif
p4244
g15
(g1539
S"'\x00\x00\x00"
tRp4245
sVthe
p4246
g15
(g1539
S'P\x00\x00\x00'
tRp4247
sVfor
p4248
g15
(g1539
S'!\x00\x00\x00'
tRp4249
sVmarketing
p4250
g15
(g1539
S'1\x00\x00\x00'
tRp4251
sVsupport
p4252
g15
(g1539
S'L\x00\x00\x00'
tRp4253
sVwordpress
p4254
g15
(g1539
S'^\x00\x00\x00'
tRp4255
sVexpertise
p4256
g15
(g1539
S'\x1f\x00\x00\x00'
tRp4257
sVexcel
p4258
g15
(g1539
S'\x1d\x00\x00\x00'
tRp4259
sVtime
p4260
g15
(g1539
S'Q\x00\x00\x00'
tRp4261
sVmy
p4262
g15
(g1539
S'4\x00\x00\x00'
tRp4263
sVtasks
p4264
g15
(g1539
S'M\x00\x00\x00'
tRp4265
sVworking
p4266
g15
(g1539
S'`\x00\x00\x00'
tRp4267
sVcan
p4268
g15
(g1539
S'\x0e\x00\x00\x00'
tRp4269
sVfollowing
p4270
g15
(g1539
S' \x00\x00\x00'
tRp4271
sVdesigner
p4272
g15
(g1539
S'\x18\x00\x00\x00'
tRp4273
sVdata
p4274
g15
(g1539
S'\x16\x00\x00\x00'
tRp4275
sVyears
p4276
g15
(g1539
S'c\x00\x00\x00'
tRp4277
sVnot
p4278
g15
(g1539
S'7\x00\x00\x00'
tRp4279
sVone
p4280
g15
(g1539
S';\x00\x00\x00'
tRp4281
sVthat
p4282
g15
(g1539
S'O\x00\x00\x00'
tRp4283
sVthan
p4284
g15
(g1539
S'N\x00\x00\x00'
tRp4285
sVobjective
p4286
g15
(g1539
S'8\x00\x00\x00'
tRp4287
sVprofessional
p4288
g15
(g1539
S'A\x00\x00\x00'
tRp4289
sVwhere
p4290
g15
(g1539
S'Z\x00\x00\x00'
tRp4291
sVjobs
p4292
g15
(g1539
S'+\x00\x00\x00'
tRp4293
sVsatisfaction
p4294
g15
(g1539
S'F\x00\x00\x00'
tRp4295
sVhtml
p4296
g15
(g1539
S'&\x00\x00\x00'
tRp4297
sVbusiness
p4298
g15
(g1539
S'\x0c\x00\x00\x00'
tRp4299
sVon
p4300
g15
(g1539
S':\x00\x00\x00'
tRp4301
sVof
p4302
g15
(g1539
S'9\x00\x00\x00'
tRp4303
sVor
p4304
g15
(g1539
S'<\x00\x00\x00'
tRp4305
sVyour
p4306
g15
(g1539
S'e\x00\x00\x00'
tRp4307
sVcomplete
p4308
g15
(g1539
S'\x14\x00\x00\x00'
tRp4309
sVwith
p4310
g15
(g1539
S'\\\x00\x00\x00'
tRp4311
sVam
p4312
g15
(g1539
S'\x03\x00\x00\x00'
tRp4313
sVas
p4314
g15
(g1539
S'\x07\x00\x00\x00'
tRp4315
sVat
p4316
g15
(g1539
S'\x08\x00\x00\x00'
tRp4317
sVyou
p4318
g15
(g1539
S'd\x00\x00\x00'
tRp4319
sVall
p4320
g15
(g1539
S'\x00\x00\x00\x00'
tRp4321
sVto
p4322
g15
(g1539
S'R\x00\x00\x00'
tRp4323
sVvery
p4324
g15
(g1539
S'U\x00\x00\x00'
tRp4325
sVdesign
p4326
g15
(g1539
S'\x17\x00\x00\x00'
tRp4327
sVwhat
p4328
g15
(g1539
S'Y\x00\x00\x00'
tRp4329
sVexperience
p4330
g15
(g1539
S'\x1e\x00\x00\x00'
tRp4331
sVmore
p4332
g15
(g1539
S'3\x00\x00\x00'
tRp4333
sVcompany
p4334
g15
(g1539
S'\x13\x00\x00\x00'
tRp4335
sVgoal
p4336
g15
(g1539
S'#\x00\x00\x00'
tRp4337
sVdeveloped
p4338
g15
(g1539
S'\x19\x00\x00\x00'
tRp4339
sValways
p4340
g15
(g1539
S'\x02\x00\x00\x00'
tRp4341
sVresearch
p4342
g15
(g1539
S'E\x00\x00\x00'
tRp4343
sValso
p4344
g15
(g1539
S'\x01\x00\x00\x00'
tRp4345
sVare
p4346
g15
(g1539
S'\x06\x00\x00\x00'
tRp4347
sVseo
p4348
g15
(g1539
S'G\x00\x00\x00'
tRp4349
sVlast
p4350
g15
(g1539
S'-\x00\x00\x00'
tRp4351
sVdevelopment
p4352
g15
(g1539
S'\x1a\x00\x00\x00'
tRp4353
sVentry
p4354
g15
(g1539
S'\x1c\x00\x00\x00'
tRp4355
sVmysql
p4356
g15
(g1539
S'5\x00\x00\x00'
tRp4357
sVlike
p4358
g15
(g1539
S'.\x00\x00\x00'
tRp4359
sVsome
p4360
g15
(g1539
S'K\x00\x00\x00'
tRp4361
sVbe
p4362
g15
(g1539
S'\t\x00\x00\x00'
tRp4363
sVuse
p4364
g15
(g1539
S'S\x00\x00\x00'
tRp4365
sVmanagement
p4366
g15
(g1539
S'0\x00\x00\x00'
tRp4367
sVfrom
p4368
g15
(g1539
S'"\x00\x00\x00'
tRp4369
sVcustomer
p4370
g15
(g1539
S'\x15\x00\x00\x00'
tRp4371
sVclients
p4372
g15
(g1539
S'\x10\x00\x00\x00'
tRp4373
sVlooking
p4374
g15
(g1539
S'/\x00\x00\x00'
tRp4375
sVquality
p4376
g15
(g1539
S'D\x00\x00\x00'
tRp4377
sVhave
p4378
g15
(g1539
S'%\x00\x00\x00'
tRp4379
sVknowledge
p4380
g15
(g1539
S',\x00\x00\x00'
tRp4381
sVan
p4382
g15
(g1539
S'\x04\x00\x00\x00'
tRp4383
sVwill
p4384
g15
(g1539
S'[\x00\x00\x00'
tRp4385
sVphp
p4386
g15
(g1539
S'@\x00\x00\x00'
tRp4387
sVwell
p4388
g15
(g1539
S'X\x00\x00\x00'
tRp4389
sVweb
p4390
g15
(g1539
S'V\x00\x00\x00'
tRp4391
sVother
p4392
g15
(g1539
S'>\x00\x00\x00'
tRp4393
sVbut
p4394
g15
(g1539
S'\r\x00\x00\x00'
tRp4395
sVusing
p4396
g15
(g1539
S'T\x00\x00\x00'
tRp4397
ssg1694
g1695
sg1683
g1684
sg1685
g1
(g1686
g3
NtRp4398
(dp4399
g1689
I01
sg1690
I01
sg1691
I00
sg1692
g1693
sS'_idf_diag'
p4400
g1
(cscipy.sparse.dia
dia_matrix
p4401
g3
NtRp4402
(dp4403
S'data'
p4404
g1536
(g1537
(I0
tS'b'
tRp4405
(I1
(I1
I102
tg17
I00
S'j\x06_\xd7\x86y\x05@?\xe9Z}\xd3=\x04@\x9f\x0b\x99\xe6\xfd\x13\x08@D\xd7w\x989\xc7\xfd?\xbc\n\xdd\x19\xc0\xd8\x02@\xe7\xbc\xff\x1e\x89\x05\xf1?\xf8j8\x95Z,\x03@\x90\xac\x0e\x98v\xfe\xfe?j\x06_\xd7\x86y\x05@(\xd2\x8c\x9a\x8d\xde\x03@H\xdc\xf2\xfa7|\x07@\xd1O}\xd8\xeb\xee\x06@\xf8j8\x95Z,\x03@H\xdc\xf2\xfa7|\x07@`\x13\xc7Y";\x02@\xa4`KZ\x1ej\t@\x01^\xd0\x12\xbfj\x06@\x9f\x0b\x99\xe6\xfd\x13\x08@s\xf9\xf6T\xeb\xb7\x08@\xa4`KZ\x1ej\t@H\xdc\xf2\xfa7|\x07@\x9f\x0b\x99\xe6\xfd\x13\x08@`\x13\xc7Y";\x02@j\x06_\xd7\x86y\x05@s\xf9\xf6T\xeb\xb7\x08@\xa4`KZ\x1ej\t@\xc4\xe4\xc5\x0b\xcc\n\x05@v\x18\xd0O\x96\xee\x05@\xc4\xe4\xc5\x0b\xcc\n\x05@s\xf9\xf6T\xeb\xb7\x08@Z\x87\x9c\xb5\xf9\xa5\xfc?\xa4`KZ\x1ej\t@\x9f\x0b\x99\xe6\xfd\x13\x08@\xe2-\xf3$BI\xfa?\x01^\xd0\x12\xbfj\x06@H\xdc\xf2\xfa7|\x07@\x9f\x0b\x99\xe6\xfd\x13\x08@\xc8\t\x114#_\xf9?H\xdc\xf2\xfa7|\x07@s\xf9\xf6T\xeb\xb7\x08@\x98\x8f\x91\x18U\xe7\xf3?4\x14\x85R\x11\x94\xfe?\xd1O}\xd8\xeb\xee\x06@\xa4`KZ\x1ej\t@\x01^\xd0\x12\xbfj\x06@s\xf9\xf6T\xeb\xb7\x08@H\xdc\xf2\xfa7|\x07@\xa4`KZ\x1ej\t@\xd1O}\xd8\xeb\xee\x06@\xa4`KZ\x1ej\t@\xbc\n\xdd\x19\xc0\xd8\x02@j\x06_\xd7\x86y\x05@\xfd\xf6\xa5\xa0\xe9\xae\xf5?\x9f\x0b\x99\xe6\xfd\x13\x08@\x9f\x0b\x99\xe6\xfd\x13\x08@\x9f\x0b\x99\xe6\xfd\x13\x08@H\xdc\xf2\xfa7|\x07@\x12\x82\xa6&;\xa7\xf6?\xfa\x89\x11\x90\x05c\x00@\xa4`KZ\x1ej\t@\x01^\xd0\x12\xbfj\x06@s\xf9\xf6T\xeb\xb7\x08@H\xdc\xf2\xfa7|\x07@^\xb4V\x96\xbf\xa1\x04@s\xf9\xf6T\xeb\xb7\x08@\xc4\xe4\xc5\x0b\xcc\n\x05@\xa4`KZ\x1ej\t@j\x06_\xd7\x86y\x05@^\xb4V\x96\xbf\xa1\x04@\xd1O}\xd8\xeb\xee\x06@\xa4`KZ\x1ej\t@\xa4`KZ\x1ej\t@\xbc\n\xdd\x19\xc0\xd8\x02@\xdc\xef@/\xec\xdb\xff?s\xf9\xf6T\xeb\xb7\x08@\xa4`KZ\x1ej\t@\x9f\x0b\x99\xe6\xfd\x13\x08@\xa4`KZ\x1ej\t@H\xdc\xf2\xfa7|\x07@\x1f\xdf\xf4\x1c)\xa0\x00@*\xeb\xf4^\x98\xeb\xf5?\x00\xe4\xf8\x13\x84\x83\x03@<\xf7\x07\xd3\xef|\xf3?H\xdc\xf2\xfa7|\x07@H\xdc\xf2\xfa7|\x07@\x01^\xd0\x12\xbfj\x06@\xd1\x99\xfcE\xc9\xa8\x01@\x9f\x0b\x99\xe6\xfd\x13\x08@\x01^\xd0\x12\xbfj\x06@\xa4`KZ\x1ej\t@s\xf9\xf6T\xeb\xb7\x08@j\x06_\xd7\x86y\x05@\xa2~\xeb\xf6,\xca\xf8?\xa4`KZ\x1ej\t@\xa4`KZ\x1ej\t@\xbeWk\xf7#\x04\xfd?\xf8j8\x95Z,\x03@s\xf9\xf6T\xeb\xb7\x08@v\x18\xd0O\x96\xee\x05@\x97\x9cM6\xedI\xfc?\xbc\n\xdd\x19\xc0\xd8\x02@\xc4\xe4\xc5\x0b\xcc\n\x05@'
tbsS'maxprint'
p4406
I50
sS'_shape'
p4407
(I102
I102
tp4408
sS'offsets'
p4409
g1536
(g1537
(I0
tS'b'
tRp4410
(I1
(I1
tg1539
I00
S'\x00\x00\x00\x00'
tbsS'format'
p4411
S'dia'
p4412
sbsbsg1696
Nsbsg19
g1661
sg1599
g1
(g1600
g3
NtRp4413
(dp4414
g1603
I01
sg1604
g1700
sbsg8
Nsg1606
I01
sg1595
g1596
sg1598
g1697
sg1393
g1
(g1607
g3
NtRp4415
(dp4416
g1610
g2004
sg1614
Nsg1612
g1703
sg1616
g1617
sg1618
Nsg1615
Nsbsaa(lp4417
g1705
a(dp4418
g1597
Nsg19
g1705
sg1599
g1
(g1600
g3
NtRp4419
(dp4420
g1604
g1709
sg1994
g1536
(g1537
(I0
tS'b'
tRp4421
(I1
(I1
tg17
I00
S'\x1e\x1e\x1e\x1e\x1e\x1e\x9e?'
tbsg1996
g1536
(g1537
(I0
tS'b'
tRp4422
(I1
(I1
tg17
I00
S'\x00\x00\x00\x00\x00\x00A@'
tbsg1998
g1536
(g1537
(I0
tS'b'
tRp4423
(I1
(I1
tg17
I00
S'\x00\x00\x00\x00\x00\x00\x00\x00'
tbsg2000
g1536
(g1537
(I0
tS'b'
tRp4424
(I1
(I1
tg17
I00
S'\x00\x00\x00\x00\x00\x00\x00\x00'
tbsg1603
I01
sbsg8
Nsg1606
I01
sg1595
g1596
sg1598
Nsg1393
g1
(g1607
g3
NtRp4425
(dp4426
g1610
g2004
sg1614
Nsg1612
g1613
sg1616
g1617
sg1618
Nsg1615
Nsbsaa(lp4427
g1713
a(dp4428
g1597
Nsg19
g1713
sg1599
g1
(g1600
g3
NtRp4429
(dp4430
g1604
g1717
sg1994
g1536
(g1537
(I0
tS'b'
tRp4431
(I1
(I1
tg17
I00
S'UUUUUU\xd5?'
tbsg1996
g1536
(g1537
(I0
tS'b'
tRp4432
(I1
(I1
tg17
I00
S'\x00\x00\x00\x00\x00\x00\x08@'
tbsg1998
g1536
(g1537
(I0
tS'b'
tRp4433
(I1
(I1
tg17
I00
S'\x00\x00\x00\x00\x00\x00\x00@'
tbsg2000
g1536
(g1537
(I0
tS'b'
tRp4434
(I1
(I1
tg17
I00
S'UUUUUU\xe5\xbf'
tbsg1603
I01
sbsg8
Nsg1606
I01
sg1595
g1596
sg1598
Nsg1393
g1
(g1607
g3
NtRp4435
(dp4436
g1610
g2004
sg1614
Nsg1612
g1613
sg1616
g1617
sg1618
Nsg1615
Nsbsaa(lp4437
g1721
a(dp4438
g1597
Nsg19
g1721
sg1599
g1
(g1600
g3
NtRp4439
(dp4440
g1604
g1725
sg1994
g1536
(g1537
(I0
tS'b'
tRp4441
(I1
(I1
tg17
I00
S'\x00\x00\x00\x00\x00\x00\xf0?'
tbsg1996
g1536
(g1537
(I0
tS'b'
tRp4442
(I1
(I1
tg17
I00
S'\x00\x00\x00\x00\x00\x00\xf0?'
tbsg1998
g1536
(g1537
(I0
tS'b'
tRp4443
(I1
(I1
tg17
I00
S'\x00\x00\x00\x00\x00\x00\x00\x00'
tbsg2000
g1536
(g1537
(I0
tS'b'
tRp4444
(I1
(I1
tg17
I00
S'\x00\x00\x00\x00\x00\x00\x00\x00'
tbsg1603
I01
sbsg8
Nsg1606
I01
sg1595
g1596
sg1598
Nsg1393
g1
(g1607
g3
NtRp4445
(dp4446
g1610
g2004
sg1614
Nsg1612
g1627
sg1616
g1617
sg1618
Nsg1615
Nsbsaa(lp4447
g1729
a(dp4448
g1597
Nsg19
g1729
sg1599
g1
(g1600
g3
NtRp4449
(dp4450
g1604
g1733
sg1994
g1536
(g1537
(I0
tS'b'
tRp4451
(I1
(I1
tg17
I00
S'\x00\x00\x00\x00\x00\x00\xf0?'
tbsg1996
g1536
(g1537
(I0
tS'b'
tRp4452
(I1
(I1
tg17
I00
S'\x00\x00\x00\x00\x00\x00\xf0?'
tbsg1998
g1536
(g1537
(I0
tS'b'
tRp4453
(I1
(I1
tg17
I00
S'\x00\x00\x00\x00\x00\x00\x00\x00'
tbsg2000
g1536
(g1537
(I0
tS'b'
tRp4454
(I1
(I1
tg17
I00
S'\x00\x00\x00\x00\x00\x00\x00\x00'
tbsg1603
I01
sbsg8
Nsg1606
I01
sg1595
g1596
sg1598
Nsg1393
g1
(g1607
g3
NtRp4455
(dp4456
g1610
g2004
sg1614
Nsg1612
g1736
sg1616
g1617
sg1618
Nsg1615
Nsbsaa(lp4457
g1738
a(dp4458
g1597
Nsg19
g1738
sg1599
g1
(g1600
g3
NtRp4459
(dp4460
g1604
g1742
sg1994
g1536
(g1537
(I0
tS'b'
tRp4461
(I1
(I1
tg17
I00
S'\x00\x00\x00\x00\x00\x00\xf0?'
tbsg1996
g1536
(g1537
(I0
tS'b'
tRp4462
(I1
(I1
tg17
I00
S'\x00\x00\x00\x00\x00\x00\xf0?'
tbsg1998
g1536
(g1537
(I0
tS'b'
tRp4463
(I1
(I1
tg17
I00
S'\x00\x00\x00\x00\x00\x00\x00\x00'
tbsg2000
g1536
(g1537
(I0
tS'b'
tRp4464
(I1
(I1
tg17
I00
S'\x00\x00\x00\x00\x00\x00\x00\x00'
tbsg1603
I01
sbsg8
Nsg1606
I01
sg1595
g1596
sg1598
Nsg1393
g1
(g1607
g3
NtRp4465
(dp4466
g1610
g2004
sg1614
Nsg1612
g1736
sg1616
g1617
sg1618
Nsg1615
Nsbsaa(lp4467
g1746
a(dp4468
g1597
Nsg19
g1746
sg1599
g1
(g1600
g3
NtRp4469
(dp4470
g1604
g1750
sg1994
g1536
(g1537
(I0
tS'b'
tRp4471
(I1
(I1
tg17
I00
S'\xb8\xf3\xdaoq\x11%>'
tbsg1996
g1536
(g1537
(I0
tS'b'
tRp4472
(I1
(I1
tg17
I00
S'\x00\x00\x00\x80VM\xb8A'
tbsg1998
g1536
(g1537
(I0
tS'b'
tRp4473
(I1
(I1
tg17
I00
S'\x00\x00\x00\xc0\xa16\xccA'
tbsg2000
g1536
(g1537
(I0
tS'b'
tRp4474
(I1
(I1
tg17
I00
S'!\xbaw/;\x93\x02\xc0'
tbsg1603
I01
sbsg8
I946684800
sg1606
I01
sg1595
g1596
sg1598
Nsg1393
g1
(g1751
g3
NtRp4475
(dp4476
g1616
g1617
sg1610
g2004
sg1615
Nsg1614
I946684800
sg1618
(dp4477
g1755
g1756
ssbsaa(lp4478
g1758
a(dp4479
g1597
Nsg19
g1758
sg1599
g1
(g1600
g3
NtRp4480
(dp4481
g1604
g1762
sg1994
g1536
(g1537
(I0
tS'b'
tRp4482
(I1
(I1
tg17
I00
S'\x11\x11\x11\x11\x11\x11\x91?'
tbsg1996
g1536
(g1537
(I0
tS'b'
tRp4483
(I1
(I1
tg17
I00
S'\x00\x00\x00\x00\x00\x00N@'
tbsg1998
g1536
(g1537
(I0
tS'b'
tRp4484
(I1
(I1
tg17
I00
S'\x00\x00\x00\x00\x00\x00\x00\x00'
tbsg2000
g1536
(g1537
(I0
tS'b'
tRp4485
(I1
(I1
tg17
I00
S'\x00\x00\x00\x00\x00\x00\x00\x00'
tbsg1603
I01
sbsg8
Nsg1606
I01
sg1595
g1596
sg1598
Nsg1393
g1
(g1607
g3
NtRp4486
(dp4487
g1610
g2004
sg1614
Nsg1612
g1627
sg1616
g1617
sg1618
Nsg1615
Nsbsaa(lp4488
g1766
a(dp4489
g1597
Nsg19
g1766
sg1599
g1
(g1600
g3
NtRp4490
(dp4491
g1604
g1770
sg1994
g1536
(g1537
(I0
tS'b'
tRp4492
(I1
(I1
tg17
I00
S'd!\x0bY\xc8B\x86?'
tbsg1996
g1536
(g1537
(I0
tS'b'
tRp4493
(I1
(I1
tg17
I00
S'\x00\x00\x00\x00\x00\x00W@'
tbsg1998
g1536
(g1537
(I0
tS'b'
tRp4494
(I1
(I1
tg17
I00
S'\x00\x00\x00\x00\x00\x00\x00\x00'
tbsg2000
g1536
(g1537
(I0
tS'b'
tRp4495
(I1
(I1
tg17
I00
S'\x00\x00\x00\x00\x00\x00\x00\x00'
tbsg1603
I01
sbsg8
Nsg1606
I01
sg1595
g1596
sg1598
Nsg1393
g1
(g1607
g3
NtRp4496
(dp4497
g1610
g2004
sg1614
Nsg1612
g1613
sg1616
g1617
sg1618
Nsg1615
Nsbsaa(lp4498
g1774
a(dp4499
g1597
g1
(g1663
g3
NtRp4500
(dp4501
g1666
g1667
sg1670
Nsg1672
g1673
sg1674
g1675
sg1677
g1678
sg1680
g1778
sg1615
Nsg1676
F1
sg1682
I3
sg1573
Nsg2059
I00
sg2060
g2061
((lp4502
Vproducer
p4503
aVcowgirl
p4504
aVphoto
p4505
aVexcellent
p4506
aVyears
p4507
aVmanager
p4508
aVlailani
p4509
aVmanchester
p4510
aVhuman
p4511
aVror
p4512
aVstaff
p4513
aV25
p4514
aVautocad
p4515
aVoffice
p4516
aVfield
p4517
aVflash
p4518
aVjavaee
p4519
aVgigs
p4520
aVto
p4521
aVonly
p4522
aVpro
p4523
aVsugarcrm
p4524
aVresources
p4525
aV2012
p4526
aVcss3
p4527
aVdo
p4528
aVdesigns
p4529
aVbrowser
p4530
aV10
p4531
aVvery
p4532
aVdesigning
p4533
aVsilverlight
p4534
aVspecailist
p4535
aVqualified
p4536
aVeffects
p4537
aVandriod
p4538
aVpress
p4539
aVbanner
p4540
aVhaving
p4541
aVvoip
p4542
aVoutright
p4543
aVskills
p4544
aViphone5
p4545
aVemail
p4546
aVqa
p4547
aVteam
p4548
aVtopsolid
p4549
aVapplication
p4550
aVadobe
p4551
aVwab
p4552
aVcreator
p4553
aVgeneration
p4554
aVecomm
p4555
aVlogo
p4556
aVprogrammer
p4557
aVproofreader
p4558
aVproject
p4559
aVwhat
p4560
aVcatia
p4561
aVnetwork
p4562
aVlead
p4563
aVassistance
p4564
aVminer
p4565
aVcreative
p4566
aVlooking
p4567
aVwide
p4568
aVinternet
p4569
aVprint
p4570
aVprof
p4571
aVnet
p4572
aVcontent
p4573
aVpublic
p4574
aV3d
p4575
aVasp
p4576
aVvedio
p4577
aVvisualization
p4578
aVzend
p4579
aVmarketing
p4580
aVjavascript
p4581
aVdrupal
p4582
aVjob
p4583
aVflyer
p4584
aVhtml5
p4585
aVcompetent
p4586
aVmodeling
p4587
aVteacher
p4588
aVcertified
p4589
aVtranslator
p4590
aVconvert
p4591
aVconnoisseur
p4592
aVtalented
p4593
aVenglish
p4594
aVcareer
p4595
aVsolidworks
p4596
aVcopywriter
p4597
aVprovider
p4598
aVexperience
p4599
aVbookkeeper
p4600
aVjoomla
p4601
aVcolumnist
p4602
aVproducts
p4603
aVadvertising
p4604
aVpublished
p4605
aVmixed
p4606
aVpdf
p4607
aVcad
p4608
aVpowerpoint
p4609
aVtypist
p4610
aVppc
p4611
aVdepalog
p4612
aVindustrial
p4613
aVblogger
p4614
aVapp
p4615
aVmba
p4616
aVrank
p4617
aVone
p4618
aVxero
p4619
aVarticle
p4620
aVapply
p4621
aVrep
p4622
aVquality
p4623
aVevaluator
p4624
aVcloud
p4625
aVspecializing
p4626
aVmanagement
p4627
aVfrom
p4628
aVher
p4629
aVrecruiter
p4630
aVsupport
p4631
aVsystem
p4632
aVknockout
p4633
aVaccountant
p4634
aVpa
p4635
aVmusic
p4636
aViphone
p4637
aVdreamweaver
p4638
aVyrs
p4639
aVespecialist
p4640
aVwebsite
p4641
aVposting
p4642
aVtester
p4643
aVposter
p4644
aVnobody
p4645
aVworker
p4646
aVaca
p4647
aVelse
p4648
aVnirvana
p4649
aVfreelancer
p4650
aVvisual
p4651
aVrepresentative
p4652
aVgraphics
p4653
aVme
p4654
aVcommerce
p4655
aVaccount
p4656
aVillustrator
p4657
aVdhtml
p4658
aV4500hrsworked
p4659
aVup
p4660
aVwill
p4661
aVadmin
p4662
aVcan
p4663
aVcam
p4664
aVmy
p4665
aVonlinecoupons
p4666
aVva
p4667
aVdedicated
p4668
aVprocessing
p4669
aVflex
p4670
aVsaasu
p4671
aVnavigate
p4672
aVis
p4673
aVam
p4674
aVit
p4675
aVlinkedin
p4676
aVan
p4677
aVhigh
p4678
aVmagento
p4679
aVat
p4680
aVchat
p4681
aVmvc
p4682
aVhonest
p4683
aVmint
p4684
aVhire
p4685
aVrespective
p4686
aVquickbooks
p4687
aVauthor
p4688
aVmedia
p4689
aVveteran
p4690
aVseeking
p4691
aVwhen
p4692
aVcross
p4693
aVw4m
p4694
aVcraigslist
p4695
aVlamp
p4696
aVcomplex
p4697
aVbuild
p4698
aVonline
p4699
aVleader
p4700
aVxhtml
p4701
aVadministrator
p4702
aVkai
p4703
aVsocial
p4704
aVasterisk
p4705
aVtranscriber
p4706
aVcollection
p4707
aVsys
p4708
aVzohocrm
p4709
aVfb
p4710
aVodesk
p4711
aVstudent
p4712
aVwpf
p4713
aVencoder
p4714
aVsenior
p4715
aVbsc
p4716
aVdatabase
p4717
aVmobile
p4718
aVcpa
p4719
aVvariety
p4720
aVuploading
p4721
aVsale
p4722
aVmodeler
p4723
aVmarketer
p4724
aVclient
p4725
aVexp
p4726
aVmother
p4727
aVcs5
p4728
aVthe
p4729
aVnotch
p4730
aVphysics
p4731
aVtechnical
p4732
aVanimator
p4733
atRp4734
sg1679
I00
sg1668
I01
sg1669
Nsg1671
Nsg4192
(dp4735
Vresearch
p4736
g15
(g1539
S' \x00\x00\x00'
tRp4737
sVfreelance
p4738
g15
(g1539
S'\x14\x00\x00\x00'
tRp4739
sVwriter
p4740
g15
(g1539
S'.\x00\x00\x00'
tRp4741
sVcustomer
p4742
g15
(g1539
S'\x08\x00\x00\x00'
tRp4743
sVassistant
p4744
g15
(g1539
S'\x05\x00\x00\x00'
tRp4745
sVartist
p4746
g15
(g1539
S'\x04\x00\x00\x00'
tRp4747
sVexcel
p4748
g15
(g1539
S'\x10\x00\x00\x00'
tRp4749
sVdesign
p4750
g15
(g1539
S'\n\x00\x00\x00'
tRp4751
sVseo
p4752
g15
(g1539
S'#\x00\x00\x00'
tRp4753
sVsem
p4754
g15
(g1539
S'"\x00\x00\x00'
tRp4755
sVbest
p4756
g15
(g1539
S'\x06\x00\x00\x00'
tRp4757
sVexpert
p4758
g15
(g1539
S'\x12\x00\x00\x00'
tRp4759
sVspecialist
p4760
g15
(g1539
S"'\x00\x00\x00"
tRp4761
sVms
p4762
g15
(g1539
S'\x1a\x00\x00\x00'
tRp4763
sVgraphic
p4764
g15
(g1539
S'\x16\x00\x00\x00'
tRp4765
sVword
p4766
g15
(g1539
S',\x00\x00\x00'
tRp4767
sVin
p4768
g15
(g1539
S'\x18\x00\x00\x00'
tRp4769
sVhtml
p4770
g15
(g1539
S'\x17\x00\x00\x00'
tRp4771
sVcss
p4772
g15
(g1539
S'\x07\x00\x00\x00'
tRp4773
sVdesigner
p4774
g15
(g1539
S'\x0b\x00\x00\x00'
tRp4775
sVphp
p4776
g15
(g1539
S'\x1e\x00\x00\x00'
tRp4777
sVdata
p4778
g15
(g1539
S'\t\x00\x00\x00'
tRp4779
sVentry
p4780
g15
(g1539
S'\x0f\x00\x00\x00'
tRp4781
sVphotoshop
p4782
g15
(g1539
S'\x1d\x00\x00\x00'
tRp4783
sVtop
p4784
g15
(g1539
S'(\x00\x00\x00'
tRp4785
sVmysql
p4786
g15
(g1539
S'\x1b\x00\x00\x00'
tRp4787
sVdeveloper
p4788
g15
(g1539
S'\x0c\x00\x00\x00'
tRp4789
sVweb
p4790
g15
(g1539
S'*\x00\x00\x00'
tRp4791
sVwriting
p4792
g15
(g1539
S'/\x00\x00\x00'
tRp4793
sVadministrative
p4794
g15
(g1539
S'\x00\x00\x00\x00'
tRp4795
sVgame
p4796
g15
(g1539
S'\x15\x00\x00\x00'
tRp4797
sVsmm
p4798
g15
(g1539
S'%\x00\x00\x00'
tRp4799
sVof
p4800
g15
(g1539
S'\x1c\x00\x00\x00'
tRp4801
sVsoftware
p4802
g15
(g1539
S'&\x00\x00\x00'
tRp4803
sVresearcher
p4804
g15
(g1539
S'!\x00\x00\x00'
tRp4805
sVengineer
p4806
g15
(g1539
S'\x0e\x00\x00\x00'
tRp4807
sVservice
p4808
g15
(g1539
S'$\x00\x00\x00'
tRp4809
sVwordpress
p4810
g15
(g1539
S'-\x00\x00\x00'
tRp4811
sVeditor
p4812
g15
(g1539
S'\r\x00\x00\x00'
tRp4813
sVwith
p4814
g15
(g1539
S'+\x00\x00\x00'
tRp4815
sVanalyst
p4816
g15
(g1539
S'\x01\x00\x00\x00'
tRp4817
sVjquery
p4818
g15
(g1539
S'\x19\x00\x00\x00'
tRp4819
sVarchitect
p4820
g15
(g1539
S'\x03\x00\x00\x00'
tRp4821
sVand
p4822
g15
(g1539
S'\x02\x00\x00\x00'
tRp4823
sVvirtual
p4824
g15
(g1539
S')\x00\x00\x00'
tRp4825
sVexperienced
p4826
g15
(g1539
S'\x11\x00\x00\x00'
tRp4827
sVfor
p4828
g15
(g1539
S'\x13\x00\x00\x00'
tRp4829
sVprofessional
p4830
g15
(g1539
S'\x1f\x00\x00\x00'
tRp4831
ssg1694
g1695
sg1683
g1684
sg1685
g1
(g1686
g3
NtRp4832
(dp4833
g1689
I01
sg1690
I01
sg1691
I00
sg1692
g1693
sg4400
g1
(g4401
g3
NtRp4834
(dp4835
g4404
g1536
(g1537
(I0
tS'b'
tRp4836
(I1
(I1
I48
tg17
I00
S'V\xd1\xd3\x15\xe1\xb8\x0f@|\xbd&I\xf0\xc0\x10@\xa4`KZ\x1ej\t@|\xbd&I\xf0\xc0\x10@|\xbd&I\xf0\xc0\x10@}\xec\x8e\xd2O\xf6\x0b@|\xbd&I\xf0\xc0\x10@}\xec\x8e\xd2O\xf6\x0b@|\xbd&I\xf0\xc0\x10@^\xb4V\x96\xbf\xa1\x04@|\xbd&I\xf0\xc0\x10@\xdaB\x15VP-\n@\x9f\x0b\x99\xe6\xfd\x13\x08@\xef\x87\xb5\x14|C\x0e@V\xd1\xd3\x15\xe1\xb8\x0f@j\x06_\xd7\x86y\x05@V\xd1\xd3\x15\xe1\xb8\x0f@\xef\x87\xb5\x14|C\x0e@\xa4`KZ\x1ej\t@|\xbd&I\xf0\xc0\x10@|\xbd&I\xf0\xc0\x10@|\xbd&I\xf0\xc0\x10@\xc4j\xb1\xba\xc8\x07\r@}\xec\x8e\xd2O\xf6\x0b@|\xbd&I\xf0\xc0\x10@|\xbd&I\xf0\xc0\x10@\xef\x87\xb5\x14|C\x0e@|\xbd&I\xf0\xc0\x10@|\xbd&I\xf0\xc0\x10@|\xbd&I\xf0\xc0\x10@\xa4`KZ\x1ej\t@\xe6\x94\x1d\x97\x17\x05\x0b@}\xec\x8e\xd2O\xf6\x0b@\xa4`KZ\x1ej\t@|\xbd&I\xf0\xc0\x10@}\xec\x8e\xd2O\xf6\x0b@\xef\x87\xb5\x14|C\x0e@|\xbd&I\xf0\xc0\x10@\xef\x87\xb5\x14|C\x0e@|\xbd&I\xf0\xc0\x10@|\xbd&I\xf0\xc0\x10@\xc4j\xb1\xba\xc8\x07\r@j\x06_\xd7\x86y\x05@|\xbd&I\xf0\xc0\x10@|\xbd&I\xf0\xc0\x10@\xc4j\xb1\xba\xc8\x07\r@\xdaB\x15VP-\n@|\xbd&I\xf0\xc0\x10@'
tbsg4406
I50
sg4407
(I48
I48
tp4837
sg4409
g1536
(g1537
(I0
tS'b'
tRp4838
(I1
(I1
tg1539
I00
S'\x00\x00\x00\x00'
tbsg4411
S'dia'
p4839
sbsbsg1696
Nsbsg19
g1774
sg1599
g1
(g1600
g3
NtRp4840
(dp4841
g1603
I01
sg1604
g1784
sbsg8
Nsg1606
I01
sg1595
g1596
sg1598
g1781
sg1393
g1
(g1607
g3
NtRp4842
(dp4843
g1610
g2004
sg1614
Nsg1612
g1703
sg1616
g1617
sg1618
Nsg1615
Nsbsaa(lp4844
g1788
a(dp4845
g1597
Nsg19
g1788
sg1599
g1
(g1600
g3
NtRp4846
(dp4847
g1604
g1792
sg1994
g1536
(g1537
(I0
tS'b'
tRp4848
(I1
(I1
tg17
I00
S'\x1a\xa4A\x1a\xa4A\x8a?'
tbsg1996
g1536
(g1537
(I0
tS'b'
tRp4849
(I1
(I1
tg17
I00
S'\x00\x00\x00\x00\x00\x80S@'
tbsg1998
g1536
(g1537
(I0
tS'b'
tRp4850
(I1
(I1
tg17
I00
S'\x00\x00\x00\x00\x00\x00\x00\x00'
tbsg2000
g1536
(g1537
(I0
tS'b'
tRp4851
(I1
(I1
tg17
I00
S'\x00\x00\x00\x00\x00\x00\x00\x00'
tbsg1603
I01
sbsg8
Nsg1606
I01
sg1595
g1596
sg1598
Nsg1393
g1
(g1607
g3
NtRp4852
(dp4853
g1610
g2004
sg1614
Nsg1612
g1627
sg1616
g1617
sg1618
Nsg1615
Nsbsaa(lp4854
g1796
a(dp4855
g1597
Nsg19
g1796
sg1599
g1
(g1600
g3
NtRp4856
(dp4857
g1604
g1800
sg1994
g1536
(g1537
(I0
tS'b'
tRp4858
(I1
(I1
tg17
I00
S'\xdb\x81\xb9v`\xae\x8d?'
tbsg1996
g1536
(g1537
(I0
tS'b'
tRp4859
(I1
(I1
tg17
I00
S'\x00\x00\x00\x00\x00@Q@'
tbsg1998
g1536
(g1537
(I0
tS'b'
tRp4860
(I1
(I1
tg17
I00
S'\x00\x00\x00\x00\x00\x00\x00\x00'
tbsg2000
g1536
(g1537
(I0
tS'b'
tRp4861
(I1
(I1
tg17
I00
S'\x00\x00\x00\x00\x00\x00\x00\x00'
tbsg1603
I01
sbsg8
Nsg1606
I01
sg1595
g1596
sg1598
Nsg1393
g1
(g1607
g3
NtRp4862
(dp4863
g1610
g2004
sg1614
Nsg1612
g1613
sg1616
g1617
sg1618
Nsg1615
Nsbsaa(lp4864
g1804
a(dp4865
g1597
Nsg19
g1804
sg1599
g1
(g1600
g3
NtRp4866
(dp4867
g1604
g1808
sg1994
g1536
(g1537
(I0
tS'b'
tRp4868
(I1
(I1
tg17
I00
S'\x00\x00\x00\x00\x00\x00\xf0?'
tbsg1996
g1536
(g1537
(I0
tS'b'
tRp4869
(I1
(I1
tg17
I00
S'\x00\x00\x00\x00\x00\x00\xf0?'
tbsg1998
g1536
(g1537
(I0
tS'b'
tRp4870
(I1
(I1
tg17
I00
S'\x00\x00\x00\x00\x00\x00\x00\x00'
tbsg2000
g1536
(g1537
(I0
tS'b'
tRp4871
(I1
(I1
tg17
I00
S'\x00\x00\x00\x00\x00\x00\x00\x00'
tbsg1603
I01
sbsg8
Nsg1606
I01
sg1595
g1596
sg1598
Nsg1393
g1
(g1607
g3
NtRp4872
(dp4873
g1610
g2004
sg1614
Nsg1612
g1613
sg1616
g1617
sg1618
Nsg1615
Nsbsaa(lp4874
g1812
a(dp4875
g1597
Nsg19
g1812
sg1599
g1
(g1600
g3
NtRp4876
(dp4877
g1604
g1816
sg1994
g1536
(g1537
(I0
tS'b'
tRp4878
(I1
(I1
tg17
I00
S'@+\x01\xad\x04\xb4R?'
tbsg1996
g1536
(g1537
(I0
tS'b'
tRp4879
(I1
(I1
tg17
I00
S'\x00\x00\x00\x00\x00`\x8b@'
tbsg1998
g1536
(g1537
(I0
tS'b'
tRp4880
(I1
(I1
tg17
I00
S'\x00\x00\x00\x00\x00\x00\x00\x00'
tbsg2000
g1536
(g1537
(I0
tS'b'
tRp4881
(I1
(I1
tg17
I00
S'\x00\x00\x00\x00\x00\x00\x00\x00'
tbsg1603
I01
sbsg8
Nsg1606
I01
sg1595
g1596
sg1598
Nsg1393
g1
(g1607
g3
NtRp4882
(dp4883
g1610
g2004
sg1614
Nsg1612
g1613
sg1616
g1617
sg1618
Nsg1615
Nsbsaa(lp4884
g1820
a(dp4885
g1597
Nsg19
g1820
sg1599
g1
(g1600
g3
NtRp4886
(dp4887
g1604
g1824
sg1994
g1536
(g1537
(I0
tS'b'
tRp4888
(I1
(I1
tg17
I00
S'\x1a\xa4A\x1a\xa4A\x8a?'
tbsg1996
g1536
(g1537
(I0
tS'b'
tRp4889
(I1
(I1
tg17
I00
S'\x00\x00\x00\x00\x00\x80S@'
tbsg1998
g1536
(g1537
(I0
tS'b'
tRp4890
(I1
(I1
tg17
I00
S'\x00\x00\x00\x00\x00\x00\x00\x00'
tbsg2000
g1536
(g1537
(I0
tS'b'
tRp4891
(I1
(I1
tg17
I00
S'\x00\x00\x00\x00\x00\x00\x00\x00'
tbsg1603
I01
sbsg8
Nsg1606
I01
sg1595
g1596
sg1598
Nsg1393
g1
(g1607
g3
NtRp4892
(dp4893
g1610
g2004
sg1614
Nsg1612
g1627
sg1616
g1617
sg1618
Nsg1615
Nsbsaa(lp4894
g1828
a(dp4895
g1597
Nsg19
g1828
sg1599
g1
(g1600
g3
NtRp4896
(dp4897
g1604
g1832
sg1994
g1536
(g1537
(I0
tS'b'
tRp4898
(I1
(I1
tg17
I00
S'(\xaf\xa1\xbc\x86\xf2\xaa?'
tbsg1996
g1536
(g1537
(I0
tS'b'
tRp4899
(I1
(I1
tg17
I00
S'\x00\x00\x00\x00\x00\x003@'
tbsg1998
g1536
(g1537
(I0
tS'b'
tRp4900
(I1
(I1
tg17
I00
S'\x00\x00\x00\x00\x00\x00\x00\x00'
tbsg2000
g1536
(g1537
(I0
tS'b'
tRp4901
(I1
(I1
tg17
I00
S'\x00\x00\x00\x00\x00\x00\x00\x00'
tbsg1603
I01
sbsg8
Nsg1606
I01
sg1595
g1596
sg1598
Nsg1393
g1
(g1607
g3
NtRp4902
(dp4903
g1610
g2004
sg1614
Nsg1612
g1613
sg1616
g1617
sg1618
Nsg1615
Nsbsaa(lp4904
g1836
a(dp4905
g1597
Nsg19
g1836
sg1599
g1
(g1600
g3
NtRp4906
(dp4907
g1604
g1840
sg1994
g1536
(g1537
(I0
tS'b'
tRp4908
(I1
(I1
tg17
I00
S'\x9a\x99\x99\x99\x99\x99\xa9?'
tbsg1996
g1536
(g1537
(I0
tS'b'
tRp4909
(I1
(I1
tg17
I00
S'\x00\x00\x00\x00\x00\x004@'
tbsg1998
g1536
(g1537
(I0
tS'b'
tRp4910
(I1
(I1
tg17
I00
S'\x00\x00\x00\x00\x00\x00\xf0?'
tbsg2000
g1536
(g1537
(I0
tS'b'
tRp4911
(I1
(I1
tg17
I00
S'\x9a\x99\x99\x99\x99\x99\xa9\xbf'
tbsg1603
I01
sbsg8
Nsg1606
I01
sg1595
g1596
sg1598
Nsg1393
g1
(g1607
g3
NtRp4912
(dp4913
g1610
g2004
sg1614
Nsg1612
g1613
sg1616
g1617
sg1618
Nsg1615
Nsbsaa(lp4914
g1844
a(dp4915
g1597
Nsg19
g1844
sg1599
Nsg8
Nsg1606
I01
sg1595
g1596
sg1598
Nsg1393
g1
(g1846
g3
NtRp4916
(dp4917
g1610
Nsg1615
Nsg1614
Nsg1616
Nsg1849
(lp4918
g1
(g1851
g3
NtRp4919
(dp4920
g1616
g1617
sg1610
g2004
sg1615
Nsg1614
Nsg1618
(dp4921
g1855
g1856
ssbag1
(g1607
g3
NtRp4922
(dp4923
g1610
g2004
sg1614
Nsg1612
g1613
sg1616
g1617
sg1618
Nsg1615
Nsbasg1618
Nsbsaa(lp4924
g1860
a(dp4925
g1597
Nsg19
g1860
sg1599
g1
(g1600
g3
NtRp4926
(dp4927
g1604
g1864
sg1994
g1536
(g1537
(I0
tS'b'
tRp4928
(I1
(I1
tg17
I00
S'{\x14\xaeG\xe1z\x94?'
tbsg1996
g1536
(g1537
(I0
tS'b'
tRp4929
(I1
(I1
tg17
I00
S'\x00\x00\x00\x00\x00\x00I@'
tbsg1998
g1536
(g1537
(I0
tS'b'
tRp4930
(I1
(I1
tg17
I00
S'\x00\x00\x00\x00\x00\x00\x00\x00'
tbsg2000
g1536
(g1537
(I0
tS'b'
tRp4931
(I1
(I1
tg17
I00
S'\x00\x00\x00\x00\x00\x00\x00\x00'
tbsg1603
I01
sbsg8
Nsg1606
I01
sg1595
g1596
sg1598
Nsg1393
g1
(g1607
g3
NtRp4932
(dp4933
g1610
g2004
sg1614
Nsg1612
g1613
sg1616
g1617
sg1618
Nsg1615
Nsbsaa(lp4934
g1868
a(dp4935
g1597
Nsg19
g1868
sg1599
g1
(g1600
g3
NtRp4936
(dp4937
g1604
g1872
sg1994
g1536
(g1537
(I0
tS'b'
tRp4938
(I1
(I1
tg17
I00
S'\xdd\xcd \xb9\xba8+?'
tbsg1996
g1536
(g1537
(I0
tS'b'
tRp4939
(I1
(I1
tg17
I00
S'\x00\x00\x00\x00\x00\xcf\xb2@'
tbsg1998
g1536
(g1537
(I0
tS'b'
tRp4940
(I1
(I1
tg17
I00
S'\x00\x00\x00\x00\x00\x00\x00\x00'
tbsg2000
g1536
(g1537
(I0
tS'b'
tRp4941
(I1
(I1
tg17
I00
S'\x00\x00\x00\x00\x00\x00\x00\x00'
tbsg1603
I01
sbsg8
Nsg1606
I01
sg1595
g1596
sg1598
Nsg1393
g1
(g1607
g3
NtRp4942
(dp4943
g1610
g2004
sg1614
Nsg1612
g1613
sg1616
g1617
sg1618
Nsg1615
Nsbsaa(lp4944
g1876
a(dp4945
g1597
Nsg19
g1876
sg1599
g1
(g1600
g3
NtRp4946
(dp4947
g1604
g1880
sg1994
g1536
(g1537
(I0
tS'b'
tRp4948
(I1
(I1
tg17
I00
S'\xbdl@1\xb2\xe4\xf0>'
tbsg1996
g1536
(g1537
(I0
tS'b'
tRp4949
(I1
(I1
tg17
I00
S'\x02:m\xa0\xcbN\xee@'
tbsg1998
g1536
(g1537
(I0
tS'b'
tRp4950
(I1
(I1
tg17
I00
S'\x00\x00\x00\x00\x00\x00\x00\x00'
tbsg2000
g1536
(g1537
(I0
tS'b'
tRp4951
(I1
(I1
tg17
I00
S'\x00\x00\x00\x00\x00\x00\x00\x00'
tbsg1603
I01
sbsg8
Nsg1606
I01
sg1595
g1596
sg1598
Nsg1393
g1
(g1607
g3
NtRp4952
(dp4953
g1610
g2004
sg1614
Nsg1612
g1627
sg1616
g1617
sg1618
Nsg1615
Nsbsaa(lp4954
g1884
a(dp4955
g1597
Nsg19
g1884
sg1599
g1
(g1600
g3
NtRp4956
(dp4957
g1604
g1888
sg1994
g1536
(g1537
(I0
tS'b'
tRp4958
(I1
(I1
tg17
I00
S'H\x07\xde\xf3\x8dis?'
tbsg1996
g1536
(g1537
(I0
tS'b'
tRp4959
(I1
(I1
tg17
I00
S'\x00\x00\x00\x00\x00`j@'
tbsg1998
g1536
(g1537
(I0
tS'b'
tRp4960
(I1
(I1
tg17
I00
S'\x00\x00\x00\x00\x00\x00\x00\x00'
tbsg2000
g1536
(g1537
(I0
tS'b'
tRp4961
(I1
(I1
tg17
I00
S'\x00\x00\x00\x00\x00\x00\x00\x00'
tbsg1603
I01
sbsg8
Nsg1606
I01
sg1595
g1596
sg1598
Nsg1393
g1
(g1607
g3
NtRp4962
(dp4963
g1610
g2004
sg1614
Nsg1612
g1613
sg1616
g1617
sg1618
Nsg1615
Nsbsaa(lp4964
g1892
a(dp4965
g1597
Nsg19
g1892
sg1599
g1
(g1600
g3
NtRp4966
(dp4967
g1604
g1896
sg1994
g1536
(g1537
(I0
tS'b'
tRp4968
(I1
(I1
tg17
I00
S'{\x14\xaeG\xe1z\x94?'
tbsg1996
g1536
(g1537
(I0
tS'b'
tRp4969
(I1
(I1
tg17
I00
S'\x00\x00\x00\x00\x00\x00I@'
tbsg1998
g1536
(g1537
(I0
tS'b'
tRp4970
(I1
(I1
tg17
I00
S'\x00\x00\x00\x00\x00\x00\x00\x00'
tbsg2000
g1536
(g1537
(I0
tS'b'
tRp4971
(I1
(I1
tg17
I00
S'\x00\x00\x00\x00\x00\x00\x00\x00'
tbsg1603
I01
sbsg8
Nsg1606
I01
sg1595
g1596
sg1598
Nsg1393
g1
(g1607
g3
NtRp4972
(dp4973
g1610
g2004
sg1614
Nsg1612
g1613
sg1616
g1617
sg1618
Nsg1615
Nsbsaa(lp4974
g1900
a(dp4975
g1597
Nsg19
g1900
sg1599
g1
(g1600
g3
NtRp4976
(dp4977
g1604
g1904
sg1994
g1536
(g1537
(I0
tS'b'
tRp4978
(I1
(I1
tg17
I00
S'\x11\x11\x11\x11\x11\x11\xa1?'
tbsg1996
g1536
(g1537
(I0
tS'b'
tRp4979
(I1
(I1
tg17
I00
S'\x00\x00\x00\x00\x00\x00>@'
tbsg1998
g1536
(g1537
(I0
tS'b'
tRp4980
(I1
(I1
tg17
I00
S'\x00\x00\x00\x00\x00\x00\x00\x00'
tbsg2000
g1536
(g1537
(I0
tS'b'
tRp4981
(I1
(I1
tg17
I00
S'\x00\x00\x00\x00\x00\x00\x00\x00'
tbsg1603
I01
sbsg8
Nsg1606
I01
sg1595
g1596
sg1598
Nsg1393
g1
(g1607
g3
NtRp4982
(dp4983
g1610
g2004
sg1614
Nsg1612
g1613
sg1616
g1617
sg1618
Nsg1615
Nsbsaa(lp4984
g1908
a(dp4985
g1597
Nsg19
g1908
sg1599
Nsg8
Nsg1606
I01
sg1595
g1596
sg1598
Nsg1393
g1
(g1910
g3
NtRp4986
(dp4987
g1616
Nsg1610
g2004
sg1615
g1
(g1913
g3
NtRp4988
(dp4989
g1666
g1916
sg1670
Nsg1672
g1917
sg1674
g1918
sg1677
g1919
sg1680
g1920
sg1615
Nsg1676
F1
sg1682
I0
sg1573
Nsg2059
I00
sg2060
g2061
((ltRp4990
sg1679
I01
sg1668
I01
sg1669
Nsg1671
Nsg4192
(dp4991
Vunited kingdom,sri lanka
p4992
g15
(g1539
S'\x16\x00\x00\x00'
tRp4993
sVunited kingdom,bangladesh
p4994
g15
(g1539
S'\x14\x00\x00\x00'
tRp4995
sVaustralia,india
p4996
g15
(g1539
S'\x01\x00\x00\x00'
tRp4997
sVportugal,argentina
p4998
g15
(g1539
S'\x0f\x00\x00\x00'
tRp4999
sVunited states,nepal
p5000
g15
(g1539
S'\x1d\x00\x00\x00'
tRp5001
sVegypt,india
p5002
g15
(g1539
S'\n\x00\x00\x00'
tRp5003
sVaustralia,bangladesh
p5004
g15
(g1539
S'\x00\x00\x00\x00'
tRp5005
sVcanada,philippines
p5006
g15
(g1539
S'\x07\x00\x00\x00'
tRp5007
sVunited states,united states
p5008
g15
(g1539
S'"\x00\x00\x00'
tRp5009
sVnew zealand,philippines
p5010
g15
(g1539
S'\x0e\x00\x00\x00'
tRp5011
sVaustralia,united kingdom
p5012
g15
(g1539
S'\x04\x00\x00\x00'
tRp5013
sVsri lanka,bangladesh
p5014
g15
(g1539
S'\x10\x00\x00\x00'
tRp5015
sVunited states,india
p5016
g15
(g1539
S'\x1a\x00\x00\x00'
tRp5017
sVsri lanka,philippines
p5018
g15
(g1539
S'\x11\x00\x00\x00'
tRp5019
sVfrance,netherlands
p5020
g15
(g1539
S'\x0b\x00\x00\x00'
tRp5021
sVunited states,nigeria
p5022
g15
(g1539
S'\x1e\x00\x00\x00'
tRp5023
sVunited states,bangladesh
p5024
g15
(g1539
S'\x17\x00\x00\x00'
tRp5025
sVbangladesh,philippines
p5026
g15
(g1539
S'\x06\x00\x00\x00'
tRp5027
sVunited states,pakistan
p5028
g15
(g1539
S'\x1f\x00\x00\x00'
tRp5029
sVunited states,morocco
p5030
g15
(g1539
S'\x1c\x00\x00\x00'
tRp5031
sVcanada,united states
p5032
g15
(g1539
S'\x08\x00\x00\x00'
tRp5033
sVbangladesh,bangladesh
p5034
g15
(g1539
S'\x05\x00\x00\x00'
tRp5035
sVunited states,china
p5036
g15
(g1539
S'\x19\x00\x00\x00'
tRp5037
sVindia,china
p5038
g15
(g1539
S'\r\x00\x00\x00'
tRp5039
sVunited states,philippines
p5040
g15
(g1539
S' \x00\x00\x00'
tRp5041
sVunited arab emirates,united states
p5042
g15
(g1539
S'\x13\x00\x00\x00'
tRp5043
sVunited states,ukraine
p5044
g15
(g1539
S'!\x00\x00\x00'
tRp5045
sVaustralia,pakistan
p5046
g15
(g1539
S'\x02\x00\x00\x00'
tRp5047
sVunited states,kenya
p5048
g15
(g1539
S'\x1b\x00\x00\x00'
tRp5049
sVcroatia,pakistan
p5050
g15
(g1539
S'\t\x00\x00\x00'
tRp5051
sVaustralia,philippines
p5052
g15
(g1539
S'\x03\x00\x00\x00'
tRp5053
sVunited kingdom,pakistan
p5054
g15
(g1539
S'\x15\x00\x00\x00'
tRp5055
sVgermany,india
p5056
g15
(g1539
S'\x0c\x00\x00\x00'
tRp5057
sVunited states,canada
p5058
g15
(g1539
S'\x18\x00\x00\x00'
tRp5059
sVunited arab emirates,india
p5060
g15
(g1539
S'\x12\x00\x00\x00'
tRp5061
ssg1694
g1695
sg1683
g1921
sg1696
Nsbsg1614
Nsg1618
Nsbsaa(lp5062
g1923
a(dp5063
g1597
Nsg19
g1923
sg1599
Nsg8
Nsg1606
I01
sg1595
g1596
sg1598
Nsg1393
g4916
saa(lp5064
g1926
a(dp5065
g1597
Nsg19
g1926
sg1599
Nsg8
Nsg1606
I01
sg1595
g1596
sg1598
Nsg1393
g4916
saa(lp5066
g1929
a(dp5067
g1597
Nsg19
g1929
sg1599
g1
(g1600
g3
NtRp5068
(dp5069
g1604
g1933
sg1994
g1536
(g1537
(I0
tS'b'
tRp5070
(I1
(I1
tg17
I00
S'P\xabR\x00\xd4\xaa4?'
tbsg1996
g1536
(g1537
(I0
tS'b'
tRp5071
(I1
(I1
tg17
I00
S'\x00\x00\x00\x00\x00\xc6\xa8@'
tbsg1998
g1536
(g1537
(I0
tS'b'
tRp5072
(I1
(I1
tg17
I00
S'\x00\x00\x00\x00\x00\x00\x00\x00'
tbsg2000
g1536
(g1537
(I0
tS'b'
tRp5073
(I1
(I1
tg17
I00
S'\x00\x00\x00\x00\x00\x00\x00\x00'
tbsg1603
I01
sbsg8
Nsg1606
I01
sg1595
g1596
sg1598
Nsg1393
g1
(g1607
g3
NtRp5074
(dp5075
g1610
g2004
sg1614
Nsg1612
g1613
sg1616
g1617
sg1618
Nsg1615
Nsbsaa(lp5076
g1937
a(dp5077
g1597
Nsg19
g1937
sg1599
g1
(g1600
g3
NtRp5078
(dp5079
g1603
I01
sg1604
g1941
sbsg8
Nsg1606
I01
sg1595
g1596
sg1598
Nsg1393
g1
(g1942
g3
NtRp5080
(dp5081
g1616
g1617
sg1610
g2004
sg1615
Nsg1614
Nsg1618
(dp5082
g1946
(dp5083
g1948
I0
sg1949
I1
sssbsaa(lp5084
g885
a(dp5085
g1597
Nsg19
g885
sg1599
g1
(g1600
g3
NtRp5086
(dp5087
g1604
g1954
sg1994
g1536
(g1537
(I0
tS'b'
tRp5088
(I1
(I1
tg17
I00
S'\xa50\x06{\xfcb\xb6>'
tbsg1996
g1536
(g1537
(I0
tS'b'
tRp5089
(I1
(I1
tg17
I00
S'\x00\x00\x00\x00\xea\xde&A'
tbsg1998
g1536
(g1537
(I0
tS'b'
tRp5090
(I1
(I1
tg17
I00
S'\x00\x00\x00\xa8\x17\xfb\xa7A'
tbsg2000
g1536
(g1537
(I0
tS'b'
tRp5091
(I1
(I1
tg17
I00
S'v\x91~q\xce\xc6p\xc0'
tbsg1603
I01
sbsg8
Nsg1606
I01
sg1595
g1596
sg1598
Nsg1393
g1
(g1607
g3
NtRp5092
(dp5093
g1610
g2004
sg1614
Nsg1612
g1613
sg1616
g1617
sg1618
Nsg1615
Nsbsaa(lp5094
g1958
a(dp5095
g1597
Nsg19
g1958
sg1599
g1
(g1600
g3
NtRp5096
(dp5097
g1603
I01
sg1604
g1963
sbsg8
F0.33000000000000002
sg1606
I01
sg1595
g1960
sg1598
Nsg1393
g1
(g1607
g3
NtRp5098
(dp5099
g1610
g2004
sg1614
Nsg1612
g1627
sg1616
g1617
sg1618
Nsg1615
g1
(g1966
g3
NtRp5100
(dp5101
g1969
I01
sS'feature_names_'
p5102
(lp5103
V3ds Max 7.0 Test
p5104
aV3ds Max 9 Test
p5105
aVASP.Net 3.5 using C# Test
p5106
aVAccounting Principles Test
p5107
aVAccounting Skills Test (Assets and Revenue)
p5108
aVAccounting Skills Test (Cash Flow)
p5109
aVAccounts Payable Test
p5110
aVAccounts Receivable Test
p5111
aVAdobe After Effects 7.0 Test
p5112
aVAdobe Flex 3.0 Test
p5113
aVAdobe Illustrator CS3 Test
p5114
aVAdobe Illustrator CS4 Test
p5115
aVAdobe Illustrator Test
p5116
aVAdobe Photoshop 6.0
p5117
aVAdobe Photoshop CS3 Test
p5118
aVAdobe Photoshop CS4 Test
p5119
aVAdobe Premiere Test
p5120
aVAdvanced PHP Test
p5121
aVAnalytical Skills Test
p5122
aVAutoCad 2007 Test
p5123
aVBook keeping Test
p5124
aVBusiness Mathematics Test
p5125
aVCSS 2.0 Test
p5126
aVCSS 3 Test
p5127
aVCall Center Skills Test
p5128
aVChrome Product Test
p5129
aVCocoa programming for Mac OS X 10.5 Test
p5130
aVContent Writing Skills Test
p5131
aVCreative Writing Test - Fiction (U.S. Version)
p5132
aVCreative Writing Test - Non-fiction (U.S. Version)
p5133
aVCustomer Service Test
p5134
aVDreamweaver 8 Test
p5135
aVDrupal 6.14 Test
p5136
aVEmail Etiquette Certification
p5137
aVEnglish Spelling Test (U.S. Version)
p5138
aVEnglish Spelling Test (UK Version)
p5139
aVEnglish To French Translation Skills Test
p5140
aVEnglish To Russian Translation Skills Test
p5141
aVEnglish To Tagalog (Filipino) Translation Skills Test
p5142
aVEnglish Vocabulary Test (U.S. Version)
p5143
aVEnglish Vocabulary Test (UK Version)
p5144
aVFacebook Connect Test
p5145
aVFrench Spelling Skills Test
p5146
aVFrench To English Translation Skills Test
p5147
aVGenerally Accepted Accounting Principles (GAAP) Test
p5148
aVGmail Product Test
p5149
aVGoogle AdWords Test
p5150
aVGoogle Android Programming Test
p5151
aVHTML 4.01 Test
p5152
aVHTML 5 Test
p5153
aVHelp Desk Certification
p5154
aVHospitality Terminology Test
p5155
aVInternet Marketing Test
p5156
aVJSON Test
p5157
aVJSP 2.0 Test
p5158
aVJava Test
p5159
aVJavaScript 1.3 Test
p5160
aVJavaScript 1.8 Test
p5161
aVJoomla 1.5 Test
p5162
aVKnowledge of Microsoft Silverlight Skills Test
p5163
aVKnowledge of Windows 7 Skills Test
p5164
aVKnowledge of jQuery 1.3.2 Skills Test
p5165
aVMS Excel 2003 Test
p5166
aVMS Excel 2007 Test
p5167
aVMS PowerPoint 2007 Test
p5168
aVMS Word 2003 Test
p5169
aVMS Word 2007 Test
p5170
aVMagento eCommerce Test
p5171
aVManagement Skills Test
p5172
aVMaya 7.0 Test
p5173
aVMedical Billing Certification
p5174
aVMicrosoft Excel 2010 Test
p5175
aVMySQL 5.0 Test
p5176
aVNetworking Concepts Test
p5177
aVObjective C Test
p5178
aVOffice Skills Test
p5179
aVOnline Article Writing and Blogging Test (U.S. Version)
p5180
aVOrganizational Behavior Test
p5181
aVOutbound Sales Skills Test
p5182
aVPC Graphics Test
p5183
aVPHP4 Test
p5184
aVPHP5 Test
p5185
aVPerl 5 Test
p5186
aVPrinciples of  Web Graphics Design Test
p5187
aVProgramming with C++ Test
p5188
aVPython 2.x Test
p5189
aVQuick Books Pro 2008 Test
p5190
aVReport Writing Test
p5191
aVResume Writing Skills Test
p5192
aVRuby on Rails  2.3 Test
p5193
aVRuby on Rails Test
p5194
aVSQL Test
p5195
aVSearch Engine Optimization Test
p5196
aVSlideshow Product Test
p5197
aVSocial Media Marketing Test
p5198
aVSoftware Testing Test
p5199
aVSpanish To English Translation Skills Test
p5200
aVTechnical Writing Skills Certification
p5201
aVTelephone Etiquette Certification
p5202
aVU.S. English Basic Skills Test
p5203
aVU.S. English Chicago Style Editing Skills Test (For Writing Professionals)
p5204
aVU.S. English Punctuation and Mechanics Test
p5205
aVU.S. English Sentence Structure Test (For Writing Professionals)
p5206
aVU.S. Word Usage Test
p5207
aVUK English Basic Skills Test
p5208
aVUK English Grammar Test (For Writing Professionals)
p5209
aVWindows XP Test
p5210
aVWordPress 2.8 Test
p5211
aVWordpress Test
p5212
aVXHTML 1.0 Test
p5213
aVXML 1.0 Test
p5214
aViPhone Programming OS 2.1 Test
p5215
aViPhone Programming OS 4.0 Test
p5216
aVoDesk Readiness Test for Affiliated Contractors
p5217
aVoDesk Readiness Test for Agency Contractors
p5218
aVoDesk Readiness Test for Independent Contractors and Company Managers
p5219
aVoDesk Readiness Test for Independent Contractors and Staffing Managers
p5220
asg1694
g1970
sg4192
(dp5221
g5176
I72
sg5137
I33
sg5217
I113
sg5141
I37
sg5219
I115
sg5193
I89
sg5149
I45
sg5170
I66
sg5145
I41
sg5153
I49
sg5205
I101
sg5180
I76
sg5122
I18
sg5212
I108
sg5194
I90
sg5214
I110
sg5139
I35
sg5189
I85
sg5210
I106
sg5213
I109
sg5121
I17
sg5152
I48
sg5172
I68
sg5215
I111
sg5183
I79
sg5182
I78
sg5204
I100
sg5200
I96
sg5105
I1
sg5117
I13
sg5198
I94
sg5109
I5
sg5164
I60
sg5174
I70
sg5178
I74
sg5142
I38
sg5151
I47
sg5175
I71
sg5179
I75
sg5203
I99
sg5218
I114
sg5220
I116
sg5195
I91
sg5148
I44
sg5110
I6
sg5144
I40
sg5196
I92
sg5120
I16
sg5216
I112
sg5124
I20
sg5191
I87
sg5187
I83
sg5160
I56
sg5207
I103
sg5140
I36
sg5116
I12
sg5155
I51
sg5147
I43
sg5159
I55
sg5197
I93
sg5173
I69
sg5185
I81
sg5211
I107
sg5209
I105
sg5199
I95
sg5111
I7
sg5188
I84
sg5165
I61
sg5108
I4
sg5171
I67
sg5104
I0
sg5123
I19
sg5208
I104
sg5190
I86
sg5114
I10
sg5119
I15
sg5154
I50
sg5146
I42
sg5125
I21
sg5126
I22
sg5107
I3
sg5118
I14
sg5167
I63
sg5150
I46
sg5129
I25
sg5127
I23
sg5133
I29
sg5132
I28
sg5177
I73
sg5131
I27
sg5135
I31
sg5168
I64
sg5128
I24
sg5138
I34
sg5206
I102
sg5161
I57
sg5158
I54
sg5192
I88
sg5130
I26
sg5201
I97
sg5163
I59
sg5136
I32
sg5106
I2
sg5169
I65
sg5202
I98
sg5113
I9
sg5134
I30
sg5166
I62
sg5162
I58
sg5186
I82
sg5157
I53
sg5112
I8
sg5143
I39
sg5156
I52
sg5181
I77
sg5184
I80
sg5115
I11
ssg1971
S'='
sg1972
I01
sbsbsaatRp5222
ssb.