ccopy_reg
_reconstructor
p1
(ccloudml.trainer.store
TrainerStorage
p2
c__builtin__
object
p3
NtRp4
(dp5
S'visualization'
p6
(dp7
S'default'
p8
(dp9
S'all_weights'
p10
(dp11
I1
(lp12
(dp13
S'feature_weight'
p14
cnumpy.core.multiarray
scalar
p15
(cnumpy
dtype
p16
(S'f8'
I0
I1
tRp17
(I3
S'<'
NNNI-1
I-1
I0
tbS'\x00\x00\x00\x00\x00\x00\x00\x00'
tRp18
sS'name'
p19
Vemployer->op_timezone
p20
sS'weight'
p21
g15
(g17
S'\x00\x00\x00\x00\x00\x00\x00\x00'
tRp22
sa(dp23
g14
g15
(g17
S'\x86\xb7\xa7\x1c\x88\x06\xbf?'
tRp24
sg19
Vemployer->op_country_tz
p25
sg21
g15
(g17
S'\xc0M1j\xf8\xdb\x94?'
tRp26
sa(dp27
g14
g15
(g17
S'F\xd6\xfe\xb0}\xees?'
tRp28
sg19
Vemployer->op_tot_jobs_filled
p29
sg21
g15
(g17
S't\x9e-y\x12\x0b\xb6?'
tRp30
sa(dp31
g14
g15
(g17
S'\x00\x00\x00\x00\x00\x00\x00\x00'
tRp32
sg19
Vcontractor->dev_adj_score_recent
p33
sg21
g15
(g17
S'\x00\x00\x00\x00\x00\x00\x00\x00'
tRp34
sa(dp35
g14
g15
(g17
S'\x00\x00\x00\x00\x00\x00\x00\x00'
tRp36
sg19
Vcontractor->dev_is_looking
p37
sg21
g15
(g17
S'\x00\x00\x00\x00\x00\x00\x00\x00'
tRp38
sa(dp39
g14
g15
(g17
S'\x8b\xf1\xf1\x83\xd2u\x93?'
tRp40
sg19
Vcontractor->dev_recent_rank_percentile
p41
sg21
g15
(g17
S'\x9a\x99\x99\x99\x99\x99\xa9?'
tRp42
sa(dp43
g14
g15
(g17
S'\x00\x00\x00\x00\x00\x00\x00\x00'
tRp44
sg19
Vcontractor->dev_recent_fp_jobs
p45
sg21
g15
(g17
S'\x00\x00\x00\x00\x00\x00\x00\x00'
tRp46
sa(dp47
g14
g15
(g17
S'\x00\x00\x00\x00\x00\x00\x00\x00'
tRp48
sg19
Vcontractor->dev_recent_hours
p49
sg21
g15
(g17
S'\x00\x00\x00\x00\x00\x00\x00\x00'
tRp50
sa(dp51
g14
g15
(g17
S'\x00\x00\x00\x00\x00\x00\x00\x00'
tRp52
sg19
Vcontractor->dev_blurb->all
p53
sg21
g15
(g17
S'\x00\x00\x00\x00\x00\x00\x00\x00'
tRp54
sa(dp55
g14
g15
(g17
S'\x00\x00\x00\x00\x00\x00\x00\x00'
tRp56
sg19
Vcontractor->dev_blurb->also
p57
sg21
g15
(g17
S'\x00\x00\x00\x00\x00\x00\x00\x00'
tRp58
sa(dp59
g14
g15
(g17
S'\x00\x00\x00\x00\x00\x00\x00\x00'
tRp60
sg19
Vcontractor->dev_blurb->always
p61
sg21
g15
(g17
S'\x00\x00\x00\x00\x00\x00\x00\x00'
tRp62
sa(dp63
g14
g15
(g17
S'\x00\x00\x00\x00\x00\x00\x00\x00'
tRp64
sg19
Vcontractor->dev_blurb->am
p65
sg21
g15
(g17
S'\x00\x00\x00\x00\x00\x00\x00\x00'
tRp66
sa(dp67
g14
g15
(g17
S'\x00\x00\x00\x00\x00\x00\x00\x00'
tRp68
sg19
Vcontractor->dev_blurb->an
p69
sg21
g15
(g17
S'\x00\x00\x00\x00\x00\x00\x00\x00'
tRp70
sa(dp71
g14
g15
(g17
S'\x00\x00\x00\x00\x00\x00\x00\x00'
tRp72
sg19
Vcontractor->dev_blurb->and
p73
sg21
g15
(g17
S'\x00\x00\x00\x00\x00\x00\x00\x00'
tRp74
sa(dp75
g14
g15
(g17
S'E\x80\xca\x95\x197[?'
tRp76
sg19
Vcontractor->dev_blurb->are
p77
sg21
g15
(g17
S'\xd0\x94\t \xf3L\xa9?'
tRp78
sa(dp79
g14
g15
(g17
S'@F[.\x01\x81w?'
tRp80
sg19
Vcontractor->dev_blurb->as
p81
sg21
g15
(g17
S'T\xaf\xb8\xa2}\xde\xb3?'
tRp82
sa(dp83
g14
g15
(g17
S'\x00\x00\x00\x00\x00\x00\x00\x00'
tRp84
sg19
Vcontractor->dev_blurb->at
p85
sg21
g15
(g17
S'\x00\x00\x00\x00\x00\x00\x00\x00'
tRp86
sa(dp87
g14
g15
(g17
S'\x00\x00\x00\x00\x00\x00\x00\x00'
tRp88
sg19
Vcontractor->dev_blurb->be
p89
sg21
g15
(g17
S'\x00\x00\x00\x00\x00\x00\x00\x00'
tRp90
sa(dp91
g14
g15
(g17
S'\x00\x00\x00\x00\x00\x00\x00\x00'
tRp92
sg19
Vcontractor->dev_blurb->been
p93
sg21
g15
(g17
S'\x00\x00\x00\x00\x00\x00\x00\x00'
tRp94
sa(dp95
g14
g15
(g17
S'\x00\x00\x00\x00\x00\x00\x00\x00'
tRp96
sg19
Vcontractor->dev_blurb->best
p97
sg21
g15
(g17
S'\x00\x00\x00\x00\x00\x00\x00\x00'
tRp98
sa(dp99
g14
g15
(g17
S'\x00\x00\x00\x00\x00\x00\x00\x00'
tRp100
sg19
Vcontractor->dev_blurb->business
p101
sg21
g15
(g17
S'\x00\x00\x00\x00\x00\x00\x00\x00'
tRp102
sa(dp103
g14
g15
(g17
S'\x00\x00\x00\x00\x00\x00\x00\x00'
tRp104
sg19
Vcontractor->dev_blurb->but
p105
sg21
g15
(g17
S'\x00\x00\x00\x00\x00\x00\x00\x00'
tRp106
sa(dp107
g14
g15
(g17
S'0\xa2\xae\xd3\x03ue?'
tRp108
sg19
Vcontractor->dev_blurb->can
p109
sg21
g15
(g17
S'8\xb1\xf1\xa3r\x08\xb0?'
tRp110
sa(dp111
g14
g15
(g17
S'\xe8c\x06?)\xe6@?'
tRp112
sg19
Vcontractor->dev_blurb->client
p113
sg21
g15
(g17
S'\xe2\xf6\xa6\xfd\xbd\x18\x9a?'
tRp114
sa(dp115
g14
g15
(g17
S'\x00\x00\x00\x00\x00\x00\x00\x00'
tRp116
sg19
Vcontractor->dev_blurb->clients
p117
sg21
g15
(g17
S'\x00\x00\x00\x00\x00\x00\x00\x00'
tRp118
sa(dp119
g14
g15
(g17
S'\x00\x00\x00\x00\x00\x00\x00\x00'
tRp120
sg19
Vcontractor->dev_blurb->com
p121
sg21
g15
(g17
S'\x00\x00\x00\x00\x00\x00\x00\x00'
tRp122
sa(dp123
g14
g15
(g17
S'\x00\x00\x00\x00\x00\x00\x00\x00'
tRp124
sg19
Vcontractor->dev_blurb->companies
p125
sg21
g15
(g17
S'\x00\x00\x00\x00\x00\x00\x00\x00'
tRp126
sa(dp127
g14
g15
(g17
S'\x00\x00\x00\x00\x00\x00\x00\x00'
tRp128
sg19
Vcontractor->dev_blurb->company
p129
sg21
g15
(g17
S'\x00\x00\x00\x00\x00\x00\x00\x00'
tRp130
sa(dp131
g14
g15
(g17
S'\x00\x00\x00\x00\x00\x00\x00\x00'
tRp132
sg19
Vcontractor->dev_blurb->complete
p133
sg21
g15
(g17
S'\x00\x00\x00\x00\x00\x00\x00\x00'
tRp134
sa(dp135
g14
g15
(g17
S'\x00\x00\x00\x00\x00\x00\x00\x00'
tRp136
sg19
Vcontractor->dev_blurb->customer
p137
sg21
g15
(g17
S'\x00\x00\x00\x00\x00\x00\x00\x00'
tRp138
sa(dp139
g14
g15
(g17
S'\xf4\x06\x0e\xe75mX?'
tRp140
sg19
Vcontractor->dev_blurb->data
p141
sg21
g15
(g17
S'\xa9g\xec\xe2\xf5\xcf\x9b?'
tRp142
sa(dp143
g14
g15
(g17
S'\x00\x00\x00\x00\x00\x00\x00\x00'
tRp144
sg19
Vcontractor->dev_blurb->design
p145
sg21
g15
(g17
S'\x00\x00\x00\x00\x00\x00\x00\x00'
tRp146
sa(dp147
g14
g15
(g17
S'\x00\x00\x00\x00\x00\x00\x00\x00'
tRp148
sg19
Vcontractor->dev_blurb->designer
p149
sg21
g15
(g17
S'\x00\x00\x00\x00\x00\x00\x00\x00'
tRp150
sa(dp151
g14
g15
(g17
S'\x00\x00\x00\x00\x00\x00\x00\x00'
tRp152
sg19
Vcontractor->dev_blurb->developed
p153
sg21
g15
(g17
S'\x00\x00\x00\x00\x00\x00\x00\x00'
tRp154
sa(dp155
g14
g15
(g17
S'\x00\x00\x00\x00\x00\x00\x00\x00'
tRp156
sg19
Vcontractor->dev_blurb->development
p157
sg21
g15
(g17
S'\x00\x00\x00\x00\x00\x00\x00\x00'
tRp158
sa(dp159
g14
g15
(g17
S'\x00\x00\x00\x00\x00\x00\x00\x00'
tRp160
sg19
Vcontractor->dev_blurb->do
p161
sg21
g15
(g17
S'\x00\x00\x00\x00\x00\x00\x00\x00'
tRp162
sa(dp163
g14
g15
(g17
S'\x00\x00\x00\x00\x00\x00\x00\x00'
tRp164
sg19
Vcontractor->dev_blurb->entry
p165
sg21
g15
(g17
S'\x00\x00\x00\x00\x00\x00\x00\x00'
tRp166
sa(dp167
g14
g15
(g17
S'\x00\x00\x00\x00\x00\x00\x00\x00'
tRp168
sg19
Vcontractor->dev_blurb->excel
p169
sg21
g15
(g17
S'\x00\x00\x00\x00\x00\x00\x00\x00'
tRp170
sa(dp171
g14
g15
(g17
S'\x00\x00\x00\x00\x00\x00\x00\x00'
tRp172
sg19
Vcontractor->dev_blurb->excellent
p173
sg21
g15
(g17
S'\x00\x00\x00\x00\x00\x00\x00\x00'
tRp174
sa(dp175
g14
g15
(g17
S'\x00\x00\x00\x00\x00\x00\x00\x00'
tRp176
sg19
Vcontractor->dev_blurb->experience
p177
sg21
g15
(g17
S'\x00\x00\x00\x00\x00\x00\x00\x00'
tRp178
sa(dp179
g14
g15
(g17
S'\xb8\x80\x9e\xbf\xf2~P?'
tRp180
sg19
Vcontractor->dev_blurb->expertise
p181
sg21
g15
(g17
S'\x90\xed0\x9c\xb9\t\xaa?'
tRp182
sa(dp183
g14
g15
(g17
S'\x00\x00\x00\x00\x00\x00\x00\x00'
tRp184
sg19
Vcontractor->dev_blurb->following
p185
sg21
g15
(g17
S'\x00\x00\x00\x00\x00\x00\x00\x00'
tRp186
sa(dp187
g14
g15
(g17
S'\x00\x00\x00\x00\x00\x00\x00\x00'
tRp188
sg19
Vcontractor->dev_blurb->for
p189
sg21
g15
(g17
S'\x00\x00\x00\x00\x00\x00\x00\x00'
tRp190
sa(dp191
g14
g15
(g17
S'\x00\x00\x00\x00\x00\x00\x00\x00'
tRp192
sg19
Vcontractor->dev_blurb->from
p193
sg21
g15
(g17
S'\x00\x00\x00\x00\x00\x00\x00\x00'
tRp194
sa(dp195
g14
g15
(g17
S'\x00\x00\x00\x00\x00\x00\x00\x00'
tRp196
sg19
Vcontractor->dev_blurb->goal
p197
sg21
g15
(g17
S'\x00\x00\x00\x00\x00\x00\x00\x00'
tRp198
sa(dp199
g14
g15
(g17
S'\x00\x00\x00\x00\x00\x00\x00\x00'
tRp200
sg19
Vcontractor->dev_blurb->good
p201
sg21
g15
(g17
S'\x00\x00\x00\x00\x00\x00\x00\x00'
tRp202
sa(dp203
g14
g15
(g17
S'\x00\x00\x00\x00\x00\x00\x00\x00'
tRp204
sg19
Vcontractor->dev_blurb->have
p205
sg21
g15
(g17
S'\x00\x00\x00\x00\x00\x00\x00\x00'
tRp206
sa(dp207
g14
g15
(g17
S'\x00\x00\x00\x00\x00\x00\x00\x00'
tRp208
sg19
Vcontractor->dev_blurb->html
p209
sg21
g15
(g17
S'\x00\x00\x00\x00\x00\x00\x00\x00'
tRp210
sa(dp211
g14
g15
(g17
S'\x00\x00\x00\x00\x00\x00\x00\x00'
tRp212
sg19
Vcontractor->dev_blurb->if
p213
sg21
g15
(g17
S'\x00\x00\x00\x00\x00\x00\x00\x00'
tRp214
sa(dp215
g14
g15
(g17
S'\x00\x00\x00\x00\x00\x00\x00\x00'
tRp216
sg19
Vcontractor->dev_blurb->in
p217
sg21
g15
(g17
S'\x00\x00\x00\x00\x00\x00\x00\x00'
tRp218
sa(dp219
g14
g15
(g17
S'\x00\x00\x00\x00\x00\x00\x00\x00'
tRp220
sg19
Vcontractor->dev_blurb->is
p221
sg21
g15
(g17
S'\x00\x00\x00\x00\x00\x00\x00\x00'
tRp222
sa(dp223
g14
g15
(g17
S'\x00\x00\x00\x00\x00\x00\x00\x00'
tRp224
sg19
Vcontractor->dev_blurb->it
p225
sg21
g15
(g17
S'\x00\x00\x00\x00\x00\x00\x00\x00'
tRp226
sa(dp227
g14
g15
(g17
S'X\x96/r\xae\xf1F?'
tRp228
sg19
Vcontractor->dev_blurb->jobs
p229
sg21
g15
(g17
S'\xc3{\xa5\xeb\xf8w\xa3?'
tRp230
sa(dp231
g14
g15
(g17
S'\x00\x00\x00\x00\x00\x00\x00\x00'
tRp232
sg19
Vcontractor->dev_blurb->knowledge
p233
sg21
g15
(g17
S'\x00\x00\x00\x00\x00\x00\x00\x00'
tRp234
sa(dp235
g14
g15
(g17
S'\x00\x00\x00\x00\x00\x00\x00\x00'
tRp236
sg19
Vcontractor->dev_blurb->last
p237
sg21
g15
(g17
S'\x00\x00\x00\x00\x00\x00\x00\x00'
tRp238
sa(dp239
g14
g15
(g17
S'\xe3\xd3Y<\xfeiS?'
tRp240
sg19
Vcontractor->dev_blurb->like
p241
sg21
g15
(g17
S'\xa0\xc39\x9c\xc39\xac?'
tRp242
sa(dp243
g14
g15
(g17
S'\x00\x00\x00\x00\x00\x00\x00\x00'
tRp244
sg19
Vcontractor->dev_blurb->looking
p245
sg21
g15
(g17
S'\x00\x00\x00\x00\x00\x00\x00\x00'
tRp246
sa(dp247
g14
g15
(g17
S'\x00\x00\x00\x00\x00\x00\x00\x00'
tRp248
sg19
Vcontractor->dev_blurb->management
p249
sg21
g15
(g17
S'\x00\x00\x00\x00\x00\x00\x00\x00'
tRp250
sa(dp251
g14
g15
(g17
S'\x00\x00\x00\x00\x00\x00\x00\x00'
tRp252
sg19
Vcontractor->dev_blurb->many
p253
sg21
g15
(g17
S'\x00\x00\x00\x00\x00\x00\x00\x00'
tRp254
sa(dp255
g14
g15
(g17
S'\x00\x00\x00\x00\x00\x00\x00\x00'
tRp256
sg19
Vcontractor->dev_blurb->marketing
p257
sg21
g15
(g17
S'\x00\x00\x00\x00\x00\x00\x00\x00'
tRp258
sa(dp259
g14
g15
(g17
S'\x00\x00\x00\x00\x00\x00\x00\x00'
tRp260
sg19
Vcontractor->dev_blurb->me
p261
sg21
g15
(g17
S'\x00\x00\x00\x00\x00\x00\x00\x00'
tRp262
sa(dp263
g14
g15
(g17
S'\x00\x00\x00\x00\x00\x00\x00\x00'
tRp264
sg19
Vcontractor->dev_blurb->more
p265
sg21
g15
(g17
S'\x00\x00\x00\x00\x00\x00\x00\x00'
tRp266
sa(dp267
g14
g15
(g17
S'\x00\x00\x00\x00\x00\x00\x00\x00'
tRp268
sg19
Vcontractor->dev_blurb->my
p269
sg21
g15
(g17
S'\x00\x00\x00\x00\x00\x00\x00\x00'
tRp270
sa(dp271
g14
g15
(g17
S'\x00\x00\x00\x00\x00\x00\x00\x00'
tRp272
sg19
Vcontractor->dev_blurb->mysql
p273
sg21
g15
(g17
S'\x00\x00\x00\x00\x00\x00\x00\x00'
tRp274
sa(dp275
g14
g15
(g17
S'\x00\x00\x00\x00\x00\x00\x00\x00'
tRp276
sg19
Vcontractor->dev_blurb->new
p277
sg21
g15
(g17
S'\x00\x00\x00\x00\x00\x00\x00\x00'
tRp278
sa(dp279
g14
g15
(g17
S'\x00\x00\x00\x00\x00\x00\x00\x00'
tRp280
sg19
Vcontractor->dev_blurb->not
p281
sg21
g15
(g17
S'\x00\x00\x00\x00\x00\x00\x00\x00'
tRp282
sa(dp283
g14
g15
(g17
S'\x00\x00\x00\x00\x00\x00\x00\x00'
tRp284
sg19
Vcontractor->dev_blurb->objective
p285
sg21
g15
(g17
S'\x00\x00\x00\x00\x00\x00\x00\x00'
tRp286
sa(dp287
g14
g15
(g17
S'\x00\x00\x00\x00\x00\x00\x00\x00'
tRp288
sg19
Vcontractor->dev_blurb->of
p289
sg21
g15
(g17
S'\x00\x00\x00\x00\x00\x00\x00\x00'
tRp290
sa(dp291
g14
g15
(g17
S'\x00\x00\x00\x00\x00\x00\x00\x00'
tRp292
sg19
Vcontractor->dev_blurb->on
p293
sg21
g15
(g17
S'\x00\x00\x00\x00\x00\x00\x00\x00'
tRp294
sa(dp295
g14
g15
(g17
S'\x00\x00\x00\x00\x00\x00\x00\x00'
tRp296
sg19
Vcontractor->dev_blurb->one
p297
sg21
g15
(g17
S'\x00\x00\x00\x00\x00\x00\x00\x00'
tRp298
sa(dp299
g14
g15
(g17
S'\x00\x00\x00\x00\x00\x00\x00\x00'
tRp300
sg19
Vcontractor->dev_blurb->or
p301
sg21
g15
(g17
S'\x00\x00\x00\x00\x00\x00\x00\x00'
tRp302
sa(dp303
g14
g15
(g17
S'\x00\x00\x00\x00\x00\x00\x00\x00'
tRp304
sg19
Vcontractor->dev_blurb->oriented
p305
sg21
g15
(g17
S'\x00\x00\x00\x00\x00\x00\x00\x00'
tRp306
sa(dp307
g14
g15
(g17
S'\x00\x00\x00\x00\x00\x00\x00\x00'
tRp308
sg19
Vcontractor->dev_blurb->other
p309
sg21
g15
(g17
S'\x00\x00\x00\x00\x00\x00\x00\x00'
tRp310
sa(dp311
g14
g15
(g17
S'\x00\x00\x00\x00\x00\x00\x00\x00'
tRp312
sg19
Vcontractor->dev_blurb->over
p313
sg21
g15
(g17
S'\x00\x00\x00\x00\x00\x00\x00\x00'
tRp314
sa(dp315
g14
g15
(g17
S'\x00\x00\x00\x00\x00\x00\x00\x00'
tRp316
sg19
Vcontractor->dev_blurb->php
p317
sg21
g15
(g17
S'\x00\x00\x00\x00\x00\x00\x00\x00'
tRp318
sa(dp319
g14
g15
(g17
S'\x00\x00\x00\x00\x00\x00\x00\x00'
tRp320
sg19
Vcontractor->dev_blurb->professional
p321
sg21
g15
(g17
S'\x00\x00\x00\x00\x00\x00\x00\x00'
tRp322
sa(dp323
g14
g15
(g17
S'\x00\x00\x00\x00\x00\x00\x00\x00'
tRp324
sg19
Vcontractor->dev_blurb->project
p325
sg21
g15
(g17
S'\x00\x00\x00\x00\x00\x00\x00\x00'
tRp326
sa(dp327
g14
g15
(g17
S'\x00\x00\x00\x00\x00\x00\x00\x00'
tRp328
sg19
Vcontractor->dev_blurb->provide
p329
sg21
g15
(g17
S'\x00\x00\x00\x00\x00\x00\x00\x00'
tRp330
sa(dp331
g14
g15
(g17
S'\x00\x00\x00\x00\x00\x00\x00\x00'
tRp332
sg19
Vcontractor->dev_blurb->quality
p333
sg21
g15
(g17
S'\x00\x00\x00\x00\x00\x00\x00\x00'
tRp334
sa(dp335
g14
g15
(g17
S'\x00\x00\x00\x00\x00\x00\x00\x00'
tRp336
sg19
Vcontractor->dev_blurb->research
p337
sg21
g15
(g17
S'\x00\x00\x00\x00\x00\x00\x00\x00'
tRp338
sa(dp339
g14
g15
(g17
S'\x00\x00\x00\x00\x00\x00\x00\x00'
tRp340
sg19
Vcontractor->dev_blurb->satisfaction
p341
sg21
g15
(g17
S'\x00\x00\x00\x00\x00\x00\x00\x00'
tRp342
sa(dp343
g14
g15
(g17
S'2e\xcb\xb7k,H?'
tRp344
sg19
Vcontractor->dev_blurb->seo
p345
sg21
g15
(g17
S'\x88\xad\x9fl\xe6-\xa0?'
tRp346
sa(dp347
g14
g15
(g17
S'\xeaNU\x03\xaa\xdcC?'
tRp348
sg19
Vcontractor->dev_blurb->service
p349
sg21
g15
(g17
S'{TQ\x02Kd\x8c?'
tRp350
sa(dp351
g14
g15
(g17
S'\x00\x00\x00\x00\x00\x00\x00\x00'
tRp352
sg19
Vcontractor->dev_blurb->skills
p353
sg21
g15
(g17
S'\x00\x00\x00\x00\x00\x00\x00\x00'
tRp354
sa(dp355
g14
g15
(g17
S'\x00\x00\x00\x00\x00\x00\x00\x00'
tRp356
sg19
Vcontractor->dev_blurb->solutions
p357
sg21
g15
(g17
S'\x00\x00\x00\x00\x00\x00\x00\x00'
tRp358
sa(dp359
g14
g15
(g17
S'\x00\x00\x00\x00\x00\x00\x00\x00'
tRp360
sg19
Vcontractor->dev_blurb->some
p361
sg21
g15
(g17
S'\x00\x00\x00\x00\x00\x00\x00\x00'
tRp362
sa(dp363
g14
g15
(g17
S'\x00\x00\x00\x00\x00\x00\x00\x00'
tRp364
sg19
Vcontractor->dev_blurb->strong
p365
sg21
g15
(g17
S'\x00\x00\x00\x00\x00\x00\x00\x00'
tRp366
sa(dp367
g14
g15
(g17
S'\x00\x00\x00\x00\x00\x00\x00\x00'
tRp368
sg19
Vcontractor->dev_blurb->support
p369
sg21
g15
(g17
S'\x00\x00\x00\x00\x00\x00\x00\x00'
tRp370
sa(dp371
g14
g15
(g17
S'\x00\x00\x00\x00\x00\x00\x00\x00'
tRp372
sg19
Vcontractor->dev_blurb->tasks
p373
sg21
g15
(g17
S'\x00\x00\x00\x00\x00\x00\x00\x00'
tRp374
sa(dp375
g14
g15
(g17
S'\x00\x00\x00\x00\x00\x00\x00\x00'
tRp376
sg19
Vcontractor->dev_blurb->than
p377
sg21
g15
(g17
S'\x00\x00\x00\x00\x00\x00\x00\x00'
tRp378
sa(dp379
g14
g15
(g17
S'\x00\x00\x00\x00\x00\x00\x00\x00'
tRp380
sg19
Vcontractor->dev_blurb->that
p381
sg21
g15
(g17
S'\x00\x00\x00\x00\x00\x00\x00\x00'
tRp382
sa(dp383
g14
g15
(g17
S'\x00\x00\x00\x00\x00\x00\x00\x00'
tRp384
sg19
Vcontractor->dev_blurb->the
p385
sg21
g15
(g17
S'\x00\x00\x00\x00\x00\x00\x00\x00'
tRp386
sa(dp387
g14
g15
(g17
S'\x00\x00\x00\x00\x00\x00\x00\x00'
tRp388
sg19
Vcontractor->dev_blurb->time
p389
sg21
g15
(g17
S'\x00\x00\x00\x00\x00\x00\x00\x00'
tRp390
sa(dp391
g14
g15
(g17
S'\xee\xd9}\xa5R\x8al?'
tRp392
sg19
Vcontractor->dev_blurb->to
p393
sg21
g15
(g17
S'\xc0M1j\xf8\xdb\x94?'
tRp394
sa(dp395
g14
g15
(g17
S'\x00\x00\x00\x00\x00\x00\x00\x00'
tRp396
sg19
Vcontractor->dev_blurb->use
p397
sg21
g15
(g17
S'\x00\x00\x00\x00\x00\x00\x00\x00'
tRp398
sa(dp399
g14
g15
(g17
S'\x00\x00\x00\x00\x00\x00\x00\x00'
tRp400
sg19
Vcontractor->dev_blurb->using
p401
sg21
g15
(g17
S'\x00\x00\x00\x00\x00\x00\x00\x00'
tRp402
sa(dp403
g14
g15
(g17
S'\x00\x00\x00\x00\x00\x00\x00\x00'
tRp404
sg19
Vcontractor->dev_blurb->very
p405
sg21
g15
(g17
S'\x00\x00\x00\x00\x00\x00\x00\x00'
tRp406
sa(dp407
g14
g15
(g17
S'\x00\x00\x00\x00\x00\x00\x00\x00'
tRp408
sg19
Vcontractor->dev_blurb->web
p409
sg21
g15
(g17
S'\x00\x00\x00\x00\x00\x00\x00\x00'
tRp410
sa(dp411
g14
g15
(g17
S'\x00\x00\x00\x00\x00\x00\x00\x00'
tRp412
sg19
Vcontractor->dev_blurb->website
p413
sg21
g15
(g17
S'\x00\x00\x00\x00\x00\x00\x00\x00'
tRp414
sa(dp415
g14
g15
(g17
S'\x00\x00\x00\x00\x00\x00\x00\x00'
tRp416
sg19
Vcontractor->dev_blurb->well
p417
sg21
g15
(g17
S'\x00\x00\x00\x00\x00\x00\x00\x00'
tRp418
sa(dp419
g14
g15
(g17
S'\x00\x00\x00\x00\x00\x00\x00\x00'
tRp420
sg19
Vcontractor->dev_blurb->what
p421
sg21
g15
(g17
S'\x00\x00\x00\x00\x00\x00\x00\x00'
tRp422
sa(dp423
g14
g15
(g17
S'\x00Wr>\xbbkH?'
tRp424
sg19
Vcontractor->dev_blurb->where
p425
sg21
g15
(g17
S'\xd6)\x99\x0b\xfc\xb7\xa5?'
tRp426
sa(dp427
g14
g15
(g17
S'\x00\x00\x00\x00\x00\x00\x00\x00'
tRp428
sg19
Vcontractor->dev_blurb->will
p429
sg21
g15
(g17
S'\x00\x00\x00\x00\x00\x00\x00\x00'
tRp430
sa(dp431
g14
g15
(g17
S'\x00\x00\x00\x00\x00\x00\x00\x00'
tRp432
sg19
Vcontractor->dev_blurb->with
p433
sg21
g15
(g17
S'\x00\x00\x00\x00\x00\x00\x00\x00'
tRp434
sa(dp435
g14
g15
(g17
S'\x00\x00\x00\x00\x00\x00\x00\x00'
tRp436
sg19
Vcontractor->dev_blurb->word
p437
sg21
g15
(g17
S'\x00\x00\x00\x00\x00\x00\x00\x00'
tRp438
sa(dp439
g14
g15
(g17
S'\x00\x00\x00\x00\x00\x00\x00\x00'
tRp440
sg19
Vcontractor->dev_blurb->wordpress
p441
sg21
g15
(g17
S'\x00\x00\x00\x00\x00\x00\x00\x00'
tRp442
sa(dp443
g14
g15
(g17
S'\x00\x00\x00\x00\x00\x00\x00\x00'
tRp444
sg19
Vcontractor->dev_blurb->work
p445
sg21
g15
(g17
S'\x00\x00\x00\x00\x00\x00\x00\x00'
tRp446
sa(dp447
g14
g15
(g17
S'\x00\x00\x00\x00\x00\x00\x00\x00'
tRp448
sg19
Vcontractor->dev_blurb->working
p449
sg21
g15
(g17
S'\x00\x00\x00\x00\x00\x00\x00\x00'
tRp450
sa(dp451
g14
g15
(g17
S'\x00\x00\x00\x00\x00\x00\x00\x00'
tRp452
sg19
Vcontractor->dev_blurb->would
p453
sg21
g15
(g17
S'\x00\x00\x00\x00\x00\x00\x00\x00'
tRp454
sa(dp455
g14
g15
(g17
S'\x00\x00\x00\x00\x00\x00\x00\x00'
tRp456
sg19
Vcontractor->dev_blurb->writing
p457
sg21
g15
(g17
S'\x00\x00\x00\x00\x00\x00\x00\x00'
tRp458
sa(dp459
g14
g15
(g17
S'\x00\x00\x00\x00\x00\x00\x00\x00'
tRp460
sg19
Vcontractor->dev_blurb->years
p461
sg21
g15
(g17
S'\x00\x00\x00\x00\x00\x00\x00\x00'
tRp462
sa(dp463
g14
g15
(g17
S'\x00\x00\x00\x00\x00\x00\x00\x00'
tRp464
sg19
Vcontractor->dev_blurb->you
p465
sg21
g15
(g17
S'\x00\x00\x00\x00\x00\x00\x00\x00'
tRp466
sa(dp467
g14
g15
(g17
S'\x00\x00\x00\x00\x00\x00\x00\x00'
tRp468
sg19
Vcontractor->dev_blurb->your
p469
sg21
g15
(g17
S'\x00\x00\x00\x00\x00\x00\x00\x00'
tRp470
sa(dp471
g14
g15
(g17
S'\x00\x00\x00\x00\x00\x00\x00\x00'
tRp472
sg19
Vcontractor->dev_skill_test_passed_count
p473
sg21
g15
(g17
S'\x00\x00\x00\x00\x00\x00\x00\x00'
tRp474
sa(dp475
g14
g15
(g17
S'\x00\x00\x00\x00\x00\x00\x00\x00'
tRp476
sg19
Vcontractor->dev_total_hourly_jobs
p477
sg21
g15
(g17
S'\x00\x00\x00\x00\x00\x00\x00\x00'
tRp478
sa(dp479
g14
g15
(g17
S'\x00\x00\x00\x00\x00\x00\x00\x00'
tRp480
sg19
Vcontractor->dev_tot_feedback_recent
p481
sg21
g15
(g17
S'\x00\x00\x00\x00\x00\x00\x00\x00'
tRp482
sa(dp483
g14
g15
(g17
S'\x00\x00\x00\x00\x00\x00\x00\x00'
tRp484
sg19
Vcontractor->dev_adj_score
p485
sg21
g15
(g17
S'\x00\x00\x00\x00\x00\x00\x00\x00'
tRp486
sa(dp487
g14
g15
(g17
S'\x8e\xf0\x1cn\x15\x0c\x8e?'
tRp488
sg19
Vcontractor->dev_rank_percentile
p489
sg21
g15
(g17
S'\xca\xc0\xd3\xad\xf9a\xa1?'
tRp490
sa(dp491
g14
g15
(g17
S'\x00\x00\x00\x00\x00\x00\x00\x00'
tRp492
sg19
Vcontractor->dev_billed_assignments
p493
sg21
g15
(g17
S'\x00\x00\x00\x00\x00\x00\x00\x00'
tRp494
sa(dp495
g14
g15
(g17
S'\x00\x00\x00\x00\x00\x00\x00\x00'
tRp496
sg19
Vcontractor->dev_is_looking_week
p497
sg21
g15
(g17
S'\x00\x00\x00\x00\x00\x00\x00\x00'
tRp498
sa(dp499
g14
g15
(g17
S'\x00\x00\x00\x00\x00\x00\x00\x00'
tRp500
sg19
Vcontractor->dev_availability
p501
sg21
g15
(g17
S'\x00\x00\x00\x00\x00\x00\x00\x00'
tRp502
sa(dp503
g14
g15
(g17
S'\xb11\x1c\xf2V]\x86?'
tRp504
sg19
Vcontractor->dev_total_revenue
p505
sg21
g15
(g17
S'\xd5(\xe4\x07\xc6\x98\xc6?'
tRp506
sa(dp507
g14
g15
(g17
S'\x00\x00\x00\x00\x00\x00\x00\x00'
tRp508
sg19
Vcontractor->dev_recent_hourly_jobs
p509
sg21
g15
(g17
S'\x00\x00\x00\x00\x00\x00\x00\x00'
tRp510
sa(dp511
g14
g15
(g17
S'\x00\x00\x00\x00\x00\x00\x00\x00'
tRp512
sg19
Vcontractor->dev_bill_rate
p513
sg21
g15
(g17
S'\x00\x00\x00\x00\x00\x00\x00\x00'
tRp514
sa(dp515
g14
g15
(g17
S'SsHa`nu?'
tRp516
sg19
Vcontractor->dev_test_passed_count
p517
sg21
g15
(g17
S'\xc0M1j\xf8\xdb\x94?'
tRp518
sa(dp519
g14
g15
(g17
S'\x00,&h\xbdw\x86?'
tRp520
sg19
Vcontractor->dev_expose_full_name
p521
sg21
g15
(g17
S'\xbcO-r\xe8\xfb\x94?'
tRp522
sa(dp523
g14
g15
(g17
S'\xe9B\xd1E@\x96G?'
tRp524
sg19
Vcontractor->dev_total_hours_rounded
p525
sg21
g15
(g17
S'\xa8g\xec\xe2\xf5\xcf{?'
tRp526
sa(dp527
g14
g15
(g17
S'\x8bP\xba0\xe3r}?'
tRp528
sg19
Vcontractor->dev_year_exp
p529
sg21
g15
(g17
S'\x07$\xeb\\y@\xa2?'
tRp530
sa(dp531
g14
g15
(g17
S'\x00\x00\x00\x00\x00\x00\x00\x00'
tRp532
sg19
Vcontractor->dev_portfolio_items_count
p533
sg21
g15
(g17
S'\x00\x00\x00\x00\x00\x00\x00\x00'
tRp534
sa(dp535
g14
g15
(g17
S'\x00\x00\x00\x00\x00\x00\x00\x00'
tRp536
sg19
Vcontractor->dev_eng_skill
p537
sg21
g15
(g17
S'\x00\x00\x00\x00\x00\x00\x00\x00'
tRp538
sa(dp539
g14
g15
(g17
S'\x00\x00\x00\x00\x00\x00\x00\x00'
tRp540
sg19
Vcontractor->dev_tot_feedback
p541
sg21
g15
(g17
S'\x00\x00\x00\x00\x00\x00\x00\x00'
tRp542
sa(dp543
g14
g15
(g17
S'\xc7\xac4zD\x05\xb9?'
tRp544
sg19
Vcontractor->dev_timezone
p545
sg21
g15
(g17
S'\xcb\xc0\xd3\xad\xf9a\x91?'
tRp546
sa(dp547
g14
g15
(g17
S'\x00\x00\x00\x00\x00\x00\x00\x00'
tRp548
sg19
Vcontractor->dev_profile_title->administrative
p549
sg21
g15
(g17
S'\x00\x00\x00\x00\x00\x00\x00\x00'
tRp550
sa(dp551
g14
g15
(g17
S'\x00\x00\x00\x00\x00\x00\x00\x00'
tRp552
sg19
Vcontractor->dev_profile_title->analyst
p553
sg21
g15
(g17
S'\x00\x00\x00\x00\x00\x00\x00\x00'
tRp554
sa(dp555
g14
g15
(g17
S'\x00\x00\x00\x00\x00\x00\x00\x00'
tRp556
sg19
Vcontractor->dev_profile_title->and
p557
sg21
g15
(g17
S'\x00\x00\x00\x00\x00\x00\x00\x00'
tRp558
sa(dp559
g14
g15
(g17
S'\x00\x00\x00\x00\x00\x00\x00\x00'
tRp560
sg19
Vcontractor->dev_profile_title->architect
p561
sg21
g15
(g17
S'\x00\x00\x00\x00\x00\x00\x00\x00'
tRp562
sa(dp563
g14
g15
(g17
S'\x00\x00\x00\x00\x00\x00\x00\x00'
tRp564
sg19
Vcontractor->dev_profile_title->artist
p565
sg21
g15
(g17
S'\x00\x00\x00\x00\x00\x00\x00\x00'
tRp566
sa(dp567
g14
g15
(g17
S'\x00\x00\x00\x00\x00\x00\x00\x00'
tRp568
sg19
Vcontractor->dev_profile_title->assistant
p569
sg21
g15
(g17
S'\x00\x00\x00\x00\x00\x00\x00\x00'
tRp570
sa(dp571
g14
g15
(g17
S'\x00\x00\x00\x00\x00\x00\x00\x00'
tRp572
sg19
Vcontractor->dev_profile_title->best
p573
sg21
g15
(g17
S'\x00\x00\x00\x00\x00\x00\x00\x00'
tRp574
sa(dp575
g14
g15
(g17
S'\x00\x00\x00\x00\x00\x00\x00\x00'
tRp576
sg19
Vcontractor->dev_profile_title->css
p577
sg21
g15
(g17
S'\x00\x00\x00\x00\x00\x00\x00\x00'
tRp578
sa(dp579
g14
g15
(g17
S'\x00\x00\x00\x00\x00\x00\x00\x00'
tRp580
sg19
Vcontractor->dev_profile_title->customer
p581
sg21
g15
(g17
S'\x00\x00\x00\x00\x00\x00\x00\x00'
tRp582
sa(dp583
g14
g15
(g17
S'\x00\x00\x00\x00\x00\x00\x00\x00'
tRp584
sg19
Vcontractor->dev_profile_title->data
p585
sg21
g15
(g17
S'\x00\x00\x00\x00\x00\x00\x00\x00'
tRp586
sa(dp587
g14
g15
(g17
S'\x00\x00\x00\x00\x00\x00\x00\x00'
tRp588
sg19
Vcontractor->dev_profile_title->design
p589
sg21
g15
(g17
S'\x00\x00\x00\x00\x00\x00\x00\x00'
tRp590
sa(dp591
g14
g15
(g17
S'\x00\x00\x00\x00\x00\x00\x00\x00'
tRp592
sg19
Vcontractor->dev_profile_title->designer
p593
sg21
g15
(g17
S'\x00\x00\x00\x00\x00\x00\x00\x00'
tRp594
sa(dp595
g14
g15
(g17
S'\x00\x00\x00\x00\x00\x00\x00\x00'
tRp596
sg19
Vcontractor->dev_profile_title->developer
p597
sg21
g15
(g17
S'\x00\x00\x00\x00\x00\x00\x00\x00'
tRp598
sa(dp599
g14
g15
(g17
S'\x00\x00\x00\x00\x00\x00\x00\x00'
tRp600
sg19
Vcontractor->dev_profile_title->editor
p601
sg21
g15
(g17
S'\x00\x00\x00\x00\x00\x00\x00\x00'
tRp602
sa(dp603
g14
g15
(g17
S'\x00\x00\x00\x00\x00\x00\x00\x00'
tRp604
sg19
Vcontractor->dev_profile_title->engineer
p605
sg21
g15
(g17
S'\x00\x00\x00\x00\x00\x00\x00\x00'
tRp606
sa(dp607
g14
g15
(g17
S'\x00\x00\x00\x00\x00\x00\x00\x00'
tRp608
sg19
Vcontractor->dev_profile_title->entry
p609
sg21
g15
(g17
S'\x00\x00\x00\x00\x00\x00\x00\x00'
tRp610
sa(dp611
g14
g15
(g17
S'\x00\x00\x00\x00\x00\x00\x00\x00'
tRp612
sg19
Vcontractor->dev_profile_title->excel
p613
sg21
g15
(g17
S'\x00\x00\x00\x00\x00\x00\x00\x00'
tRp614
sa(dp615
g14
g15
(g17
S'\x00\x00\x00\x00\x00\x00\x00\x00'
tRp616
sg19
Vcontractor->dev_profile_title->experienced
p617
sg21
g15
(g17
S'\x00\x00\x00\x00\x00\x00\x00\x00'
tRp618
sa(dp619
g14
g15
(g17
S'\x00\x00\x00\x00\x00\x00\x00\x00'
tRp620
sg19
Vcontractor->dev_profile_title->expert
p621
sg21
g15
(g17
S'\x00\x00\x00\x00\x00\x00\x00\x00'
tRp622
sa(dp623
g14
g15
(g17
S'\x00\x00\x00\x00\x00\x00\x00\x00'
tRp624
sg19
Vcontractor->dev_profile_title->for
p625
sg21
g15
(g17
S'\x00\x00\x00\x00\x00\x00\x00\x00'
tRp626
sa(dp627
g14
g15
(g17
S'\x00\x00\x00\x00\x00\x00\x00\x00'
tRp628
sg19
Vcontractor->dev_profile_title->freelance
p629
sg21
g15
(g17
S'\x00\x00\x00\x00\x00\x00\x00\x00'
tRp630
sa(dp631
g14
g15
(g17
S'\x00\x00\x00\x00\x00\x00\x00\x00'
tRp632
sg19
Vcontractor->dev_profile_title->game
p633
sg21
g15
(g17
S'\x00\x00\x00\x00\x00\x00\x00\x00'
tRp634
sa(dp635
g14
g15
(g17
S'\x00\x00\x00\x00\x00\x00\x00\x00'
tRp636
sg19
Vcontractor->dev_profile_title->graphic
p637
sg21
g15
(g17
S'\x00\x00\x00\x00\x00\x00\x00\x00'
tRp638
sa(dp639
g14
g15
(g17
S'\x00\x00\x00\x00\x00\x00\x00\x00'
tRp640
sg19
Vcontractor->dev_profile_title->html
p641
sg21
g15
(g17
S'\x00\x00\x00\x00\x00\x00\x00\x00'
tRp642
sa(dp643
g14
g15
(g17
S'\x00\x00\x00\x00\x00\x00\x00\x00'
tRp644
sg19
Vcontractor->dev_profile_title->in
p645
sg21
g15
(g17
S'\x00\x00\x00\x00\x00\x00\x00\x00'
tRp646
sa(dp647
g14
g15
(g17
S'\x00\x00\x00\x00\x00\x00\x00\x00'
tRp648
sg19
Vcontractor->dev_profile_title->jquery
p649
sg21
g15
(g17
S'\x00\x00\x00\x00\x00\x00\x00\x00'
tRp650
sa(dp651
g14
g15
(g17
S'\x00\x00\x00\x00\x00\x00\x00\x00'
tRp652
sg19
Vcontractor->dev_profile_title->ms
p653
sg21
g15
(g17
S'\x00\x00\x00\x00\x00\x00\x00\x00'
tRp654
sa(dp655
g14
g15
(g17
S'\x00\x00\x00\x00\x00\x00\x00\x00'
tRp656
sg19
Vcontractor->dev_profile_title->mysql
p657
sg21
g15
(g17
S'\x00\x00\x00\x00\x00\x00\x00\x00'
tRp658
sa(dp659
g14
g15
(g17
S'\x00\x00\x00\x00\x00\x00\x00\x00'
tRp660
sg19
Vcontractor->dev_profile_title->of
p661
sg21
g15
(g17
S'\x00\x00\x00\x00\x00\x00\x00\x00'
tRp662
sa(dp663
g14
g15
(g17
S'\x00\x00\x00\x00\x00\x00\x00\x00'
tRp664
sg19
Vcontractor->dev_profile_title->photoshop
p665
sg21
g15
(g17
S'\x00\x00\x00\x00\x00\x00\x00\x00'
tRp666
sa(dp667
g14
g15
(g17
S'\x00\x00\x00\x00\x00\x00\x00\x00'
tRp668
sg19
Vcontractor->dev_profile_title->php
p669
sg21
g15
(g17
S'\x00\x00\x00\x00\x00\x00\x00\x00'
tRp670
sa(dp671
g14
g15
(g17
S'\x00\x00\x00\x00\x00\x00\x00\x00'
tRp672
sg19
Vcontractor->dev_profile_title->professional
p673
sg21
g15
(g17
S'\x00\x00\x00\x00\x00\x00\x00\x00'
tRp674
sa(dp675
g14
g15
(g17
S'\x00\x00\x00\x00\x00\x00\x00\x00'
tRp676
sg19
Vcontractor->dev_profile_title->research
p677
sg21
g15
(g17
S'\x00\x00\x00\x00\x00\x00\x00\x00'
tRp678
sa(dp679
g14
g15
(g17
S'\x00\x00\x00\x00\x00\x00\x00\x00'
tRp680
sg19
Vcontractor->dev_profile_title->researcher
p681
sg21
g15
(g17
S'\x00\x00\x00\x00\x00\x00\x00\x00'
tRp682
sa(dp683
g14
g15
(g17
S'\x11\xa9\x95p\xff\xa22?'
tRp684
sg19
Vcontractor->dev_profile_title->sem
p685
sg21
g15
(g17
S'\x07$\xeb\\y@\x92?'
tRp686
sa(dp687
g14
g15
(g17
S'\x00\x00\x00\x00\x00\x00\x00\x00'
tRp688
sg19
Vcontractor->dev_profile_title->seo
p689
sg21
g15
(g17
S'\x00\x00\x00\x00\x00\x00\x00\x00'
tRp690
sa(dp691
g14
g15
(g17
S'\x00\x00\x00\x00\x00\x00\x00\x00'
tRp692
sg19
Vcontractor->dev_profile_title->service
p693
sg21
g15
(g17
S'\x00\x00\x00\x00\x00\x00\x00\x00'
tRp694
sa(dp695
g14
g15
(g17
S'\x00\x00\x00\x00\x00\x00\x00\x00'
tRp696
sg19
Vcontractor->dev_profile_title->skills
p697
sg21
g15
(g17
S'\x00\x00\x00\x00\x00\x00\x00\x00'
tRp698
sa(dp699
g14
g15
(g17
S'\x00\x00\x00\x00\x00\x00\x00\x00'
tRp700
sg19
Vcontractor->dev_profile_title->smm
p701
sg21
g15
(g17
S'\x00\x00\x00\x00\x00\x00\x00\x00'
tRp702
sa(dp703
g14
g15
(g17
S'\x00\x00\x00\x00\x00\x00\x00\x00'
tRp704
sg19
Vcontractor->dev_profile_title->software
p705
sg21
g15
(g17
S'\x00\x00\x00\x00\x00\x00\x00\x00'
tRp706
sa(dp707
g14
g15
(g17
S'\x00\x00\x00\x00\x00\x00\x00\x00'
tRp708
sg19
Vcontractor->dev_profile_title->specialist
p709
sg21
g15
(g17
S'\x00\x00\x00\x00\x00\x00\x00\x00'
tRp710
sa(dp711
g14
g15
(g17
S'\x00\x00\x00\x00\x00\x00\x00\x00'
tRp712
sg19
Vcontractor->dev_profile_title->top
p713
sg21
g15
(g17
S'\x00\x00\x00\x00\x00\x00\x00\x00'
tRp714
sa(dp715
g14
g15
(g17
S'\x00\x00\x00\x00\x00\x00\x00\x00'
tRp716
sg19
Vcontractor->dev_profile_title->virtual
p717
sg21
g15
(g17
S'\x00\x00\x00\x00\x00\x00\x00\x00'
tRp718
sa(dp719
g14
g15
(g17
S'\x00\x00\x00\x00\x00\x00\x00\x00'
tRp720
sg19
Vcontractor->dev_profile_title->web
p721
sg21
g15
(g17
S'\x00\x00\x00\x00\x00\x00\x00\x00'
tRp722
sa(dp723
g14
g15
(g17
S'\x00\x00\x00\x00\x00\x00\x00\x00'
tRp724
sg19
Vcontractor->dev_profile_title->with
p725
sg21
g15
(g17
S'\x00\x00\x00\x00\x00\x00\x00\x00'
tRp726
sa(dp727
g14
g15
(g17
S'\x00\x00\x00\x00\x00\x00\x00\x00'
tRp728
sg19
Vcontractor->dev_profile_title->word
p729
sg21
g15
(g17
S'\x00\x00\x00\x00\x00\x00\x00\x00'
tRp730
sa(dp731
g14
g15
(g17
S'\x00\x00\x00\x00\x00\x00\x00\x00'
tRp732
sg19
Vcontractor->dev_profile_title->wordpress
p733
sg21
g15
(g17
S'\x00\x00\x00\x00\x00\x00\x00\x00'
tRp734
sa(dp735
g14
g15
(g17
S'\x00\x00\x00\x00\x00\x00\x00\x00'
tRp736
sg19
Vcontractor->dev_profile_title->writer
p737
sg21
g15
(g17
S'\x00\x00\x00\x00\x00\x00\x00\x00'
tRp738
sa(dp739
g14
g15
(g17
S'\x00\x00\x00\x00\x00\x00\x00\x00'
tRp740
sg19
Vcontractor->dev_profile_title->writing
p741
sg21
g15
(g17
S'\x00\x00\x00\x00\x00\x00\x00\x00'
tRp742
sa(dp743
g14
g15
(g17
S'\x00\x00\x00\x00\x00\x00\x00\x00'
tRp744
sg19
Vcontractor->dev_active_interviews
p745
sg21
g15
(g17
S'\x00\x00\x00\x00\x00\x00\x00\x00'
tRp746
sa(dp747
g14
g15
(g17
S'\x00\x00\x00\x00\x00\x00\x00\x00'
tRp748
sg19
Vcontractor->dev_cur_assignments
p749
sg21
g15
(g17
S'\x00\x00\x00\x00\x00\x00\x00\x00'
tRp750
sa(dp751
g14
g15
(g17
S'\x00\x00\x00\x00\x00\x00\x00\x00'
tRp752
sg19
Vopening_id
p753
sg21
g15
(g17
S'\x00\x00\x00\x00\x00\x00\x00\x00'
tRp754
sa(dp755
g14
g15
(g17
S'\x87{\x85![\x9d\x8f?'
tRp756
sg19
Vcontractor->dev_last_worked
p757
sg21
g15
(g17
S'\xc0M1j\xf8\xdb\x94?'
tRp758
sassS'parameters'
p759
(dp760
S'deep'
p761
I100
ssS'weights'
p762
(dp763
I1
(dp764
S'positive'
p765
(lp766
g27
ag23
ag527
ag503
ag523
ag543
ag515
ag39
ag487
ag683
ag755
ag519
ag423
ag391
ag347
ag343
ag239
ag227
ag179
ag139
ag111
ag107
ag79
ag75
asS'negative'
p767
(lp768
g743
ag483
ag31
ag499
ag511
ag491
ag51
ag55
ag59
ag63
ag67
ag71
ag83
ag87
ag91
ag95
ag99
ag103
ag115
ag119
ag123
ag127
ag131
ag135
ag143
ag147
ag151
ag155
ag159
ag163
ag167
ag171
ag175
ag183
ag187
ag191
ag195
ag199
ag203
ag207
ag211
ag215
ag219
ag223
ag231
ag235
ag243
ag247
ag251
ag255
ag259
ag263
ag267
ag271
ag275
ag279
ag283
ag287
ag291
ag295
ag299
ag303
ag307
ag311
ag315
ag319
ag323
ag327
ag331
ag335
ag339
ag351
ag355
ag359
ag363
ag367
ag371
ag375
ag379
ag383
ag387
ag395
ag399
ag403
ag407
ag411
ag415
ag419
ag427
ag431
ag435
ag439
ag443
ag447
ag451
ag455
ag459
ag463
ag467
ag747
ag535
ag35
ag495
ag531
ag547
ag551
ag555
ag559
ag563
ag567
ag571
ag575
ag579
ag583
ag587
ag591
ag595
ag599
ag603
ag607
ag611
ag615
ag619
ag623
ag627
ag631
ag635
ag639
ag643
ag647
ag651
ag655
ag659
ag663
ag667
ag671
ag675
ag679
ag687
ag691
ag695
ag699
ag703
ag707
ag711
ag715
ag719
ag723
ag727
ag731
ag735
ag739
ag43
ag507
ag47
ag471
ag539
ag479
ag475
ag13
ag751
asssS'classifier_type'
p769
Vdecision tree classifier
p770
sS'tree'
p771
(dp772
S'children'
p773
(lp774
(dp775
g773
(lp776
(dp777
g773
(lp778
(dp779
g773
(lp780
(dp781
g773
(lp782
(dp783
g773
(lp784
(dp785
g773
(lp786
(dp787
S'impurity'
p788
g15
(g17
S'\x00\x00\x00\x00\x00\x00\x00\x00'
tRp789
sS'value'
p790
(lp791
F0
aF2
asS'node_type'
p792
S'leaf'
p793
sS'criterion'
p794
g788
sS'samples'
p795
I2
sS'type'
p796
S'yes'
p797
sS'id'
p798
S'7'
sa(dp799
g788
g15
(g17
S'\x00\x00\x00\x00\x00\x00\x00\x00'
tRp800
sg790
(lp801
F1
aF0
asg792
g793
sg794
g788
sg795
I1
sg796
S'no'
p802
sg798
S'8'
sasg792
S'branch'
p803
sg788
F0.44440000000000002
sg795
I3
sg796
g797
sg798
S'6'
sS'rule'
p804
g141
sg19
Vcontractor->dev_blurb->data <= 0.0496
p805
sa(dp806
g773
(lp807
(dp808
g773
(lp809
(dp810
g788
g15
(g17
S'\x00\x00\x00\x00\x00\x00\x00\x00'
tRp811
sg790
(lp812
F14
aF0
asg792
g793
sg794
g788
sg795
I14
sg796
g797
sg798
S'11'
p813
sa(dp814
g773
(lp815
(dp816
g788
g15
(g17
S'\x00\x00\x00\x00\x00\x00\x00\x00'
tRp817
sg790
(lp818
F0
aF1
asg792
g793
sg794
g788
sg795
I1
sg796
g797
sg798
S'13'
p819
sa(dp820
g788
g15
(g17
S'\x00\x00\x00\x00\x00\x00\x00\x00'
tRp821
sg790
(lp822
F1
aF0
asg792
g793
sg794
g788
sg795
I1
sg796
g802
sg798
S'14'
p823
sasg792
g803
sg788
F0.5
sg795
I2
sg796
g802
sg798
S'12'
p824
sg804
g25
sg19
Vemployer->op_country_tz <= -6.5000
p825
sasg792
g803
sg788
F0.1172
sg795
I16
sg796
g797
sg798
S'10'
p826
sg804
g685
sg19
Vcontractor->dev_profile_title->sem <= 0.2731
p827
sa(dp828
g773
(lp829
(dp830
g788
g15
(g17
S'\x00\x00\x00\x00\x00\x00\x00\x00'
tRp831
sg790
(lp832
F0
aF1
asg792
g793
sg794
g788
sg795
I1
sg796
g797
sg798
S'16'
p833
sa(dp834
g788
g15
(g17
S'\x00\x00\x00\x00\x00\x00\x00\x00'
tRp835
sg790
(lp836
F1
aF0
asg792
g793
sg794
g788
sg795
I1
sg796
g802
sg798
S'17'
p837
sasg792
g803
sg788
F0.5
sg795
I2
sg796
g802
sg798
S'15'
p838
sg804
g393
sg19
Vcontractor->dev_blurb->to <= 0.0702
p839
sasg792
g803
sg788
F0.19750000000000001
sg795
I18
sg796
g802
sg798
S'9'
sg804
g349
sg19
Vcontractor->dev_blurb->service <= 0.1642
p840
sasg792
g803
sg788
F0.30840000000000001
sg795
I21
sg796
g797
sg798
S'5'
sg804
g29
sg19
Vemployer->op_tot_jobs_filled <= 0.0003
p841
sa(dp842
g788
g15
(g17
S'\x00\x00\x00\x00\x00\x00\x00\x00'
tRp843
sg790
(lp844
F0
aF1
asg792
g793
sg794
g788
sg795
I1
sg796
g802
sg798
S'18'
p845
sasg792
g803
sg788
F0.35120000000000001
sg795
I22
sg796
g797
sg798
S'4'
sg804
g113
sg19
Vcontractor->dev_blurb->client <= 0.0260
p846
sa(dp847
g773
(lp848
(dp849
g773
(lp850
(dp851
g773
(lp852
(dp853
g773
(lp854
(dp855
g788
g15
(g17
S'\x00\x00\x00\x00\x00\x00\x00\x00'
tRp856
sg790
(lp857
F0
aF5
asg792
g793
sg794
g788
sg795
I5
sg796
g797
sg798
S'23'
p858
sa(dp859
g773
(lp860
(dp861
g773
(lp862
(dp863
g773
(lp864
(dp865
g788
g15
(g17
S'\x00\x00\x00\x00\x00\x00\x00\x00'
tRp866
sg790
(lp867
F1
aF0
asg792
g793
sg794
g788
sg795
I1
sg796
g797
sg798
S'27'
p868
sa(dp869
g788
g15
(g17
S'\x00\x00\x00\x00\x00\x00\x00\x00'
tRp870
sg790
(lp871
F0
aF7
asg792
g793
sg794
g788
sg795
I7
sg796
g802
sg798
S'28'
p872
sasg792
g803
sg788
F0.21879999999999999
sg795
I8
sg796
g797
sg798
S'26'
p873
sg804
g529
sg19
Vcontractor->dev_year_exp <= 0.1500
p874
sa(dp875
g773
(lp876
(dp877
g788
g15
(g17
S'\x00\x00\x00\x00\x00\x00\x00\x00'
tRp878
sg790
(lp879
F3
aF0
asg792
g793
sg794
g788
sg795
I3
sg796
g797
sg798
S'30'
p880
sa(dp881
g773
(lp882
(dp883
g788
g15
(g17
S'\x00\x00\x00\x00\x00\x00\x00\x00'
tRp884
sg790
(lp885
F0
aF5
asg792
g793
sg794
g788
sg795
I5
sg796
g797
sg798
S'32'
p886
sa(dp887
g773
(lp888
(dp889
g773
(lp890
(dp891
g788
g15
(g17
S'\x00\x00\x00\x00\x00\x00\x00\x00'
tRp892
sg790
(lp893
F1
aF0
asg792
g793
sg794
g788
sg795
I1
sg796
g797
sg798
S'35'
p894
sa(dp895
g788
g15
(g17
S'\x00\x00\x00\x00\x00\x00\x00\x00'
tRp896
sg790
(lp897
F0
aF1
asg792
g793
sg794
g788
sg795
I1
sg796
g802
sg798
S'36'
p898
sasg792
g803
sg788
F0.5
sg795
I2
sg796
g797
sg798
S'34'
p899
sg804
g517
sg19
Vcontractor->dev_test_passed_count <= 0.2619
p900
sa(dp901
g788
g15
(g17
S'\x00\x00\x00\x00\x00\x00\x00\x00'
tRp902
sg790
(lp903
F1
aF0
asg792
g793
sg794
g788
sg795
I1
sg796
g802
sg798
S'37'
p904
sasg792
g803
sg788
F0.44440000000000002
sg795
I3
sg796
g802
sg798
S'33'
p905
sg804
g525
sg19
Vcontractor->dev_total_hours_rounded <= 0.0724
p906
sasg792
g803
sg788
F0.375
sg795
I8
sg796
g802
sg798
S'31'
p907
sg804
g489
sg19
Vcontractor->dev_rank_percentile <= 0.5962
p908
sasg792
g803
sg788
F0.49590000000000001
sg795
I11
sg796
g802
sg798
S'29'
p909
sg804
g41
sg19
Vcontractor->dev_recent_rank_percentile <= 0.3333
p910
sasg792
g803
sg788
F0.43209999999999998
sg795
I19
sg796
g797
sg798
S'25'
p911
sg804
g521
sg19
Vcontractor->dev_expose_full_name <= 0.5000
p912
sa(dp913
g788
g15
(g17
S'\x00\x00\x00\x00\x00\x00\x00\x00'
tRp914
sg790
(lp915
F3
aF0
asg792
g793
sg794
g788
sg795
I3
sg796
g802
sg798
S'38'
p916
sasg792
g803
sg788
F0.48349999999999999
sg795
I22
sg796
g802
sg798
S'24'
p917
sg804
g77
sg19
Vcontractor->dev_blurb->are <= 0.0325
p918
sasg792
g803
sg788
F0.44440000000000002
sg795
I27
sg796
g797
sg798
S'22'
p919
sg804
g505
sg19
Vcontractor->dev_total_revenue <= 0.0081
p920
sa(dp921
g788
g15
(g17
S'\x00\x00\x00\x00\x00\x00\x00\x00'
tRp922
sg790
(lp923
F3
aF0
asg792
g793
sg794
g788
sg795
I3
sg796
g802
sg798
S'39'
p924
sasg792
g803
sg788
F0.47999999999999998
sg795
I30
sg796
g797
sg798
S'21'
p925
sg804
g505
sg19
Vcontractor->dev_total_revenue <= 0.2000
p926
sa(dp927
g773
(lp928
(dp929
g788
g15
(g17
S'\x00\x00\x00\x00\x00\x00\x00\x00'
tRp930
sg790
(lp931
F0
aF2
asg792
g793
sg794
g788
sg795
I2
sg796
g797
sg798
S'41'
p932
sa(dp933
g773
(lp934
(dp935
g773
(lp936
(dp937
g788
g15
(g17
S'\x00\x00\x00\x00\x00\x00\x00\x00'
tRp938
sg790
(lp939
F14
aF0
asg792
g793
sg794
g788
sg795
I14
sg796
g797
sg798
S'44'
p940
sa(dp941
g788
g15
(g17
S'\x00\x00\x00\x00\x00\x00\x00\x00'
tRp942
sg790
(lp943
F0
aF1
asg792
g793
sg794
g788
sg795
I1
sg796
g802
sg798
S'45'
p944
sasg792
g803
sg788
F0.1244
sg795
I15
sg796
g797
sg798
S'43'
p945
sg804
g229
sg19
Vcontractor->dev_blurb->jobs <= 0.2640
p946
sa(dp947
g788
g15
(g17
S'\x00\x00\x00\x00\x00\x00\x00\x00'
tRp948
sg790
(lp949
F0
aF2
asg792
g793
sg794
g788
sg795
I2
sg796
g802
sg798
S'46'
p950
sasg792
g803
sg788
F0.29070000000000001
sg795
I17
sg796
g802
sg798
S'42'
p951
sg804
g109
sg19
Vcontractor->dev_blurb->can <= 0.0504
p952
sasg792
g803
sg788
F0.38779999999999998
sg795
I19
sg796
g802
sg798
S'40'
p953
sg804
g505
sg19
Vcontractor->dev_total_revenue <= 0.0019
p954
sasg792
g803
sg788
F0.49809999999999999
sg795
I49
sg796
g797
sg798
S'20'
p955
sg804
g29
sg19
Vemployer->op_tot_jobs_filled <= 0.0041
p956
sa(dp957
g788
g15
(g17
S'\x00\x00\x00\x00\x00\x00\x00\x00'
tRp958
sg790
(lp959
F0
aF4
asg792
g793
sg794
g788
sg795
I4
sg796
g802
sg798
S'47'
p960
sasg792
g803
sg788
F0.49980000000000002
sg795
I53
sg796
g802
sg798
S'19'
p961
sg804
g425
sg19
Vcontractor->dev_blurb->where <= 0.0221
p962
sasg792
g803
sg788
F0.48920000000000002
sg795
I75
sg796
g797
sg798
S'3'
sg804
g505
sg19
Vcontractor->dev_total_revenue <= 0.0012
p963
sa(dp964
g788
g15
(g17
S'\x00\x00\x00\x00\x00\x00\x00\x00'
tRp965
sg790
(lp966
F0
aF4
asg792
g793
sg794
g788
sg795
I4
sg796
g802
sg798
S'48'
p967
sasg792
g803
sg788
F0.49609999999999999
sg795
I79
sg796
g797
sg798
S'2'
sg804
g181
sg19
Vcontractor->dev_blurb->expertise <= 0.0859
p968
sa(dp969
g788
g15
(g17
S'\x00\x00\x00\x00\x00\x00\x00\x00'
tRp970
sg790
(lp971
F0
aF7
asg792
g793
sg794
g788
sg795
I7
sg796
g802
sg798
S'49'
p972
sasg792
g803
sg788
F0.5
sg795
I86
sg796
g797
sg798
S'1'
sg804
g81
sg19
Vcontractor->dev_blurb->as <= 0.2771
p973
sa(dp974
g773
(lp975
(dp976
g773
(lp977
(dp978
g773
(lp979
(dp980
g788
g15
(g17
S'\x00\x00\x00\x00\x00\x00\x00\x00'
tRp981
sg790
(lp982
F1
aF0
asg792
g793
sg794
g788
sg795
I1
sg796
g797
sg798
S'53'
p983
sa(dp984
g788
g15
(g17
S'\x00\x00\x00\x00\x00\x00\x00\x00'
tRp985
sg790
(lp986
F0
aF1
asg792
g793
sg794
g788
sg795
I1
sg796
g802
sg798
S'54'
p987
sasg792
g803
sg788
F0.5
sg795
I2
sg796
g797
sg798
S'52'
p988
sg804
g757
sg19
Vcontractor->dev_last_worked <= 0.4999
p989
sa(dp990
g788
g15
(g17
S'\x00\x00\x00\x00\x00\x00\x00\x00'
tRp991
sg790
(lp992
F0
aF10
asg792
g793
sg794
g788
sg795
I10
sg796
g802
sg798
S'55'
p993
sasg792
g803
sg788
F0.15279999999999999
sg795
I12
sg796
g797
sg798
S'51'
p994
sg804
g545
sg19
Vcontractor->dev_timezone <= -5.5000
p995
sa(dp996
g788
g15
(g17
S'\x00\x00\x00\x00\x00\x00\x00\x00'
tRp997
sg790
(lp998
F1
aF0
asg792
g793
sg794
g788
sg795
I1
sg796
g802
sg798
S'56'
p999
sasg792
g803
sg788
F0.26040000000000002
sg795
I13
sg796
g802
sg798
S'50'
p1000
sg804
g345
sg19
Vcontractor->dev_blurb->seo <= 0.1131
p1001
sasg792
g803
sg788
F0.49590000000000001
sg795
I99
sg796
g797
sg798
S'0'
sg804
g241
sg19
Vcontractor->dev_blurb->like <= 0.0414
p1002
ssssS'_classifier'
p1003
(dp1004
g8
g1
(csklearn.tree.tree
DecisionTreeClassifier
p1005
g3
NtRp1006
(dp1007
S'splitter'
p1008
Vbest
p1009
sS'tree_'
p1010
csklearn.tree._tree
Tree
p1011
(I185
cnumpy.core.multiarray
_reconstruct
p1012
(cnumpy
ndarray
p1013
(I0
tS'b'
tRp1014
(I1
(I1
tg16
(S'i4'
I0
I1
tRp1015
(I3
S'<'
NNNI-1
I-1
I0
tbI00
S'\x02\x00\x00\x00'
tbI1
tRp1016
(dp1017
S'node_count'
p1018
I57
sS'values'
p1019
g1012
(g1013
(I0
tS'b'
tRp1020
(I1
(I57
I1
I2
tg17
I00
S'\x00\x00\x00\x00\x00\x00\x00\x00\x00\x00\x00\x00\x00\x00\x00\x00\x00\x00\x00\x00\x00\x00\x00\x00\x00\x00\x00\x00\x00\x00\x00\x00\x00\x00\x00\x00\x00\x00\x00\x00\x00\x00\x00\x00\x00\x00\x00\x00\x00\x00\x00\x00\x00\x00\x00\x00\x00\x00\x00\x00\x00\x00\x00\x00\x00\x00\x00\x00\x00\x00\x00\x00\x00\x00\x00\x00\x00\x00\x00\x00\x00\x00\x00\x00\x00\x00\x00\x00\x00\x00\x00\x00\x00\x00\x00\x00\x00\x00\x00\x00\x00\x00\x00\x00\x00\x00\x00\x00\x00\x00\x00\x00\x00\x00\x00\x00\x00\x00\x00\x00\x00\x00\x00\x00\x00\x00\x00@\x00\x00\x00\x00\x00\x00\xf0?\x00\x00\x00\x00\x00\x00\x00\x00\x00\x00\x00\x00\x00\x00\x00\x00\x00\x00\x00\x00\x00\x00\x00\x00\x00\x00\x00\x00\x00\x00\x00\x00\x00\x00\x00\x00\x00\x00\x00\x00\x00\x00\x00\x00\x00\x00,@\x00\x00\x00\x00\x00\x00\x00\x00\x00\x00\x00\x00\x00\x00\x00\x00\x00\x00\x00\x00\x00\x00\x00\x00\x00\x00\x00\x00\x00\x00\x00\x00\x00\x00\x00\x00\x00\x00\xf0?\x00\x00\x00\x00\x00\x00\xf0?\x00\x00\x00\x00\x00\x00\x00\x00\x00\x00\x00\x00\x00\x00\x00\x00\x00\x00\x00\x00\x00\x00\x00\x00\x00\x00\x00\x00\x00\x00\x00\x00\x00\x00\x00\x00\x00\x00\xf0?\x00\x00\x00\x00\x00\x00\xf0?\x00\x00\x00\x00\x00\x00\x00\x00\x00\x00\x00\x00\x00\x00\x00\x00\x00\x00\x00\x00\x00\x00\xf0?\x00\x00\x00\x00\x00\x00\x00\x00\x00\x00\x00\x00\x00\x00\x00\x00\x00\x00\x00\x00\x00\x00\x00\x00\x00\x00\x00\x00\x00\x00\x00\x00\x00\x00\x00\x00\x00\x00\x00\x00\x00\x00\x00\x00\x00\x00\x00\x00\x00\x00\x00\x00\x00\x00\x00\x00\x00\x00\x00\x00\x00\x00\x00\x00\x00\x00\x00\x00\x00\x00\x00\x00\x00\x00\x00\x00\x00\x00\x14@\x00\x00\x00\x00\x00\x00\x00\x00\x00\x00\x00\x00\x00\x00\x00\x00\x00\x00\x00\x00\x00\x00\x00\x00\x00\x00\x00\x00\x00\x00\x00\x00\x00\x00\x00\x00\x00\x00\x00\x00\x00\x00\x00\x00\x00\x00\x00\x00\x00\x00\x00\x00\x00\x00\xf0?\x00\x00\x00\x00\x00\x00\x00\x00\x00\x00\x00\x00\x00\x00\x00\x00\x00\x00\x00\x00\x00\x00\x1c@\x00\x00\x00\x00\x00\x00\x00\x00\x00\x00\x00\x00\x00\x00\x00\x00\x00\x00\x00\x00\x00\x00\x08@\x00\x00\x00\x00\x00\x00\x00\x00\x00\x00\x00\x00\x00\x00\x00\x00\x00\x00\x00\x00\x00\x00\x00\x00\x00\x00\x00\x00\x00\x00\x00\x00\x00\x00\x00\x00\x00\x00\x14@\x00\x00\x00\x00\x00\x00\x00\x00\x00\x00\x00\x00\x00\x00\x00\x00\x00\x00\x00\x00\x00\x00\x00\x00\x00\x00\x00\x00\x00\x00\x00\x00\x00\x00\x00\x00\x00\x00\xf0?\x00\x00\x00\x00\x00\x00\x00\x00\x00\x00\x00\x00\x00\x00\x00\x00\x00\x00\x00\x00\x00\x00\xf0?\x00\x00\x00\x00\x00\x00\xf0?\x00\x00\x00\x00\x00\x00\x00\x00\x00\x00\x00\x00\x00\x00\x08@\x00\x00\x00\x00\x00\x00\x00\x00\x00\x00\x00\x00\x00\x00\x08@\x00\x00\x00\x00\x00\x00\x00\x00\x00\x00\x00\x00\x00\x00\x00\x00\x00\x00\x00\x00\x00\x00\x00\x00\x00\x00\x00\x00\x00\x00\x00\x00\x00\x00\x00\x00\x00\x00\x00@\x00\x00\x00\x00\x00\x00\x00\x00\x00\x00\x00\x00\x00\x00\x00\x00\x00\x00\x00\x00\x00\x00\x00\x00\x00\x00\x00\x00\x00\x00\x00\x00\x00\x00\x00\x00\x00\x00,@\x00\x00\x00\x00\x00\x00\x00\x00\x00\x00\x00\x00\x00\x00\x00\x00\x00\x00\x00\x00\x00\x00\xf0?\x00\x00\x00\x00\x00\x00\x00\x00\x00\x00\x00\x00\x00\x00\x00@\x00\x00\x00\x00\x00\x00\x00\x00\x00\x00\x00\x00\x00\x00\x10@\x00\x00\x00\x00\x00\x00\x00\x00\x00\x00\x00\x00\x00\x00\x10@\x00\x00\x00\x00\x00\x00\x00\x00\x00\x00\x00\x00\x00\x00\x1c@\x00\x00\x00\x00\x00\x00\x00\x00\x00\x00\x00\x00\x00\x00\x00\x00\x00\x00\x00\x00\x00\x00\x00\x00\x00\x00\x00\x00\x00\x00\x00\x00\x00\x00\x00\x00\x00\x00\x00\x00\x00\x00\x00\x00\x00\x00\x00\x00\x00\x00\x00\x00\x00\x00\xf0?\x00\x00\x00\x00\x00\x00\x00\x00\x00\x00\x00\x00\x00\x00\x00\x00\x00\x00\x00\x00\x00\x00\xf0?\x00\x00\x00\x00\x00\x00\x00\x00\x00\x00\x00\x00\x00\x00$@\x00\x00\x00\x00\x00\x00\xf0?\x00\x00\x00\x00\x00\x00\x00\x00'
tbsS'nodes'
p1021
g1012
(g1013
(I0
tS'b'
tRp1022
(I1
(I57
tg16
(S'V40'
I0
I1
tRp1023
(I3
S'|'
N(S'left_child'
p1024
S'right_child'
p1025
S'feature'
p1026
S'threshold'
p1027
g788
S'n_node_samples'
p1028
S'weighted_n_node_samples'
p1029
tp1030
(dp1031
g1029
(g17
I32
tp1032
sg788
(g17
I20
tp1033
sg1025
(g1015
I4
tp1034
sg1026
(g1015
I8
tp1035
sg1027
(g17
I12
tp1036
sg1024
(g1015
I0
tp1037
sg1028
(g1015
I28
tp1038
sI40
I1
I0
tbI00
S'\x01\x00\x00\x002\x00\x00\x007\x00\x00\x00\x00\x00\x00\x80J-\xa5?\x8eeP*L\xbc\xdf?c\x00\x00\x00\x00\x00\x00\x00\x00\xc0X@\x02\x00\x00\x001\x00\x00\x00\x0f\x00\x00\x00\x00\x00\x00`\x84\xbb\xd1?\x00\x00\x00\x00\x00\x00\xe0?V\x00\x00\x00\x00\x00\x00\x00\x00\x80U@\x03\x00\x00\x000\x00\x00\x00(\x00\x00\x00\x00\x00\x00\x10\xe2\xfa\xb5?bf@\x9e\xae\xbf\xdf?O\x00\x00\x00\x00\x00\x00\x00\x00\xc0S@\x04\x00\x00\x00\x13\x00\x00\x00y\x00\x00\x00\x00\x00\x00@\xe3GT?u\xde(\xee\xc7O\xdf?K\x00\x00\x00\x00\x00\x00\x00\x00\xc0R@\x05\x00\x00\x00\x12\x00\x00\x00\x17\x00\x00\x00\x00\x00\x00\xa0\xfd\xaa\x9a?\xefGN\xf3\xb5z\xd6?\x16\x00\x00\x00\x00\x00\x00\x00\x00\x006@\x06\x00\x00\x00\t\x00\x00\x00\x02\x00\x00\x00\x00\x00\x00\x00\xd4\xaa4?\xef\x84s\x81\xa9\xbc\xd3?\x15\x00\x00\x00\x00\x00\x00\x00\x00\x005@\x07\x00\x00\x00\x08\x00\x00\x00\x1e\x00\x00\x00\x00\x00\x00\x80\xdeb\xa9?\x1c\xc7q\x1c\xc7q\xdc?\x03\x00\x00\x00\x00\x00\x00\x00\x00\x00\x08@\xff\xff\xff\xff\xff\xff\xff\xff\xfe\xff\xff\xff\x00\x00\x00\x00\x00\x00\x00\xc0\x00\x00\x00\x00\x00\x00\x00\x00\x02\x00\x00\x00\x00\x00\x00\x00\x00\x00\x00@\xff\xff\xff\xff\xff\xff\xff\xff\xfe\xff\xff\xff\x00\x00\x00\x00\x00\x00\x00\xc0\x00\x00\x00\x00\x00\x00\x00\x00\x01\x00\x00\x00\x00\x00\x00\x00\x00\x00\xf0?\n\x00\x00\x00\x0f\x00\x00\x00R\x00\x00\x00\x00\x00\x00\xa8X\x04\xc5?\xe0\xe9\xd6\xfc\xb0H\xc9?\x12\x00\x00\x00\x00\x00\x00\x00\x00\x002@\x0b\x00\x00\x00\x0c\x00\x00\x00\xa6\x00\x00\x00\x00\x00\x00\xc0\'{\xd1?\x00\x00\x00\x00\x00\x00\xbe?\x10\x00\x00\x00\x00\x00\x00\x00\x00\x000@\xff\xff\xff\xff\xff\xff\xff\xff\xfe\xff\xff\xff\x00\x00\x00\x00\x00\x00\x00\xc0\x00\x00\x00\x00\x00\x00\x00\x00\x0e\x00\x00\x00\x00\x00\x00\x00\x00\x00,@\r\x00\x00\x00\x0e\x00\x00\x00\x01\x00\x00\x00\x00\x00\x00\x00\x00\x00\x1a\xc0\x00\x00\x00\x00\x00\x00\xe0?\x02\x00\x00\x00\x00\x00\x00\x00\x00\x00\x00@\xff\xff\xff\xff\xff\xff\xff\xff\xfe\xff\xff\xff\x00\x00\x00\x00\x00\x00\x00\xc0\x00\x00\x00\x00\x00\x00\x00\x00\x01\x00\x00\x00\x00\x00\x00\x00\x00\x00\xf0?\xff\xff\xff\xff\xff\xff\xff\xff\xfe\xff\xff\xff\x00\x00\x00\x00\x00\x00\x00\xc0\x00\x00\x00\x00\x00\x00\x00\x00\x01\x00\x00\x00\x00\x00\x00\x00\x00\x00\xf0?\x10\x00\x00\x00\x11\x00\x00\x00]\x00\x00\x00\x00\x00\x00\xe0\xa9\xfa\xb1?\x00\x00\x00\x00\x00\x00\xe0?\x02\x00\x00\x00\x00\x00\x00\x00\x00\x00\x00@\xff\xff\xff\xff\xff\xff\xff\xff\xfe\xff\xff\xff\x00\x00\x00\x00\x00\x00\x00\xc0\x00\x00\x00\x00\x00\x00\x00\x00\x01\x00\x00\x00\x00\x00\x00\x00\x00\x00\xf0?\xff\xff\xff\xff\xff\xff\xff\xff\xfe\xff\xff\xff\x00\x00\x00\x00\x00\x00\x00\xc0\x00\x00\x00\x00\x00\x00\x00\x00\x01\x00\x00\x00\x00\x00\x00\x00\x00\x00\xf0?\xff\xff\xff\xff\xff\xff\xff\xff\xfe\xff\xff\xff\x00\x00\x00\x00\x00\x00\x00\xc0\x00\x00\x00\x00\x00\x00\x00\x00\x01\x00\x00\x00\x00\x00\x00\x00\x00\x00\xf0?\x14\x00\x00\x00/\x00\x00\x00e\x00\x00\x00\x00\x00\x00\x80\x83\x97\x96?\xb9F\xb8j\x15\xfd\xdf?5\x00\x00\x00\x00\x00\x00\x00\x00\x80J@\x15\x00\x00\x00(\x00\x00\x00\x02\x00\x00\x00\x00\x00\x00@\xcc\xcap?Qg\x97\xf4J\xe1\xdf?1\x00\x00\x00\x00\x00\x00\x00\x00\x80H@\x16\x00\x00\x00\'\x00\x00\x00y\x00\x00\x00\x00\x00\x00\xe0\x14\x9a\xc9?\xb8\x1e\x85\xebQ\xb8\xde?\x1e\x00\x00\x00\x00\x00\x00\x00\x00\x00>@\x17\x00\x00\x00\x18\x00\x00\x00y\x00\x00\x00\x00\x00\x00\x18\x93\x9e\x80?\x1c\xc7q\x1c\xc7q\xdc?\x1b\x00\x00\x00\x00\x00\x00\x00\x00\x00;@\xff\xff\xff\xff\xff\xff\xff\xff\xfe\xff\xff\xff\x00\x00\x00\x00\x00\x00\x00\xc0\x00\x00\x00\x00\x00\x00\x00\x00\x05\x00\x00\x00\x00\x00\x00\x00\x00\x00\x14@\x19\x00\x00\x00&\x00\x00\x00\x0e\x00\x00\x00\x00\x00\x00\xc0\xc9\x9e\xa0?7\x96A\xa90\xf1\xde?\x16\x00\x00\x00\x00\x00\x00\x00\x00\x006@\x1a\x00\x00\x00\x1d\x00\x00\x00}\x00\x00\x00\x00\x00\x00\x00\x00\x00\xe0?\xfa\xc7\xf6\x04\x11\xa8\xdb?\x13\x00\x00\x00\x00\x00\x00\x00\x00\x003@\x1b\x00\x00\x00\x1c\x00\x00\x00\x7f\x00\x00\x00\x00\x00\x00@33\xc3?\x00\x00\x00\x00\x00\x00\xcc?\x08\x00\x00\x00\x00\x00\x00\x00\x00\x00 @\xff\xff\xff\xff\xff\xff\xff\xff\xfe\xff\xff\xff\x00\x00\x00\x00\x00\x00\x00\xc0\x00\x00\x00\x00\x00\x00\x00\x00\x01\x00\x00\x00\x00\x00\x00\x00\x00\x00\xf0?\xff\xff\xff\xff\xff\xff\xff\xff\xfe\xff\xff\xff\x00\x00\x00\x00\x00\x00\x00\xc0\x00\x00\x00\x00\x00\x00\x00\x00\x07\x00\x00\x00\x00\x00\x00\x00\x00\x00\x1c@\x1e\x00\x00\x00\x1f\x00\x00\x00\x05\x00\x00\x00\x00\x00\x00`UU\xd5?\x8eeP*L\xbc\xdf?\x0b\x00\x00\x00\x00\x00\x00\x00\x00\x00&@\xff\xff\xff\xff\xff\xff\xff\xff\xfe\xff\xff\xff\x00\x00\x00\x00\x00\x00\x00\xc0\x00\x00\x00\x00\x00\x00\x00\x00\x03\x00\x00\x00\x00\x00\x00\x00\x00\x00\x08@ \x00\x00\x00!\x00\x00\x00u\x00\x00\x00\x00\x00\x00@\xb1\x13\xe3?\x00\x00\x00\x00\x00\x00\xd8?\x08\x00\x00\x00\x00\x00\x00\x00\x00\x00 @\xff\xff\xff\xff\xff\xff\xff\xff\xfe\xff\xff\xff\x00\x00\x00\x00\x00\x00\x00\xc0\x00\x00\x00\x00\x00\x00\x00\x00\x05\x00\x00\x00\x00\x00\x00\x00\x00\x00\x14@"\x00\x00\x00%\x00\x00\x00~\x00\x00\x00\x00\x00\x00 ]\x87\xb2?\x1c\xc7q\x1c\xc7q\xdc?\x03\x00\x00\x00\x00\x00\x00\x00\x00\x00\x08@#\x00\x00\x00$\x00\x00\x00|\x00\x00\x00\x00\x00\x004\x0c\xc3\xd0?\x00\x00\x00\x00\x00\x00\xe0?\x02\x00\x00\x00\x00\x00\x00\x00\x00\x00\x00@\xff\xff\xff\xff\xff\xff\xff\xff\xfe\xff\xff\xff\x00\x00\x00\x00\x00\x00\x00\xc0\x00\x00\x00\x00\x00\x00\x00\x00\x01\x00\x00\x00\x00\x00\x00\x00\x00\x00\xf0?\xff\xff\xff\xff\xff\xff\xff\xff\xfe\xff\xff\xff\x00\x00\x00\x00\x00\x00\x00\xc0\x00\x00\x00\x00\x00\x00\x00\x00\x01\x00\x00\x00\x00\x00\x00\x00\x00\x00\xf0?\xff\xff\xff\xff\xff\xff\xff\xff\xfe\xff\xff\xff\x00\x00\x00\x00\x00\x00\x00\xc0\x00\x00\x00\x00\x00\x00\x00\x00\x01\x00\x00\x00\x00\x00\x00\x00\x00\x00\xf0?\xff\xff\xff\xff\xff\xff\xff\xff\xfe\xff\xff\xff\x00\x00\x00\x00\x00\x00\x00\xc0\x00\x00\x00\x00\x00\x00\x00\x00\x03\x00\x00\x00\x00\x00\x00\x00\x00\x00\x08@\xff\xff\xff\xff\xff\xff\xff\xff\xfe\xff\xff\xff\x00\x00\x00\x00\x00\x00\x00\xc0\x00\x00\x00\x00\x00\x00\x00\x00\x03\x00\x00\x00\x00\x00\x00\x00\x00\x00\x08@)\x00\x00\x00*\x00\x00\x00y\x00\x00\x00\x00\x00\x00\x10\xbd}^?\xb3d\xa2\xe3\xe7\xd1\xd8?\x13\x00\x00\x00\x00\x00\x00\x00\x00\x003@\xff\xff\xff\xff\xff\xff\xff\xff\xfe\xff\xff\xff\x00\x00\x00\x00\x00\x00\x00\xc0\x00\x00\x00\x00\x00\x00\x00\x00\x02\x00\x00\x00\x00\x00\x00\x00\x00\x00\x00@+\x00\x00\x00.\x00\x00\x00\x16\x00\x00\x00\x00\x00\x00 G\xce\xa9?@\xb80\xa9!\x9a\xd2?\x11\x00\x00\x00\x00\x00\x00\x00\x00\x001@,\x00\x00\x00-\x00\x00\x004\x00\x00\x00\x00\x00\x00\xd8\xa9\xe4\xd0?\x86\xca\x0eS\x97\xdb\xbf?\x0f\x00\x00\x00\x00\x00\x00\x00\x00\x00.@\xff\xff\xff\xff\xff\xff\xff\xff\xfe\xff\xff\xff\x00\x00\x00\x00\x00\x00\x00\xc0\x00\x00\x00\x00\x00\x00\x00\x00\x0e\x00\x00\x00\x00\x00\x00\x00\x00\x00,@\xff\xff\xff\xff\xff\xff\xff\xff\xfe\xff\xff\xff\x00\x00\x00\x00\x00\x00\x00\xc0\x00\x00\x00\x00\x00\x00\x00\x00\x01\x00\x00\x00\x00\x00\x00\x00\x00\x00\xf0?\xff\xff\xff\xff\xff\xff\xff\xff\xfe\xff\xff\xff\x00\x00\x00\x00\x00\x00\x00\xc0\x00\x00\x00\x00\x00\x00\x00\x00\x02\x00\x00\x00\x00\x00\x00\x00\x00\x00\x00@\xff\xff\xff\xff\xff\xff\xff\xff\xfe\xff\xff\xff\x00\x00\x00\x00\x00\x00\x00\xc0\x00\x00\x00\x00\x00\x00\x00\x00\x04\x00\x00\x00\x00\x00\x00\x00\x00\x00\x10@\xff\xff\xff\xff\xff\xff\xff\xff\xfe\xff\xff\xff\x00\x00\x00\x00\x00\x00\x00\xc0\x00\x00\x00\x00\x00\x00\x00\x00\x04\x00\x00\x00\x00\x00\x00\x00\x00\x00\x10@\xff\xff\xff\xff\xff\xff\xff\xff\xfe\xff\xff\xff\x00\x00\x00\x00\x00\x00\x00\xc0\x00\x00\x00\x00\x00\x00\x00\x00\x07\x00\x00\x00\x00\x00\x00\x00\x00\x00\x1c@3\x00\x00\x008\x00\x00\x00Q\x00\x00\x00\x00\x00\x00\x00\xe2\xf1\xbc?8\xe3Z$\xa8\xa9\xd0?\r\x00\x00\x00\x00\x00\x00\x00\x00\x00*@4\x00\x00\x007\x00\x00\x00\x83\x00\x00\x00\x00\x00\x00\x00\x00\x00\x16\xc0\xe48\x8e\xe38\x8e\xc3?\x0c\x00\x00\x00\x00\x00\x00\x00\x00\x00(@5\x00\x00\x006\x00\x00\x00\xb8\x00\x00\x00\x00\x00\x00\xa0C\xfe\xdf?\x00\x00\x00\x00\x00\x00\xe0?\x02\x00\x00\x00\x00\x00\x00\x00\x00\x00\x00@\xff\xff\xff\xff\xff\xff\xff\xff\xfe\xff\xff\xff\x00\x00\x00\x00\x00\x00\x00\xc0\x00\x00\x00\x00\x00\x00\x00\x00\x01\x00\x00\x00\x00\x00\x00\x00\x00\x00\xf0?\xff\xff\xff\xff\xff\xff\xff\xff\xfe\xff\xff\xff\x00\x00\x00\x00\x00\x00\x00\xc0\x00\x00\x00\x00\x00\x00\x00\x00\x01\x00\x00\x00\x00\x00\x00\x00\x00\x00\xf0?\xff\xff\xff\xff\xff\xff\xff\xff\xfe\xff\xff\xff\x00\x00\x00\x00\x00\x00\x00\xc0\x00\x00\x00\x00\x00\x00\x00\x00\n\x00\x00\x00\x00\x00\x00\x00\x00\x00$@\xff\xff\xff\xff\xff\xff\xff\xff\xfe\xff\xff\xff\x00\x00\x00\x00\x00\x00\x00\xc0\x00\x00\x00\x00\x00\x00\x00\x00\x01\x00\x00\x00\x00\x00\x00\x00\x00\x00\xf0?'
tbsbsS'n_features_'
p1039
I185
sS'n_outputs_'
p1040
I1
sS'n_classes_'
p1041
g15
(g1015
S'\x02\x00\x00\x00'
tRp1042
sS'random_state'
p1043
NsS'classes_'
p1044
g1012
(g1013
(I0
tS'b'
tRp1045
(I1
(I2
tg16
(S'S1'
I0
I1
tRp1046
(I3
S'|'
NNNI1
I1
I0
tbI00
S'01'
tbsS'max_features_'
p1047
I13
sS'min_samples_leaf'
p1048
I1
sS'max_features'
p1049
Vauto
p1050
sS'min_weight_fraction_leaf'
p1051
F0
sg794
Vgini
p1052
sS'max_leaf_nodes'
p1053
NsS'min_samples_split'
p1054
I2
sS'max_depth'
p1055
NsS'class_weight'
p1056
NsbssS'version'
p1057
S'0.0.2-SNAPSHOT'
p1058
sS'_segments'
p1059
(dp1060
g8
I99
ssS'_feature_model'
p1061
g1
(ccloudml.trainer.config
FeatureModel
p1062
g3
NtRp1063
(dp1064
S'features'
p1065
ccollections
OrderedDict
p1066
((lp1067
(lp1068
Vhire_outcome
p1069
a(dp1070
S'input-format'
p1071
S'plain'
p1072
sS'transformer'
p1073
Nsg19
g1069
sS'transformer-type'
p1074
Nsg8
NsS'scaler'
p1075
g1
(csklearn.preprocessing.data
MinMaxScaler
p1076
g3
NtRp1077
(dp1078
S'copy'
p1079
I01
sS'feature_range'
p1080
(I0
I1
tp1081
sbsS'required'
p1082
I01
sg796
g1
(ccloudml.trainer.feature_types.ordinal
OrdinalFeatureTypeInstance
p1083
g3
NtRp1084
(dp1085
S'default_scaler'
p1086
S'MinMaxScaler'
p1087
sS'_default_value'
p1088
NsS'_default_params'
p1089
(lp1090
sS'preprocessor'
p1091
NsS'_params'
p1092
(dp1093
Vmappings
p1094
(dp1095
Vclass2
p1096
I0
sVclass1
p1097
I1
sssbsaa(lp1098
Vemployer.op_timezone
p1099
a(dp1100
g1071
g1072
sg1073
Nsg19
g1099
sg1074
Nsg8
Nsg1075
Nsg1082
I01
sg796
g1
(ccloudml.trainer.feature_types.composite
CompositeFeatureTypeInstance
p1101
g3
NtRp1102
(dp1103
g1089
Nsg1088
Nsg1091
Nsg1086
NsS'strategies'
p1104
(lp1105
g1
(ccloudml.trainer.feature_types.regex
RegexFeatureTypeInstance
p1106
g3
NtRp1107
(dp1108
g1086
g1087
sg1088
Nsg1089
g1090
sg1091
Nsg1092
(dp1109
Vpattern
p1110
VUTC([-\u005c+]+\u005cd\u005cd).*
p1111
ssbag1
(ccloudml.trainer.feature_types.primitive_types
PrimitiveFeatureTypeInstance
p1112
g3
NtRp1113
(dp1114
g1089
g1090
sS'python_type'
p1115
S'int'
p1116
sg1088
Nsg1091
Nsg1086
g1087
sg1092
Nsbasg1092
Nsbsaa(lp1117
Vemployer.op_country_tz
p1118
a(dp1119
g1071
g1072
sg1073
Nsg19
g1118
sg1074
Nsg8
Nsg1075
Nsg1082
I01
sg796
g1102
saa(lp1120
Vemployer.op_tot_jobs_filled
p1121
a(dp1122
g1071
g1072
sg1073
Nsg19
g1121
sg1074
Nsg8
Nsg1075
g1
(g1076
g3
NtRp1123
(dp1124
g1079
I01
sg1080
(I0
I1
tp1125
sbsg1082
I01
sg796
g1
(g1112
g3
NtRp1126
(dp1127
g1089
g1090
sg1115
g1116
sg1088
Nsg1091
Nsg1086
g1087
sg1092
Nsbsaa(lp1128
Vcontractor.dev_adj_score_recent
p1129
a(dp1130
g1071
g1072
sg1073
Nsg19
g1129
sg1074
Nsg8
Nsg1075
g1
(g1076
g3
NtRp1131
(dp1132
g1079
I01
sg1080
(I0
I1
tp1133
sbsg1082
I01
sg796
g1
(g1112
g3
NtRp1134
(dp1135
g1089
g1090
sg1115
S'float'
p1136
sg1088
Nsg1091
Nsg1086
g1087
sg1092
Nsbsaa(lp1137
Vcontractor.dev_is_looking
p1138
a(dp1139
g1071
g1072
sg1073
Nsg19
g1138
sg1074
Nsg8
Nsg1075
g1
(g1076
g3
NtRp1140
(dp1141
g1079
I01
sg1080
(I0
I1
tp1142
sbsg1082
I01
sg796
g1
(g1112
g3
NtRp1143
(dp1144
g1089
g1090
sg1115
S'bool'
p1145
sg1088
Nsg1091
Nsg1086
g1087
sg1092
Nsbsaa(lp1146
Vcontractor.dev_recent_rank_percentile
p1147
a(dp1148
g1071
g1072
sg1073
Nsg19
g1147
sg1074
Nsg8
Nsg1075
g1
(g1076
g3
NtRp1149
(dp1150
g1079
I01
sg1080
(I0
I1
tp1151
sbsg1082
I01
sg796
g1
(g1112
g3
NtRp1152
(dp1153
g1089
g1090
sg1115
g1136
sg1088
Nsg1091
Nsg1086
g1087
sg1092
Nsbsaa(lp1154
Vcontractor.dev_recent_fp_jobs
p1155
a(dp1156
g1071
g1072
sg1073
Nsg19
g1155
sg1074
Nsg8
Nsg1075
g1
(g1076
g3
NtRp1157
(dp1158
g1079
I01
sg1080
(I0
I1
tp1159
sbsg1082
I01
sg796
g1
(g1112
g3
NtRp1160
(dp1161
g1089
g1090
sg1115
g1116
sg1088
Nsg1091
Nsg1086
g1087
sg1092
Nsbsaa(lp1162
Vcontractor.dev_recent_hours
p1163
a(dp1164
g1071
g1072
sg1073
Nsg19
g1163
sg1074
Nsg8
Nsg1075
g1
(g1076
g3
NtRp1165
(dp1166
g1079
I01
sg1080
(I0
I1
tp1167
sbsg1082
I01
sg796
g1
(g1112
g3
NtRp1168
(dp1169
g1089
g1090
sg1115
g1116
sg1088
Nsg1091
Nsg1086
g1087
sg1092
Nsbsaa(lp1170
Vcontractor.dev_blurb
p1171
a(dp1172
g1071
g1072
sg1073
g1
(csklearn.feature_extraction.text
TfidfVectorizer
p1173
g3
NtRp1174
(dp1175
S'decode_error'
p1176
Vstrict
p1177
sS'lowercase'
p1178
I01
sS'stop_words'
p1179
NsS'vocabulary'
p1180
NsS'tokenizer'
p1181
NsS'encoding'
p1182
Vutf-8
p1183
sS'token_pattern'
p1184
V(?u)\u005cb\u005cw\u005cw+\u005cb
p1185
sS'max_df'
p1186
F1
sS'analyzer'
p1187
Vword
p1188
sS'binary'
p1189
I00
sS'ngram_range'
p1190
(I1
I1
tp1191
sg1091
NsS'min_df'
p1192
I10
sg1049
NsS'input'
p1193
Vcontent
p1194
sS'_tfidf'
p1195
g1
(csklearn.feature_extraction.text
TfidfTransformer
p1196
g3
NtRp1197
(dp1198
S'use_idf'
p1199
I01
sS'smooth_idf'
p1200
I01
sS'sublinear_tf'
p1201
I00
sS'norm'
p1202
Vl2
p1203
sbsS'dtype'
p1204
cnumpy
int64
p1205
sS'strip_accents'
p1206
Nsbsg19
g1171
sg1074
VTfidf
p1207
sg8
Nsg1075
g1
(g1076
g3
NtRp1208
(dp1209
g1079
I01
sg1080
(I0
I1
tp1210
sbsg1082
I01
sg796
g1
(g1112
g3
NtRp1211
(dp1212
g1089
g1090
sg1115
S'str'
p1213
sg1088
Nsg1091
Nsg1086
g1087
sg1092
Nsbsaa(lp1214
Vcontractor.dev_skill_test_passed_count
p1215
a(dp1216
g1071
g1072
sg1073
Nsg19
g1215
sg1074
Nsg8
Nsg1075
g1
(g1076
g3
NtRp1217
(dp1218
g1079
I01
sg1080
(I0
I1
tp1219
sbsg1082
I01
sg796
g1
(g1112
g3
NtRp1220
(dp1221
g1089
g1090
sg1115
g1116
sg1088
Nsg1091
Nsg1086
g1087
sg1092
Nsbsaa(lp1222
Vcontractor.dev_total_hourly_jobs
p1223
a(dp1224
g1071
g1072
sg1073
Nsg19
g1223
sg1074
Nsg8
Nsg1075
g1
(g1076
g3
NtRp1225
(dp1226
g1079
I01
sg1080
(I0
I1
tp1227
sbsg1082
I01
sg796
g1
(g1112
g3
NtRp1228
(dp1229
g1089
g1090
sg1115
g1116
sg1088
Nsg1091
Nsg1086
g1087
sg1092
Nsbsaa(lp1230
Vcontractor.dev_tot_feedback_recent
p1231
a(dp1232
g1071
g1072
sg1073
Nsg19
g1231
sg1074
Nsg8
Nsg1075
g1
(g1076
g3
NtRp1233
(dp1234
g1079
I01
sg1080
(I0
I1
tp1235
sbsg1082
I01
sg796
g1
(g1112
g3
NtRp1236
(dp1237
g1089
g1090
sg1115
g1116
sg1088
Nsg1091
Nsg1086
g1087
sg1092
Nsbsaa(lp1238
Vcontractor.dev_adj_score
p1239
a(dp1240
g1071
g1072
sg1073
Nsg19
g1239
sg1074
Nsg8
Nsg1075
g1
(g1076
g3
NtRp1241
(dp1242
g1079
I01
sg1080
(I0
I1
tp1243
sbsg1082
I01
sg796
g1
(g1112
g3
NtRp1244
(dp1245
g1089
g1090
sg1115
g1136
sg1088
Nsg1091
Nsg1086
g1087
sg1092
Nsbsaa(lp1246
Vcontractor.dev_rank_percentile
p1247
a(dp1248
g1071
g1072
sg1073
Nsg19
g1247
sg1074
Nsg8
Nsg1075
g1
(g1076
g3
NtRp1249
(dp1250
g1079
I01
sg1080
(I0
I1
tp1251
sbsg1082
I01
sg796
g1
(g1112
g3
NtRp1252
(dp1253
g1089
g1090
sg1115
g1136
sg1088
Nsg1091
Nsg1086
g1087
sg1092
Nsbsaa(lp1254
Vcontractor.dev_billed_assignments
p1255
a(dp1256
g1071
g1072
sg1073
Nsg19
g1255
sg1074
Nsg8
Nsg1075
g1
(g1076
g3
NtRp1257
(dp1258
g1079
I01
sg1080
(I0
I1
tp1259
sbsg1082
I01
sg796
g1
(g1112
g3
NtRp1260
(dp1261
g1089
g1090
sg1115
g1116
sg1088
Nsg1091
Nsg1086
g1087
sg1092
Nsbsaa(lp1262
Vcontractor.dev_is_looking_week
p1263
a(dp1264
g1071
g1072
sg1073
Nsg19
g1263
sg1074
Nsg8
Nsg1075
g1
(g1076
g3
NtRp1265
(dp1266
g1079
I01
sg1080
(I0
I1
tp1267
sbsg1082
I01
sg796
g1
(g1112
g3
NtRp1268
(dp1269
g1089
g1090
sg1115
g1145
sg1088
Nsg1091
Nsg1086
g1087
sg1092
Nsbsaa(lp1270
Vcontractor.dev_availability
p1271
a(dp1272
g1071
g1072
sg1073
Nsg19
g1271
sg1074
Nsg8
Nsg1075
g1
(g1076
g3
NtRp1273
(dp1274
g1079
I01
sg1080
(I0
I1
tp1275
sbsg1082
I01
sg796
g1
(g1112
g3
NtRp1276
(dp1277
g1089
g1090
sg1115
g1116
sg1088
Nsg1091
Nsg1086
g1087
sg1092
Nsbsaa(lp1278
Vcontractor.dev_total_revenue
p1279
a(dp1280
g1071
g1072
sg1073
Nsg19
g1279
sg1074
Nsg8
Nsg1075
g1
(g1076
g3
NtRp1281
(dp1282
g1079
I01
sg1080
(I0
I1
tp1283
sbsg1082
I01
sg796
g1
(g1112
g3
NtRp1284
(dp1285
g1089
g1090
sg1115
g1136
sg1088
Nsg1091
Nsg1086
g1087
sg1092
Nsbsaa(lp1286
Vcontractor.dev_recent_hourly_jobs
p1287
a(dp1288
g1071
g1072
sg1073
Nsg19
g1287
sg1074
Nsg8
Nsg1075
g1
(g1076
g3
NtRp1289
(dp1290
g1079
I01
sg1080
(I0
I1
tp1291
sbsg1082
I01
sg796
g1
(g1112
g3
NtRp1292
(dp1293
g1089
g1090
sg1115
g1116
sg1088
Nsg1091
Nsg1086
g1087
sg1092
Nsbsaa(lp1294
Vcontractor.dev_bill_rate
p1295
a(dp1296
g1071
g1072
sg1073
Nsg19
g1295
sg1074
Nsg8
Nsg1075
g1
(g1076
g3
NtRp1297
(dp1298
g1079
I01
sg1080
(I0
I1
tp1299
sbsg1082
I01
sg796
g1
(g1112
g3
NtRp1300
(dp1301
g1089
g1090
sg1115
g1136
sg1088
Nsg1091
Nsg1086
g1087
sg1092
Nsbsaa(lp1302
Vcontractor.dev_test_passed_count
p1303
a(dp1304
g1071
g1072
sg1073
Nsg19
g1303
sg1074
Nsg8
Nsg1075
g1
(g1076
g3
NtRp1305
(dp1306
g1079
I01
sg1080
(I0
I1
tp1307
sbsg1082
I01
sg796
g1
(g1112
g3
NtRp1308
(dp1309
g1089
g1090
sg1115
g1116
sg1088
Nsg1091
Nsg1086
g1087
sg1092
Nsbsaa(lp1310
Vcontractor.dev_expose_full_name
p1311
a(dp1312
g1071
g1072
sg1073
Nsg19
g1311
sg1074
Nsg8
Nsg1075
g1
(g1076
g3
NtRp1313
(dp1314
g1079
I01
sg1080
(I0
I1
tp1315
sbsg1082
I01
sg796
g1
(g1112
g3
NtRp1316
(dp1317
g1089
g1090
sg1115
g1136
sg1088
Nsg1091
Nsg1086
g1087
sg1092
Nsbsaa(lp1318
Vcontractor.dev_total_hours_rounded
p1319
a(dp1320
g1071
g1072
sg1073
Nsg19
g1319
sg1074
Nsg8
Nsg1075
g1
(g1076
g3
NtRp1321
(dp1322
g1079
I01
sg1080
(I0
I1
tp1323
sbsg1082
I01
sg796
g1
(g1112
g3
NtRp1324
(dp1325
g1089
g1090
sg1115
g1116
sg1088
Nsg1091
Nsg1086
g1087
sg1092
Nsbsaa(lp1326
Vcontractor.dev_year_exp
p1327
a(dp1328
g1071
g1072
sg1073
Nsg19
g1327
sg1074
Nsg8
Nsg1075
g1
(g1076
g3
NtRp1329
(dp1330
g1079
I01
sg1080
(I0
I1
tp1331
sbsg1082
I01
sg796
g1
(g1112
g3
NtRp1332
(dp1333
g1089
g1090
sg1115
g1116
sg1088
Nsg1091
Nsg1086
g1087
sg1092
Nsbsaa(lp1334
Vcontractor.dev_portfolio_items_count
p1335
a(dp1336
g1071
g1072
sg1073
Nsg19
g1335
sg1074
Nsg8
Nsg1075
g1
(g1076
g3
NtRp1337
(dp1338
g1079
I01
sg1080
(I0
I1
tp1339
sbsg1082
I01
sg796
g1
(g1112
g3
NtRp1340
(dp1341
g1089
g1090
sg1115
g1116
sg1088
Nsg1091
Nsg1086
g1087
sg1092
Nsbsaa(lp1342
Vcontractor.dev_eng_skill
p1343
a(dp1344
g1071
g1072
sg1073
Nsg19
g1343
sg1074
Nsg8
Nsg1075
g1
(g1076
g3
NtRp1345
(dp1346
g1079
I01
sg1080
(I0
I1
tp1347
sbsg1082
I01
sg796
g1
(g1112
g3
NtRp1348
(dp1349
g1089
g1090
sg1115
g1116
sg1088
Nsg1091
Nsg1086
g1087
sg1092
Nsbsaa(lp1350
Vcontractor.dev_tot_feedback
p1351
a(dp1352
g1071
g1072
sg1073
Nsg19
g1351
sg1074
Nsg8
Nsg1075
g1
(g1076
g3
NtRp1353
(dp1354
g1079
I01
sg1080
(I0
I1
tp1355
sbsg1082
I01
sg796
g1
(g1112
g3
NtRp1356
(dp1357
g1089
g1090
sg1115
g1116
sg1088
Nsg1091
Nsg1086
g1087
sg1092
Nsbsaa(lp1358
Vcontractor.dev_timezone
p1359
a(dp1360
g1071
g1072
sg1073
Nsg19
g1359
sg1074
Nsg8
Nsg1075
Nsg1082
I01
sg796
g1102
saa(lp1361
Vcontractor.dev_profile_title
p1362
a(dp1363
g1071
g1072
sg1073
g1
(g1173
g3
NtRp1364
(dp1365
g1176
g1177
sg1178
I01
sg1179
Nsg1180
Nsg1181
Nsg1182
g1183
sg1184
g1185
sg1186
F1
sg1187
g1188
sg1189
I00
sg1190
(I1
I1
tp1366
sg1091
Nsg1192
I3
sg1049
Nsg1193
g1194
sg1195
g1
(g1196
g3
NtRp1367
(dp1368
g1199
I01
sg1200
I01
sg1201
I00
sg1202
g1203
sbsg1204
g1205
sg1206
Nsbsg19
g1362
sg1074
VTfidf
p1369
sg8
Nsg1075
g1
(g1076
g3
NtRp1370
(dp1371
g1079
I01
sg1080
(I0
I1
tp1372
sbsg1082
I01
sg796
g1
(g1112
g3
NtRp1373
(dp1374
g1089
g1090
sg1115
g1213
sg1088
Nsg1091
Nsg1086
g1087
sg1092
Nsbsaa(lp1375
Vcontractor.dev_active_interviews
p1376
a(dp1377
g1071
g1072
sg1073
Nsg19
g1376
sg1074
Nsg8
Nsg1075
g1
(g1076
g3
NtRp1378
(dp1379
g1079
I01
sg1080
(I0
I1
tp1380
sbsg1082
I01
sg796
g1
(g1112
g3
NtRp1381
(dp1382
g1089
g1090
sg1115
g1116
sg1088
Nsg1091
Nsg1086
g1087
sg1092
Nsbsaa(lp1383
Vcontractor.dev_cur_assignments
p1384
a(dp1385
g1071
g1072
sg1073
Nsg19
g1384
sg1074
Nsg8
Nsg1075
g1
(g1076
g3
NtRp1386
(dp1387
g1079
I01
sg1080
(I0
I1
tp1388
sbsg1082
I01
sg796
g1
(g1112
g3
NtRp1389
(dp1390
g1089
g1090
sg1115
g1116
sg1088
Nsg1091
Nsg1086
g1087
sg1092
Nsbsaa(lp1391
g753
a(dp1392
g1071
g1072
sg1073
Nsg19
g753
sg1074
Nsg8
Nsg1075
g1
(g1076
g3
NtRp1393
(dp1394
g1079
I01
sg1080
(I0
I1
tp1395
sbsg1082
I01
sg796
g1
(g1112
g3
NtRp1396
(dp1397
g1089
g1090
sg1115
g1116
sg1088
Nsg1091
Nsg1086
g1087
sg1092
Nsbsaa(lp1398
Vcontractor.dev_last_worked
p1399
a(dp1400
g1071
g1072
sg1073
Nsg19
g1399
sg1074
Nsg8
I946684800
sg1075
g1
(g1076
g3
NtRp1401
(dp1402
g1079
I01
sg1080
(I0
I1
tp1403
sbsg1082
I01
sg796
g1
(ccloudml.trainer.feature_types.date
DateFeatureTypeInstance
p1404
g3
NtRp1405
(dp1406
g1086
g1087
sg1088
I946684800
sg1089
g1090
sg1091
Nsg1092
(dp1407
Vpattern
p1408
V%B %d, %Y
p1409
ssbsaatRp1410
sS'required_feature_names'
p1411
(lp1412
g1069
ag1099
ag1118
ag1121
ag1129
ag1138
ag1147
ag1155
ag1163
ag1171
ag1215
ag1223
ag1231
ag1239
ag1247
ag1255
ag1263
ag1271
ag1279
ag1287
ag1295
ag1303
ag1311
ag1319
ag1327
ag1335
ag1343
ag1351
ag1359
ag1362
ag1376
ag1384
ag753
ag1399
asS'group_by'
p1413
(lp1414
sS'target_variable'
p1415
g1069
sS'schema_name'
p1416
Vbestmatch
p1417
sS'_named_feature_types'
p1418
(dp1419
Vstr_to_timezone
p1420
g1102
ssS'classifier_cls'
p1421
g1005
sS'classifier'
p1422
(dp1423
g1049
g1050
sg1008
g1009
sg1054
I2
sg794
g1052
sg1048
I1
ssg769
g770
sbsS'_features'
p1424
(dp1425
g8
g1066
((lp1426
(lp1427
g1069
a(dp1428
g1073
Nsg19
g1069
sg1075
g1
(g1076
g3
NtRp1429
(dp1430
g1079
I01
sg1080
g1081
sbsg8
Nsg1082
I01
sg1071
g1072
sg1074
Nsg796
g1
(g1083
g3
NtRp1431
(dp1432
g1086
g1087
sg1089
(lp1433
sg1091
Nsg1088
Nsg1092
(dp1434
g1094
(dp1435
g1096
I0
sg1097
I1
sssbsaa(lp1436
g1099
a(dp1437
g1073
Nsg19
g1099
sg1075
Nsg8
Nsg1082
I01
sg1071
g1072
sg1074
Nsg796
g1
(g1101
g3
NtRp1438
(dp1439
g1089
Nsg1091
Nsg1088
Nsg1086
Nsg1104
(lp1440
g1
(g1106
g3
NtRp1441
(dp1442
g1086
g1087
sg1089
g1433
sg1091
Nsg1088
Nsg1092
(dp1443
g1110
g1111
ssbag1
(g1112
g3
NtRp1444
(dp1445
g1089
g1433
sg1088
Nsg1115
g1116
sg1086
g1087
sg1092
Nsg1091
Nsbasg1092
Nsbsaa(lp1446
g1118
a(dp1447
g1073
Nsg19
g1118
sg1075
Nsg8
Nsg1082
I01
sg1071
g1072
sg1074
Nsg796
g1438
saa(lp1448
g1121
a(dp1449
g1073
Nsg19
g1121
sg1075
g1
(g1076
g3
NtRp1450
(dp1451
g1080
g1125
sS'scale_'
p1452
g1012
(g1013
(I0
tS'b'
tRp1453
(I1
(I1
tg17
I00
S'P\xabR\x00\xd4\xaa4?'
tbsS'data_range'
p1454
g1012
(g1013
(I0
tS'b'
tRp1455
(I1
(I1
tg17
I00
S'\x00\x00\x00\x00\x00\xc6\xa8@'
tbsS'data_min'
p1456
g1012
(g1013
(I0
tS'b'
tRp1457
(I1
(I1
tg17
I00
S'\x00\x00\x00\x00\x00\x00\x00\x00'
tbsS'min_'
p1458
g1012
(g1013
(I0
tS'b'
tRp1459
(I1
(I1
tg17
I00
S'\x00\x00\x00\x00\x00\x00\x00\x00'
tbsg1079
I01
sbsg8
Nsg1082
I01
sg1071
g1072
sg1074
Nsg796
g1
(g1112
g3
NtRp1460
(dp1461
g1089
g1433
sg1088
Nsg1115
g1116
sg1086
g1087
sg1092
Nsg1091
Nsbsaa(lp1462
g1129
a(dp1463
g1073
Nsg19
g1129
sg1075
g1
(g1076
g3
NtRp1464
(dp1465
g1080
g1133
sg1452
g1012
(g1013
(I0
tS'b'
tRp1466
(I1
(I1
tg17
I00
S'\x9a\x99\x99\x99\x99\x99\xc9?'
tbsg1454
g1012
(g1013
(I0
tS'b'
tRp1467
(I1
(I1
tg17
I00
S'\x00\x00\x00\x00\x00\x00\x14@'
tbsg1456
g1012
(g1013
(I0
tS'b'
tRp1468
(I1
(I1
tg17
I00
S'\x00\x00\x00\x00\x00\x00\x00\x00'
tbsg1458
g1012
(g1013
(I0
tS'b'
tRp1469
(I1
(I1
tg17
I00
S'\x00\x00\x00\x00\x00\x00\x00\x00'
tbsg1079
I01
sbsg8
Nsg1082
I01
sg1071
g1072
sg1074
Nsg796
g1
(g1112
g3
NtRp1470
(dp1471
g1089
g1433
sg1088
Nsg1115
g1136
sg1086
g1087
sg1092
Nsg1091
Nsbsaa(lp1472
g1138
a(dp1473
g1073
Nsg19
g1138
sg1075
g1
(g1076
g3
NtRp1474
(dp1475
g1080
g1142
sg1452
g1012
(g1013
(I0
tS'b'
tRp1476
(I1
(I1
tg17
I00
S'\x00\x00\x00\x00\x00\x00\xf0?'
tbsg1454
g1012
(g1013
(I0
tS'b'
tRp1477
(I1
(I1
tg17
I00
S'\x00\x00\x00\x00\x00\x00\xf0?'
tbsg1456
g1012
(g1013
(I0
tS'b'
tRp1478
(I1
(I1
tg17
I00
S'\x00\x00\x00\x00\x00\x00\x00\x00'
tbsg1458
g1012
(g1013
(I0
tS'b'
tRp1479
(I1
(I1
tg17
I00
S'\x00\x00\x00\x00\x00\x00\x00\x00'
tbsg1079
I01
sbsg8
Nsg1082
I01
sg1071
g1072
sg1074
Nsg796
g1
(g1112
g3
NtRp1480
(dp1481
g1089
g1433
sg1088
Nsg1115
g1145
sg1086
g1087
sg1092
Nsg1091
Nsbsaa(lp1482
g1147
a(dp1483
g1073
Nsg19
g1147
sg1075
g1
(g1076
g3
NtRp1484
(dp1485
g1080
g1151
sg1452
g1012
(g1013
(I0
tS'b'
tRp1486
(I1
(I1
tg17
I00
S'\x1a\xa4A\x1a\xa4A\x8a?'
tbsg1454
g1012
(g1013
(I0
tS'b'
tRp1487
(I1
(I1
tg17
I00
S'\x00\x00\x00\x00\x00\x80S@'
tbsg1456
g1012
(g1013
(I0
tS'b'
tRp1488
(I1
(I1
tg17
I00
S'\x00\x00\x00\x00\x00\x00\x00\x00'
tbsg1458
g1012
(g1013
(I0
tS'b'
tRp1489
(I1
(I1
tg17
I00
S'\x00\x00\x00\x00\x00\x00\x00\x00'
tbsg1079
I01
sbsg8
Nsg1082
I01
sg1071
g1072
sg1074
Nsg796
g1
(g1112
g3
NtRp1490
(dp1491
g1089
g1433
sg1088
Nsg1115
g1136
sg1086
g1087
sg1092
Nsg1091
Nsbsaa(lp1492
g1155
a(dp1493
g1073
Nsg19
g1155
sg1075
g1
(g1076
g3
NtRp1494
(dp1495
g1080
g1159
sg1452
g1012
(g1013
(I0
tS'b'
tRp1496
(I1
(I1
tg17
I00
S'\xdb\x81\xb9v`\xae\x8d?'
tbsg1454
g1012
(g1013
(I0
tS'b'
tRp1497
(I1
(I1
tg17
I00
S'\x00\x00\x00\x00\x00@Q@'
tbsg1456
g1012
(g1013
(I0
tS'b'
tRp1498
(I1
(I1
tg17
I00
S'\x00\x00\x00\x00\x00\x00\x00\x00'
tbsg1458
g1012
(g1013
(I0
tS'b'
tRp1499
(I1
(I1
tg17
I00
S'\x00\x00\x00\x00\x00\x00\x00\x00'
tbsg1079
I01
sbsg8
Nsg1082
I01
sg1071
g1072
sg1074
Nsg796
g1
(g1112
g3
NtRp1500
(dp1501
g1089
g1433
sg1088
Nsg1115
g1116
sg1086
g1087
sg1092
Nsg1091
Nsbsaa(lp1502
g1163
a(dp1503
g1073
Nsg19
g1163
sg1075
g1
(g1076
g3
NtRp1504
(dp1505
g1080
g1167
sg1452
g1012
(g1013
(I0
tS'b'
tRp1506
(I1
(I1
tg17
I00
S'@+\x01\xad\x04\xb4R?'
tbsg1454
g1012
(g1013
(I0
tS'b'
tRp1507
(I1
(I1
tg17
I00
S'\x00\x00\x00\x00\x00`\x8b@'
tbsg1456
g1012
(g1013
(I0
tS'b'
tRp1508
(I1
(I1
tg17
I00
S'\x00\x00\x00\x00\x00\x00\x00\x00'
tbsg1458
g1012
(g1013
(I0
tS'b'
tRp1509
(I1
(I1
tg17
I00
S'\x00\x00\x00\x00\x00\x00\x00\x00'
tbsg1079
I01
sbsg8
Nsg1082
I01
sg1071
g1072
sg1074
Nsg796
g1
(g1112
g3
NtRp1510
(dp1511
g1089
g1433
sg1088
Nsg1115
g1116
sg1086
g1087
sg1092
Nsg1091
Nsbsaa(lp1512
g1171
a(dp1513
g1073
g1
(g1173
g3
NtRp1514
(dp1515
g1176
g1177
sg1180
Nsg1182
g1183
sg1184
g1185
sg1187
g1188
sg1190
g1191
sg1091
Nsg1186
F1
sg1192
I10
sg1049
NsS'fixed_vocabulary_'
p1516
I00
sS'stop_words_'
p1517
c__builtin__
set
p1518
((lp1519
Vaided
p1520
aVraphaeljs
p1521
aVdynamic
p1522
aVyellow
p1523
aVrapid
p1524
aVintegrity
p1525
aVrelationships
p1526
aVwhose
p1527
aVpatches
p1528
aVjavaee
p1529
aVunder
p1530
aVstationery
p1531
aVteaching
p1532
aVpride
p1533
aVspec
p1534
aVicecast
p1535
aVevery
p1536
aVvoip
p1537
aVunity3d
p1538
aVschool
p1539
aVadministrating
p1540
aVsolution
p1541
aVsolutios
p1542
aVsamurai
p1543
aVvector
p1544
aVenhance
p1545
aVcms
p1546
aVenjoy
p1547
aVaeronautics
p1548
aVpragmatic
p1549
aVconsistent
p1550
aVdirect
p1551
aVdisciplined
p1552
aVsecond
p1553
aVsubordinate
p1554
aVimplemented
p1555
aVgetacoder
p1556
aVeven
p1557
aVestablished
p1558
aVhp
p1559
aVdecoding
p1560
aVabove
p1561
aVdesigning
p1562
aVsupplier
p1563
aVnet
p1564
aVever
p1565
aVseeks
p1566
aVspecialist
p1567
aVcentric
p1568
aVsimultaneously
p1569
aVpayroll
p1570
aVnever
p1571
aVhere
p1572
aVmet
p1573
aVstudio
p1574
aVactive
p1575
aVpath
p1576
aV100
p1577
aVpractices
p1578
aVkids
p1579
aVforum
p1580
aVventures
p1581
aVstudy
p1582
aVreports
p1583
aVcredit
p1584
aVchanges
p1585
aVastute
p1586
aVsecure
p1587
aVhighly
p1588
aVpatience
p1589
aVplesk
p1590
aVchartboost
p1591
aVcatchy
p1592
aVtyps
p1593
aVplayed
p1594
aVleaks
p1595
aVcall
p1596
aVasset
p1597
aVtype
p1598
aVuntil
p1599
aVposting
p1600
aVsuccessful
p1601
aVyahoo
p1602
aVaward
p1603
aVphone
p1604
aVhole
p1605
aV95
p1606
aVsquad
p1607
aVmust
p1608
aV1991
p1609
aVroom
p1610
aV1996
p1611
aVpursue
p1612
aVsetup
p1613
aVworth
p1614
aVms
p1615
aVmr
p1616
aVroot
p1617
aVgoood
p1618
aVgive
p1619
aVturnmill
p1620
aVindia
p1621
aVhoned
p1622
aVinvolve
p1623
aVcaptcha
p1624
aVwant
p1625
aVscheduling
p1626
aVguarantee
p1627
aVend
p1628
aVthing
p1629
aVreturning
p1630
aVrhinoceros
p1631
aVhow
p1632
aVwriters
p1633
aVactionscript
p1634
aVplace
p1635
aVordinary
p1636
aVvf3
p1637
aVcadence
p1638
aVgaming
p1639
aVdescription
p1640
aVmanuals
p1641
aVafter
p1642
aVreassess
p1643
aVpresident
p1644
aVlaw
p1645
aVtypes
p1646
aVpurchase
p1647
aVeffective
p1648
aVappreciate
p1649
aVorder
p1650
aV16mar2011
p1651
aVfeedback
p1652
aVoffice
p1653
aVdevote
p1654
aVdreamed
p1655
aVzen
p1656
aVsatisfied
p1657
aVpartnered
p1658
aVkeyboard
p1659
aVresponsive
p1660
aVfit
p1661
aVmypics
p1662
aVpersonal
p1663
aVexpectations
p1664
aVclc
p1665
aVbetter
p1666
aVproduction
p1667
aV400
p1668
aVfotocommunity
p1669
aVthen
p1670
aVthem
p1671
aVenrich
p1672
aVtrevisd
p1673
aVeffects
p1674
aVthey
p1675
aVlifelong
p1676
aVrepresents
p1677
aVeach
p1678
aVwent
p1679
aVside
p1680
aVmean
p1681
aVadobe
p1682
aVindependent
p1683
aVseries
p1684
aVmagneto
p1685
aVaide
p1686
aVlaboratory
p1687
aVchannal
p1688
aVnetwork
p1689
aVcontent
p1690
aVre
p1691
aVsmm
p1692
aVbranch
p1693
aVoscommerce
p1694
aVgot
p1695
aVfoundation
p1696
aVlinear
p1697
aVresume
p1698
aVlittle
p1699
aVfree
p1700
aVstandard
p1701
aVputty
p1702
aV45wpm
p1703
aVboosting
p1704
aVwanted
p1705
aVacrobat
p1706
aVcertified
p1707
aVcreated
p1708
aVsatisfication
p1709
aVdays
p1710
aVpriorities
p1711
aVmvc
p1712
aVuser
p1713
aValready
p1714
aVfeatures
p1715
aVresearcher
p1716
aVcoding
p1717
aVrank
p1718
aVcustomization
p1719
aVelectronic
p1720
aVresearched
p1721
aVillustrate
p1722
aVtoy
p1723
aVguinness
p1724
aVtop
p1725
aVneeded
p1726
aVrates
p1727
aVtoo
p1728
aVupshot
p1729
aVcycle
p1730
aVenhancing
p1731
aVoverhead
p1732
aVserve
p1733
aVtook
p1734
aVcollaterals
p1735
aVmaintaining
p1736
aVpakistani
p1737
aVtarget
p1738
aVroles
p1739
aVzero
p1740
aVebay
p1741
aVpreparation
p1742
aVmatter
p1743
aVcoregraphics
p1744
aVhacking
p1745
aVperspective
p1746
aVrewrite
p1747
aVmodern
p1748
aVmind
p1749
aVmanner
p1750
aVseek
p1751
aVdozen
p1752
aVdbms
p1753
aVzoho
p1754
aVresponsible
p1755
aVeagerly
p1756
aVupholding
p1757
aVcontact
p1758
aVexplanation
p1759
aVdavidson
p1760
aVcommitting
p1761
aVthough
p1762
aVobject
p1763
aVtranslator
p1764
aVchangeworkssystem
p1765
aVoptimized
p1766
aVinvolving
p1767
aVodesk
p1768
aVscripts
p1769
aVdoj
p1770
aVassisting
p1771
aVdon
p1772
aVmedical
p1773
aVfineartprint
p1774
aVcrowd
p1775
aVconsumer
p1776
aVmeetings
p1777
aVperconal
p1778
aVearth
p1779
aVsolusvm
p1780
aVnortheast
p1781
aVimplementation
p1782
aVhelpdesk
p1783
aVsummarizing
p1784
aVmatters
p1785
aVpursuing
p1786
aV10
p1787
aVde
p1788
aVdb
p1789
aVscalable
p1790
aVpreferred
p1791
aVgeek
p1792
aVamazon
p1793
aVreport
p1794
aVtoolbox
p1795
aVdr
p1796
aVcomply
p1797
aVfields
p1798
aVarchitecture
p1799
aVrelease
p1800
aVtrevis
p1801
aVthumbs
p1802
aVfair
p1803
aVbranding
p1804
aVtesting
p1805
aVresult
p1806
aVtechniques
p1807
aVsaid
p1808
aVaway
p1809
aVupgraded
p1810
aVnarrates
p1811
aVbookmarking
p1812
aVapproach
p1813
aVhandwritten
p1814
aVwe
p1815
aVterms
p1816
aVextend
p1817
aVhowever
p1818
aVhtml5
p1819
aVdedication
p1820
aVnews
p1821
aVmotto
p1822
aVpackages
p1823
aVimprove
p1824
aVreceived
p1825
aVgames
p1826
aVexceeds
p1827
aVchina
p1828
aVlogin
p1829
aVskill
p1830
aVhardworking
p1831
aVvexel
p1832
aVkohana
p1833
aVspeak
p1834
aVcustomisation
p1835
aVproceeded
p1836
aVengines
p1837
aVbasis
p1838
aVunion
p1839
aVthree
p1840
aVfrm
p1841
aVquickly
p1842
aVconfident
p1843
aVmuch
p1844
aVinterest
p1845
aVbasic
p1846
aVflexible
p1847
aVpro
p1848
aVlife
p1849
aVworker
p1850
aVcatering
p1851
aVcraft
p1852
aVpersonally
p1853
aVworked
p1854
aVspin
p1855
aVcommerce
p1856
aVwfl
p1857
aVsubmissions
p1858
aVprofessionally
p1859
aVemploy
p1860
aVadwirl
p1861
aVemployees
p1862
aVnodejs
p1863
aVip
p1864
aVplayer
p1865
aVid
p1866
aVtrusted
p1867
aVhone
p1868
aVspecialization
p1869
aVperform
p1870
aVthings
p1871
aVmake
p1872
aVclearly
p1873
aVcraigslist
p1874
aVcomplex
p1875
aVseveral
p1876
aVevolve
p1877
aVsocial
p1878
aVqualifications
p1879
aVworkforce
p1880
aVhand
p1881
aVportal
p1882
aVbitkeeper
p1883
aVpotentials
p1884
aVopportunity
p1885
aVnit
p1886
aVkid
p1887
aVpracticed
p1888
aVlucas
p1889
aVthy
p1890
aVprograms
p1891
aVuploading
p1892
aVezinearticles
p1893
aVmaterials
p1894
aVgreatest
p1895
aVqualities
p1896
aVclaims
p1897
aVcorporate
p1898
aVyours
p1899
aVleft
p1900
aVseasonal
p1901
aVetiquette
p1902
aVisourceph
p1903
aVjust
p1904
aVversed
p1905
aVphoto
p1906
aVgrades
p1907
aVthanks
p1908
aVhuman
p1909
aVyet
p1910
aVprevious
p1911
aVsuccessfactors
p1912
aVhad
p1913
aVadvancement
p1914
aVrequestor
p1915
aVanimation
p1916
aVbrainstorming
p1917
aVeasy
p1918
aVhas
p1919
aVhat
p1920
aVpossible
p1921
aVbackground
p1922
aVclustered
p1923
aVunique
p1924
aV328
p1925
aVadvanced
p1926
aVdesire
p1927
aVgifs
p1928
aVperforming
p1929
aVmanual
p1930
aV50
p1931
aVbpo
p1932
aVspecific
p1933
aVmajored
p1934
aVofficer
p1935
aVdimention
p1936
aVsecurity
p1937
aVwww
p1938
aVright
p1939
aVhonored
p1940
aVcentos
p1941
aVpeople
p1942
aVsuccessfully
p1943
aVborn
p1944
aVdear
p1945
aVcarts
p1946
aVcordoba
p1947
aVfox
p1948
aVcreative
p1949
aVeverything
p1950
aVtracker
p1951
aVbooking
p1952
aVcore
p1953
aVexprience
p1954
aVplz
p1955
aVauthkey
p1956
aVanimtor
p1957
aVarchitectural
p1958
aVgraduated
p1959
aVeye
p1960
aVplm
p1961
aVmanufacturing
p1962
aVpostgresql
p1963
aVmonths
p1964
aVjoomla
p1965
aVplus
p1966
aVconsulting
p1967
aVtarpaulin
p1968
aVcivic
p1969
aVsugarcrm
p1970
aVprofession
p1971
aVsergij
p1972
aVparsing
p1973
aVdown
p1974
aVlies
p1975
aVold
p1976
aVoften
p1977
aVgit
p1978
aVfabric
p1979
aVclass
p1980
aVstuck
p1981
aVeditor
p1982
aVway
p1983
aVmusic
p1984
aVwas
p1985
aVhead
p1986
aVmedium
p1987
aVamateur
p1988
aVoffer
p1989
aVbecoming
p1990
aVanalyse
p1991
aVlanding
p1992
aVencoder
p1993
aVfreelancer
p1994
aVtalents
p1995
aVresponding
p1996
aVsophienczuk
p1997
aVwebs
p1998
aVdevices
p1999
aVtell
p2000
aVproud
p2001
aVzend
p2002
aVcovers
p2003
aVdrive
p2004
aVaccounting
p2005
aVmold
p2006
aVcheck
p2007
aVspecially
p2008
aVnl
p2009
aVno
p2010
aVnc
p2011
aVwhen
p2012
aVnx
p2013
aVinterested
p2014
aVrole
p2015
aVholding
p2016
aVpapers
p2017
aVtest
p2018
aVjenkins
p2019
aVdevelopers
p2020
aVmodels
p2021
aVwelcome
p2022
aVnotepad
p2023
aVconcurrent
p2024
aVsql
p2025
aVyounger
p2026
aVhappening
p2027
aVglass
p2028
aVserious
p2029
aVbanners
p2030
aVpaced
p2031
aVanimator
p2032
aVconcept
p2033
aVmanaged
p2034
aVremarkable
p2035
aVswitched
p2036
aVfocus
p2037
aVmanager
p2038
aVllc
p2039
aVror
p2040
aVvarnish
p2041
aVdepend
p2042
aVgraph
p2043
aVfreelance
p2044
aVflash
p2045
aVgigs
p2046
aVenvironment
p2047
aVpeachtree
p2048
aVfoursquare
p2049
aVjvm
p2050
aVtext
p2051
aVadvantage
p2052
aVunfamiliar
p2053
aVchoice
p2054
aV21dec2011
p2055
aVartwork
p2056
aVexact
p2057
aVimpressive
p2058
aVsolver
p2059
aVphilippines
p2060
aVwowza
p2061
aVstandards
p2062
aVleave
p2063
aVexcellence
p2064
aVteam
p2065
aVquick
p2066
aVsays
p2067
aVdealing
p2068
aVhtm
p2069
aVdiscover
p2070
aVprofessionalism
p2071
aVcost
p2072
aVpmb
p2073
aVcurrent
p2074
aVremembered
p2075
aVhungry
p2076
aVgoes
p2077
aVrelational
p2078
aVenthusiast
p2079
aVheavily
p2080
aVassertive
p2081
aVfrench
p2082
aVunderstanding
p2083
aVmarkkiessling
p2084
aVaddress
p2085
aVapache
p2086
aValong
p2087
aVchange
p2088
aVwait
p2089
aVbox
p2090
aVweb2
p2091
aVthirty
p2092
aVhealthy
p2093
aV6500
p2094
aVexams
p2095
aVlove
p2096
aVconfidentiality
p2097
aVapd62ohyvblhm0u
p2098
aVlogical
p2099
aVsincerely
p2100
aVxero
p2101
aV1st
p2102
aVforefront
p2103
aVshould
p2104
aVpost
p2105
aVmarket
p2106
aVhandled
p2107
aVprove
p2108
aVby
p2109
aVlive
p2110
aViphone
p2111
aVhttps
p2112
aVmemory
p2113
aVtoday
p2114
aVafford
p2115
aVorganized
p2116
aVacceptable
p2117
aVenvelope
p2118
aVdistribution
p2119
aVvisual
p2120
aVeverywhere
p2121
aVoop
p2122
aVcases
p2123
aVeffort
p2124
aVeasiest
p2125
aVorganizations
p2126
aVgraphic
p2127
aVdhtml
p2128
aVtitanium
p2129
aVpretend
p2130
aVreviews
p2131
aVvalues
p2132
aVhope
p2133
aVcam
p2134
aVgrowing
p2135
aVmaking
p2136
aVcae
p2137
aVcad
p2138
aVdedicated
p2139
aVnursing
p2140
aVfigure
p2141
aVnexus
p2142
aVnewsletters
p2143
aVagent
p2144
aVcritic
p2145
aVcouncil
p2146
aVproductive
p2147
aVmonitoring
p2148
aVexceptional
p2149
aVmagazine
p2150
aVwrite
p2151
aVtill
p2152
aVxhtml
p2153
aVspeaks
p2154
aVeconomy
p2155
aVmap
p2156
aVproduct
p2157
aV140
p2158
aVinformation
p2159
aVmay
p2160
aVmax
p2161
aVbrazen
p2162
aVapplications
p2163
aVmac
p2164
aVproduce
p2165
aVdesigned
p2166
aVimproving
p2167
aVsuch
p2168
aVsuck
p2169
aVgrow
p2170
aVman
p2171
aVsucceeded
p2172
aVconscious
p2173
aVcorona
p2174
aVfluent
p2175
aVcapistrano
p2176
aVso
p2177
aVrepresentation
p2178
aVse
p2179
aVssh
p2180
aVspreadsheets
p2181
aVhiring
p2182
aVcold
p2183
aVmachine
p2184
aVgroup
p2185
aVthank
p2186
aVrossica
p2187
aVencompasses
p2188
aVforms
p2189
aVplatform
p2190
aVlisting
p2191
aVmail
p2192
aVmain
p2193
aVnon
p2194
aVviews
p2195
aVsooner
p2196
aVscaling
p2197
aVrecords
p2198
aVqualified
p2199
aVcourse
p2200
aV1950
p2201
aVhalf
p2202
aVispconfig
p2203
aVnor
p2204
aVpossess
p2205
aVterm
p2206
aVname
p2207
aVadmob
p2208
aVoffshore
p2209
aVshowcasing
p2210
aVtopsolid
p2211
aVdomain
p2212
aVsquare
p2213
aVmysql5
p2214
aVchallenges
p2215
aVyear
p2216
aVcalling
p2217
aVcanada
p2218
aVliving
p2219
aVcanvas
p2220
aVaccomplish
p2221
aVgamers
p2222
aV3rd
p2223
aVprofit
p2224
aVmultiplayer
p2225
aVincrease
p2226
aVinternet
p2227
aVassurance
p2228
aVsuperiors
p2229
aVcart
p2230
aVquite
p2231
aVajax
p2232
aVmimi
p2233
aVorg
p2234
aVcare
p2235
aVtraining
p2236
aVjournalist
p2237
aVlanguage
p2238
aVselections
p2239
aVlistings
p2240
aVprogramming
p2241
aVhonest
p2242
aVmotion
p2243
aVturn
p2244
aVyum
p2245
aVpromotion
p2246
aVthink
p2247
aVprograming
p2248
aVfirst
p2249
aVenhances
p2250
aVclause
p2251
aVfast
p2252
aVdirectly
p2253
aVcarry
p2254
aVopen
p2255
aVgeorge
p2256
aVengineer
p2257
aVcity
p2258
aVsurveys
p2259
aVnecessarily
p2260
aViad
p2261
aVcaught
p2262
aVyii
p2263
aVanyone
p2264
aVrenderings
p2265
aVreturns
p2266
aVtyping
p2267
aVwhite
p2268
aVspeaking
p2269
aVmining
p2270
aVreleases
p2271
aVcontinuous
p2272
aVcerebro
p2273
aVspecialists
p2274
aVcopy
p2275
aVintrinsically
p2276
aVprofessionals
p2277
aV13
p2278
aV12
p2279
aV15
p2280
aV18
p2281
aVrequire
p2282
aVtypography
p2283
aVventure
p2284
aVcards
p2285
aVpre
p2286
aVregister
p2287
aVtopics
p2288
aVlocations
p2289
aVant
p2290
aVsay
p2291
aVworksheets
p2292
aVsap
p2293
aVany
p2294
aVcassandra
p2295
aVconversion
p2296
aVefficient
p2297
aVtranscription
p2298
aVediting
p2299
aVanswering
p2300
aVideas
p2301
aVnote
p2302
aVacumen
p2303
aVpotential
p2304
aVtranscribed
p2305
aVtake
p2306
aVonline
p2307
aVcreatively
p2308
aVperformance
p2309
aVstrengths
p2310
aVhanding
p2311
aVsure
p2312
aVmultiple
p2313
aVukrainian
p2314
aVtrack
p2315
aVprice
p2316
aVvisitors
p2317
aVprinted
p2318
aVremarks
p2319
aVpages
p2320
aVlater
p2321
aVsale
p2322
aVsenior
p2323
aVshop
p2324
aVnextag
p2325
aVshot
p2326
aVoutsourcing
p2327
aVdrawings
p2328
aVinjection
p2329
aVground
p2330
aVxml
p2331
aVratio
p2332
aVoutside
p2333
aVonly
p2334
aVgoing
p2335
aVblack
p2336
aVequipped
p2337
aVget
p2338
aVassistant
p2339
aVtrustworty
p2340
aVoverdeliver
p2341
aVemployers
p2342
aVaim
p2343
aVnearly
p2344
aVhonours
p2345
aVsecondary
p2346
aVresource
p2347
aVintuitive
p2348
aVartist
p2349
aVexplore
p2350
aVrounder
p2351
aVsummary
p2352
aVadvertisor
p2353
aVsource
p2354
aVhonesty
p2355
aVinnovative
p2356
aVcollege
p2357
aVpebble
p2358
aVenhacement
p2359
aVsatisfying
p2360
aVmorocco
p2361
aVmanaging
p2362
aVrajeev
p2363
aVsites
p2364
aVcuello022206
p2365
aVwojczyszyn
p2366
aVbehind
p2367
aVbetween
p2368
aVinfrastructure
p2369
aVscreen
p2370
aVflow
p2371
aVjs
p2372
aVjd
p2373
aVarticle
p2374
aVcome
p2375
aVassess
p2376
aVconcentrated
p2377
aVfliers
p2378
aVsolidworks
p2379
aVaccording
p2380
aVenabling
p2381
aVcolumnist
p2382
aVworkplace
p2383
aVcomes
p2384
aVsymfony
p2385
aVamong
p2386
aV60
p2387
aVmaintained
p2388
aVcoredata
p2389
aVlearning
p2390
aVmoreover
p2391
aVendeavor
p2392
aVconsidering
p2393
aVarts
p2394
aVtuning
p2395
aVcapable
p2396
aVmark
p2397
aVdelcam
p2398
aVglassfish
p2399
aVdependable
p2400
aVtheam
p2401
aV500
p2402
aVengine
p2403
aVenable
p2404
aVshopping
p2405
aVoffered
p2406
aVcreo
p2407
aVproven
p2408
aVebusiness
p2409
aVattentive
p2410
aVruby
p2411
aVformer
p2412
aVprotocols
p2413
aVsound
p2414
aVmyself
p2415
aVdeveloping
p2416
aVthese
p2417
aVadmin
p2418
aVpromising
p2419
aVnewspaper
p2420
aVsituation
p2421
aVcoolest
p2422
aVtelephone
p2423
aVsudden
p2424
aVconverts
p2425
aVsomebody
p2426
aVtechnology
p2427
aVdifferent
p2428
aVdevelop
p2429
aVetc
p2430
aVpay
p2431
aVsame
p2432
aVtranscribing
p2433
aVauthentication
p2434
aVgeodatix
p2435
aVlite
p2436
aVdocument
p2437
aVweek
p2438
aVextended
p2439
aVassist
p2440
aVdriven
p2441
aVwpm
p2442
aVchanging
p2443
aVcck
p2444
aVmodel
p2445
aVdimension
p2446
aVresearchers
p2447
aVedwards
p2448
aVnosql
p2449
aVpakistan
p2450
aVbeing
p2451
aVknowledgeable
p2452
aVvaluable
p2453
aVreputable
p2454
aVgreetings
p2455
aVcocos2d
p2456
aVsummed
p2457
aVtouch
p2458
aVspeed
p2459
aVweekly
p2460
aVautocad
p2461
aVhsphere
p2462
aVdesktop
p2463
aVblog
p2464
aVcomplements
p2465
aVextensive
p2466
aVreal
p2467
aVaspects
p2468
aVaround
p2469
aVdelhi
p2470
aVpsd
p2471
aVbreedlove
p2472
aVtraffic
p2473
aVmom
p2474
aVworld
p2475
aVweb2py
p2476
aVdisappointed
p2477
aVmod
p2478
aVfortune
p2479
aVidentifying
p2480
aVserver
p2481
aVbenefit
p2482
aVeither
p2483
aVoutput
p2484
aVpassionate
p2485
aVsatisfactory
p2486
aVverbal
p2487
aVcompetition
p2488
aVspecified
p2489
aVimages
p2490
aVorganizing
p2491
aVthinks
p2492
aVprovided
p2493
aVhighest
p2494
aVredis
p2495
aVredir
p2496
aVlegal
p2497
aVpioneer
p2498
aVcritical
p2499
aVprovider
p2500
aVdirector
p2501
aVspecializing
p2502
aVkvm
p2503
aVscientific
p2504
aVpower
p2505
aVconvincing
p2506
aVliveshare
p2507
aVflyers
p2508
aVknowleadge
p2509
aVcentral
p2510
aVindustry
p2511
aVhiatus
p2512
aVhardcopies
p2513
aVstand
p2514
aVbackup
p2515
aVprocessor
p2516
aVpsh2html
p2517
aVcommunication
p2518
aVimage
p2519
aVskilled
p2520
aVreferences
p2521
aVfinancial
p2522
aVtechnically
p2523
aVbuds
p2524
aVprepare
p2525
aVarea
p2526
aVremoving
p2527
aVthere
p2528
aVdeadlines
p2529
aVbangladeshi
p2530
aVstart
p2531
aVlow
p2532
aVlot
p2533
aVago
p2534
aVshoutcast
p2535
aVapis
p2536
aVtechnologies
p2537
aVtrying
p2538
aVhire
p2539
aVcacti
p2540
aVillustrator
p2541
aVagree
p2542
aVdetailed
p2543
aVad
p2544
aVvideos
p2545
aVtaste
p2546
aVdescribe
p2547
aVsales
p2548
aVdeep
p2549
aVnagios
p2550
aVreliability
p2551
aVfile
p2552
aVlogo
p2553
aVquickbooks
p2554
aVagain
p2555
aVdrafts
p2556
aV1562408
p2557
aVpersonnel
p2558
aVgraduate
p2559
aVproductively
p2560
aVfield
p2561
aV28078
p2562
aVmathematics
p2563
aV2007
p2564
aVoneself
p2565
aVobsessed
p2566
aVtranslated
p2567
aVpear
p2568
aVincludes
p2569
aVimportant
p2570
aVnapier
p2571
aVsuited
p2572
aVmechanical
p2573
aVbuilding
p2574
aVremote
p2575
aVcalls
p2576
aVwife
p2577
aVcpa
p2578
aVtricks
p2579
aVwebsites
p2580
aVhello
p2581
aVdirectory
p2582
aVoral
p2583
aVoriginal
p2584
aVmigrated
p2585
aValm
p2586
aVb43b054378357819
p2587
aVfounder
p2588
aVmonth
p2589
aVpostponing
p2590
aVdeadline
p2591
aVfollow
p2592
aVdecisions
p2593
aVsmo
p2594
aVhunting
p2595
aVicons
p2596
aVtv
p2597
aVopportunities
p2598
aVprogram
p2599
aVopensource
p2600
aVpresentation
p2601
aVfax
p2602
aVreturned
p2603
aVsitting
p2604
aVminded
p2605
aVdifference
p2606
aVcondition
p2607
aVorganizationally
p2608
aVlist
p2609
aVapplicable
p2610
aVlarge
p2611
aVscrapping
p2612
aVsmall
p2613
aVten
p2614
aVpast
p2615
aVrate
p2616
aVenhancement
p2617
aVfurther
p2618
aVfunctioning
p2619
aVpinterest
p2620
aVsun
p2621
aVsection
p2622
aVassociate
p2623
aVlearner
p2624
aVversion
p2625
aVlearned
p2626
aVmemcached
p2627
aVpublic
p2628
aV5002
p2629
aVfull
p2630
aVtags
p2631
aV21st
p2632
aVhours
p2633
aVoperating
p2634
aVdirections
p2635
aVmanagerial
p2636
aVobserving
p2637
aVpersonable
p2638
aVhass
p2639
aVsearch
p2640
aVahead
p2641
aVinspired
p2642
aVcompliance
p2643
aVprior
p2644
aVadvertising
p2645
aVpublished
p2646
aVaction
p2647
aVformation
p2648
aVvia
p2649
aVfamily
p2650
aVtoyo
p2651
aVglitch
p2652
aVanalyzing
p2653
aVtrained
p2654
aVestablish
p2655
aVselect
p2656
aVintensive
p2657
aVflaws
p2658
aVtakes
p2659
aVobjectives
p2660
aVfaint
p2661
aVtwo
p2662
aVsaasu
p2663
aVmarkets
p2664
aVachieving
p2665
aVdiamond
p2666
aVdoor
p2667
aVknows
p2668
aVopenvz
p2669
aVbasically
p2670
aVparticular
p2671
aVproducing
p2672
aVwebmaster
p2673
aVglad
p2674
aVkeeping
p2675
aVsalesforce
p2676
aVscience
p2677
aVequation
p2678
aVspecializes
p2679
aVfronted
p2680
aVatari
p2681
aVlearn
p2682
aVstrategies
p2683
aVchallenging
p2684
aVstated
p2685
aVshare
p2686
aVvirtuemart
p2687
aVminimum
p2688
aVmagento
p2689
aVaxis
p2690
aVhuge
p2691
aVneeds
p2692
aVrather
p2693
aVutilize
p2694
aVmaps
p2695
aVbuenos
p2696
aVjustin
p2697
aVtibay
p2698
aVreflect
p2699
aVcatalog
p2700
aVdisable
p2701
aVlighting
p2702
aVcairngorm
p2703
aVresponse
p2704
aVshort
p2705
aVpostfix
p2706
aVmeticulous
p2707
aVdocumentation
p2708
aVbugs
p2709
aVdjango
p2710
aVresponsibility
p2711
aVmedia
p2712
aVcs5
p2713
aVdream
p2714
aVplaying
p2715
aVcs3
p2716
aVreplied
p2717
aVphotoshop
p2718
aVhelp
p2719
aVmission
p2720
aVlicensure
p2721
aVheld
p2722
aVattitude
p2723
aVpaper
p2724
aVthrough
p2725
aVcommitted
p2726
aVits
p2727
aVdeveloper
p2728
aV24
p2729
aV25
p2730
aVstyle
p2731
aV20
p2732
aV22
p2733
aV23
p2734
aVsolving
p2735
aV29
p2736
aVparts
p2737
aVsystems
p2738
aVbox2d
p2739
aVsomeone
p2740
aVmotivated
p2741
aVseeking
p2742
aVfood
p2743
aVscheglov
p2744
aVframework
p2745
aVfoot
p2746
aVformulating
p2747
aVyr
p2748
aVbigger
p2749
aVinstructions
p2750
aVeasily
p2751
aVlevel
p2752
aV2d
p2753
aVuploads
p2754
aVgnucash
p2755
aVeveryone
p2756
aVgeneration
p2757
aVhard
p2758
aVnumeric
p2759
aVclockwork
p2760
aVexpect
p2761
aVoperation
p2762
aVscribe
p2763
aVinsurance
p2764
aVreally
p2765
aVftp
p2766
aVcatia
p2767
aVconceptualizing
p2768
aVsencha
p2769
aVsince
p2770
aVhealth
p2771
aVprint
p2772
aVoffline
p2773
aVasp
p2774
aVupon
p2775
aVreason
p2776
aVbase
p2777
aVmembers
p2778
aVcss
p2779
aVput
p2780
aVteach
p2781
aVash
p2782
aVrevolutionary
p2783
aVcheers
p2784
aVdrupal
p2785
aVdashcommerce
p2786
aVneeding
p2787
aVamerican
p2788
aVexpecting
p2789
aVthrows
p2790
aVmajor
p2791
aVv6
p2792
aVencoding
p2793
aVfeel
p2794
aVnumber
p2795
aVzurb
p2796
aVdone
p2797
aVdefects
p2798
aVmiss
p2799
aVecommerce
p2800
aVleast
p2801
aVshelves
p2802
aV1077457
p2803
aVpassed
p2804
aVweblogic
p2805
aVstore
p2806
aVgps
p2807
aVhim
p2808
aVrelationship
p2809
aVhotel
p2810
aVpart
p2811
aVtranslation
p2812
aVbelieve
p2813
aVonetieva
p2814
aVjquery
p2815
aVkind
p2816
aVdetermines
p2817
aVkindly
p2818
aValphanumeric
p2819
aVglusterfs
p2820
aVaims
p2821
aVrecording
p2822
aVveportal
p2823
aVpolishing
p2824
aVhurco
p2825
aVinteractive
p2826
aVmotivation
p2827
aVoutstanding
p2828
aVchipmunk
p2829
aVmootools
p2830
aVw4m
p2831
aVself
p2832
aVdianwei
p2833
aVbuild
p2834
aVplay
p2835
aVcompetencies
p2836
aVcomponents
p2837
aVsets
p2838
aVchart
p2839
aVmost
p2840
aVexperiences
p2841
aVaires
p2842
aVservices
p2843
aVextremely
p2844
aVachievement
p2845
aVwindows
p2846
aVpopularity
p2847
aVtieva
p2848
aVgiving
p2849
aVartistic
p2850
aVclean
p2851
aVnotch
p2852
aVphysics
p2853
aVmicrosoft
p2854
aVjoining
p2855
aVperseverance
p2856
aVrelation
p2857
aVheadlines
p2858
aVfind
p2859
aVmorisiki
p2860
aVaccess
p2861
aVdepended
p2862
aVwriter
p2863
aVdistributed
p2864
aVfailed
p2865
aVpretty
p2866
aVmoney
p2867
aVdarwin
p2868
aVaccurate
p2869
aVhis
p2870
aVprowess
p2871
aVexpress
p2872
aVrest
p2873
aVinternational
p2874
aVduring
p2875
aVbanner
p2876
aVblogging
p2877
aVexhibiting
p2878
aVadapts
p2879
aVsleeve
p2880
aVrfx
p2881
aVweaver
p2882
aVcrm
p2883
aVbars
p2884
aVset
p2885
aVart
p2886
aV6days
p2887
aVcreator
p2888
aV317
p2889
aVsee
p2890
aVindividual
p2891
aVsem
p2892
aVbudypress
p2893
aVthreats
p2894
aVexpert
p2895
aVmovie
p2896
aVcurrently
p2897
aVkeepalived
p2898
aVrepresentatives
p2899
aVvarious
p2900
aVwide
p2901
aVavailable
p2902
aVprofiling
p2903
aVrecently
p2904
aVcreating
p2905
aVjavascript
p2906
aVmaintainability
p2907
aV1521986
p2908
aVcoffee
p2909
aVscriptlance
p2910
aVfluently
p2911
aVvasilisbankov
p2912
aVleague
p2913
aVrestaurant
p2914
aVannual
p2915
aVevent
p2916
aVthinking
p2917
aVpdm
p2918
aVimproves
p2919
aVhesitand
p2920
aVpdf
p2921
aVlancing
p2922
aVload
p2923
aVpoint
p2924
aVsimple
p2925
aVcomposting
p2926
aVwhatever
p2927
aVdimensional
p2928
aVheader
p2929
aVsimply
p2930
aVlikes
p2931
aVlinux
p2932
aVthroughout
p2933
aVexpensive
p2934
aVpr
p2935
aVjava
p2936
aVpublishing
p2937
aVcreate
p2938
aVcreativity
p2939
aVdue
p2940
aVstrategy
p2941
aVpc
p2942
aVmaintenance
p2943
aVmeeting
p2944
aVfirm
p2945
aVflight
p2946
aVfreelancing
p2947
aVraj
p2948
aVproprietary
p2949
aVprecision
p2950
aVadaptable
p2951
aVdetermination
p2952
aVrepresentative
p2953
aVdemand
p2954
aVinstructor
p2955
aVresid
p2956
aVhandling
p2957
aVlook
p2958
aVsolid
p2959
aVreliable
p2960
aVbudget
p2961
aVtechnical
p2962
aVwhile
p2963
aVoptimization
p2964
aVkick
p2965
aVbehavior
p2966
aVfun
p2967
aVanimated
p2968
aVstudied
p2969
aVcentury
p2970
aVitself
p2971
aVskype
p2972
aVready
p2973
aVria
p2974
aVclerical
p2975
aVshirt
p2976
aVmint
p2977
aVmailing
p2978
aVorders
p2979
aVorientated
p2980
aVcopying
p2981
aVpeoples
p2982
aVcomposition
p2983
aVused
p2984
aVinterpersonal
p2985
aVflurry
p2986
aV000
p2987
aVpurpose
p2988
aVstack
p2989
aVlower
p2990
aVtask
p2991
aVdatabase
p2992
aVpersuasive
p2993
aVspent
p2994
aVanalysis
p2995
aVnoisymusic
p2996
aVperson
p2997
aVsavvy
p2998
aVparametric
p2999
aVspend
p3000
aVwhmcs
p3001
aVabilities
p3002
aVendeavour
p3003
aVlistening
p3004
aVphotoworks
p3005
aVcompetitive
p3006
aVopenstack
p3007
aVgems
p3008
aVcut
p3009
aVnvq
p3010
aVadvertisements
p3011
aVcontractor
p3012
aVeager
p3013
aVdixon
p3014
aVinput
p3015
aVcum
p3016
aVadministrative
p3017
aVcustomers
p3018
aVdemands
p3019
aVbig
p3020
aVunlimited
p3021
aVnginx
p3022
aVgame
p3023
aVfalcon
p3024
aVbit
p3025
aVprojects
p3026
aVoutright
p3027
aVsorting
p3028
aVsuccess
p3029
aVsubmission
p3030
aVconfront
p3031
aVfacets
p3032
aVcommunications
p3033
aVcontinue
p3034
aVpopular
p3035
aVgoogle
p3036
aVmethods
p3037
aVspring
p3038
aVcreation
p3039
aVback
p3040
aVstreaming
p3041
aVtrends
p3042
aVtowards
p3043
aVkeyword
p3044
aVpreparing
p3045
aVdepartmental
p3046
aVshall
p3047
aVintegration
p3048
aVper
p3049
aVscalr
p3050
aVprod
p3051
aVminimal
p3052
aVinclination
p3053
aVpatient
p3054
aV300
p3055
aVopencart
p3056
aVprocessing
p3057
aVrus
p3058
aVwsdl
p3059
aVreadability
p3060
aVhamra
p3061
aVtensionmanagementinstitute
p3062
aVanything
p3063
aVwelll
p3064
aVgraduation
p3065
aVsimulation
p3066
aVrange
p3067
aVjsp
p3068
aVplan
p3069
aVhometown
p3070
aVinto
p3071
aVwithin
p3072
aVnonsense
p3073
aVservers
p3074
aVperl
p3075
aVcalming
p3076
aVstatistics
p3077
aVinnate
p3078
aVspecifically
p3079
aVcustom
p3080
aVheritage
p3081
aVforward
p3082
aVcarnaudmetalbox
p3083
aVpromotions
p3084
aVsolanghansen
p3085
aVposter
p3086
aVspecialty
p3087
aV987
p3088
aVlink
p3089
aVpytalhost
p3090
aVrussian
p3091
aVline
p3092
aVdirected
p3093
aVconsist
p3094
aVmunin
p3095
aVup
p3096
aVus
p3097
aVmobile
p3098
aVthose
p3099
aVceridian
p3100
aVgnvq
p3101
aVindividuality
p3102
aVvekperevoda
p3103
aVwilled
p3104
aVbeckoning
p3105
aVdoesn
p3106
aVconsulted
p3107
aVassociates
p3108
aVchat
p3109
aVorganizational
p3110
aVhuron
p3111
aVmssql
p3112
aVstreamlining
p3113
aVpeace
p3114
aVgooglemap
p3115
aVrewriting
p3116
aVapplication
p3117
aVincome
p3118
aVdepartment
p3119
aVnice
p3120
aVusers
p3121
aVfavourite
p3122
aVmongodb
p3123
aVproblems
p3124
aVrestoration
p3125
aVposters
p3126
aVsvn
p3127
aVhappier
p3128
aVsvg
p3129
aVrequired
p3130
aVdepartments
p3131
aVmonit
p3132
aV2003
p3133
aVdepth
p3134
aV2006
p3135
aVpresenting
p3136
aV2005
p3137
aVoracle
p3138
aV2008
p3139
aV2009
p3140
aVhaving
p3141
aVcode
p3142
aVbroaden
p3143
aVresults
p3144
aVexisting
p3145
aVvsftp
p3146
aVgo
p3147
aVsend
p3148
aVsuits
p3149
aVliterary
p3150
aVhelps
p3151
aVsuite
p3152
aVinclude
p3153
aVfriendly
p3154
aVresources
p3155
aVuploaded
p3156
aVlogos
p3157
aVlisted
p3158
aVmastering
p3159
aVfacebook
p3160
aVstackoverflow
p3161
aVmixing
p3162
aVcategories
p3163
aVtimely
p3164
aVmercurial
p3165
aVtry
p3166
aVassignments
p3167
aVsearchability
p3168
aVbusinesses
p3169
aVhardening
p3170
aVrecruitment
p3171
aVlayouts
p3172
aVvideo
p3173
aVdynamics
p3174
aVclick
p3175
aVvmware
p3176
aVuniversities
p3177
aVhourly
p3178
aVchicago
p3179
aVphonegap
p3180
aVassisted
p3181
aVmultimedia
p3182
aVnetworks
p3183
aVjboss
p3184
aVconsistently
p3185
aVturnaround
p3186
aVtapjoy
p3187
aVfirms
p3188
aVmarketer
p3189
aVexercise
p3190
aV3d
p3191
aVdegree
p3192
aVdelivering
p3193
aVbachelor
p3194
aVbusy
p3195
aVlet
p3196
aVothers
p3197
aVmaven
p3198
aVgreat
p3199
aVengage
p3200
aVtalent
p3201
aVreceive
p3202
aVinvolved
p3203
aV30
p3204
aVkiessling
p3205
aVproducts
p3206
aVbookkeeping
p3207
aVmakes
p3208
aVhonor
p3209
aVinvolves
p3210
aVapp
p3211
aVmanage
p3212
aVportals
p3213
aVunderpromise
p3214
aVapi
p3215
aVlodging
p3216
aVapply
p3217
aVtools
p3218
aVcloud
p3219
aVconfidence
p3220
aVhears
p3221
aVusa
p3222
aVguideline
p3223
aVfew
p3224
aVdoubt
p3225
aVthemselves
p3226
aVgained
p3227
aVjournalists
p3228
aVstarted
p3229
aVarranging
p3230
aVstarter
p3231
aVsubscription
p3232
aVaccount
p3233
aVpracticing
p3234
aVphing
p3235
aVlanguages
p3236
aVthis
p3237
aVchallenge
p3238
aVmeet
p3239
aVcontrol
p3240
aVsqlite
p3241
aVperfecting
p3242
aVreserved
p3243
aVprocess
p3244
aVtax
p3245
aVhigh
p3246
aVsomething
p3247
aVtab
p3248
aVeducational
p3249
aVsit
p3250
aVpoetry
p3251
aVarrangement
p3252
aVlamp
p3253
aVrevision
p3254
aVprofile
p3255
aVadministrator
p3256
aVwatch
p3257
aVfits
p3258
aVcommunicator
p3259
aVmarrow
p3260
aVefficiently
p3261
aVos
p3262
aVzenoss
p3263
aVzbrush
p3264
aVtexturing
p3265
aVelement
p3266
aVencyclopedia
p3267
aVallow
p3268
aVtenure
p3269
aVquotations
p3270
aVfastest
p3271
aVresearching
p3272
aVwhilst
p3273
aVincluding
p3274
aVlooks
p3275
aVconverting
p3276
aVhbase
p3277
aVchosen
p3278
aVll
p3279
aVemails
p3280
aVwilling
p3281
aVfirmly
p3282
aVchoose
p3283
aVhobby
p3284
aV2011
p3285
aV2012
p3286
aVflex
p3287
aVdesigns
p3288
aVcrash
p3289
aVpython
p3290
aVpractice
p3291
aVindexing
p3292
aVskydrive
p3293
aVeffectatious
p3294
aVsmarty
p3295
aVhands
p3296
aVfront
p3297
aVcakephp
p3298
aVday
p3299
aVstrive
p3300
aVarticles
p3301
aVmasters
p3302
aVkronos
p3303
aVedit
p3304
aVuniversity
p3305
aV3ds
p3306
aVaccounts
p3307
aVluster
p3308
aVexperienced
p3309
aV709
p3310
aVdoing
p3311
aVrelated
p3312
aVsociety
p3313
aVmeta
p3314
aVstatic
p3315
aVcpanel
p3316
aVmxml
p3317
aVour
p3318
aVprogrammer
p3319
aVspecial
p3320
aVout
p3321
aVproofreader
p3322
aVchaos
p3323
aVricky
p3324
aVmate
p3325
aVimpart
p3326
aVred
p3327
aVproficient
p3328
aVipod
p3329
aVloyola
p3330
aVanalytical
p3331
aVcompletely
p3332
aVsurely
p3333
aVtenant
p3334
aVorganic
p3335
aVcould
p3336
aVopengl
p3337
aVask
p3338
aVtimes
p3339
aVkeen
p3340
aVpasting
p3341
aVretail
p3342
aVstimulate
p3343
aVplastics
p3344
aVindesign
p3345
aVblogger
p3346
aVpowerful
p3347
aVstrategic
p3348
aVimprovements
p3349
aVpuppet
p3350
aVhonestly
p3351
aVowner
p3352
aVlong
p3353
aVstrict
p3354
aVdetailing
p3355
aVsystem
p3356
aVpriority
p3357
aVtheir
p3358
aVgcse
p3359
aVmechnisam
p3360
aVperfectly
p3361
aVfinal
p3362
aVaodrgsiggnrjrzs
p3363
aVcompleted
p3364
aVrsa
p3365
aVregards
p3366
aVmanipulation
p3367
aVdistinction
p3368
aVhaven
p3369
aVupdating
p3370
aVrss
p3371
aVipad
p3372
aVbother
p3373
aVsubmitted
p3374
aVdmu50
p3375
aVproviding
p3376
aVcollecting
p3377
aVvericut
p3378
aVneed
p3379
aVlinked
p3380
aVcompetency
p3381
aVdocuments
p3382
aVstudying
p3383
aVable
p3384
aVstegloff
p3385
aVconcerns
p3386
aVwhich
p3387
aVlinda
p3388
aVsingh
p3389
aVsubject
p3390
aVsoap
p3391
aVaccuracy
p3392
aVworldwide
p3393
aVunless
p3394
aVcentre
p3395
aVwho
p3396
aVaws
p3397
aVdelve
p3398
aVsegment
p3399
aVwhy
p3400
aVvolume
p3401
aVurl
p3402
aVarchiving
p3403
aVhi
p3404
aVdatabases
p3405
aVgain
p3406
aVselection
p3407
aVdba
p3408
aVplease
p3409
aVretouching
p3410
aVplanning
p3411
aVmanchester
p3412
aVportfolio
p3413
aVdebate
p3414
aVlitigation
p3415
aVha
p3416
aVbased
p3417
aVearned
p3418
aVcache
p3419
aVemployer
p3420
aVemployee
p3421
aVemployed
p3422
aVlocal
p3423
aVachieve
p3424
aVmeans
p3425
aVfamiliar
p3426
aVones
p3427
aVwords
p3428
aVdb2
p3429
aVprocedures
p3430
aVareas
p3431
aVnetsuite
p3432
aVtaxes
p3433
aVteams
p3434
aVqc
p3435
aVstuff
p3436
aVshe
p3437
aVqueries
p3438
aVgrab
p3439
aVconversions
p3440
aVeurope
p3441
aVrightscale
p3442
aVacquired
p3443
aVtravis
p3444
aVcomputer
p3445
aVwritten
p3446
aVcopywriting
p3447
aVprogress
p3448
aVemail
p3449
aVattention
p3450
aVability
p3451
aVopening
p3452
aVimportance
p3453
aVdeliver
p3454
aVimplementing
p3455
aVjob
p3456
aVkey
p3457
aVconfiguration
p3458
aVswift
p3459
aVker
p3460
aVdiligent
p3461
aVcareer
p3462
aVtaking
p3463
aVpresentations
p3464
aVassure
p3465
aVwaiters
p3466
aVmentoring
p3467
aVmodeling
p3468
aVaddition
p3469
aVjson
p3470
aVseasoned
p3471
aVpoet
p3472
aVutilizing
p3473
aVwaste
p3474
aVmike
p3475
aVboth
p3476
aVsufficient
p3477
aVal
p3478
aVcontroller
p3479
aVgraphics
p3480
aVgeneral
p3481
aVpresent
p3482
aVhmc
p3483
aVmulti
p3484
aVvalue
p3485
aVframeworks
p3486
aVstunning
p3487
aVscanned
p3488
aVve
p3489
aValmost
p3490
aVsite
p3491
aVlinkedin
p3492
aVhelped
p3493
aVarabic
p3494
aVregression
p3495
aVbegan
p3496
aVadministration
p3497
aVmember
p3498
aVunity
p3499
aVbecame
p3500
aVparty
p3501
aVandroid
p3502
aVresiding
p3503
aVhttp
p3504
aVreporting
p3505
aVios
p3506
aVautomation
p3507
aVproficiency
p3508
aVv5
p3509
aVstudent
p3510
aVuni
p3511
aVtransaction
p3512
aVoff
p3513
aVcenter
p3514
aVcontest
p3515
aVthought
p3516
aVpatterns
p3517
aVcommand
p3518
aVoops
p3519
aVenglish
p3520
aVposition
p3521
aVaudio
p3522
aVdrawing
p3523
aVlatest
p3524
aVrestore
p3525
aVless
p3526
aVxen
p3527
aVexecutive
p3528
aVobtain
p3529
aVdose
p3530
aVsourcer
p3531
aVprotecting
p3532
aVpaul
p3533
aVnow
p3534
aVads
p3535
aVadp
p3536
aVcomunications
p3537
aVjeff
p3538
aVcapabilities
p3539
aVdevelopments
p3540
aVusage
p3541
aV280
p3542
aVsuit
p3543
aVsmart
p3544
aVcss3
p3545
aVcss2
p3546
aVcaptivating
p3547
aVample
p3548
aVmolding
p3549
aVmillturn
p3550
aVexecute
p3551
aVfive
p3552
aVknow
p3553
aVdeployment
p3554
aVpress
p3555
aVloader
p3556
aVprominent
p3557
aVnecessary
p3558
aVhelpful
p3559
aVexcluding
p3560
aVefficiency
p3561
aVdictionaries
p3562
aVcandy
p3563
aVpayments
p3564
aVbecome
p3565
aVworks
p3566
aVpage
p3567
aVexceed
p3568
aVbecause
p3569
aVpropel
p3570
aVactuarial
p3571
aVtwitter
p3572
aVsearching
p3573
aVplatforms
p3574
aVgrowth
p3575
aV110
p3576
aVconvey
p3577
aVproper
p3578
aVhome
p3579
aVprojection
p3580
aVlead
p3581
aVsketching
p3582
aVpassion
p3583
aVcapability
p3584
aVleader
p3585
aVschedule
p3586
aVstellar
p3587
aVpressure
p3588
aValthough
p3589
aVtestflight
p3590
aVshopify
p3591
aVhaproxy
p3592
aVabout
p3593
aVcodeigniter
p3594
aVgetting
p3595
aVcolumn
p3596
aValtb6kgfpg9btvc
p3597
aVpowerpoint
p3598
aVsoftware
p3599
aVown
p3600
aVpolished
p3601
aVcauselle
p3602
aVh2
p3603
aVh1
p3604
aVfunctional
p3605
aVarticulate
p3606
aVcocoa
p3607
aVvirtualbox
p3608
aV1987
p3609
aVnetworking
p3610
aVadditional
p3611
aVtransfer
p3612
aVapps
p3613
aVawarded
p3614
aV704
p3615
aVaccountant
p3616
aVliceanse
p3617
aVblackprojectstudios
p3618
aVbiggest
p3619
aVyrs
p3620
aVelastix
p3621
aVnaturally
p3622
aVcertificate
p3623
aVdreamweaver
p3624
aVpeechtree
p3625
aVhr
p3626
aVbrand
p3627
aVdelivery
p3628
aVconstruction
p3629
aVmailed
p3630
aVgoals
p3631
aVoverflow
p3632
aVsqueeze
p3633
aVbug
p3634
aVversatile
p3635
aVcount
p3636
aVmade
p3637
aVdmg
p3638
aVsmooth
p3639
aVcurrentaly
p3640
aVrecord
p3641
aVbelow
p3642
aVbooks
p3643
aVlimit
p3644
aVproblem
p3645
aVpiece
p3646
aVpim
p3647
aVrecognize
p3648
aVbrochures
p3649
aVcontribute
p3650
aVmyi
p3651
aVinn
p3652
aVperiods
p3653
aVeducation
p3654
aVmyd
p3655
aVinc
p3656
aVfunctions
p3657
aVvariety
p3658
aVdetail
p3659
aVvirtual
p3660
aVpeoplesoft
p3661
aVbook
p3662
aVdetails
p3663
aVboon
p3664
aVphp5
p3665
aVasterisk
p3666
aVlearnings
p3667
aVrepeat
p3668
aVchance
p3669
aVadditionally
p3670
aVmultinationals
p3671
aVextjs
p3672
aVlaude
p3673
aVexposure
p3674
aVfocused
p3675
aVsphinx
p3676
aVblogs
p3677
aVcompete
p3678
aVquestionnaires
p3679
aVunderstand
p3680
aVstrategical
p3681
atRp3682
sg1189
I00
sg1178
I01
sg1179
Nsg1181
NsS'vocabulary_'
p3683
(dp3684
Vskills
p3685
g15
(g1015
S'K\x00\x00\x00'
tRp3686
sVcompanies
p3687
g15
(g1015
S'\x12\x00\x00\x00'
tRp3688
sVnew
p3689
g15
(g1015
S'8\x00\x00\x00'
tRp3690
sVwould
p3691
g15
(g1015
S'd\x00\x00\x00'
tRp3692
sVexcellent
p3693
g15
(g1015
S'\x1e\x00\x00\x00'
tRp3694
sVme
p3695
g15
(g1015
S'4\x00\x00\x00'
tRp3696
sVword
p3697
g15
(g1015
S'`\x00\x00\x00'
tRp3698
sVwork
p3699
g15
(g1015
S'b\x00\x00\x00'
tRp3700
sVprovide
p3701
g15
(g1015
S'E\x00\x00\x00'
tRp3702
sVover
p3703
g15
(g1015
S'A\x00\x00\x00'
tRp3704
sVwriting
p3705
g15
(g1015
S'e\x00\x00\x00'
tRp3706
sVgood
p3707
g15
(g1015
S'%\x00\x00\x00'
tRp3708
sVservice
p3709
g15
(g1015
S'J\x00\x00\x00'
tRp3710
sVproject
p3711
g15
(g1015
S'D\x00\x00\x00'
tRp3712
sVoriented
p3713
g15
(g1015
S'?\x00\x00\x00'
tRp3714
sVclient
p3715
g15
(g1015
S'\x0f\x00\x00\x00'
tRp3716
sVsolutions
p3717
g15
(g1015
S'L\x00\x00\x00'
tRp3718
sVdo
p3719
g15
(g1015
S'\x1b\x00\x00\x00'
tRp3720
sVbest
p3721
g15
(g1015
S'\x0b\x00\x00\x00'
tRp3722
sVcom
p3723
g15
(g1015
S'\x11\x00\x00\x00'
tRp3724
sVand
p3725
g15
(g1015
S'\x05\x00\x00\x00'
tRp3726
sVbeen
p3727
g15
(g1015
S'\n\x00\x00\x00'
tRp3728
sVwebsite
p3729
g15
(g1015
S'Z\x00\x00\x00'
tRp3730
sVis
p3731
g15
(g1015
S'*\x00\x00\x00'
tRp3732
sVit
p3733
g15
(g1015
S'+\x00\x00\x00'
tRp3734
sVin
p3735
g15
(g1015
S')\x00\x00\x00'
tRp3736
sVif
p3737
g15
(g1015
S'(\x00\x00\x00'
tRp3738
sVthe
p3739
g15
(g1015
S'S\x00\x00\x00'
tRp3740
sVfor
p3741
g15
(g1015
S'"\x00\x00\x00'
tRp3742
sVmarketing
p3743
g15
(g1015
S'3\x00\x00\x00'
tRp3744
sVsupport
p3745
g15
(g1015
S'O\x00\x00\x00'
tRp3746
sVwordpress
p3747
g15
(g1015
S'a\x00\x00\x00'
tRp3748
sVexpertise
p3749
g15
(g1015
S' \x00\x00\x00'
tRp3750
sVexcel
p3751
g15
(g1015
S'\x1d\x00\x00\x00'
tRp3752
sVtime
p3753
g15
(g1015
S'T\x00\x00\x00'
tRp3754
sVmy
p3755
g15
(g1015
S'6\x00\x00\x00'
tRp3756
sVtasks
p3757
g15
(g1015
S'P\x00\x00\x00'
tRp3758
sVworking
p3759
g15
(g1015
S'c\x00\x00\x00'
tRp3760
sVcan
p3761
g15
(g1015
S'\x0e\x00\x00\x00'
tRp3762
sVfollowing
p3763
g15
(g1015
S'!\x00\x00\x00'
tRp3764
sVdesigner
p3765
g15
(g1015
S'\x18\x00\x00\x00'
tRp3766
sVdata
p3767
g15
(g1015
S'\x16\x00\x00\x00'
tRp3768
sVyears
p3769
g15
(g1015
S'f\x00\x00\x00'
tRp3770
sVnot
p3771
g15
(g1015
S'9\x00\x00\x00'
tRp3772
sVone
p3773
g15
(g1015
S'=\x00\x00\x00'
tRp3774
sVthat
p3775
g15
(g1015
S'R\x00\x00\x00'
tRp3776
sVthan
p3777
g15
(g1015
S'Q\x00\x00\x00'
tRp3778
sVobjective
p3779
g15
(g1015
S':\x00\x00\x00'
tRp3780
sVprofessional
p3781
g15
(g1015
S'C\x00\x00\x00'
tRp3782
sVwhere
p3783
g15
(g1015
S']\x00\x00\x00'
tRp3784
sVjobs
p3785
g15
(g1015
S',\x00\x00\x00'
tRp3786
sVmany
p3787
g15
(g1015
S'2\x00\x00\x00'
tRp3788
sVsatisfaction
p3789
g15
(g1015
S'H\x00\x00\x00'
tRp3790
sVhtml
p3791
g15
(g1015
S"'\x00\x00\x00"
tRp3792
sVbusiness
p3793
g15
(g1015
S'\x0c\x00\x00\x00'
tRp3794
sVon
p3795
g15
(g1015
S'<\x00\x00\x00'
tRp3796
sVof
p3797
g15
(g1015
S';\x00\x00\x00'
tRp3798
sVor
p3799
g15
(g1015
S'>\x00\x00\x00'
tRp3800
sVyour
p3801
g15
(g1015
S'h\x00\x00\x00'
tRp3802
sVcomplete
p3803
g15
(g1015
S'\x14\x00\x00\x00'
tRp3804
sVwith
p3805
g15
(g1015
S'_\x00\x00\x00'
tRp3806
sVam
p3807
g15
(g1015
S'\x03\x00\x00\x00'
tRp3808
sVas
p3809
g15
(g1015
S'\x07\x00\x00\x00'
tRp3810
sVat
p3811
g15
(g1015
S'\x08\x00\x00\x00'
tRp3812
sVyou
p3813
g15
(g1015
S'g\x00\x00\x00'
tRp3814
sVall
p3815
g15
(g1015
S'\x00\x00\x00\x00'
tRp3816
sVto
p3817
g15
(g1015
S'U\x00\x00\x00'
tRp3818
sVvery
p3819
g15
(g1015
S'X\x00\x00\x00'
tRp3820
sVdesign
p3821
g15
(g1015
S'\x17\x00\x00\x00'
tRp3822
sVwhat
p3823
g15
(g1015
S'\\\x00\x00\x00'
tRp3824
sVstrong
p3825
g15
(g1015
S'N\x00\x00\x00'
tRp3826
sVexperience
p3827
g15
(g1015
S'\x1f\x00\x00\x00'
tRp3828
sVmore
p3829
g15
(g1015
S'5\x00\x00\x00'
tRp3830
sVcompany
p3831
g15
(g1015
S'\x13\x00\x00\x00'
tRp3832
sVgoal
p3833
g15
(g1015
S'$\x00\x00\x00'
tRp3834
sVdeveloped
p3835
g15
(g1015
S'\x19\x00\x00\x00'
tRp3836
sValways
p3837
g15
(g1015
S'\x02\x00\x00\x00'
tRp3838
sVresearch
p3839
g15
(g1015
S'G\x00\x00\x00'
tRp3840
sValso
p3841
g15
(g1015
S'\x01\x00\x00\x00'
tRp3842
sVare
p3843
g15
(g1015
S'\x06\x00\x00\x00'
tRp3844
sVseo
p3845
g15
(g1015
S'I\x00\x00\x00'
tRp3846
sVlast
p3847
g15
(g1015
S'.\x00\x00\x00'
tRp3848
sVdevelopment
p3849
g15
(g1015
S'\x1a\x00\x00\x00'
tRp3850
sVentry
p3851
g15
(g1015
S'\x1c\x00\x00\x00'
tRp3852
sVmysql
p3853
g15
(g1015
S'7\x00\x00\x00'
tRp3854
sVlike
p3855
g15
(g1015
S'/\x00\x00\x00'
tRp3856
sVsome
p3857
g15
(g1015
S'M\x00\x00\x00'
tRp3858
sVbe
p3859
g15
(g1015
S'\t\x00\x00\x00'
tRp3860
sVuse
p3861
g15
(g1015
S'V\x00\x00\x00'
tRp3862
sVmanagement
p3863
g15
(g1015
S'1\x00\x00\x00'
tRp3864
sVfrom
p3865
g15
(g1015
S'#\x00\x00\x00'
tRp3866
sVcustomer
p3867
g15
(g1015
S'\x15\x00\x00\x00'
tRp3868
sVclients
p3869
g15
(g1015
S'\x10\x00\x00\x00'
tRp3870
sVlooking
p3871
g15
(g1015
S'0\x00\x00\x00'
tRp3872
sVquality
p3873
g15
(g1015
S'F\x00\x00\x00'
tRp3874
sVhave
p3875
g15
(g1015
S'&\x00\x00\x00'
tRp3876
sVknowledge
p3877
g15
(g1015
S'-\x00\x00\x00'
tRp3878
sVan
p3879
g15
(g1015
S'\x04\x00\x00\x00'
tRp3880
sVwill
p3881
g15
(g1015
S'^\x00\x00\x00'
tRp3882
sVphp
p3883
g15
(g1015
S'B\x00\x00\x00'
tRp3884
sVwell
p3885
g15
(g1015
S'[\x00\x00\x00'
tRp3886
sVweb
p3887
g15
(g1015
S'Y\x00\x00\x00'
tRp3888
sVother
p3889
g15
(g1015
S'@\x00\x00\x00'
tRp3890
sVbut
p3891
g15
(g1015
S'\r\x00\x00\x00'
tRp3892
sVusing
p3893
g15
(g1015
S'W\x00\x00\x00'
tRp3894
ssg1204
g1205
sg1193
g1194
sg1195
g1
(g1196
g3
NtRp3895
(dp3896
g1199
I01
sg1200
I01
sg1201
I00
sg1202
g1203
sS'_idf_diag'
p3897
g1
(cscipy.sparse.dia
dia_matrix
p3898
g3
NtRp3899
(dp3900
S'data'
p3901
g1012
(g1013
(I0
tS'b'
tRp3902
(I1
(I1
I105
tg17
I00
S'\xfe\xf6eq-I\x05@z\xfb\xfa\xe24|\x04@\x84\xee\x92`\x99\xba\x07@4|\xab\xc2\xe6\x80\xfd?^\x8fz\x8c\xce\xc6\x02@\xf2U6\x10q\xfd\xf0?^\x8fz\x8c\xce\xc6\x02@<ppx \xa9\xfe?\xfe\xf6eq-I\x05@;\xf6\x98y\xe5\xc1\x03@\x84\xee\x92`\x99\xba\x07@\x0cb\x1d>M-\x07@^\x8fz\x8c\xce\xc6\x02@\x84\xee\x92`\x99\xba\x07@\x08`\xd4\xa0\x08/\x02@\xe0r\xeb\xbf\x7f\xa8\t@<ppx \xa9\x06@\xda\x1d9L_R\x08@\xae\x0b\x97\xbaL\xf6\x08@\xe0r\xeb\xbf\x7f\xa8\t@\x0cb\x1d>M-\x07@\xda\x1d9L_R\x08@\x08`\xd4\xa0\x08/\x02@\xa4\x18\xff<\xe8\xb7\x05@\xae\x0b\x97\xbaL\xf6\x08@\xe0r\xeb\xbf\x7f\xa8\t@\xfe\xf6eq-I\x05@\xb2*p\xb5\xf7,\x06@\x9a\xc6\xf6\xfb \xe0\x04@\xae\x0b\x97\xbaL\xf6\x08@\xe0r\xeb\xbf\x7f\xa8\t@\xd0\xab\xdc\x80\xbc"\xfd?\xe0r\xeb\xbf\x7f\xa8\t@\xda\x1d9L_R\x08@>.Q\xff\xe5\xdb\xf9?\xb2*p\xb5\xf7,\x06@\x84\xee\x92`\x99\xba\x07@\x0cb\x1d>M-\x07@\x18\xa3+\xc2\xefF\xf9?\x84\xee\x92`\x99\xba\x07@\xae\x0b\x97\xbaL\xf6\x08@\x8a\x8e\x16\xc8\x84\xc5\xf3?\xaa8\xc5\x1d\xd4\x10\xff?\x0cb\x1d>M-\x07@\xae\x0b\x97\xbaL\xf6\x08@<ppx \xa9\x06@\xda\x1d9L_R\x08@\x84\xee\x92`\x99\xba\x07@\xae\x0b\x97\xbaL\xf6\x08@<ppx \xa9\x06@\xe0r\xeb\xbf\x7f\xa8\t@\xe0r\xeb\xbf\x7f\xa8\t@\xf8\x1c}\x7f!\x17\x03@\xa4\x18\xff<\xe8\xb7\x05@k\xe9\x84x\xe0\xef\xf5?\xda\x1d9L_R\x08@\xda\x1d9L_R\x08@\xda\x1d9L_R\x08@\x84\xee\x92`\x99\xba\x07@\xbc\xc5\xac\x85\xf3\xa5\xf6?f\xb6Z$\tf\x00@\xe0r\xeb\xbf\x7f\xa8\t@\xb2*p\xb5\xf7,\x06@\xda\x1d9L_R\x08@\x84\xee\x92`\x99\xba\x07@z\xfb\xfa\xe24|\x04@\xae\x0b\x97\xbaL\xf6\x08@\x9a\xc6\xf6\xfb \xe0\x04@\xae\x0b\x97\xbaL\xf6\x08@\xfe\xf6eq-I\x05@\x9a\xc6\xf6\xfb \xe0\x04@\x0cb\x1d>M-\x07@\xe0r\xeb\xbf\x7f\xa8\t@\xe0r\xeb\xbf\x7f\xa8\t@^\x8fz\x8c\xce\xc6\x02@\x06\xd1Nc9{\xff?\xae\x0b\x97\xbaL\xf6\x08@\xda\x1d9L_R\x08@\xe0r\xeb\xbf\x7f\xa8\t@\xda\x1d9L_R\x08@\xe0r\xeb\xbf\x7f\xa8\t@\x84\xee\x92`\x99\xba\x07@6\x9c\xb1\xf5f\xa1\x00@k\xe9\x84x\xe0\xef\xf5?^\x8fz\x8c\xce\xc6\x02@DS\xf3\xf8\xfe\x91\xf3?\x84\xee\x92`\x99\xba\x07@\x0cb\x1d>M-\x07@<ppx \xa9\x06@\x0c\xac\x9c\xab*\xe7\x01@\xda\x1d9L_R\x08@<ppx \xa9\x06@\xe0r\xeb\xbf\x7f\xa8\t@\xae\x0b\x97\xbaL\xf6\x08@\xfe\xf6eq-I\x05@ ;\xbc\xd73\xb7\xf8?\xae\x0b\x97\xbaL\xf6\x08@\xe0r\xeb\xbf\x7f\xa8\t@\x0e\xc1\x8d\x01\xb0\xc6\xfc?2}\xd8\xfa\xbbj\x03@\xae\x0b\x97\xbaL\xf6\x08@\xb2*p\xb5\xf7,\x06@\xear\xb3\x8f\x92\x14\xfc?^\x8fz\x8c\xce\xc6\x02@\xfe\xf6eq-I\x05@'
tbsS'maxprint'
p3903
I50
sS'_shape'
p3904
(I105
I105
tp3905
sS'offsets'
p3906
g1012
(g1013
(I0
tS'b'
tRp3907
(I1
(I1
tg1015
I00
S'\x00\x00\x00\x00'
tbsS'format'
p3908
S'dia'
p3909
sbsbsg1206
Nsbsg19
g1171
sg1075
g1
(g1076
g3
NtRp3910
(dp3911
g1079
I01
sg1080
g1210
sbsg8
Nsg1082
I01
sg1071
g1072
sg1074
g1207
sg796
g1
(g1112
g3
NtRp3912
(dp3913
g1089
g1433
sg1088
Nsg1115
g1213
sg1086
g1087
sg1092
Nsg1091
Nsbsaa(lp3914
g1215
a(dp3915
g1073
Nsg19
g1215
sg1075
g1
(g1076
g3
NtRp3916
(dp3917
g1080
g1219
sg1452
g1012
(g1013
(I0
tS'b'
tRp3918
(I1
(I1
tg17
I00
S'(\xaf\xa1\xbc\x86\xf2\xaa?'
tbsg1454
g1012
(g1013
(I0
tS'b'
tRp3919
(I1
(I1
tg17
I00
S'\x00\x00\x00\x00\x00\x003@'
tbsg1456
g1012
(g1013
(I0
tS'b'
tRp3920
(I1
(I1
tg17
I00
S'\x00\x00\x00\x00\x00\x00\x00\x00'
tbsg1458
g1012
(g1013
(I0
tS'b'
tRp3921
(I1
(I1
tg17
I00
S'\x00\x00\x00\x00\x00\x00\x00\x00'
tbsg1079
I01
sbsg8
Nsg1082
I01
sg1071
g1072
sg1074
Nsg796
g1
(g1112
g3
NtRp3922
(dp3923
g1089
g1433
sg1088
Nsg1115
g1116
sg1086
g1087
sg1092
Nsg1091
Nsbsaa(lp3924
g1223
a(dp3925
g1073
Nsg19
g1223
sg1075
g1
(g1076
g3
NtRp3926
(dp3927
g1080
g1227
sg1452
g1012
(g1013
(I0
tS'b'
tRp3928
(I1
(I1
tg17
I00
S'{\x14\xaeG\xe1z\x94?'
tbsg1454
g1012
(g1013
(I0
tS'b'
tRp3929
(I1
(I1
tg17
I00
S'\x00\x00\x00\x00\x00\x00I@'
tbsg1456
g1012
(g1013
(I0
tS'b'
tRp3930
(I1
(I1
tg17
I00
S'\x00\x00\x00\x00\x00\x00\x00\x00'
tbsg1458
g1012
(g1013
(I0
tS'b'
tRp3931
(I1
(I1
tg17
I00
S'\x00\x00\x00\x00\x00\x00\x00\x00'
tbsg1079
I01
sbsg8
Nsg1082
I01
sg1071
g1072
sg1074
Nsg796
g1
(g1112
g3
NtRp3932
(dp3933
g1089
g1433
sg1088
Nsg1115
g1116
sg1086
g1087
sg1092
Nsg1091
Nsbsaa(lp3934
g1231
a(dp3935
g1073
Nsg19
g1231
sg1075
g1
(g1076
g3
NtRp3936
(dp3937
g1080
g1235
sg1452
g1012
(g1013
(I0
tS'b'
tRp3938
(I1
(I1
tg17
I00
S'{\x14\xaeG\xe1z\x94?'
tbsg1454
g1012
(g1013
(I0
tS'b'
tRp3939
(I1
(I1
tg17
I00
S'\x00\x00\x00\x00\x00\x00I@'
tbsg1456
g1012
(g1013
(I0
tS'b'
tRp3940
(I1
(I1
tg17
I00
S'\x00\x00\x00\x00\x00\x00\x00\x00'
tbsg1458
g1012
(g1013
(I0
tS'b'
tRp3941
(I1
(I1
tg17
I00
S'\x00\x00\x00\x00\x00\x00\x00\x00'
tbsg1079
I01
sbsg8
Nsg1082
I01
sg1071
g1072
sg1074
Nsg796
g1
(g1112
g3
NtRp3942
(dp3943
g1089
g1433
sg1088
Nsg1115
g1116
sg1086
g1087
sg1092
Nsg1091
Nsbsaa(lp3944
g1239
a(dp3945
g1073
Nsg19
g1239
sg1075
g1
(g1076
g3
NtRp3946
(dp3947
g1080
g1243
sg1452
g1012
(g1013
(I0
tS'b'
tRp3948
(I1
(I1
tg17
I00
S'\x9a\x99\x99\x99\x99\x99\xc9?'
tbsg1454
g1012
(g1013
(I0
tS'b'
tRp3949
(I1
(I1
tg17
I00
S'\x00\x00\x00\x00\x00\x00\x14@'
tbsg1456
g1012
(g1013
(I0
tS'b'
tRp3950
(I1
(I1
tg17
I00
S'\x00\x00\x00\x00\x00\x00\x00\x00'
tbsg1458
g1012
(g1013
(I0
tS'b'
tRp3951
(I1
(I1
tg17
I00
S'\x00\x00\x00\x00\x00\x00\x00\x00'
tbsg1079
I01
sbsg8
Nsg1082
I01
sg1071
g1072
sg1074
Nsg796
g1
(g1112
g3
NtRp3952
(dp3953
g1089
g1433
sg1088
Nsg1115
g1136
sg1086
g1087
sg1092
Nsg1091
Nsbsaa(lp3954
g1247
a(dp3955
g1073
Nsg19
g1247
sg1075
g1
(g1076
g3
NtRp3956
(dp3957
g1080
g1251
sg1452
g1012
(g1013
(I0
tS'b'
tRp3958
(I1
(I1
tg17
I00
S'\x1a\xa4A\x1a\xa4A\x8a?'
tbsg1454
g1012
(g1013
(I0
tS'b'
tRp3959
(I1
(I1
tg17
I00
S'\x00\x00\x00\x00\x00\x80S@'
tbsg1456
g1012
(g1013
(I0
tS'b'
tRp3960
(I1
(I1
tg17
I00
S'\x00\x00\x00\x00\x00\x00\x00\x00'
tbsg1458
g1012
(g1013
(I0
tS'b'
tRp3961
(I1
(I1
tg17
I00
S'\x00\x00\x00\x00\x00\x00\x00\x00'
tbsg1079
I01
sbsg8
Nsg1082
I01
sg1071
g1072
sg1074
Nsg796
g1
(g1112
g3
NtRp3962
(dp3963
g1089
g1433
sg1088
Nsg1115
g1136
sg1086
g1087
sg1092
Nsg1091
Nsbsaa(lp3964
g1255
a(dp3965
g1073
Nsg19
g1255
sg1075
g1
(g1076
g3
NtRp3966
(dp3967
g1080
g1259
sg1452
g1012
(g1013
(I0
tS'b'
tRp3968
(I1
(I1
tg17
I00
S'ysB\x89\x06nq?'
tbsg1454
g1012
(g1013
(I0
tS'b'
tRp3969
(I1
(I1
tg17
I00
S'\x00\x00\x00\x00\x00`m@'
tbsg1456
g1012
(g1013
(I0
tS'b'
tRp3970
(I1
(I1
tg17
I00
S'\x00\x00\x00\x00\x00\x00\x00\x00'
tbsg1458
g1012
(g1013
(I0
tS'b'
tRp3971
(I1
(I1
tg17
I00
S'\x00\x00\x00\x00\x00\x00\x00\x00'
tbsg1079
I01
sbsg8
Nsg1082
I01
sg1071
g1072
sg1074
Nsg796
g1
(g1112
g3
NtRp3972
(dp3973
g1089
g1433
sg1088
Nsg1115
g1116
sg1086
g1087
sg1092
Nsg1091
Nsbsaa(lp3974
g1263
a(dp3975
g1073
Nsg19
g1263
sg1075
g1
(g1076
g3
NtRp3976
(dp3977
g1080
g1267
sg1452
g1012
(g1013
(I0
tS'b'
tRp3978
(I1
(I1
tg17
I00
S'\x00\x00\x00\x00\x00\x00\xf0?'
tbsg1454
g1012
(g1013
(I0
tS'b'
tRp3979
(I1
(I1
tg17
I00
S'\x00\x00\x00\x00\x00\x00\xf0?'
tbsg1456
g1012
(g1013
(I0
tS'b'
tRp3980
(I1
(I1
tg17
I00
S'\x00\x00\x00\x00\x00\x00\x00\x00'
tbsg1458
g1012
(g1013
(I0
tS'b'
tRp3981
(I1
(I1
tg17
I00
S'\x00\x00\x00\x00\x00\x00\x00\x00'
tbsg1079
I01
sbsg8
Nsg1082
I01
sg1071
g1072
sg1074
Nsg796
g1
(g1112
g3
NtRp3982
(dp3983
g1089
g1433
sg1088
Nsg1115
g1145
sg1086
g1087
sg1092
Nsg1091
Nsbsaa(lp3984
g1271
a(dp3985
g1073
Nsg19
g1271
sg1075
g1
(g1076
g3
NtRp3986
(dp3987
g1080
g1275
sg1452
g1012
(g1013
(I0
tS'b'
tRp3988
(I1
(I1
tg17
I00
S'\x9a\x99\x99\x99\x99\x99\x99?'
tbsg1454
g1012
(g1013
(I0
tS'b'
tRp3989
(I1
(I1
tg17
I00
S'\x00\x00\x00\x00\x00\x00D@'
tbsg1456
g1012
(g1013
(I0
tS'b'
tRp3990
(I1
(I1
tg17
I00
S'\x00\x00\x00\x00\x00\x00\x00\x00'
tbsg1458
g1012
(g1013
(I0
tS'b'
tRp3991
(I1
(I1
tg17
I00
S'\x00\x00\x00\x00\x00\x00\x00\x00'
tbsg1079
I01
sbsg8
Nsg1082
I01
sg1071
g1072
sg1074
Nsg796
g1
(g1112
g3
NtRp3992
(dp3993
g1089
g1433
sg1088
Nsg1115
g1116
sg1086
g1087
sg1092
Nsg1091
Nsbsaa(lp3994
g1279
a(dp3995
g1073
Nsg19
g1279
sg1075
g1
(g1076
g3
NtRp3996
(dp3997
g1080
g1283
sg1452
g1012
(g1013
(I0
tS'b'
tRp3998
(I1
(I1
tg17
I00
S'\xbdl@1\xb2\xe4\xf0>'
tbsg1454
g1012
(g1013
(I0
tS'b'
tRp3999
(I1
(I1
tg17
I00
S'\x02:m\xa0\xcbN\xee@'
tbsg1456
g1012
(g1013
(I0
tS'b'
tRp4000
(I1
(I1
tg17
I00
S'\x00\x00\x00\x00\x00\x00\x00\x00'
tbsg1458
g1012
(g1013
(I0
tS'b'
tRp4001
(I1
(I1
tg17
I00
S'\x00\x00\x00\x00\x00\x00\x00\x00'
tbsg1079
I01
sbsg8
Nsg1082
I01
sg1071
g1072
sg1074
Nsg796
g1
(g1112
g3
NtRp4002
(dp4003
g1089
g1433
sg1088
Nsg1115
g1136
sg1086
g1087
sg1092
Nsg1091
Nsbsaa(lp4004
g1287
a(dp4005
g1073
Nsg19
g1287
sg1075
g1
(g1076
g3
NtRp4006
(dp4007
g1080
g1291
sg1452
g1012
(g1013
(I0
tS'b'
tRp4008
(I1
(I1
tg17
I00
S'(\xaf\xa1\xbc\x86\xf2\xaa?'
tbsg1454
g1012
(g1013
(I0
tS'b'
tRp4009
(I1
(I1
tg17
I00
S'\x00\x00\x00\x00\x00\x003@'
tbsg1456
g1012
(g1013
(I0
tS'b'
tRp4010
(I1
(I1
tg17
I00
S'\x00\x00\x00\x00\x00\x00\x00\x00'
tbsg1458
g1012
(g1013
(I0
tS'b'
tRp4011
(I1
(I1
tg17
I00
S'\x00\x00\x00\x00\x00\x00\x00\x00'
tbsg1079
I01
sbsg8
Nsg1082
I01
sg1071
g1072
sg1074
Nsg796
g1
(g1112
g3
NtRp4012
(dp4013
g1089
g1433
sg1088
Nsg1115
g1116
sg1086
g1087
sg1092
Nsg1091
Nsbsaa(lp4014
g1295
a(dp4015
g1073
Nsg19
g1295
sg1075
g1
(g1076
g3
NtRp4016
(dp4017
g1080
g1299
sg1452
g1012
(g1013
(I0
tS'b'
tRp4018
(I1
(I1
tg17
I00
S'\xba0\x01C\xed\xb7\x8e?'
tbsg1454
g1012
(g1013
(I0
tS'b'
tRp4019
(I1
(I1
tg17
I00
S'{\x14\xaeG\xe1\xaaP@'
tbsg1456
g1012
(g1013
(I0
tS'b'
tRp4020
(I1
(I1
tg17
I00
S'\x00\x00\x00\x00\x00\x00\x00\x00'
tbsg1458
g1012
(g1013
(I0
tS'b'
tRp4021
(I1
(I1
tg17
I00
S'\x00\x00\x00\x00\x00\x00\x00\x00'
tbsg1079
I01
sbsg8
Nsg1082
I01
sg1071
g1072
sg1074
Nsg796
g1
(g1112
g3
NtRp4022
(dp4023
g1089
g1433
sg1088
Nsg1115
g1136
sg1086
g1087
sg1092
Nsg1091
Nsbsaa(lp4024
g1303
a(dp4025
g1073
Nsg19
g1303
sg1075
g1
(g1076
g3
NtRp4026
(dp4027
g1080
g1307
sg1452
g1012
(g1013
(I0
tS'b'
tRp4028
(I1
(I1
tg17
I00
S'\x18\x86a\x18\x86a\xa8?'
tbsg1454
g1012
(g1013
(I0
tS'b'
tRp4029
(I1
(I1
tg17
I00
S'\x00\x00\x00\x00\x00\x005@'
tbsg1456
g1012
(g1013
(I0
tS'b'
tRp4030
(I1
(I1
tg17
I00
S'\x00\x00\x00\x00\x00\x00\x00\x00'
tbsg1458
g1012
(g1013
(I0
tS'b'
tRp4031
(I1
(I1
tg17
I00
S'\x00\x00\x00\x00\x00\x00\x00\x00'
tbsg1079
I01
sbsg8
Nsg1082
I01
sg1071
g1072
sg1074
Nsg796
g1
(g1112
g3
NtRp4032
(dp4033
g1089
g1433
sg1088
Nsg1115
g1116
sg1086
g1087
sg1092
Nsg1091
Nsbsaa(lp4034
g1311
a(dp4035
g1073
Nsg19
g1311
sg1075
g1
(g1076
g3
NtRp4036
(dp4037
g1080
g1315
sg1452
g1012
(g1013
(I0
tS'b'
tRp4038
(I1
(I1
tg17
I00
S'\x00\x00\x00\x00\x00\x00\xf0?'
tbsg1454
g1012
(g1013
(I0
tS'b'
tRp4039
(I1
(I1
tg17
I00
S'\x00\x00\x00\x00\x00\x00\xf0?'
tbsg1456
g1012
(g1013
(I0
tS'b'
tRp4040
(I1
(I1
tg17
I00
S'\x00\x00\x00\x00\x00\x00\x00\x00'
tbsg1458
g1012
(g1013
(I0
tS'b'
tRp4041
(I1
(I1
tg17
I00
S'\x00\x00\x00\x00\x00\x00\x00\x00'
tbsg1079
I01
sbsg8
Nsg1082
I01
sg1071
g1072
sg1074
Nsg796
g1
(g1112
g3
NtRp4042
(dp4043
g1089
g1433
sg1088
Nsg1115
g1136
sg1086
g1087
sg1092
Nsg1091
Nsbsaa(lp4044
g1319
a(dp4045
g1073
Nsg19
g1319
sg1075
g1
(g1076
g3
NtRp4046
(dp4047
g1080
g1323
sg1452
g1012
(g1013
(I0
tS'b'
tRp4048
(I1
(I1
tg17
I00
S'\xdd\xcd \xb9\xba8+?'
tbsg1454
g1012
(g1013
(I0
tS'b'
tRp4049
(I1
(I1
tg17
I00
S'\x00\x00\x00\x00\x00\xcf\xb2@'
tbsg1456
g1012
(g1013
(I0
tS'b'
tRp4050
(I1
(I1
tg17
I00
S'\x00\x00\x00\x00\x00\x00\x00\x00'
tbsg1458
g1012
(g1013
(I0
tS'b'
tRp4051
(I1
(I1
tg17
I00
S'\x00\x00\x00\x00\x00\x00\x00\x00'
tbsg1079
I01
sbsg8
Nsg1082
I01
sg1071
g1072
sg1074
Nsg796
g1
(g1112
g3
NtRp4052
(dp4053
g1089
g1433
sg1088
Nsg1115
g1116
sg1086
g1087
sg1092
Nsg1091
Nsbsaa(lp4054
g1327
a(dp4055
g1073
Nsg19
g1327
sg1075
g1
(g1076
g3
NtRp4056
(dp4057
g1080
g1331
sg1452
g1012
(g1013
(I0
tS'b'
tRp4058
(I1
(I1
tg17
I00
S'\x11\x11\x11\x11\x11\x11\xa1?'
tbsg1454
g1012
(g1013
(I0
tS'b'
tRp4059
(I1
(I1
tg17
I00
S'\x00\x00\x00\x00\x00\x00>@'
tbsg1456
g1012
(g1013
(I0
tS'b'
tRp4060
(I1
(I1
tg17
I00
S'\x00\x00\x00\x00\x00\x00\x00\x00'
tbsg1458
g1012
(g1013
(I0
tS'b'
tRp4061
(I1
(I1
tg17
I00
S'\x00\x00\x00\x00\x00\x00\x00\x00'
tbsg1079
I01
sbsg8
Nsg1082
I01
sg1071
g1072
sg1074
Nsg796
g1
(g1112
g3
NtRp4062
(dp4063
g1089
g1433
sg1088
Nsg1115
g1116
sg1086
g1087
sg1092
Nsg1091
Nsbsaa(lp4064
g1335
a(dp4065
g1073
Nsg19
g1335
sg1075
g1
(g1076
g3
NtRp4066
(dp4067
g1080
g1339
sg1452
g1012
(g1013
(I0
tS'b'
tRp4068
(I1
(I1
tg17
I00
S'd!\x0bY\xc8B\x86?'
tbsg1454
g1012
(g1013
(I0
tS'b'
tRp4069
(I1
(I1
tg17
I00
S'\x00\x00\x00\x00\x00\x00W@'
tbsg1456
g1012
(g1013
(I0
tS'b'
tRp4070
(I1
(I1
tg17
I00
S'\x00\x00\x00\x00\x00\x00\x00\x00'
tbsg1458
g1012
(g1013
(I0
tS'b'
tRp4071
(I1
(I1
tg17
I00
S'\x00\x00\x00\x00\x00\x00\x00\x00'
tbsg1079
I01
sbsg8
Nsg1082
I01
sg1071
g1072
sg1074
Nsg796
g1
(g1112
g3
NtRp4072
(dp4073
g1089
g1433
sg1088
Nsg1115
g1116
sg1086
g1087
sg1092
Nsg1091
Nsbsaa(lp4074
g1343
a(dp4075
g1073
Nsg19
g1343
sg1075
g1
(g1076
g3
NtRp4076
(dp4077
g1080
g1347
sg1452
g1012
(g1013
(I0
tS'b'
tRp4078
(I1
(I1
tg17
I00
S'UUUUUU\xd5?'
tbsg1454
g1012
(g1013
(I0
tS'b'
tRp4079
(I1
(I1
tg17
I00
S'\x00\x00\x00\x00\x00\x00\x08@'
tbsg1456
g1012
(g1013
(I0
tS'b'
tRp4080
(I1
(I1
tg17
I00
S'\x00\x00\x00\x00\x00\x00\x00@'
tbsg1458
g1012
(g1013
(I0
tS'b'
tRp4081
(I1
(I1
tg17
I00
S'UUUUUU\xe5\xbf'
tbsg1079
I01
sbsg8
Nsg1082
I01
sg1071
g1072
sg1074
Nsg796
g1
(g1112
g3
NtRp4082
(dp4083
g1089
g1433
sg1088
Nsg1115
g1116
sg1086
g1087
sg1092
Nsg1091
Nsbsaa(lp4084
g1351
a(dp4085
g1073
Nsg19
g1351
sg1075
g1
(g1076
g3
NtRp4086
(dp4087
g1080
g1355
sg1452
g1012
(g1013
(I0
tS'b'
tRp4088
(I1
(I1
tg17
I00
S'H\x07\xde\xf3\x8dis?'
tbsg1454
g1012
(g1013
(I0
tS'b'
tRp4089
(I1
(I1
tg17
I00
S'\x00\x00\x00\x00\x00`j@'
tbsg1456
g1012
(g1013
(I0
tS'b'
tRp4090
(I1
(I1
tg17
I00
S'\x00\x00\x00\x00\x00\x00\x00\x00'
tbsg1458
g1012
(g1013
(I0
tS'b'
tRp4091
(I1
(I1
tg17
I00
S'\x00\x00\x00\x00\x00\x00\x00\x00'
tbsg1079
I01
sbsg8
Nsg1082
I01
sg1071
g1072
sg1074
Nsg796
g1
(g1112
g3
NtRp4092
(dp4093
g1089
g1433
sg1088
Nsg1115
g1116
sg1086
g1087
sg1092
Nsg1091
Nsbsaa(lp4094
g1359
a(dp4095
g1073
Nsg19
g1359
sg1075
Nsg8
Nsg1082
I01
sg1071
g1072
sg1074
Nsg796
g1438
saa(lp4096
g1362
a(dp4097
g1073
g1
(g1173
g3
NtRp4098
(dp4099
g1176
g1177
sg1180
Nsg1182
g1183
sg1184
g1185
sg1187
g1188
sg1190
g1366
sg1091
Nsg1186
F1
sg1192
I3
sg1049
Nsg1516
I00
sg1517
g1518
((lp4100
Vproducer
p4101
aVcowgirl
p4102
aVphoto
p4103
aVexcellent
p4104
aVyears
p4105
aVmanager
p4106
aVlailani
p4107
aVmanchester
p4108
aVhuman
p4109
aVror
p4110
aVstaff
p4111
aV25
p4112
aVautocad
p4113
aVoffice
p4114
aVfield
p4115
aVflash
p4116
aVjavaee
p4117
aVgigs
p4118
aVto
p4119
aVonly
p4120
aVpro
p4121
aVsugarcrm
p4122
aVresources
p4123
aV2012
p4124
aVcss3
p4125
aVdo
p4126
aVdesigns
p4127
aVgood
p4128
aV10
p4129
aVvery
p4130
aVdesigning
p4131
aVsilverlight
p4132
aVspecailist
p4133
aVqualified
p4134
aVeffects
p4135
aVandriod
p4136
aVpress
p4137
aVbanner
p4138
aVvoip
p4139
aVoutright
p4140
aViphone5
p4141
aVemail
p4142
aVqa
p4143
aVteam
p4144
aVtopsolid
p4145
aVapplication
p4146
aVadobe
p4147
aVwab
p4148
aVcreator
p4149
aVgeneration
p4150
aVecomm
p4151
aVlogo
p4152
aVprogrammer
p4153
aVproofreader
p4154
aVproject
p4155
aVwhat
p4156
aVcatia
p4157
aVnetwork
p4158
aVlead
p4159
aVassistance
p4160
aVminer
p4161
aVcreative
p4162
aVlooking
p4163
aVwide
p4164
aVinternet
p4165
aVprint
p4166
aVprof
p4167
aVnet
p4168
aVcontent
p4169
aVpublic
p4170
aV3d
p4171
aVasp
p4172
aVvedio
p4173
aVvisualization
p4174
aVzend
p4175
aVmarketing
p4176
aVjavascript
p4177
aVdrupal
p4178
aVjob
p4179
aVflyer
p4180
aVhtml5
p4181
aVcompetent
p4182
aVmodeling
p4183
aVteacher
p4184
aVcertified
p4185
aVtranslator
p4186
aVconvert
p4187
aVconnoisseur
p4188
aVtalented
p4189
aVenglish
p4190
aVcareer
p4191
aVsolidworks
p4192
aVcopywriter
p4193
aVprovider
p4194
aVexperience
p4195
aVbookkeeper
p4196
aVjoomla
p4197
aVcolumnist
p4198
aVproducts
p4199
aVadvertising
p4200
aVpublished
p4201
aVmixed
p4202
aVpdf
p4203
aVcad
p4204
aVpowerpoint
p4205
aVtypist
p4206
aVppc
p4207
aVdepalog
p4208
aVindustrial
p4209
aVblogger
p4210
aVapp
p4211
aVmba
p4212
aVrank
p4213
aVone
p4214
aVxero
p4215
aVarticle
p4216
aVapply
p4217
aVrep
p4218
aVquality
p4219
aVadmin
p4220
aVcloud
p4221
aVspecializing
p4222
aVmanagement
p4223
aVfrom
p4224
aVher
p4225
aVrecruiter
p4226
aVsupport
p4227
aVsystem
p4228
aVknockout
p4229
aVaccountant
p4230
aVpa
p4231
aVmusic
p4232
aViphone
p4233
aVdreamweaver
p4234
aVtyping
p4235
aVyrs
p4236
aVespecialist
p4237
aVlow
p4238
aVwebsite
p4239
aVposting
p4240
aVtester
p4241
aVposter
p4242
aVnobody
p4243
aVworker
p4244
aVaca
p4245
aVelse
p4246
aVnirvana
p4247
aVfreelancer
p4248
aVvisual
p4249
aVrepresentative
p4250
aVgraphics
p4251
aVkai
p4252
aVme
p4253
aVcommerce
p4254
aVaccount
p4255
aVillustrator
p4256
aVdhtml
p4257
aV4500hrsworked
p4258
aVup
p4259
aVwill
p4260
aVtechnical
p4261
aVcan
p4262
aVcam
p4263
aVmy
p4264
aVonlinecoupons
p4265
aVva
p4266
aVdedicated
p4267
aVprocessing
p4268
aVflex
p4269
aVsaasu
p4270
aVnavigate
p4271
aVis
p4272
aVam
p4273
aVit
p4274
aVlinkedin
p4275
aVan
p4276
aVhigh
p4277
aVmagento
p4278
aVat
p4279
aVchat
p4280
aVmvc
p4281
aVhonest
p4282
aVmint
p4283
aVhire
p4284
aVbrowser
p4285
aVrespective
p4286
aVquickbooks
p4287
aVauthor
p4288
aVmedia
p4289
aVveteran
p4290
aVseeking
p4291
aVwhen
p4292
aVcross
p4293
aVw4m
p4294
aVcraigslist
p4295
aVlamp
p4296
aVcomplex
p4297
aVbuild
p4298
aVonline
p4299
aVleader
p4300
aVxhtml
p4301
aVadministrator
p4302
aVprice
p4303
aVsocial
p4304
aVasterisk
p4305
aVtranscriber
p4306
aVcollection
p4307
aVsys
p4308
aVzohocrm
p4309
aVfb
p4310
aVodesk
p4311
aVstudent
p4312
aVwpf
p4313
aVencoder
p4314
aVsenior
p4315
aVbsc
p4316
aVdatabase
p4317
aVmobile
p4318
aVcpa
p4319
aVvariety
p4320
aVuploading
p4321
aVsale
p4322
aVhaving
p4323
aVevaluator
p4324
aVmarketer
p4325
aVclient
p4326
aVexp
p4327
aVmother
p4328
aVcs5
p4329
aVthe
p4330
aVnotch
p4331
aVphysics
p4332
aVmodeler
p4333
aVanimator
p4334
atRp4335
sg1189
I00
sg1178
I01
sg1179
Nsg1181
Nsg3683
(dp4336
Vresearch
p4337
g15
(g1015
S' \x00\x00\x00'
tRp4338
sVfreelance
p4339
g15
(g1015
S'\x14\x00\x00\x00'
tRp4340
sVwriter
p4341
g15
(g1015
S'/\x00\x00\x00'
tRp4342
sVcustomer
p4343
g15
(g1015
S'\x08\x00\x00\x00'
tRp4344
sVassistant
p4345
g15
(g1015
S'\x05\x00\x00\x00'
tRp4346
sVartist
p4347
g15
(g1015
S'\x04\x00\x00\x00'
tRp4348
sVskills
p4349
g15
(g1015
S'%\x00\x00\x00'
tRp4350
sVexcel
p4351
g15
(g1015
S'\x10\x00\x00\x00'
tRp4352
sVdesign
p4353
g15
(g1015
S'\n\x00\x00\x00'
tRp4354
sVseo
p4355
g15
(g1015
S'#\x00\x00\x00'
tRp4356
sVsem
p4357
g15
(g1015
S'"\x00\x00\x00'
tRp4358
sVbest
p4359
g15
(g1015
S'\x06\x00\x00\x00'
tRp4360
sVexpert
p4361
g15
(g1015
S'\x12\x00\x00\x00'
tRp4362
sVspecialist
p4363
g15
(g1015
S'(\x00\x00\x00'
tRp4364
sVms
p4365
g15
(g1015
S'\x1a\x00\x00\x00'
tRp4366
sVgraphic
p4367
g15
(g1015
S'\x16\x00\x00\x00'
tRp4368
sVword
p4369
g15
(g1015
S'-\x00\x00\x00'
tRp4370
sVin
p4371
g15
(g1015
S'\x18\x00\x00\x00'
tRp4372
sVhtml
p4373
g15
(g1015
S'\x17\x00\x00\x00'
tRp4374
sVcss
p4375
g15
(g1015
S'\x07\x00\x00\x00'
tRp4376
sVdesigner
p4377
g15
(g1015
S'\x0b\x00\x00\x00'
tRp4378
sVphp
p4379
g15
(g1015
S'\x1e\x00\x00\x00'
tRp4380
sVdata
p4381
g15
(g1015
S'\t\x00\x00\x00'
tRp4382
sVentry
p4383
g15
(g1015
S'\x0f\x00\x00\x00'
tRp4384
sVphotoshop
p4385
g15
(g1015
S'\x1d\x00\x00\x00'
tRp4386
sVtop
p4387
g15
(g1015
S')\x00\x00\x00'
tRp4388
sVmysql
p4389
g15
(g1015
S'\x1b\x00\x00\x00'
tRp4390
sVdeveloper
p4391
g15
(g1015
S'\x0c\x00\x00\x00'
tRp4392
sVweb
p4393
g15
(g1015
S'+\x00\x00\x00'
tRp4394
sVwriting
p4395
g15
(g1015
S'0\x00\x00\x00'
tRp4396
sVadministrative
p4397
g15
(g1015
S'\x00\x00\x00\x00'
tRp4398
sVgame
p4399
g15
(g1015
S'\x15\x00\x00\x00'
tRp4400
sVsmm
p4401
g15
(g1015
S'&\x00\x00\x00'
tRp4402
sVof
p4403
g15
(g1015
S'\x1c\x00\x00\x00'
tRp4404
sVsoftware
p4405
g15
(g1015
S"'\x00\x00\x00"
tRp4406
sVresearcher
p4407
g15
(g1015
S'!\x00\x00\x00'
tRp4408
sVengineer
p4409
g15
(g1015
S'\x0e\x00\x00\x00'
tRp4410
sVservice
p4411
g15
(g1015
S'$\x00\x00\x00'
tRp4412
sVwordpress
p4413
g15
(g1015
S'.\x00\x00\x00'
tRp4414
sVeditor
p4415
g15
(g1015
S'\r\x00\x00\x00'
tRp4416
sVwith
p4417
g15
(g1015
S',\x00\x00\x00'
tRp4418
sVanalyst
p4419
g15
(g1015
S'\x01\x00\x00\x00'
tRp4420
sVjquery
p4421
g15
(g1015
S'\x19\x00\x00\x00'
tRp4422
sVarchitect
p4423
g15
(g1015
S'\x03\x00\x00\x00'
tRp4424
sVand
p4425
g15
(g1015
S'\x02\x00\x00\x00'
tRp4426
sVvirtual
p4427
g15
(g1015
S'*\x00\x00\x00'
tRp4428
sVexperienced
p4429
g15
(g1015
S'\x11\x00\x00\x00'
tRp4430
sVfor
p4431
g15
(g1015
S'\x13\x00\x00\x00'
tRp4432
sVprofessional
p4433
g15
(g1015
S'\x1f\x00\x00\x00'
tRp4434
ssg1204
g1205
sg1193
g1194
sg1195
g1
(g1196
g3
NtRp4435
(dp4436
g1199
I01
sg1200
I01
sg1201
I00
sg1202
g1203
sg3897
g1
(g3898
g3
NtRp4437
(dp4438
g3901
g1012
(g1013
(I0
tS'b'
tRp4439
(I1
(I1
I49
tg17
I00
S'\x91\xe3s{B\xf7\x0f@\x9a\xc6\xf6\xfb \xe0\x10@\xe0r\xeb\xbf\x7f\xa8\t@\x9a\xc6\xf6\xfb \xe0\x10@\x9a\xc6\xf6\xfb \xe0\x10@\xb8\xfe.8\xb14\x0c@\x9a\xc6\xf6\xfb \xe0\x10@\xb8\xfe.8\xb14\x0c@\x9a\xc6\xf6\xfb \xe0\x10@\x9a\xc6\xf6\xfb \xe0\x04@\x9a\xc6\xf6\xfb \xe0\x10@\x16U\xb5\xbb\xb1k\n@\xda\x1d9L_R\x08@*\x9aUz\xdd\x81\x0e@\x91\xe3s{B\xf7\x0f@\xa4\x18\xff<\xe8\xb7\x05@\x91\xe3s{B\xf7\x0f@*\x9aUz\xdd\x81\x0e@\xe0r\xeb\xbf\x7f\xa8\t@\x9a\xc6\xf6\xfb \xe0\x10@\x9a\xc6\xf6\xfb \xe0\x10@\x9a\xc6\xf6\xfb \xe0\x10@\xff|Q *F\r@\xb8\xfe.8\xb14\x0c@\x9a\xc6\xf6\xfb \xe0\x10@\x9a\xc6\xf6\xfb \xe0\x10@*\x9aUz\xdd\x81\x0e@\x9a\xc6\xf6\xfb \xe0\x10@\x9a\xc6\xf6\xfb \xe0\x10@\x9a\xc6\xf6\xfb \xe0\x10@\xe0r\xeb\xbf\x7f\xa8\t@ \xa7\xbd\xfcxC\x0b@\xb8\xfe.8\xb14\x0c@\xe0r\xeb\xbf\x7f\xa8\t@\x9a\xc6\xf6\xfb \xe0\x10@\xb8\xfe.8\xb14\x0c@*\x9aUz\xdd\x81\x0e@\x9a\xc6\xf6\xfb \xe0\x10@\x9a\xc6\xf6\xfb \xe0\x10@*\x9aUz\xdd\x81\x0e@\x9a\xc6\xf6\xfb \xe0\x10@\x9a\xc6\xf6\xfb \xe0\x10@\xb8\xfe.8\xb14\x0c@\xa4\x18\xff<\xe8\xb7\x05@\x9a\xc6\xf6\xfb \xe0\x10@\x9a\xc6\xf6\xfb \xe0\x10@\xff|Q *F\r@\x16U\xb5\xbb\xb1k\n@\x9a\xc6\xf6\xfb \xe0\x10@'
tbsg3903
I50
sg3904
(I49
I49
tp4440
sg3906
g1012
(g1013
(I0
tS'b'
tRp4441
(I1
(I1
tg1015
I00
S'\x00\x00\x00\x00'
tbsg3908
S'dia'
p4442
sbsbsg1206
Nsbsg19
g1362
sg1075
g1
(g1076
g3
NtRp4443
(dp4444
g1079
I01
sg1080
g1372
sbsg8
Nsg1082
I01
sg1071
g1072
sg1074
g1369
sg796
g1
(g1112
g3
NtRp4445
(dp4446
g1089
g1433
sg1088
Nsg1115
g1213
sg1086
g1087
sg1092
Nsg1091
Nsbsaa(lp4447
g1376
a(dp4448
g1073
Nsg19
g1376
sg1075
g1
(g1076
g3
NtRp4449
(dp4450
g1080
g1380
sg1452
g1012
(g1013
(I0
tS'b'
tRp4451
(I1
(I1
tg17
I00
S'\x00\x00\x00\x00\x00\x00\xc0?'
tbsg1454
g1012
(g1013
(I0
tS'b'
tRp4452
(I1
(I1
tg17
I00
S'\x00\x00\x00\x00\x00\x00 @'
tbsg1456
g1012
(g1013
(I0
tS'b'
tRp4453
(I1
(I1
tg17
I00
S'\x00\x00\x00\x00\x00\x00\x00\x00'
tbsg1458
g1012
(g1013
(I0
tS'b'
tRp4454
(I1
(I1
tg17
I00
S'\x00\x00\x00\x00\x00\x00\x00\x00'
tbsg1079
I01
sbsg8
Nsg1082
I01
sg1071
g1072
sg1074
Nsg796
g1
(g1112
g3
NtRp4455
(dp4456
g1089
g1433
sg1088
Nsg1115
g1116
sg1086
g1087
sg1092
Nsg1091
Nsbsaa(lp4457
g1384
a(dp4458
g1073
Nsg19
g1384
sg1075
g1
(g1076
g3
NtRp4459
(dp4460
g1080
g1388
sg1452
g1012
(g1013
(I0
tS'b'
tRp4461
(I1
(I1
tg17
I00
S'\x1e\x1e\x1e\x1e\x1e\x1e\x9e?'
tbsg1454
g1012
(g1013
(I0
tS'b'
tRp4462
(I1
(I1
tg17
I00
S'\x00\x00\x00\x00\x00\x00A@'
tbsg1456
g1012
(g1013
(I0
tS'b'
tRp4463
(I1
(I1
tg17
I00
S'\x00\x00\x00\x00\x00\x00\x00\x00'
tbsg1458
g1012
(g1013
(I0
tS'b'
tRp4464
(I1
(I1
tg17
I00
S'\x00\x00\x00\x00\x00\x00\x00\x00'
tbsg1079
I01
sbsg8
Nsg1082
I01
sg1071
g1072
sg1074
Nsg796
g1
(g1112
g3
NtRp4465
(dp4466
g1089
g1433
sg1088
Nsg1115
g1116
sg1086
g1087
sg1092
Nsg1091
Nsbsaa(lp4467
g753
a(dp4468
g1073
Nsg19
g753
sg1075
g1
(g1076
g3
NtRp4469
(dp4470
g1080
g1395
sg1452
g1012
(g1013
(I0
tS'b'
tRp4471
(I1
(I1
tg17
I00
S'\xa50\x06{\xfcb\xb6>'
tbsg1454
g1012
(g1013
(I0
tS'b'
tRp4472
(I1
(I1
tg17
I00
S'\x00\x00\x00\x00\xea\xde&A'
tbsg1456
g1012
(g1013
(I0
tS'b'
tRp4473
(I1
(I1
tg17
I00
S'\x00\x00\x00\xa8\x17\xfb\xa7A'
tbsg1458
g1012
(g1013
(I0
tS'b'
tRp4474
(I1
(I1
tg17
I00
S'v\x91~q\xce\xc6p\xc0'
tbsg1079
I01
sbsg8
Nsg1082
I01
sg1071
g1072
sg1074
Nsg796
g1
(g1112
g3
NtRp4475
(dp4476
g1089
g1433
sg1088
Nsg1115
g1116
sg1086
g1087
sg1092
Nsg1091
Nsbsaa(lp4477
g1399
a(dp4478
g1073
Nsg19
g1399
sg1075
g1
(g1076
g3
NtRp4479
(dp4480
g1080
g1403
sg1452
g1012
(g1013
(I0
tS'b'
tRp4481
(I1
(I1
tg17
I00
S'\xb8\xf3\xdaoq\x11%>'
tbsg1454
g1012
(g1013
(I0
tS'b'
tRp4482
(I1
(I1
tg17
I00
S'\x00\x00\x00\x80VM\xb8A'
tbsg1456
g1012
(g1013
(I0
tS'b'
tRp4483
(I1
(I1
tg17
I00
S'\x00\x00\x00\xc0\xa16\xccA'
tbsg1458
g1012
(g1013
(I0
tS'b'
tRp4484
(I1
(I1
tg17
I00
S'!\xbaw/;\x93\x02\xc0'
tbsg1079
I01
sbsg8
I946684800
sg1082
I01
sg1071
g1072
sg1074
Nsg796
g1
(g1404
g3
NtRp4485
(dp4486
g1086
g1087
sg1089
g1433
sg1091
Nsg1088
I946684800
sg1092
(dp4487
g1408
g1409
ssbsaatRp4488
ssb.