ccopy_reg
_reconstructor
p1
(ccore.trainer.store
TrainerStorage
p2
c__builtin__
object
p3
NtRp4
(dp5
S'visualization'
p6
(dp7
S'default'
p8
(dp9
S'weights'
p10
(dp11
I1
(dp12
S'positive'
p13
(lp14
(dp15
S'feature_weight'
p16
cnumpy.core.multiarray
scalar
p17
(cnumpy
dtype
p18
(S'f8'
I0
I1
tRp19
(I3
S'<'
NNNI-1
I-1
I0
tbS'.\xbeE\x85\x06\xea\xe2?'
tRp20
sS'name'
p21
Vtsexams->oDesk Readiness Test for Agency Contractors
p22
sS'weight'
p23
g17
(g19
S'\xd5Y\x07\xe8\xca5\xe8?'
tRp24
sa(dp25
g16
g17
(g19
S'\xc6 \x17\xfb\xc6\xcc\xb2?'
tRp26
sg21
Vtsexams->iPhone Programming OS 4.0 Test
p27
sg23
g17
(g19
S'Y \t\x04\xf0\xef\xd4?'
tRp28
sa(dp29
g16
g17
(g19
S"\x87\xad'W\xdb^~?"
tRp30
sg21
Vtsexams->iPhone Programming OS 2.1 Test
p31
sg23
g17
(g19
S'\xed\xb0zk\xeb8\xc6?'
tRp32
sa(dp33
g16
g17
(g19
S'\x93-\xc0\xde\xf1Iw?'
tRp34
sg21
Vtsexams->Wordpress Test
p35
sg23
g17
(g19
S'\xaeA\x11eh\xd7\xa8?'
tRp36
sa(dp37
g16
g17
(g19
S'9d\x84\xb7\xf66s?'
tRp38
sg21
Vtsexams->UK English Grammar Test (For Writing Professionals)
p39
sg23
g17
(g19
S'Y\x10\xf3\xf2\xa2\x8f\xbd?'
tRp40
sa(dp41
g16
g17
(g19
S'*B\xd5\xc1j\xc5\xc4?'
tRp42
sg21
Vtsexams->U.S. Word Usage Test
p43
sg23
g17
(g19
S'q\x01\xc6\xec\xa8*\xeb?'
tRp44
sa(dp45
g16
g17
(g19
S'57\xde\xf3\xc8\x01\x90?'
tRp46
sg21
Vtsexams->U.S. English Sentence Structure Test (For Writing Professionals)
p47
sg23
g17
(g19
S'\xa5^X4\xc6p\xcb?'
tRp48
sa(dp49
g16
g17
(g19
S'\xeaI\x12g\x155m?'
tRp50
sg21
Vtsexams->U.S. English Chicago Style Editing Skills Test (For Writing Professionals)
p51
sg23
g17
(g19
S'\xde\xe6\xd3<m\xc5\xb9?'
tRp52
sa(dp53
g16
g17
(g19
S'\x86\x81\xd3\n)J\xd5?'
tRp54
sg21
Vtsexams->U.S. English Basic Skills Test
p55
sg23
g17
(g19
S'\xe8\xf5\xf8:0G\xcb?'
tRp56
sa(dp57
g16
g17
(g19
S'{x\xc0\x89\x0bv\xc1?'
tRp58
sg21
Vtsexams->Telephone Etiquette Certification
p59
sg23
g17
(g19
S'\xa6\xf7\x9c|\xb7f\xd3?'
tRp60
sa(dp61
g16
g17
(g19
S'\xac\xa1\x03!L\x97\x8a?'
tRp62
sg21
Vtsexams->Spanish To English Translation Skills Test
p63
sg23
g17
(g19
S'\x8a\xb4\xcf\x80\xd6E\xd5?'
tRp64
sa(dp65
g16
g17
(g19
S'\x0f\x19`\x8d\xfb\xb9\xa4?'
tRp66
sg21
Vtsexams->Software Testing Test
p67
sg23
g17
(g19
S'\x88@\xf5\x1e\xea\x13\xe5?'
tRp68
sa(dp69
g16
g17
(g19
S'ps3\xff\x8a#f?'
tRp70
sg21
Vtsexams->Slideshow Product Test
p71
sg23
g17
(g19
S'\xba\xbd=2\r\x91\xaa?'
tRp72
sa(dp73
g16
g17
(g19
S'n\xb9l\xc1\r\x7fw?'
tRp74
sg21
Vtsexams->Search Engine Optimization Test
p75
sg23
g17
(g19
S'\x95sz\x03L\xf8\x96?'
tRp76
sa(dp77
g16
g17
(g19
S"\xc5'\x12%\x9a]\x8e?"
tRp78
sg21
Vtsexams->SQL Test
p79
sg23
g17
(g19
S'\x85\xfd\xeah\x16\x07\xda?'
tRp80
sa(dp81
g16
g17
(g19
S'\x8c\xa9\rPEkf?'
tRp82
sg21
Vtsexams->Resume Writing Skills Test
p83
sg23
g17
(g19
S'\x95\xd7\xbd\xd3\xc9\xb1\xa4?'
tRp84
sa(dp85
g16
g17
(g19
S'\xd6Fpg\x10\x83}?'
tRp86
sg21
Vtsexams->Report Writing Test
p87
sg23
g17
(g19
S'\xca\xed6\xd9\xb0\x06\xd1?'
tRp88
sa(dp89
g16
g17
(g19
S'\xcc]\r\xfd\xfdj$?'
tRp90
sg21
Vtsexams->Quick Books Pro 2008 Test
p91
sg23
g17
(g19
S'<\t\xe0Y,Fv?'
tRp92
sa(dp93
g16
g17
(g19
S'WX?\xa6\x8e7\x84?'
tRp94
sg21
Vtsexams->Python 2.x Test
p95
sg23
g17
(g19
S'WX?\xa6\x8e7\xd4?'
tRp96
sa(dp97
g16
g17
(g19
S'Uw\xa3\xa2e\xaa\x90?'
tRp98
sg21
Vtsexams->Principles of  Web Graphics Design Test
p99
sg23
g17
(g19
S'o\x83\xaa\xcd\xd2\x91\xdc?'
tRp100
sa(dp101
g16
g17
(g19
S'C\xc9\xd9b\xe5\xdev?'
tRp102
sg21
Vtsexams->PC Graphics Test
p103
sg23
g17
(g19
S'\xc9\xfc\xc5\xfc\xa1\xca\xb4?'
tRp104
sa(dp105
g16
g17
(g19
S'\xdeI~~8K\x88?'
tRp106
sg21
Vtsexams->Online Article Writing and Blogging Test (U.S. Version)
p107
sg23
g17
(g19
S'L_`3\x8co\xa5?'
tRp108
sa(dp109
g16
g17
(g19
S'\x94\xa2\xa4n0\xb4\xa7?'
tRp110
sg21
Vtsexams->Networking Concepts Test
p111
sg23
g17
(g19
S'\xf7^\x03\x7f:=\xe1?'
tRp112
sa(dp113
g16
g17
(g19
S'\x1a&\x01O\xb3\x17\xab?'
tRp114
sg21
Vtsexams->MySQL 5.0 Test
p115
sg23
g17
(g19
S'\xed\x9e\x13\x94\xf9\xa4\xd7?'
tRp116
sa(dp117
g16
g17
(g19
S';h\x85\\\xa0MV?'
tRp118
sg21
Vtsexams->Microsoft Excel 2010 Test
p119
sg23
g17
(g19
S';h\x85\\\xa0M\xa6?'
tRp120
sa(dp121
g16
g17
(g19
S'\xcc\x19-\x11\xed\xe2Q?'
tRp122
sg21
Vtsexams->Medical Billing Certification
p123
sg23
g17
(g19
S'\\\x85\x9c\x14\xb6v\xa5?'
tRp124
sa(dp125
g16
g17
(g19
S'\xaf_\x92\xb8\xf6?\xad?'
tRp126
sg21
Vtsexams->MS Word 2007 Test
p127
sg23
g17
(g19
S'\x13\xcb\xdf\x18\x9f\xa5\xd4?'
tRp128
sa(dp129
g16
g17
(g19
S'\xbd\x1e\xd9>g\xca\xaf?'
tRp130
sg21
Vtsexams->MS Excel 2007 Test
p131
sg23
g17
(g19
S'\x84y\xaf\x8c\xbf\xfa\xd2?'
tRp132
sa(dp133
g16
g17
(g19
S'\xbf\x9f\t\x94\x10\xce\xb2?'
tRp134
sg21
Vtsexams->Joomla 1.5 Test
p135
sg23
g17
(g19
S'R\xb4?\xb8\xd9\xe8\xd6?'
tRp136
sa(dp137
g16
g17
(g19
S'>%U\xfb\xd3\xeb\x98?'
tRp138
sg21
Vtsexams->JavaScript 1.8 Test
p139
sg23
g17
(g19
S'\xa1\xf3\xb8\x1av\xd0\xcf?'
tRp140
sa(dp141
g16
g17
(g19
S'b-\xc7\xb2]v\x86?'
tRp142
sg21
Vtsexams->Internet Marketing Test
p143
sg23
g17
(g19
S'b-\xc7\xb2]v\xd6?'
tRp144
sa(dp145
g16
g17
(g19
S'X\xce\x8f\xd4\xd4\x1e\x89?'
tRp146
sg21
Vtsexams->Hospitality Terminology Test
p147
sg23
g17
(g19
S';4\xb5\x8d8\xbf\xd0?'
tRp148
sa(dp149
g16
g17
(g19
S'\x93\xb2\x1c\x9f\xe7\xdf\x82?'
tRp150
sg21
Vtsexams->Help Desk Certification
p151
sg23
g17
(g19
S'D\x9469+\x97\xd4?'
tRp152
sa(dp153
g16
g17
(g19
S'5L{K,W\xac?'
tRp154
sg21
Vtsexams->Google Android Programming Test
p155
sg23
g17
(g19
S'\xb9v\x8f\xdb\xb9/\xd2?'
tRp156
sa(dp157
g16
g17
(g19
S'\x1c)\xcbm\xfb}\x95?'
tRp158
sg21
Vtsexams->Google AdWords Test
p159
sg23
g17
(g19
S'\x1dT`H\xac\x12\xdf?'
tRp160
sa(dp161
g16
g17
(g19
S'ps3\xff\x8a#f?'
tRp162
sg21
Vtsexams->Gmail Product Test
p163
sg23
g17
(g19
S'\xba\xbd=2\r\x91\xaa?'
tRp164
sa(dp165
g16
g17
(g19
S'>\xae{(\x1fV;?'
tRp166
sg21
Vtsexams->Generally Accepted Accounting Principles (GAAP) Test
p167
sg23
g17
(g19
S'\xd4\x1e\xfd\x1aj9\x82?'
tRp168
sa(dp169
g16
g17
(g19
S'\xf2\x84g\xa7\xe6\xdb\x85?'
tRp170
sg21
Vtsexams->French To English Translation Skills Test
p171
sg23
g17
(g19
S'?fjH\x8fI\xd3?'
tRp172
sa(dp173
g16
g17
(g19
S'i\xcc\x91Kb\xda\x84?'
tRp174
sg21
Vtsexams->English Vocabulary Test (UK Version)
p175
sg23
g17
(g19
S'\x82\xb4w\xebD\x84\xce?'
tRp176
sa(dp177
g16
g17
(g19
S'\x1eb\x1e\xff\xf4\x9d\xb4?'
tRp178
sg21
Vtsexams->English To Tagalog (Filipino) Translation Skills Test
p179
sg23
g17
(g19
S'a\x19\xc3\nF+\xcf?'
tRp180
sa(dp181
g16
g17
(g19
S'\xb6xv:-\xca\x9b?'
tRp182
sg21
Vtsexams->English To Russian Translation Skills Test
p183
sg23
g17
(g19
S'\xa1\x1c3\x81RG\xd1?'
tRp184
sa(dp185
g16
g17
(g19
S'\xd7\xaa\x919\x13\xe4\xcf?'
tRp186
sg21
Vtsexams->Customer Service Test
p187
sg23
g17
(g19
S'|G\xa7\xfa*;\xe5?'
tRp188
sa(dp189
g16
g17
(g19
S'6~\x89\xf0\xe6\xf7c?'
tRp190
sg21
Vtsexams->Content Writing Skills Test
p191
sg23
g17
(g19
S'\xbc\x96u\x1a\x0b\xf3\xaf?'
tRp192
sa(dp193
g16
g17
(g19
S'\xb6\xe1\xa6u\xcd=N?'
tRp194
sg21
Vtsexams->Cocoa programming for Mac OS X 10.5 Test
p195
sg23
g17
(g19
S'U\xf1\xf1W1c\x84?'
tRp196
sa(dp197
g16
g17
(g19
S'\x88[Y\xd95\xa1\xb6?'
tRp198
sg21
Vtsexams->Call Center Skills Test
p199
sg23
g17
(g19
S'\x16\x11#%\xe2o\xcd?'
tRp200
sa(dp201
g16
g17
(g19
S'\xa1\xc3?\x9a\xab\x04\x81?'
tRp202
sg21
Vtsexams->Business Mathematics Test
p203
sg23
g17
(g19
S'\xa1\xc3?\x9a\xab\x04\xd1?'
tRp204
sa(dp205
g16
g17
(g19
S'\x96\xeb\xdb\xb4\xfb\xda\xa3?'
tRp206
sg21
Vtsexams->Book keeping Test
p207
sg23
g17
(g19
S'\xd2\x9b\xa0\x91z\xc7\xd0?'
tRp208
sa(dp209
g16
g17
(g19
S'\x83\x04!\x851\xad\x7f?'
tRp210
sg21
Vtsexams->AutoCad 2007 Test
p211
sg23
g17
(g19
S'\xb0\xb8\xb3\xb1+\xf3\xcb?'
tRp212
sa(dp213
g16
g17
(g19
S'\x88`;\xf0\xe6\xcc\xa0?'
tRp214
sg21
Vtsexams->Adobe Illustrator CS3 Test
p215
sg23
g17
(g19
S'8\xf6b\x90+\x00\xec?'
tRp216
sa(dp217
g16
g17
(g19
S'\x82\xa1\\\x91\xfcT\x8c?'
tRp218
sg21
Vtsexams->Adobe Flex 3.0 Test
p219
sg23
g17
(g19
S'\x02N}\xa7c\xaa\xd6?'
tRp220
sa(dp221
g16
g17
(g19
S'G\xbc\xf2\x8f\xbbPg?'
tRp222
sg21
Vtsexams->Accounts Receivable Test
p223
sg23
g17
(g19
S'\xf3\xe7c\xbd\xfba\xa6?'
tRp224
sa(dp225
g16
g17
(g19
S'\xa9\xee\r9H\tF?'
tRp226
sg21
Vtsexams->Accounting Skills Test (Cash Flow)
p227
sg23
g17
(g19
S'\x1a\xe4-5\x03\xde\x81?'
tRp228
sa(dp229
g16
g17
(g19
S'm\x9d\xd8\x9f\x87\xceD?'
tRp230
sg21
Vtsexams->Accounting Skills Test (Assets and Revenue)
p231
sg23
g17
(g19
S'\xa9\x11@\xf3J\x95\x81?'
tRp232
sa(dp233
g16
g17
(g19
S'\x063\x9d\xa1\x15\xd9\x8e?'
tRp234
sg21
Vtsexams->Accounting Principles Test
p235
sg23
g17
(g19
S'\xedj\xcf\x8cUo\xc6?'
tRp236
sa(dp237
g16
g17
(g19
S'\xb2L\x1e\x882\xb3\x90?'
tRp238
sg21
Vtsexams->3ds Max 7.0 Test
p239
sg23
g17
(g19
S'\x144\xce\x02\xeaC\xcb?'
tRp240
sa(dp241
g16
g17
(g19
S'\xa6\xd9\x18\xc2\xd7\n\x99?'
tRp242
sg21
Vemployer->op_tot_jobs_filled
p243
sg23
g17
(g19
S'\x82t\x16\x931\x9b\xdb?'
tRp244
sa(dp245
g16
g17
(g19
S'\x00\xec\x87\x9c\x92XP?'
tRp246
sg21
Vcountry_pair->united states,ukraine
p247
sg23
g17
(g19
S'\x00\xec\x87\x9c\x92X\xa0?'
tRp248
sa(dp249
g16
g17
(g19
S'\xf8\xdf\xf7\xe8\x10@k?'
tRp250
sg21
Vcountry_pair->united states,pakistan
p251
sg23
g17
(g19
S'\xfa\xe7\xb9\xae\x0cp\xc4?'
tRp252
sa(dp253
g16
g17
(g19
S' \xd4T\xa1R\x9eG?'
tRp254
sg21
Vcountry_pair->united states,nepal
p255
sg23
g17
(g19
S'\x18\x9f\xff\xf8\xbd\xb6\xb1?'
tRp256
sa(dp257
g16
g17
(g19
S'\xf4\x9c"\xf1Q\x97_?'
tRp258
sg21
Vcountry_pair->united states,morocco
p259
sg23
g17
(g19
S'\xb7\xf5\xd9t}\xb1\xb7?'
tRp260
sa(dp261
g16
g17
(g19
S'\xa5;\\D\xd5\xe8\\?'
tRp262
sg21
Vcountry_pair->united states,kenya
p263
sg23
g17
(g19
S'\xbc,E\xf3\x9f\xae\xc5?'
tRp264
sa(dp265
g16
g17
(g19
S'\xd1\x02:\xfe\x06\x8dh?'
tRp266
sg21
Vcountry_pair->united states,india
p267
sg23
g17
(g19
S'\xd1\x02:\xfe\x06\x8d\xa8?'
tRp268
sa(dp269
g16
g17
(g19
S'\x8a\x15\xd4\xed(-T?'
tRp270
sg21
Vcountry_pair->united arab emirates,united states
p271
sg23
g17
(g19
S'\x8a\x15\xd4\xed(-\xa4?'
tRp272
sa(dp273
g16
g17
(g19
S'\xb8U\x15\xf2\x11\xf7w?'
tRp274
sg21
Vcountry_pair->united arab emirates,india
p275
sg23
g17
(g19
S'J\x00\x90uM\xf9\xd1?'
tRp276
sa(dp277
g16
g17
(g19
S'\xae\x8e\xd6>a\xabJ?'
tRp278
sg21
Vcountry_pair->sri lanka,bangladesh
p279
sg23
g17
(g19
S'\x03\xeb \xef\x88\x00\xb4?'
tRp280
sa(dp281
g16
g17
(g19
S'\x85|\xa6\xd9o\xc4U?'
tRp282
sg21
Vcountry_pair->portugal,argentina
p283
sg23
g17
(g19
S'd\xdd<\xe3SS\xc0?'
tRp284
sa(dp285
g16
g17
(g19
S'*\xe2dOa\x99\xf5>'
tRp286
sg21
Vcountry_pair->new zealand,philippines
p287
sg23
g17
(g19
S'\xa0\xa9\x8b\xfb\x083`?'
tRp288
sa(dp289
g16
g17
(g19
S'!n\xfc:\x94\xde/?'
tRp290
sg21
Vcountry_pair->germany,india
p291
sg23
g17
(g19
S'\x99R=,\xef\xe6\x97?'
tRp292
sa(dp293
g16
g17
(g19
S'\xa1Ye7\xba\xb1o?'
tRp294
sg21
Vcountry_pair->egypt,india
p295
sg23
g17
(g19
S'9\x03\x8c\xa9K\xc5\xd7?'
tRp296
sa(dp297
g16
g17
(g19
S'\nu\xdbytV\x1c?'
tRp298
sg21
Vcountry_pair->croatia,pakistan
p299
sg23
g17
(g19
S'\xc8\x97d[\xd7@\x85?'
tRp300
sa(dp301
g16
g17
(g19
S'ggt\xfc\xc7\x89\x93?'
tRp302
sg21
Vcountry_pair->canada,philippines
p303
sg23
g17
(g19
S'ggt\xfc\xc7\x89\xd3?'
tRp304
sa(dp305
g16
g17
(g19
S'\xa2\x15\xaa\xcc~\xf8Q?'
tRp306
sg21
Vcountry_pair->bangladesh,philippines
p307
sg23
g17
(g19
S't \xff2\xbe\xf4\xba?'
tRp308
sa(dp309
g16
g17
(g19
S'\xc2\x10\xb7\x94\xa5d3?'
tRp310
sg21
Vcountry_pair->bangladesh,bangladesh
p311
sg23
g17
(g19
S'#\x99\x12_\xf8\x16\x9d?'
tRp312
sa(dp313
g16
g17
(g19
S'o0\x87\x9cn\x1ba?'
tRp314
sg21
Vcountry_pair->australia,pakistan
p315
sg23
g17
(g19
S'\xa7\xc8\xca\xea%\xa9\xb9?'
tRp316
sa(dp317
g16
g17
(g19
S'\xd1\xc7\x963\xcbc\x92?'
tRp318
sg21
Vcontractor->dev_year_exp
p319
sg23
g17
(g19
S'\x99\x0e\x0c\x83D7\xb6?'
tRp320
sa(dp321
g16
g17
(g19
S'2\xa9Z\x8aa]r?'
tRp322
sg21
Vcontractor->dev_total_hourly_jobs
p323
sg23
g17
(g19
S'T\xa8*\xaa5b\x9d?'
tRp324
sa(dp325
g16
g17
(g19
S'{\x7f\xc0\xb4\xb0F\x95?'
tRp326
sg21
Vcontractor->dev_tot_feedback_recent
p327
sg23
g17
(g19
S'>C\xf4\x04G\xa2\xc9?'
tRp328
sa(dp329
g16
g17
(g19
S'\xf8O\xf0\xf7\xcfE\x8b?'
tRp330
sg21
Vcontractor->dev_tot_feedback
p331
sg23
g17
(g19
S's1\xf2\xc0\x8e\xb2\xc7?'
tRp332
sa(dp333
g16
g17
(g19
S"\xc0A\x9b\xffu'\xd0?"
tRp334
sg21
Vcontractor->dev_timezone
p335
sg23
g17
(g19
S'\x88Y@\x15D\xff\xa5?'
tRp336
sa(dp337
g16
g17
(g19
S"\x96\xae!\x0b'\xbbc?"
tRp338
sg21
Vcontractor->dev_test_passed_count
p339
sg23
g17
(g19
S'\xba\x8agu\x82\x9f\x85?'
tRp340
sa(dp341
g16
g17
(g19
S'a\xdb\xb7\xfd\xca:f?'
tRp342
sg21
Vcontractor->dev_skill_test_passed_count
p343
sg23
g17
(g19
S'\xc4qC}I\xbd\x87?'
tRp344
sa(dp345
g16
g17
(g19
S'\x19}\xd8~D\x1f\xb8?'
tRp346
sg21
Vcontractor->dev_recent_rank_percentile
p347
sg23
g17
(g19
S'\xdc"\x9aAi\xc5\xce?'
tRp348
sa(dp349
g16
g17
(g19
S'aR\x17\xeb\xa7\xb06?'
tRp350
sg21
Vcontractor->dev_recent_hours
p351
sg23
g17
(g19
S'D\xdd\xbd^U\xe3\x82?'
tRp352
sa(dp353
g16
g17
(g19
S'\xe4>\xe6\x00\x0b\x92}?'
tRp354
sg21
Vcontractor->dev_recent_fp_jobs
p355
sg23
g17
(g19
S'!\xdd\xae\xbcl\x9a\xbc?'
tRp356
sa(dp357
g16
g17
(g19
S'\x8b\xdb\xa5D\xd9?\xae?'
tRp358
sg21
Vcontractor->dev_rank_percentile
p359
sg23
g17
(g19
S'\xb2\x0b\x95\xb6*\xf8\xc0?'
tRp360
sa(dp361
g16
g17
(g19
S'\xa2\x03Xzl\xb1p?'
tRp362
sg21
Vcontractor->dev_profile_title->writer
p363
sg23
g17
(g19
S'\xe4h\xcb\xbcC!\xb6?'
tRp364
sa(dp365
g16
g17
(g19
S'EJd\x1c\x97\x03G?'
tRp366
sg21
Vcontractor->dev_profile_title->virtual
p367
sg23
g17
(g19
S'D\x94\xbf\x80\xf6\xfd\x95?'
tRp368
sa(dp369
g16
g17
(g19
S'}\x80_8\xec\x85e?'
tRp370
sg21
Vcontractor->dev_profile_title->top
p371
sg23
g17
(g19
S'q\x05\xe8\xf4\x9c\xc7\xc3?'
tRp372
sa(dp373
g16
g17
(g19
S'\xa6\x8d\x8a\x95wn\x90?'
tRp374
sg21
Vcontractor->dev_profile_title->software
p375
sg23
g17
(g19
S"m\xb4\xb7V'D\xdc?"
tRp376
sa(dp377
g16
g17
(g19
S'\xc6\xe2\xf5a\xf0MY?'
tRp378
sg21
Vcontractor->dev_profile_title->smm
p379
sg23
g17
(g19
S'\x1c\xd7X\roO\xb9?'
tRp380
sa(dp381
g16
g17
(g19
S'\x16\xf3\x8b\xa6E\x12A?'
tRp382
sg21
Vcontractor->dev_profile_title->seo
p383
sg23
g17
(g19
S'x\x12\xa4v\x05u\x90?'
tRp384
sa(dp385
g16
g17
(g19
S'\x8e\xfb\x05\xe6\xe2\x1bb?'
tRp386
sg21
Vcontractor->dev_profile_title->sem
p387
sg23
g17
(g19
S'\x1c_\x9d\x0b\xd9/\xc1?'
tRp388
sa(dp389
g16
g17
(g19
S"\x12v'\xed\xa8\xec\x91?"
tRp390
sg21
Vcontractor->dev_profile_title->researcher
p391
sg23
g17
(g19
S'\xbc\xc8}\xaai8\xd5?'
tRp392
sa(dp393
g16
g17
(g19
S'c\xd7\xf7/T\xa4\x86?'
tRp394
sg21
Vcontractor->dev_profile_title->professional
p395
sg23
g17
(g19
S'\r\x93$\x89\xd9L\xd0?'
tRp396
sa(dp397
g16
g17
(g19
S'[\xc1\xdf(\xdc\xc2K?'
tRp398
sg21
Vcontractor->dev_profile_title->of
p399
sg23
g17
(g19
S'\xc7^\x15\xea\x86\xe7\xa6?'
tRp400
sa(dp401
g16
g17
(g19
S'\xa4\x18\xafh\xe3\x90i?'
tRp402
sg21
Vcontractor->dev_profile_title->ms
p403
sg23
g17
(g19
S'\x8e\x9a\x0e\xe8\xa2"\xbf?'
tRp404
sa(dp405
g16
g17
(g19
S'\x19\xc8\xa4\xc4\xa6\xa4\x8c?'
tRp406
sg21
Vcontractor->dev_profile_title->graphic
p407
sg23
g17
(g19
S'\x99\x89\xad^k\x03\xdb?'
tRp408
sa(dp409
g16
g17
(g19
S'\xdaTK6\xc7?H?'
tRp410
sg21
Vcontractor->dev_profile_title->for
p411
sg23
g17
(g19
S'\xa7P\x846\xc8\xba\xa3?'
tRp412
sa(dp413
g16
g17
(g19
S'\xe6\xff\x8b\x89\xc3\x0ez?'
tRp414
sg21
Vcontractor->dev_profile_title->experienced
p415
sg23
g17
(g19
S'|\x86\xed\xd3BL\xcc?'
tRp416
sa(dp417
g16
g17
(g19
S'\x13\xa2\xe4\x01r\x88=?'
tRp418
sg21
Vcontractor->dev_profile_title->excel
p419
sg23
g17
(g19
S'\x9a\xd6~f\x98\xb2\x91?'
tRp420
sa(dp421
g16
g17
(g19
S'\xfc\xd4)\xcf\x14\x1f\x99?'
tRp422
sg21
Vcontractor->dev_profile_title->entry
p423
sg23
g17
(g19
S'9BxF\x8fq\xd4?'
tRp424
sa(dp425
g16
g17
(g19
S'\x90z\xb0\x92C\xe2q?'
tRp426
sg21
Vcontractor->dev_profile_title->editor
p427
sg23
g17
(g19
S'\xa3\xb1\xdf\xba~\x8a\xc1?'
tRp428
sa(dp429
g16
g17
(g19
S'\xc6\xe30\xf2\x95\x0b\x94?'
tRp430
sg21
Vcontractor->dev_profile_title->designer
p431
sg23
g17
(g19
S'\xf6\xd9\xdeAUI\xd7?'
tRp432
sa(dp433
g16
g17
(g19
S'\x02\xa7\xd2\xcfh\xcft?'
tRp434
sg21
Vcontractor->dev_profile_title->design
p435
sg23
g17
(g19
S'\xd8iH\xb8Q\x85\xd1?'
tRp436
sa(dp437
g16
g17
(g19
S'/\xac\x08\xd6y#\xa2?'
tRp438
sg21
Vcontractor->dev_profile_title->data
p439
sg23
g17
(g19
S'^d[\x07`\xf2\xd9?'
tRp440
sa(dp441
g16
g17
(g19
S'\xa9\xdd~=\xf1as?'
tRp442
sg21
Vcontractor->dev_profile_title->assistant
p443
sg23
g17
(g19
S'\x9f,\xa2\xc7\xd3]\xc0?'
tRp444
sa(dp445
g16
g17
(g19
S'{r\xf8\xb9f\xcfC?'
tRp446
sg21
Vcontractor->dev_profile_title->analyst
p447
sg23
g17
(g19
S'\x1f\x7f\xc3FG\xfe\xa0?'
tRp448
sa(dp449
g16
g17
(g19
S'X\x1a\xcf/\x91\xf5\x80?'
tRp450
sg21
Vcontractor->dev_pay_rate
p451
sg23
g17
(g19
S':\xa4\xe0\xbb\xc2\xa2\xae?'
tRp452
sa(dp453
g16
g17
(g19
S'z\xa5\x0f\xa4\xaa\x8a\xd7?'
tRp454
sg21
Vcontractor->dev_is_looking
p455
sg23
g17
(g19
S'\xc4\xad\x95e\x1d\xfa\xd9?'
tRp456
sa(dp457
g16
g17
(g19
S'\\=\xc1^\x04i\xd5?'
tRp458
sg21
Vcontractor->dev_eng_skill
p459
sg23
g17
(g19
S'j\xe2\x8aV\x0c\x02\xd7?'
tRp460
sa(dp461
g16
g17
(g19
S'\x16\xd29\xa0m\x9a\x83?'
tRp462
sg21
Vcontractor->dev_blurb->you
p463
sg23
g17
(g19
S'\xbd\x9e\x98e\xfa\x97\xc7?'
tRp464
sa(dp465
g16
g17
(g19
S'\x16\xb3\xf5&\xfd\xfbv?'
tRp466
sg21
Vcontractor->dev_blurb->years
p467
sg23
g17
(g19
S'\xb3\xcc\xdb\xf1\xd7\x04\xba?'
tRp468
sa(dp469
g16
g17
(g19
S'=\x16\xb5\x0c\x1d\xc5V?'
tRp470
sg21
Vcontractor->dev_blurb->would
p471
sg23
g17
(g19
S'|\x91\xe8\x88\xaa*\xb3?'
tRp472
sa(dp473
g16
g17
(g19
S'\xc3\xd7\x05\x16j\x19\x92?'
tRp474
sg21
Vcontractor->dev_blurb->work
p475
sg23
g17
(g19
S'0\xfa\xab\xf5Y\xa2\xd0?'
tRp476
sa(dp477
g16
g17
(g19
S'V\xa6\xdcU\x89\x8a~?'
tRp478
sg21
Vcontractor->dev_blurb->with
p479
sg23
g17
(g19
S'\xf5j\xc7\x84\x1f\x1c\xb6?'
tRp480
sa(dp481
g16
g17
(g19
S'\xa3\x7f\xd3\xda\x8b\x8eq?'
tRp482
sg21
Vcontractor->dev_blurb->will
p483
sg23
g17
(g19
S'\x14F\x86\xbe\x80\xaf\xbc?'
tRp484
sa(dp485
g16
g17
(g19
S'\xe5\x19\xbec\xad\x0bY?'
tRp486
sg21
Vcontractor->dev_blurb->what
p487
sg23
g17
(g19
S'q\x053R\x87v\xb8?'
tRp488
sa(dp489
g16
g17
(g19
S'b\x97!J\x88\xc7%?'
tRp490
sg21
Vcontractor->dev_blurb->website
p491
sg23
g17
(g19
S'\x81\xee\xae\xacG\xf6z?'
tRp492
sa(dp493
g16
g17
(g19
S'\xe4\xf4\x99Y\xfe\x1b\x87?'
tRp494
sg21
Vcontractor->dev_blurb->web
p495
sg23
g17
(g19
S'\xb7T\x9fyQ\x18\xc9?'
tRp496
sa(dp497
g16
g17
(g19
S'mm\xbb\xc5\xd7\xad\x82?'
tRp498
sg21
Vcontractor->dev_blurb->very
p499
sg23
g17
(g19
S'\x8c\xec\xc1p\x10\x8e\xd1?'
tRp500
sa(dp501
g16
g17
(g19
S'\xdbp\x9a\r\xbe\xdbl?'
tRp502
sg21
Vcontractor->dev_blurb->using
p503
sg23
g17
(g19
S'G\x9f`\x8c\xac\xd9\xbc?'
tRp504
sa(dp505
g16
g17
(g19
S'\x97\x03\xab\xff&gV?'
tRp506
sg21
Vcontractor->dev_blurb->use
p507
sg23
g17
(g19
S')\x16C-U\xa1\xa9?'
tRp508
sa(dp509
g16
g17
(g19
S'\xf3\x98X:\xe8w\x92?'
tRp510
sg21
Vcontractor->dev_blurb->that
p511
sg23
g17
(g19
S' Y\xbdD!>\xd1?'
tRp512
sa(dp513
g16
g17
(g19
S'\xd8U\x81\x8a\x9a\xb5X?'
tRp514
sg21
Vcontractor->dev_blurb->than
p515
sg23
g17
(g19
S'\xbb\x7f\x8etX\x10\xb8?'
tRp516
sa(dp517
g16
g17
(g19
S'e\xf5\x92\xfe5WY?'
tRp518
sg21
Vcontractor->dev_blurb->some
p519
sg23
g17
(g19
S'\t\xee\x1b\xd9\x12\x9d\xbb?'
tRp520
sa(dp521
g16
g17
(g19
S'\x8f\xd4MP\xe8\xaa??'
tRp522
sg21
Vcontractor->dev_blurb->seo
p523
sg23
g17
(g19
S'\xc1\xc7\xcfEw{\x94?'
tRp524
sa(dp525
g16
g17
(g19
S'\x7f\x94\x06\x11\x13\xe2]?'
tRp526
sg21
Vcontractor->dev_blurb->research
p527
sg23
g17
(g19
S'\xe2\xa4\xc2(\x12M\xb1?'
tRp528
sa(dp529
g16
g17
(g19
S'\xbf\x80m7S\xffW?'
tRp530
sg21
Vcontractor->dev_blurb->project
p531
sg23
g17
(g19
S'!\\R\x17c\x9c\xb1?'
tRp532
sa(dp533
g16
g17
(g19
S'\x7f\xec\xcb(c4|?'
tRp534
sg21
Vcontractor->dev_blurb->professional
p535
sg23
g17
(g19
S'\x0b\xd1\xdb\xeeQ)\xca?'
tRp536
sa(dp537
g16
g17
(g19
S'\xd4\xfb\x86\x16\x99\x04f?'
tRp538
sg21
Vcontractor->dev_blurb->over
p539
sg23
g17
(g19
S'(\x9c\x84\x00\xb5k\xb2?'
tRp540
sa(dp541
g16
g17
(g19
S'\xac\xb5\xa5\x8f`\x1b??'
tRp542
sg21
Vcontractor->dev_blurb->oriented
p543
sg23
g17
(g19
S'U\xacI\x80\x91u\x98?'
tRp544
sa(dp545
g16
g17
(g19
S'\x1f\x12\x04R\xde*4?'
tRp546
sg21
Vcontractor->dev_blurb->one
p547
sg23
g17
(g19
S'=N\x870 F\x99?'
tRp548
sa(dp549
g16
g17
(g19
S'\xf6oU@\xb86S?'
tRp550
sg21
Vcontractor->dev_blurb->objective
p551
sg23
g17
(g19
S'Y\x9e\xc9\x06\xb2\xf0\xab?'
tRp552
sa(dp553
g16
g17
(g19
S'u\xb3\x89*\x9d\x85P?'
tRp554
sg21
Vcontractor->dev_blurb->not
p555
sg23
g17
(g19
S'[\xa8\xfc\xdd=5\xa6?'
tRp556
sa(dp557
g16
g17
(g19
S'S\x91\x82Um\xb5.?'
tRp558
sg21
Vcontractor->dev_blurb->mysql
p559
sg23
g17
(g19
S'^\x8c\x8a\xd7zt\x82?'
tRp560
sa(dp561
g16
g17
(g19
S"\xea'o/\xabw\xa4?"
tRp562
sg21
Vcontractor->dev_blurb->my
p563
sg23
g17
(g19
S'tF\xd5V\xed\xe7\xd3?'
tRp564
sa(dp565
g16
g17
(g19
S'MO\x82i|\xc9~?'
tRp566
sg21
Vcontractor->dev_blurb->more
p567
sg23
g17
(g19
S'i\x0be\x86\xb3\xac\xd1?'
tRp568
sa(dp569
g16
g17
(g19
S'\xdbu\xd4g\x85^\x80?'
tRp570
sg21
Vcontractor->dev_blurb->me
p571
sg23
g17
(g19
S'\x89\xdb\x11Rb\xf1\xca?'
tRp572
sa(dp573
g16
g17
(g19
S'C\xfc\x93\tE\x96:?'
tRp574
sg21
Vcontractor->dev_blurb->management
p575
sg23
g17
(g19
S'\x19c\xda\xdd7\xb9\x8c?'
tRp576
sa(dp577
g16
g17
(g19
S'\xe8\x05Xx\xc3Fh?'
tRp578
sg21
Vcontractor->dev_blurb->looking
p579
sg23
g17
(g19
S'\x83t\xf9w3\x0c\xc2?'
tRp580
sa(dp581
g16
g17
(g19
S'\xc1)Gi\x1bII?'
tRp582
sg21
Vcontractor->dev_blurb->last
p583
sg23
g17
(g19
S'\xb8\xa6\xc0\x96\xef\x15\xa2?'
tRp584
sa(dp585
g16
g17
(g19
S'\xbc?p\x05\x1c.v?'
tRp586
sg21
Vcontractor->dev_blurb->knowledge
p587
sg23
g17
(g19
S'#J\x18\xa7\t\xc2\xc6?'
tRp588
sa(dp589
g16
g17
(g19
S'\x11E\x98\xfa\x14#S?'
tRp590
sg21
Vcontractor->dev_blurb->jobs
p591
sg23
g17
(g19
S'\xa5\xe7!!\x04\xc0\xb0?'
tRp592
sa(dp593
g16
g17
(g19
S'\xb2\xe8\xd0M\xfat\x9a?'
tRp594
sg21
Vcontractor->dev_blurb->in
p595
sg23
g17
(g19
S'uYYY\xd2\xef\xc7?'
tRp596
sa(dp597
g16
g17
(g19
S'\x1a\x86\x8f\xa2\xf2\x96@?'
tRp598
sg21
Vcontractor->dev_blurb->if
p599
sg23
g17
(g19
S'F\x062\x13\x9e\xe5\x9d?'
tRp600
sa(dp601
g16
g17
(g19
S'\xf2\x0cNA\xe3n\x90?'
tRp602
sg21
Vcontractor->dev_blurb->have
p603
sg23
g17
(g19
S'\x1aY\xfeB\xe9H\xca?'
tRp604
sa(dp605
g16
g17
(g19
S'\x99\xbfIL\xcc\t\xe6>'
tRp606
sg21
Vcontractor->dev_blurb->do
p607
sg23
g17
(g19
S'\xc9=\x08\xc5`\x859?'
tRp608
sa(dp609
g16
g17
(g19
S'\x8a\x10\xc4\x1f\x819f?'
tRp610
sg21
Vcontractor->dev_blurb->developed
p611
sg23
g17
(g19
S'\xf2\xd0\x8e\xea`\xfc\xc0?'
tRp612
sa(dp613
g16
g17
(g19
S'\xea\xc8U\x051nw?'
tRp614
sg21
Vcontractor->dev_blurb->designer
p615
sg23
g17
(g19
S'\xddB\xcc\xc7yF\xce?'
tRp616
sa(dp617
g16
g17
(g19
S'\x05\xf1x\xc4\xf7\xa4\x80?'
tRp618
sg21
Vcontractor->dev_blurb->design
p619
sg23
g17
(g19
S'\xd0\x1ao}\xcaK\xc9?'
tRp620
sa(dp621
g16
g17
(g19
S'-\x90&\xa8\xbf\x056?'
tRp622
sg21
Vcontractor->dev_blurb->complete
p623
sg23
g17
(g19
S'W\xb3\xf2\xc3\xda7\x90?'
tRp624
sa(dp625
g16
g17
(g19
S'>\x17\xc1\x16C\xd8C?'
tRp626
sg21
Vcontractor->dev_blurb->companies
p627
sg23
g17
(g19
S'\x1c\xb6X\x0e\xe5\xee\xa3?'
tRp628
sa(dp629
g16
g17
(g19
S'\x0c\xaf^\xbb7ub?'
tRp630
sg21
Vcontractor->dev_blurb->can
p631
sg23
g17
(g19
S'\xb1\xcdDr\x10P\xab?'
tRp632
sa(dp633
g16
g17
(g19
S'\xf0\x08\x0c\xbfX\x9cH?'
tRp634
sg21
Vcontractor->dev_blurb->but
p635
sg23
g17
(g19
S'\xc0%\x8c\xdc:\xf0\xa0?'
tRp636
sa(dp637
g16
g17
(g19
S'\xa9\xd2\xa9\x82^\xf0m?'
tRp638
sg21
Vcontractor->dev_blurb->been
p639
sg23
g17
(g19
S'\x82\x06\x99{\x99\xe7\xc3?'
tRp640
sa(dp641
g16
g17
(g19
S'\x9fd\x82\xcf\xfe\xd7@?'
tRp642
sg21
Vcontractor->dev_blurb->at
p643
sg23
g17
(g19
S'6o\xc1t\xdb\xa1\x94?'
tRp644
sa(dp645
g16
g17
(g19
S'E\x1a\xc8\x19\xde\x1f\x8b?'
tRp646
sg21
Vcontractor->dev_blurb->as
p647
sg23
g17
(g19
S'hQ\x18re\x87\xc6?'
tRp648
sa(dp649
g16
g17
(g19
S'#B\x0c\x86\x87\xeev?'
tRp650
sg21
Vcontractor->dev_blurb->are
p651
sg23
g17
(g19
S'3\x1e\xf6M\xe1]\xc6?'
tRp652
sa(dp653
g16
g17
(g19
S'\x1f\xd51\xd8]\xdf\x95?'
tRp654
sg21
Vcontractor->dev_blurb->and
p655
sg23
g17
(g19
S'\xaf\x9cT\x8ew\xa6\xb7?'
tRp656
sa(dp657
g16
g17
(g19
S'\xc5\xd2\x8e\xae\xf6\xf3r?'
tRp658
sg21
Vcontractor->dev_blurb->am
p659
sg23
g17
(g19
S'\xf9\x96\xcd\xb2\x9e\x9a\xb1?'
tRp660
sa(dp661
g16
g17
(g19
S'\xda3\xca1\x94\xedM?'
tRp662
sg21
Vcontractor->dev_blurb->also
p663
sg23
g17
(g19
S'\xb8\xa9\xd6\x11\x96\n\x9e?'
tRp664
sa(dp665
g16
g17
(g19
S'\xe7Mzn\x10\n\x01?'
tRp666
sg21
Vcontractor->dev_blurb->all
p667
sg23
g17
(g19
S'\x07\x19Ic\xf2vO?'
tRp668
sa(dp669
g16
g17
(g19
S'\x85\x075\xc8\x88h\x8b?'
tRp670
sg21
Vcontractor->dev_billed_assignments
p671
sg23
g17
(g19
S'\xa3\xe9\xc5\xb0\x11\x06\xc4?'
tRp672
sa(dp673
g16
g17
(g19
S'\xcb\xbct0\xd1*l?'
tRp674
sg21
Vcontractor->dev_bill_rate
p675
sg23
g17
(g19
S'\xd4\xa3\xd7e\xc2\xb2\x97?'
tRp676
sa(dp677
g16
g17
(g19
S'N\xc1\x90\xd3u\xa0\x92?'
tRp678
sg21
Vcontractor->dev_active_interviews
p679
sg23
g17
(g19
S'`\xf9*\x06Mo\xc2?'
tRp680
sasS'negative'
p681
(lp682
(dp683
g16
g17
(g19
S'\x00\x00\x00\x00\x00\x00\x00\x00'
tRp684
sg21
Vcontractor->dev_adj_score
p685
sg23
g17
(g19
S'\x00\x00\x00\x00\x00\x00\x00\x00'
tRp686
sa(dp687
g16
g17
(g19
S'\xd7\x94\x90\x88\xfa\x7f\xb0?'
tRp688
sg21
Vcontractor->dev_adj_score_recent
p689
sg23
g17
(g19
S'/\n\x8b\xb8\x91>\xbb\xbf'
tRp690
sa(dp691
g16
g17
(g19
S'\x02(\x8e\x99\t?\xd8?'
tRp692
sg21
Vcontractor->dev_availability
p693
sg23
g17
(g19
S'@\x1cW\x83\x1b\x91\xe0\xbf'
tRp694
sa(dp695
g16
g17
(g19
S"\x01\xad\x16\x8c'Td?"
tRp696
sg21
Vcontractor->dev_blurb->always
p697
sg23
g17
(g19
S'S\xa0\xd0|\xfbi\xc0\xbf'
tRp698
sa(dp699
g16
g17
(g19
S':\xd9\xbd\xf8\r\xa6p?'
tRp700
sg21
Vcontractor->dev_blurb->an
p701
sg23
g17
(g19
S'A\xc5z\x9at\xae\xbd\xbf'
tRp702
sa(dp703
g16
g17
(g19
S':2\x8e\x13R\x03}?'
tRp704
sg21
Vcontractor->dev_blurb->be
p705
sg23
g17
(g19
S'N\xe2N\xc6\x80\xfd\xc2\xbf'
tRp706
sa(dp707
g16
g17
(g19
S'%0\xc0\xcc\xf3\xfbW?'
tRp708
sg21
Vcontractor->dev_blurb->best
p709
sg23
g17
(g19
S'\x9f\x9d3\n\xfaU\xae\xbf'
tRp710
sa(dp711
g16
g17
(g19
S'\xa1\xee\xad\x91\x11\xf3@?'
tRp712
sg21
Vcontractor->dev_blurb->business
p713
sg23
g17
(g19
S'\x19\xc2c\xc8\xd54\x8c\xbf'
tRp714
sa(dp715
g16
g17
(g19
S'\xdf\x8b\x9d\xbce\xc7e?'
tRp716
sg21
Vcontractor->dev_blurb->client
p717
sg23
g17
(g19
S'\x96\xeb)h\xf6;\xc0\xbf'
tRp718
sa(dp719
g16
g17
(g19
S'\xe3\xc8\xd1wR\x17p?'
tRp720
sg21
Vcontractor->dev_blurb->clients
p721
sg23
g17
(g19
S'O|`M\xd1Z\xc0\xbf'
tRp722
sa(dp723
g16
g17
(g19
S'[~s\xdbH\xb6\x87?'
tRp724
sg21
Vcontractor->dev_blurb->com
p725
sg23
g17
(g19
S'\x87LG\xd8\xdb1\xcd\xbf'
tRp726
sa(dp727
g16
g17
(g19
S'\xe1\xab`W\xf6\xb8r?'
tRp728
sg21
Vcontractor->dev_blurb->company
p729
sg23
g17
(g19
S'\xa0\xba\x99K\xedM\xcd\xbf'
tRp730
sa(dp731
g16
g17
(g19
S'\xe6\xebW\xd2=7c?'
tRp732
sg21
Vcontractor->dev_blurb->customer
p733
sg23
g17
(g19
S'\xba&i\xaf*z\xb3\xbf'
tRp734
sa(dp735
g16
g17
(g19
S'\xa1\xa4\x10\x16\xc1\xc9}?'
tRp736
sg21
Vcontractor->dev_blurb->data
p737
sg23
g17
(g19
S'C\r]\xdf\xd6\x9f\xc0\xbf'
tRp738
sa(dp739
g16
g17
(g19
S'\xbc\xe5\x01~\xa9_p?'
tRp740
sg21
Vcontractor->dev_blurb->development
p741
sg23
g17
(g19
S'4\x0f\xb9\xc1\x8f\xa4\xbe\xbf'
tRp742
sa(dp743
g16
g17
(g19
S'.x\xfa|\x94rq?'
tRp744
sg21
Vcontractor->dev_blurb->entry
p745
sg23
g17
(g19
S'awb\x85\xde\xe9\xb8\xbf'
tRp746
sa(dp747
g16
g17
(g19
S'\x81\xab\x01\xb73\xceE?'
tRp748
sg21
Vcontractor->dev_blurb->excel
p749
sg23
g17
(g19
S'\xa5\x82\x81~\xeb0\x9e\xbf'
tRp750
sa(dp751
g16
g17
(g19
S'rN\xd9[\x8b\x95_?'
tRp752
sg21
Vcontractor->dev_blurb->experience
p753
sg23
g17
(g19
S'\xac\x86\xbe\xf7\x180\x9b\xbf'
tRp754
sa(dp755
g16
g17
(g19
S'e\xd2\x07w\x03\x99>?'
tRp756
sg21
Vcontractor->dev_blurb->expertise
p757
sg23
g17
(g19
S'}\xd3\xa5\xcf\xd4\x83\x97\xbf'
tRp758
sa(dp759
g16
g17
(g19
S'*\x89\x07\x1c\x08\x98S?'
tRp760
sg21
Vcontractor->dev_blurb->following
p761
sg23
g17
(g19
S'\x8f\x11\xf9)\xccO\xb3\xbf'
tRp762
sa(dp763
g16
g17
(g19
S'\xd1\xf2\xc4\xf3\xb4\xcf`?'
tRp764
sg21
Vcontractor->dev_blurb->for
p765
sg23
g17
(g19
S'\n=\xe8\xa7!C\x99\xbf'
tRp766
sa(dp767
g16
g17
(g19
S'\x00H)+\xa4\x9a4?'
tRp768
sg21
Vcontractor->dev_blurb->from
p769
sg23
g17
(g19
S'\xb3\xfe\x94\xdd\x9a7\x8d\xbf'
tRp770
sa(dp771
g16
g17
(g19
S'\xcc\xb2\xd8"\x9b\x81O?'
tRp772
sg21
Vcontractor->dev_blurb->goal
p773
sg23
g17
(g19
S'\xbc\xe1T\x074q\xa5\xbf'
tRp774
sa(dp775
g16
g17
(g19
S'z)\xc3a\x84\xe1\x80?'
tRp776
sg21
Vcontractor->dev_blurb->good
p777
sg23
g17
(g19
S'\x84\xe0\xfc\x04L\x84\xc9\xbf'
tRp778
sa(dp779
g16
g17
(g19
S'\x84\xd0\x00\xb96~\\?'
tRp780
sg21
Vcontractor->dev_blurb->html
p781
sg23
g17
(g19
S'Q.\x00\xb5\xfe@\xb0\xbf'
tRp782
sa(dp783
g16
g17
(g19
S'\xcd\xdd\x85R\xaf\xe1_?'
tRp784
sg21
Vcontractor->dev_blurb->is
p785
sg23
g17
(g19
S'\x1c_\xa4w\x83\x95\x9f\xbf'
tRp786
sa(dp787
g16
g17
(g19
S'd\x85vN,(l?'
tRp788
sg21
Vcontractor->dev_blurb->it
p789
sg23
g17
(g19
S'Qj+\xe0\x18\xf3\xc0\xbf'
tRp790
sa(dp791
g16
g17
(g19
S'\xb8C\ro\xabY ?'
tRp792
sg21
Vcontractor->dev_blurb->like
p793
sg23
g17
(g19
S'\xd4\x89]\xf9S?w\xbf'
tRp794
sa(dp795
g16
g17
(g19
S'`\x12\xcf\xce\xf0\x11X?'
tRp796
sg21
Vcontractor->dev_blurb->marketing
p797
sg23
g17
(g19
S'\\\x1cZ\xd7\x8c\xd4\xb1\xbf'
tRp798
sa(dp799
g16
g17
(g19
S'\x84\xfd"fS\x8eT?'
tRp800
sg21
Vcontractor->dev_blurb->new
p801
sg23
g17
(g19
S'*\x92A\xc1=\xdf\xb1\xbf'
tRp802
sa(dp803
g16
g17
(g19
S'\xbe0\xde\xd5;bR?'
tRp804
sg21
Vcontractor->dev_blurb->of
p805
sg23
g17
(g19
S'\xa4\xb0R~v\r\x85\xbf'
tRp806
sa(dp807
g16
g17
(g19
S'\x82D\xc6M\xddqa?'
tRp808
sg21
Vcontractor->dev_blurb->on
p809
sg23
g17
(g19
S'p\x06\x1c\xb9\x15\xaa\xa5\xbf'
tRp810
sa(dp811
g16
g17
(g19
S'\xb0-y\xe2Q\x82J?'
tRp812
sg21
Vcontractor->dev_blurb->or
p813
sg23
g17
(g19
S'\xfb|c9|I\xa0\xbf'
tRp814
sa(dp815
g16
g17
(g19
S'\x9f2:\xc0\x1c\x11J?'
tRp816
sg21
Vcontractor->dev_blurb->other
p817
sg23
g17
(g19
S'z\x03u\x8a\x0c\xf4\xa4\xbf'
tRp818
sa(dp819
g16
g17
(g19
S'#\xaa\xee\x1c\xbc5C?'
tRp820
sg21
Vcontractor->dev_blurb->php
p821
sg23
g17
(g19
S'\xb6\xb3*\x14\x83\xc2\x95\xbf'
tRp822
sa(dp823
g16
g17
(g19
S',\xf1v\xd0\xa7\xbc`?'
tRp824
sg21
Vcontractor->dev_blurb->provide
p825
sg23
g17
(g19
S'\xc9\x117X\xc2\xa4\xb3\xbf'
tRp826
sa(dp827
g16
g17
(g19
S'W5\x12\x08\xb1\x93p?'
tRp828
sg21
Vcontractor->dev_blurb->quality
p829
sg23
g17
(g19
S'C\xe8\xd8E\xd4t\xbd\xbf'
tRp830
sa(dp831
g16
g17
(g19
S'\xcb\x9e\xec1\x900q?'
tRp832
sg21
Vcontractor->dev_blurb->satisfaction
p833
sg23
g17
(g19
S'\xc8mkui\x04\xc9\xbf'
tRp834
sa(dp835
g16
g17
(g19
S'\xcbx\x0f\x0c\xf7\xf2p?'
tRp836
sg21
Vcontractor->dev_blurb->service
p837
sg23
g17
(g19
S'\xc3\x0c\x8c%\xf9\x9b\xb8\xbf'
tRp838
sa(dp839
g16
g17
(g19
S'd?\xe5\xd1:\xccf?'
tRp840
sg21
Vcontractor->dev_blurb->skills
p841
sg23
g17
(g19
S'hn\xa8>\xc1*\xa9\xbf'
tRp842
sa(dp843
g16
g17
(g19
S'X\xaa\x16\xaf["9?'
tRp844
sg21
Vcontractor->dev_blurb->solutions
p845
sg23
g17
(g19
S'*Q\x9b\x9f\xec\xa8\x92\xbf'
tRp846
sa(dp847
g16
g17
(g19
S'\xf2\x81\x1a\x02\xa4ZS?'
tRp848
sg21
Vcontractor->dev_blurb->support
p849
sg23
g17
(g19
S'\t\xa1`\x02j\xb2\xa9\xbf'
tRp850
sa(dp851
g16
g17
(g19
S'\x91\xdc\xa64pJf?'
tRp852
sg21
Vcontractor->dev_blurb->tasks
p853
sg23
g17
(g19
S'o.\x04\x9f\x88m\xbf\xbf'
tRp854
sa(dp855
g16
g17
(g19
S'\xfa\x80\xfd\xc8\xb2Z}?'
tRp856
sg21
Vcontractor->dev_blurb->the
p857
sg23
g17
(g19
S'\x10\xd6\x98\xf6\xa8G\xad\xbf'
tRp858
sa(dp859
g16
g17
(g19
S'Ii\x9f\x94fgi?'
tRp860
sg21
Vcontractor->dev_blurb->time
p861
sg23
g17
(g19
S'\xb9A\x9d\x17\xacd\xb9\xbf'
tRp862
sa(dp863
g16
g17
(g19
S'\xc5\xf9\xb7i\xcc\xab\xab?'
tRp864
sg21
Vcontractor->dev_blurb->to
p865
sg23
g17
(g19
S'\xa9TH)\x13\x01\xd4\xbf'
tRp866
sa(dp867
g16
g17
(g19
S'A\xbf\x85B\xa9F_?'
tRp868
sg21
Vcontractor->dev_blurb->well
p869
sg23
g17
(g19
S'\xf9\xca$\x80\xed\x93\xb4\xbf'
tRp870
sa(dp871
g16
g17
(g19
S')\xdc\xe2\xd2\x1a6\x1a?'
tRp872
sg21
Vcontractor->dev_blurb->where
p873
sg23
g17
(g19
S'\xfcoz\x8a\x1a\xb2v\xbf'
tRp874
sa(dp875
g16
g17
(g19
S')\x01\xa3\x9d\x7f\xeeH?'
tRp876
sg21
Vcontractor->dev_blurb->word
p877
sg23
g17
(g19
S"E'\x14\x9e#e\xa1\xbf"
tRp878
sa(dp879
g16
g17
(g19
S'\xf5\xa4\xff[\x9eYE?'
tRp880
sg21
Vcontractor->dev_blurb->wordpress
p881
sg23
g17
(g19
S'\xdb\xceS\xd2qI\x9c\xbf'
tRp882
sa(dp883
g16
g17
(g19
S'\xca/\xce\xce[E\x04?'
tRp884
sg21
Vcontractor->dev_blurb->working
p885
sg23
g17
(g19
S'\xd9A\xa8\xe4\xfb)O\xbf'
tRp886
sa(dp887
g16
g17
(g19
S'\xc3\x9e\xbaDH\xa2E?'
tRp888
sg21
Vcontractor->dev_blurb->writing
p889
sg23
g17
(g19
S'\xd6\xe34\\\x8d\xf5\x90\xbf'
tRp890
sa(dp891
g16
g17
(g19
S'\x95Bqu\xa2\x95T?'
tRp892
sg21
Vcontractor->dev_blurb->your
p893
sg23
g17
(g19
S'x%\x9a\xf7_\xaa\xa5\xbf'
tRp894
sa(dp895
g16
g17
(g19
S'\x94j\x1e\xc1\xe5\xefv?'
tRp896
sg21
Vcontractor->dev_cur_assignments
p897
sg23
g17
(g19
S'%\x14`\xe5\xddq\xac\xbf'
tRp898
sa(dp899
g16
g17
(g19
S'8\x16\xbf5,_\xb2?'
tRp900
sg21
Vcontractor->dev_expose_full_name
p901
sg23
g17
(g19
S'\xbe\xc5\xd7\xe2c\xf5\xc0\xbf'
tRp902
sa(dp903
g16
g17
(g19
S'E6R\x85n\x91\xd0?'
tRp904
sg21
Vcontractor->dev_is_looking_week
p905
sg23
g17
(g19
S'St/\xd3\xb7\xe1\xd3\xbf'
tRp906
sa(dp907
g16
g17
(g19
S'\xd9\xfe\x89\x05\xb0\x83\xb0?'
tRp908
sg21
Vcontractor->dev_last_worked
p909
sg23
g17
(g19
S"\xf9\x93\x14'\xc6!\xb5\xbf"
tRp910
sa(dp911
g16
g17
(g19
S'\x92\x1a\xf6\xc0|bc?'
tRp912
sg21
Vcontractor->dev_portfolio_items_count
p913
sg23
g17
(g19
S'\xc3x\x9dV\xa6\xd8\x99\xbf'
tRp914
sa(dp915
g16
g17
(g19
S'V\x86\x12/1\x1aT?'
tRp916
sg21
Vcontractor->dev_profile_title->administrative
p917
sg23
g17
(g19
S'\xcc=\xb6q\xfc\xda\xa3\xbf'
tRp918
sa(dp919
g16
g17
(g19
S'zQ\xa5\xe6\xb5\x92`?'
tRp920
sg21
Vcontractor->dev_profile_title->and
p921
sg23
g17
(g19
S'h\xf4\xdc\xddK:\xa2\xbf'
tRp922
sa(dp923
g16
g17
(g19
S'\xfd\xc1\xae\x00\xbe\xa6d?'
tRp924
sg21
Vcontractor->dev_profile_title->architect
p925
sg23
g17
(g19
S'\x0f\x86\x8e\xd1\xe1\xb5\xba\xbf'
tRp926
sa(dp927
g16
g17
(g19
S'\xca\xc8\xb0$\x18\xbby?'
tRp928
sg21
Vcontractor->dev_profile_title->artist
p929
sg23
g17
(g19
S'\xa8\x93\x9bAb|\xd4\xbf'
tRp930
sa(dp931
g16
g17
(g19
S'b\x99@\xab 6T?'
tRp932
sg21
Vcontractor->dev_profile_title->best
p933
sg23
g17
(g19
S'\x04\xdc\x84;|[\xa7\xbf'
tRp934
sa(dp935
g16
g17
(g19
S':\x0c\xb3\xa6\xcf\x10A?'
tRp936
sg21
Vcontractor->dev_profile_title->css
p937
sg23
g17
(g19
S'\x8d\xfeU\xe2\xc7\x95\x90\xbf'
tRp938
sa(dp939
g16
g17
(g19
S'\xcb\xf2\xc7\x82\x92\xefR?'
tRp940
sg21
Vcontractor->dev_profile_title->customer
p941
sg23
g17
(g19
S"\x02`F\xabw'\xae\xbf"
tRp942
sa(dp943
g16
g17
(g19
S'\x0b\x00\n\xc1"\xe4t?'
tRp944
sg21
Vcontractor->dev_profile_title->developer
p945
sg23
g17
(g19
S'-\x17\x1aO\x91\x95\xb5\xbf'
tRp946
sa(dp947
g16
g17
(g19
S'\xa8\xb7\x8eU\xd5\xb7N?'
tRp948
sg21
Vcontractor->dev_profile_title->engineer
p949
sg23
g17
(g19
S'\xfa\x92\x00\xd5{\xc8\xa0\xbf'
tRp950
sa(dp951
g16
g17
(g19
S'\x02^R\xd2\xc3@j?'
tRp952
sg21
Vcontractor->dev_profile_title->expert
p953
sg23
g17
(g19
S'\x0f2\x0e\x93\xd3f\xb0\xbf'
tRp954
sa(dp955
g16
g17
(g19
S'tg\r\x96\x81\xbag?'
tRp956
sg21
Vcontractor->dev_profile_title->freelance
p957
sg23
g17
(g19
S'\x8a{E(\xaf\xfb\xc2\xbf'
tRp958
sa(dp959
g16
g17
(g19
S"'>g\xde\xc5\x10q?"
tRp960
sg21
Vcontractor->dev_profile_title->game
p961
sg23
g17
(g19
S'M|\xe8#\xc4\xb1\xc5\xbf'
tRp962
sa(dp963
g16
g17
(g19
S'\x02\x15+}F\xef]?'
tRp964
sg21
Vcontractor->dev_profile_title->html
p965
sg23
g17
(g19
S'\x1f\xbb\xf2\x8b\xea\x89\xac\xbf'
tRp966
sa(dp967
g16
g17
(g19
S'C\xda\xc7\xebX.:?'
tRp968
sg21
Vcontractor->dev_profile_title->in
p969
sg23
g17
(g19
S'c\xd2]\x15\x9ed\x96\xbf'
tRp970
sa(dp971
g16
g17
(g19
S'\xc0j\xc3U\xfc\x18p?'
tRp972
sg21
Vcontractor->dev_profile_title->jquery
p973
sg23
g17
(g19
S'Z\xa5\xbeb\xf5\x93\xc7\xbf'
tRp974
sa(dp975
g16
g17
(g19
S'\x956\xc5\xc4\xe9~2?'
tRp976
sg21
Vcontractor->dev_profile_title->mysql
p977
sg23
g17
(g19
S'\xa3\x15]"\xa4\x90\x91\xbf'
tRp978
sa(dp979
g16
g17
(g19
S'P\x91@\xb96\xc4j?'
tRp980
sg21
Vcontractor->dev_profile_title->photoshop
p981
sg23
g17
(g19
S'\x17\x16\xf5\x990\x93\xc5\xbf'
tRp982
sa(dp983
g16
g17
(g19
S"\xd1\x8b\r\x00'U]?"
tRp984
sg21
Vcontractor->dev_profile_title->php
p985
sg23
g17
(g19
S'E\xbd\xdd\x9a\xd5\xe2\xa1\xbf'
tRp986
sa(dp987
g16
g17
(g19
S'\xdfNN\xb9H\xfc@?'
tRp988
sg21
Vcontractor->dev_profile_title->research
p989
sg23
g17
(g19
S'=[\xeb\xd8\xd8\xcb\x8c\xbf'
tRp990
sa(dp991
g16
g17
(g19
S'~7uP\xd8\x87i?'
tRp992
sg21
Vcontractor->dev_profile_title->service
p993
sg23
g17
(g19
S'\x7f\xe9\x84V\xdeQ\xba\xbf'
tRp994
sa(dp995
g16
g17
(g19
S'\x07\xae\x18j\xc31\x1e?'
tRp996
sg21
Vcontractor->dev_profile_title->specialist
p997
sg23
g17
(g19
S'\xdc\x1by\x8b\xb3tz\xbf'
tRp998
sa(dp999
g16
g17
(g19
S'\xdd\xa7\x9b,\xe7Be?'
tRp1000
sg21
Vcontractor->dev_profile_title->web
p1001
sg23
g17
(g19
S'\xcf\x8c\x82\xf0\xe1A\xa2\xbf'
tRp1002
sa(dp1003
g16
g17
(g19
S"u\xd6\xe2\x1bS4'?"
tRp1004
sg21
Vcontractor->dev_profile_title->with
p1005
sg23
g17
(g19
S'\xdao\xee\xa5\x16^\x83\xbf'
tRp1006
sa(dp1007
g16
g17
(g19
S'\x12\xbd\xc0:ARe?'
tRp1008
sg21
Vcontractor->dev_profile_title->word
p1009
sg23
g17
(g19
S'\x81\x9b;\xb3\x88\x93\xc5\xbf'
tRp1010
sa(dp1011
g16
g17
(g19
S'\x9b^\x91\x1dE\xafs?'
tRp1012
sg21
Vcontractor->dev_profile_title->wordpress
p1013
sg23
g17
(g19
S'%\x0e9G \x87\xc0\xbf'
tRp1014
sa(dp1015
g16
g17
(g19
S'\xfd\x85\xf9\xdd2 P?'
tRp1016
sg21
Vcontractor->dev_profile_title->writing
p1017
sg23
g17
(g19
S'\xdfh\xc2\x0b\x9d\xdc\xa6\xbf'
tRp1018
sa(dp1019
g16
g17
(g19
S'\x00\x00\x00\x00\x00\x00\x00\x00'
tRp1020
sg21
Vcontractor->dev_recent_hourly_jobs
p1021
sg23
g17
(g19
S'\x00\x00\x00\x00\x00\x00\x00\x00'
tRp1022
sa(dp1023
g16
g17
(g19
S'eL9\xa9\x80b{?'
tRp1024
sg21
Vcontractor->dev_total_hours_rounded
p1025
sg23
g17
(g19
S'\xa1\x058.\xe3O\xaf\xbf'
tRp1026
sa(dp1027
g16
g17
(g19
S'_\x7f\x16\xed.\xdc\x8c?'
tRp1028
sg21
Vcontractor->dev_total_revenue
p1029
sg23
g17
(g19
S'x\xa3\x15\xa7\xabF\xcc\xbf'
tRp1030
sa(dp1031
g16
g17
(g19
S'\x96\xd1\x16\xc3i\x80\x84?'
tRp1032
sg21
Vcountry_pair->australia,bangladesh
p1033
sg23
g17
(g19
S'\x96\xd1\x16\xc3i\x80\xd4\xbf'
tRp1034
sa(dp1035
g16
g17
(g19
S'\x88\xd7s\xdb\x03%Z?'
tRp1036
sg21
Vcountry_pair->australia,india
p1037
sg23
g17
(g19
S'\xa6\xe1\x96\xe4\xc2\x9b\xc3\xbf'
tRp1038
sa(dp1039
g16
g17
(g19
S'<Nn\x86M\x0bP?'
tRp1040
sg21
Vcountry_pair->australia,philippines
p1041
sg23
g17
(g19
S'[u\xa5I\xf4\x10\xa8\xbf'
tRp1042
sa(dp1043
g16
g17
(g19
S'\x05BL\xf4\x1dDA?'
tRp1044
sg21
Vcountry_pair->australia,united kingdom
p1045
sg23
g17
(g19
S'\x08cr\xee,\xe6\xa9\xbf'
tRp1046
sa(dp1047
g16
g17
(g19
S'\x95m\xc7{m\x14l?'
tRp1048
sg21
Vcountry_pair->canada,united states
p1049
sg23
g17
(g19
S'0\x92\xd5\x1cR\x0f\xc5\xbf'
tRp1050
sa(dp1051
g16
g17
(g19
S'mK0w\xf12\x18?'
tRp1052
sg21
Vcountry_pair->france,netherlands
p1053
sg23
g17
(g19
S'\x928d\x195&\x82\xbf'
tRp1054
sa(dp1055
g16
g17
(g19
S'N\x01\xc6%\xb6iW?'
tRp1056
sg21
Vcountry_pair->india,china
p1057
sg23
g17
(g19
S'\xfb\x80T\x9cH\x8f\xc1\xbf'
tRp1058
sa(dp1059
g16
g17
(g19
S'\x94Y}\x9bV\\W?'
tRp1060
sg21
Vcountry_pair->sri lanka,philippines
p1061
sg23
g17
(g19
S'/\x03\x9e\xf4@\x85\xc1\xbf'
tRp1062
sa(dp1063
g16
g17
(g19
S'\xb6OE\x95%YK?'
tRp1064
sg21
Vcountry_pair->united kingdom,bangladesh
p1065
sg23
g17
(g19
S'\xc9\xfb\xf3/\xdc\x82\xb4\xbf'
tRp1066
sa(dp1067
g16
g17
(g19
S'y\x9f\x8c\x9a\xa7\xc2\n?'
tRp1068
sg21
Vcountry_pair->united kingdom,pakistan
p1069
sg23
g17
(g19
S'\x9bw\xe9\xb3\xfd\x11t\xbf'
tRp1070
sa(dp1071
g16
g17
(g19
S'\x8d[s\t\x07\x03W?'
tRp1072
sg21
Vcountry_pair->united kingdom,sri lanka
p1073
sg23
g17
(g19
S'\xaa\x84\x16GEB\xc1\xbf'
tRp1074
sa(dp1075
g16
g17
(g19
S'\x19\x02\xc0\xcc\x8c\x88-?'
tRp1076
sg21
Vcountry_pair->united states,bangladesh
p1077
sg23
g17
(g19
S'\x93\x01\x90\x99i&\x96\xbf'
tRp1078
sa(dp1079
g16
g17
(g19
S'\x01\xd37\xfc\xbc\xfd6?'
tRp1080
sg21
Vcountry_pair->united states,canada
p1081
sg23
g17
(g19
S'A\xde)\xbdM>\xa1\xbf'
tRp1082
sa(dp1083
g16
g17
(g19
S'\xb0!s\xc1V\xf3\x1e?'
tRp1084
sg21
Vcountry_pair->united states,china
p1085
sg23
g17
(g19
S'DY\x16\x11\x816g\xbf'
tRp1086
sa(dp1087
g16
g17
(g19
S'\x08\xf5x\x9fy\x87p?'
tRp1088
sg21
Vcountry_pair->united states,nigeria
p1089
sg23
g17
(g19
S'\x8co5o6\xcb\xd8\xbf'
tRp1090
sa(dp1091
g16
g17
(g19
S'e\xe8\x87d\x18\x0f\xbb?'
tRp1092
sg21
Vcountry_pair->united states,philippines
p1093
sg23
g17
(g19
S'\xf3\x06!\xbd\xc4d\xd6\xbf'
tRp1094
sa(dp1095
g16
g17
(g19
S'Z\x94\x95\x96\x85\x8a`?'
tRp1096
sg21
Vcountry_pair->united states,united states
p1097
sg23
g17
(g19
S'#\x1brs\x07\x0e\x96\xbf'
tRp1098
sa(dp1099
g16
g17
(g19
S'\xab55/TH\xde?'
tRp1100
sg21
Vemployer->op_country_tz
p1101
sg23
g17
(g19
S'\xe3\xd4\x04)GK\xb4\xbf'
tRp1102
sa(dp1103
g16
g17
(g19
S'\xab55/TH\xde?'
tRp1104
sg21
Vemployer->op_timezone
p1105
sg23
g17
(g19
S'\xe3\xd4\x04)GK\xb4\xbf'
tRp1106
sa(dp1107
g16
g17
(g19
S'\xb8Pt\xd2X$\xd3?'
tRp1108
sg21
Vopening_id
p1109
sg23
g17
(g19
S'~\xdf/\xd8R\x90\xd4\xbf'
tRp1110
sa(dp1111
g16
g17
(g19
S'\xa7\xbbN$r\x9cp?'
tRp1112
sg21
Vtsexams->3ds Max 9 Test
p1113
sg23
g17
(g19
S'\x08-\xc7\xf4PP\xbd\xbf'
tRp1114
sa(dp1115
g16
g17
(g19
S'\xac\xd7\xe7*\xdb\x8ds?'
tRp1116
sg21
Vtsexams->ASP.Net 3.5 using C# Test
p1117
sg23
g17
(g19
S'\xc6\xbd\xbc\xe2\xfc\x8f\xc6\xbf'
tRp1118
sa(dp1119
g16
g17
(g19
S'\x08\x99]Z\x1d\xf0Y?'
tRp1120
sg21
Vtsexams->Accounts Payable Test
p1121
sg23
g17
(g19
S"\n\xc1*\xf8\xe9'\x8a\xbf"
tRp1122
sa(dp1123
g16
g17
(g19
S'\xc4\x07k\xef\x13\xa8\x8c?'
tRp1124
sg21
Vtsexams->Adobe After Effects 7.0 Test
p1125
sg23
g17
(g19
S'\xe4(\xe1\xd6+<\xc7\xbf'
tRp1126
sa(dp1127
g16
g17
(g19
S"('\xb7\xcdn\xfaj?"
tRp1128
sg21
Vtsexams->Adobe Illustrator CS4 Test
p1129
sg23
g17
(g19
S'\xe5}\x07\x15\xdc/\xc0\xbf'
tRp1130
sa(dp1131
g16
g17
(g19
S'\xaaQ\x04Mo\xdeu?'
tRp1132
sg21
Vtsexams->Adobe Illustrator Test
p1133
sg23
g17
(g19
S'\x00F(\x8b\xa8\xbe\xc2\xbf'
tRp1134
sa(dp1135
g16
g17
(g19
S':\xfc l\xc2\xbf\x93?'
tRp1136
sg21
Vtsexams->Adobe Photoshop 6.0
p1137
sg23
g17
(g19
S'!\x11_f\xf9(\xc2\xbf'
tRp1138
sa(dp1139
g16
g17
(g19
S'q\x81\x05QC\xaa\xc0?'
tRp1140
sg21
Vtsexams->Adobe Photoshop CS3 Test
p1141
sg23
g17
(g19
S'\xbe\xeb\x1d\x92\xab/\xd7\xbf'
tRp1142
sa(dp1143
g16
g17
(g19
S'3\xdbm\\XK\xb6?'
tRp1144
sg21
Vtsexams->Adobe Photoshop CS4 Test
p1145
sg23
g17
(g19
S'\xcd\x8c} \xaez\xe9\xbf'
tRp1146
sa(dp1147
g16
g17
(g19
S'`k\x12\xd9O\xd8T?'
tRp1148
sg21
Vtsexams->Adobe Premiere Test
p1149
sg23
g17
(g19
S'k>\x86F<)\xa7\xbf'
tRp1150
sa(dp1151
g16
g17
(g19
S'/a\x92y\x93\xabp?'
tRp1152
sg21
Vtsexams->Advanced PHP Test
p1153
sg23
g17
(g19
S'\xac\x01)3\xd0\x88\xb7\xbf'
tRp1154
sa(dp1155
g16
g17
(g19
S'\x14S\xe8\xaf&\x82]?'
tRp1156
sg21
Vtsexams->Analytical Skills Test
p1157
sg23
g17
(g19
S'\xaauS&R\x9b\xa7\xbf'
tRp1158
sa(dp1159
g16
g17
(g19
S'z\xbb\xa6\xf4\xe9(\x88?'
tRp1160
sg21
Vtsexams->CSS 2.0 Test
p1161
sg23
g17
(g19
S'\xff\xa9)\x1a\x1d\xc2\xc0\xbf'
tRp1162
sa(dp1163
g16
g17
(g19
S'\x96\xc7\xe8\xb2\xcdT\x9d?'
tRp1164
sg21
Vtsexams->CSS 3 Test
p1165
sg23
g17
(g19
S'\x06\xe9\xad\xf3\x1b\x9b\xcb\xbf'
tRp1166
sa(dp1167
g16
g17
(g19
S"('\xb7\xcdn\xfaj?"
tRp1168
sg21
Vtsexams->Chrome Product Test
p1169
sg23
g17
(g19
S'\xe5}\x07\x15\xdc/\xc0\xbf'
tRp1170
sa(dp1171
g16
g17
(g19
S'\x89{\x94*\xbc]\xa4?'
tRp1172
sg21
Vtsexams->Creative Writing Test - Fiction (U.S. Version)
p1173
sg23
g17
(g19
S'x\x1f\x85\xe7\x8dF\xd7\xbf'
tRp1174
sa(dp1175
g16
g17
(g19
S'~k\xf7\x86\x94\xdav?'
tRp1176
sg21
Vtsexams->Creative Writing Test - Non-fiction (U.S. Version)
p1177
sg23
g17
(g19
S"\xb4\x1e'A\xd2!\xc0\xbf"
tRp1178
sa(dp1179
g16
g17
(g19
S'\xed\xba\x1d\xa5\xcc\xe7B?'
tRp1180
sg21
Vtsexams->Dreamweaver 8 Test
p1181
sg23
g17
(g19
S'\xb7F\xbd_\xc2\xaf\x96\xbf'
tRp1182
sa(dp1183
g16
g17
(g19
S'\xa8\x8b\x88\xd7\x81\xfas?'
tRp1184
sg21
Vtsexams->Drupal 6.14 Test
p1185
sg23
g17
(g19
S'6\x81hp\xa9v\xb8\xbf'
tRp1186
sa(dp1187
g16
g17
(g19
S'\xfc\x1c]CE-\xa6?'
tRp1188
sg21
Vtsexams->Email Etiquette Certification
p1189
sg23
g17
(g19
S'\xcb\x0b\xf1\xa3$\x9c\xb2\xbf'
tRp1190
sa(dp1191
g16
g17
(g19
S'6\xed\xe2\xe9Y\xbd\xdc?'
tRp1192
sg21
Vtsexams->English Spelling Test (U.S. Version)
p1193
sg23
g17
(g19
S'\x8c\xe9\x85S#\x9f\xc7\xbf'
tRp1194
sa(dp1195
g16
g17
(g19
S'\xf0\xa5\x19\xf87#\xba?'
tRp1196
sg21
Vtsexams->English Spelling Test (UK Version)
p1197
sg23
g17
(g19
S'l\xf8\xf4\x92\x90\xb2\xd2\xbf'
tRp1198
sa(dp1199
g16
g17
(g19
S'\xa3\x07\xce&Ko\x83?'
tRp1200
sg21
Vtsexams->English To French Translation Skills Test
p1201
sg23
g17
(g19
S'"\xff:\xdb\xcc\xce\xd2\xbf'
tRp1202
sa(dp1203
g16
g17
(g19
S'H\n\xd2\xaa\xd1\xd3\xb6?'
tRp1204
sg21
Vtsexams->English Vocabulary Test (U.S. Version)
p1205
sg23
g17
(g19
S'\x99E\xff\x06\xd9\x87\xba\xbf'
tRp1206
sa(dp1207
g16
g17
(g19
S'w&C\xc1\x0f"\x90?'
tRp1208
sg21
Vtsexams->Facebook Connect Test
p1209
sg23
g17
(g19
S'\x9f\x88Y\xac\xbf\x82\xd5\xbf'
tRp1210
sa(dp1211
g16
g17
(g19
S'\r\\\xa2~{e\x95?'
tRp1212
sg21
Vtsexams->French Spelling Skills Test
p1213
sg23
g17
(g19
S'\xcfa\xb2\xd1\x8a\xe8\xdb\xbf'
tRp1214
sa(dp1215
g16
g17
(g19
S'\x11\x8f\xc6$\x84\xd1\xb6?'
tRp1216
sg21
Vtsexams->HTML 4.01 Test
p1217
sg23
g17
(g19
S'2\xc6<\x1f\xad\xde\xdb\xbf'
tRp1218
sa(dp1219
g16
g17
(g19
S'\xa8\x8b\x88\xd7\x81\xfas?'
tRp1220
sg21
Vtsexams->HTML 5 Test
p1221
sg23
g17
(g19
S'6\x81hp\xa9v\xb8\xbf'
tRp1222
sa(dp1223
g16
g17
(g19
S'*e\x1f\x8bd\xcdt?'
tRp1224
sg21
Vtsexams->JSON Test
p1225
sg23
g17
(g19
S'fy\xf2\xa6x\xf6\xb8\xbf'
tRp1226
sa(dp1227
g16
g17
(g19
S'\x9c_\xd8w\xb5\x12\x85?'
tRp1228
sg21
Vtsexams->JSP 2.0 Test
p1229
sg23
g17
(g19
S'\x15Z\xc5\xb9\xbb\xcc\xd5\xbf'
tRp1230
sa(dp1231
g16
g17
(g19
S'\xca\xd2!\x92\x96\xf9k?'
tRp1232
sg21
Vtsexams->Java Test
p1233
sg23
g17
(g19
S'\xb4\xbf\x18\xbc/x\xb4\xbf'
tRp1234
sa(dp1235
g16
g17
(g19
S'\xc20y\x94i\x9bq?'
tRp1236
sg21
Vtsexams->JavaScript 1.3 Test
p1237
sg23
g17
(g19
S'\xa5\x98\xca\xcc;\xf7\xb6\xbf'
tRp1238
sa(dp1239
g16
g17
(g19
S'\xfb@\ns\xa6\x8d~?'
tRp1240
sg21
Vtsexams->Knowledge of Microsoft Silverlight Skills Test
p1241
sg23
g17
(g19
S'7\xedk\x1b\xfc3\xcc\xbf'
tRp1242
sa(dp1243
g16
g17
(g19
S'\xe1E\xfa\x88\xa2\xf4[?'
tRp1244
sg21
Vtsexams->Knowledge of Windows 7 Skills Test
p1245
sg23
g17
(g19
S'^\x16\x92i*\xfa\xa6\xbf'
tRp1246
sa(dp1247
g16
g17
(g19
S'\xcd\xae\x01\x92\xd9\x02\x97?'
tRp1248
sg21
Vtsexams->Knowledge of jQuery 1.3.2 Skills Test
p1249
sg23
g17
(g19
S'3\xa2Q@F\x0c\xd2\xbf'
tRp1250
sa(dp1251
g16
g17
(g19
S'\xc3$\xe2Zu\x98\x84?'
tRp1252
sg21
Vtsexams->MS Excel 2003 Test
p1253
sg23
g17
(g19
S'\t&\xacoDN\xa5\xbf'
tRp1254
sa(dp1255
g16
g17
(g19
S'\x8d[s\t\x07\x03w?'
tRp1256
sg21
Vtsexams->MS PowerPoint 2007 Test
p1257
sg23
g17
(g19
S'\xaa\x84\x16GEB\xd1\xbf'
tRp1258
sa(dp1259
g16
g17
(g19
S'g]\xae\x08\xde\x19\xb6?'
tRp1260
sg21
Vtsexams->MS Word 2003 Test
p1261
sg23
g17
(g19
S'\xbe\xa2\xf0#A9\xde\xbf'
tRp1262
sa(dp1263
g16
g17
(g19
S'g\xb3\x8aE\t\xf0\x95?'
tRp1264
sg21
Vtsexams->Magento eCommerce Test
p1265
sg23
g17
(g19
S'\xaf=sS>S\xca\xbf'
tRp1266
sa(dp1267
g16
g17
(g19
S'\xb2\x95F\x1by\xb3s?'
tRp1268
sg21
Vtsexams->Management Skills Test
p1269
sg23
g17
(g19
S"\xf9\x92'\xfb\xca4\xb4\xbf"
tRp1270
sa(dp1271
g16
g17
(g19
S'\x84\xb5\xd5\xdc\x86\x83a?'
tRp1272
sg21
Vtsexams->Maya 7.0 Test
p1273
sg23
g17
(g19
S'Q\x80\xb7\xc3\x0b\x06\xae\xbf'
tRp1274
sa(dp1275
g16
g17
(g19
S'L/<\xd4.\xd6\x84?'
tRp1276
sg21
Vtsexams->Objective C Test
p1277
sg23
g17
(g19
S'\xd8#\xe7!\xf3\xa0\xab\xbf'
tRp1278
sa(dp1279
g16
g17
(g19
S'\x9el\x9dI4M\xe0?'
tRp1280
sg21
Vtsexams->Office Skills Test
p1281
sg23
g17
(g19
S'\xb1\x9b\xbc}1\xa3\xea\xbf'
tRp1282
sa(dp1283
g16
g17
(g19
S'm\xeb\xaa\x83\x8e\xbb\x85?'
tRp1284
sg21
Vtsexams->Organizational Behavior Test
p1285
sg23
g17
(g19
S'2r|k\xbd\xff\xbf\xbf'
tRp1286
sa(dp1287
g16
g17
(g19
S'\x0b\xe6\xd3:\xd5\x85w?'
tRp1288
sg21
Vtsexams->Outbound Sales Skills Test
p1289
sg23
g17
(g19
S'\x0b\xe6\xd3:\xd5\x85\xc7\xbf'
tRp1290
sa(dp1291
g16
g17
(g19
S'\x16\xf8[\xa7t~p?'
tRp1292
sg21
Vtsexams->PHP4 Test
p1293
sg23
g17
(g19
S'\xf6\x88\x9bs^\x0e\xa5\xbf'
tRp1294
sa(dp1295
g16
g17
(g19
S'$*\x02\xe9\xe9e\xc0?'
tRp1296
sg21
Vtsexams->PHP5 Test
p1297
sg23
g17
(g19
S'\x80\x9a\xae\xa1\xf9%\xe1\xbf'
tRp1298
sa(dp1299
g16
g17
(g19
S'!\xa7\xec\x19\xf0Oi?'
tRp1300
sg21
Vtsexams->Perl 5 Test
p1301
sg23
g17
(g19
S'U\xcf\x04O\x91x\xb3\xbf'
tRp1302
sa(dp1303
g16
g17
(g19
S'G\xb4\xf2\x99\x8f\xdb\x85?'
tRp1304
sg21
Vtsexams->Programming with C++ Test
p1305
sg23
g17
(g19
S'\xa0\xa8\xf0\x9dj8\xd9\xbf'
tRp1306
sa(dp1307
g16
g17
(g19
S'\xdd\xad\xeb\xc6\xe6\x15\x8f?'
tRp1308
sg21
Vtsexams->Ruby on Rails  2.3 Test
p1309
sg23
g17
(g19
S'\xdd\xad\xeb\xc6\xe6\x15\xdf\xbf'
tRp1310
sa(dp1311
g16
g17
(g19
S'\xb0\xb4\x13\xb2\x80\xa0j?'
tRp1312
sg21
Vtsexams->Ruby on Rails Test
p1313
sg23
g17
(g19
S'\x84\xc7\x8e\x85`\xf8\xb3\xbf'
tRp1314
sa(dp1315
g16
g17
(g19
S'\xee\xa1E\xe0\xe0.\x96?'
tRp1316
sg21
Vtsexams->Social Media Marketing Test
p1317
sg23
g17
(g19
S'{\x9a\xae\xa3\xb4\xa7\xc6\xbf'
tRp1318
sa(dp1319
g16
g17
(g19
S'\x86\xb3\x7f\x98;P\x93?'
tRp1320
sg21
Vtsexams->Technical Writing Skills Certification
p1321
sg23
g17
(g19
S';V\xaf\xd2\xcf\xbb\xc0\xbf'
tRp1322
sa(dp1323
g16
g17
(g19
S'\xa3I\x8a\xfcD`\x9e?'
tRp1324
sg21
Vtsexams->U.S. English Punctuation and Mechanics Test
p1325
sg23
g17
(g19
S'\xef\x1a\xa4}\x00\xb6\xe4\xbf'
tRp1326
sa(dp1327
g16
g17
(g19
S'K\xd0\x0fW+\x7f\xcb?'
tRp1328
sg21
Vtsexams->UK English Basic Skills Test
p1329
sg23
g17
(g19
S'\xd7\xe0\xe4s[\xba\xe9\xbf'
tRp1330
sa(dp1331
g16
g17
(g19
S'"\xc1}*!X\xc8?'
tRp1332
sg21
Vtsexams->Windows XP Test
p1333
sg23
g17
(g19
S'\x8b\xbf\x1e\xa0\xc3\x84\xe2\xbf'
tRp1334
sa(dp1335
g16
g17
(g19
S'\x05\xef\xf3X~\xe1\xa3?'
tRp1336
sg21
Vtsexams->WordPress 2.8 Test
p1337
sg23
g17
(g19
S'\xc7\xea0\xef\xdd\xd9\xd8\xbf'
tRp1338
sa(dp1339
g16
g17
(g19
S'/a\x92y\x93\xabp?'
tRp1340
sg21
Vtsexams->XHTML 1.0 Test
p1341
sg23
g17
(g19
S'\xac\x01)3\xd0\x88\xb7\xbf'
tRp1342
sa(dp1343
g16
g17
(g19
S'm^\xe4\x99:]\xa5?'
tRp1344
sg21
Vtsexams->XML 1.0 Test
p1345
sg23
g17
(g19
S'4h\xfd\x8d\xfeE\xdb\xbf'
tRp1346
sa(dp1347
g16
g17
(g19
S'\x13\xdf\xaaaO-\x9a?'
tRp1348
sg21
Vtsexams->oDesk Readiness Test for Affiliated Contractors
p1349
sg23
g17
(g19
S'\x18r3u\x92i\xdf\xbf'
tRp1350
sa(dp1351
g16
g17
(g19
S'<\xff+.\n\x98\x96?'
tRp1352
sg21
Vtsexams->oDesk Readiness Test for Independent Contractors and Company Managers
p1353
sg23
g17
(g19
S'Y+?J}_\xb7\xbf'
tRp1354
sa(dp1355
g16
g17
(g19
S'xQO\xb1\x10p\xc6?'
tRp1356
sg21
Vtsexams->oDesk Readiness Test for Independent Contractors and Staffing Managers
p1357
sg23
g17
(g19
S'W\xd2\x05\xdb\x90$\xa4\xbf'
tRp1358
sasssS'classifier_type'
p1359
Vlogistic regression
p1360
sssS'_classifier'
p1361
(dp1362
g8
g1
(csklearn.linear_model.logistic
LogisticRegression
p1363
g3
NtRp1364
(dp1365
S'C'
F1
sS'max_iter'
p1366
I100
sS'verbose'
p1367
I0
sS'fit_intercept'
p1368
I01
sS'solver'
p1369
S'liblinear'
p1370
sS'classes_'
p1371
cnumpy.core.multiarray
_reconstruct
p1372
(cnumpy
ndarray
p1373
(I0
tS'b'
tRp1374
(I1
(I2
tg18
(S'S1'
I0
I1
tRp1375
(I3
S'|'
NNNI1
I1
I0
tbI00
S'01'
tbsS'n_iter_'
p1376
g17
(g18
(S'i4'
I0
I1
tRp1377
(I3
S'<'
NNNI-1
I-1
I0
tbS'\x07\x00\x00\x00'
tRp1378
sS'intercept_scaling'
p1379
I1
sS'penalty'
p1380
Vl2
p1381
sS'multi_class'
p1382
S'ovr'
p1383
sS'random_state'
p1384
NsS'dual'
p1385
I00
sS'tol'
p1386
F0.0001
sS'coef_'
p1387
g1372
(g1373
(I0
tS'b'
tRp1388
(I1
(I1
I334
tg18
(S'f8'
I0
I1
tRp1389
(I3
S'<'
NNNI-1
I-1
I0
tbI01
S'`\xf9*\x06Mo\xc2?\x00\x00\x00\x00\x00\x00\x00\x00/\n\x8b\xb8\x91>\xbb\xbf@\x1cW\x83\x1b\x91\xe0\xbf\xa3\xe9\xc5\xb0\x11\x06\xc4?\xd4\xa3\xd7e\xc2\xb2\x97?\x07\x19Ic\xf2vO?\xb8\xa9\xd6\x11\x96\n\x9e?S\xa0\xd0|\xfbi\xc0\xbf\xf9\x96\xcd\xb2\x9e\x9a\xb1?A\xc5z\x9at\xae\xbd\xbf\xaf\x9cT\x8ew\xa6\xb7?3\x1e\xf6M\xe1]\xc6?hQ\x18re\x87\xc6?6o\xc1t\xdb\xa1\x94?N\xe2N\xc6\x80\xfd\xc2\xbf\x82\x06\x99{\x99\xe7\xc3?\x9f\x9d3\n\xfaU\xae\xbf\x19\xc2c\xc8\xd54\x8c\xbf\xc0%\x8c\xdc:\xf0\xa0?\xb1\xcdDr\x10P\xab?\x96\xeb)h\xf6;\xc0\xbfO|`M\xd1Z\xc0\xbf\x87LG\xd8\xdb1\xcd\xbf\x1c\xb6X\x0e\xe5\xee\xa3?\xa0\xba\x99K\xedM\xcd\xbfW\xb3\xf2\xc3\xda7\x90?\xba&i\xaf*z\xb3\xbfC\r]\xdf\xd6\x9f\xc0\xbf\xd0\x1ao}\xcaK\xc9?\xddB\xcc\xc7yF\xce?\xf2\xd0\x8e\xea`\xfc\xc0?4\x0f\xb9\xc1\x8f\xa4\xbe\xbf\xc9=\x08\xc5`\x859?awb\x85\xde\xe9\xb8\xbf\xa5\x82\x81~\xeb0\x9e\xbf\xac\x86\xbe\xf7\x180\x9b\xbf}\xd3\xa5\xcf\xd4\x83\x97\xbf\x8f\x11\xf9)\xccO\xb3\xbf\n=\xe8\xa7!C\x99\xbf\xb3\xfe\x94\xdd\x9a7\x8d\xbf\xbc\xe1T\x074q\xa5\xbf\x84\xe0\xfc\x04L\x84\xc9\xbf\x1aY\xfeB\xe9H\xca?Q.\x00\xb5\xfe@\xb0\xbfF\x062\x13\x9e\xe5\x9d?uYYY\xd2\xef\xc7?\x1c_\xa4w\x83\x95\x9f\xbfQj+\xe0\x18\xf3\xc0\xbf\xa5\xe7!!\x04\xc0\xb0?#J\x18\xa7\t\xc2\xc6?\xb8\xa6\xc0\x96\xef\x15\xa2?\xd4\x89]\xf9S?w\xbf\x83t\xf9w3\x0c\xc2?\x19c\xda\xdd7\xb9\x8c?\\\x1cZ\xd7\x8c\xd4\xb1\xbf\x89\xdb\x11Rb\xf1\xca?i\x0be\x86\xb3\xac\xd1?tF\xd5V\xed\xe7\xd3?^\x8c\x8a\xd7zt\x82?*\x92A\xc1=\xdf\xb1\xbf[\xa8\xfc\xdd=5\xa6?Y\x9e\xc9\x06\xb2\xf0\xab?\xa4\xb0R~v\r\x85\xbfp\x06\x1c\xb9\x15\xaa\xa5\xbf=N\x870 F\x99?\xfb|c9|I\xa0\xbfU\xacI\x80\x91u\x98?z\x03u\x8a\x0c\xf4\xa4\xbf(\x9c\x84\x00\xb5k\xb2?\xb6\xb3*\x14\x83\xc2\x95\xbf\x0b\xd1\xdb\xeeQ)\xca?!\\R\x17c\x9c\xb1?\xc9\x117X\xc2\xa4\xb3\xbfC\xe8\xd8E\xd4t\xbd\xbf\xe2\xa4\xc2(\x12M\xb1?\xc8mkui\x04\xc9\xbf\xc1\xc7\xcfEw{\x94?\xc3\x0c\x8c%\xf9\x9b\xb8\xbfhn\xa8>\xc1*\xa9\xbf*Q\x9b\x9f\xec\xa8\x92\xbf\t\xee\x1b\xd9\x12\x9d\xbb?\t\xa1`\x02j\xb2\xa9\xbfo.\x04\x9f\x88m\xbf\xbf\xbb\x7f\x8etX\x10\xb8? Y\xbdD!>\xd1?\x10\xd6\x98\xf6\xa8G\xad\xbf\xb9A\x9d\x17\xacd\xb9\xbf\xa9TH)\x13\x01\xd4\xbf)\x16C-U\xa1\xa9?G\x9f`\x8c\xac\xd9\xbc?\x8c\xec\xc1p\x10\x8e\xd1?\xb7T\x9fyQ\x18\xc9?\x81\xee\xae\xacG\xf6z?\xf9\xca$\x80\xed\x93\xb4\xbfq\x053R\x87v\xb8?\xfcoz\x8a\x1a\xb2v\xbf\x14F\x86\xbe\x80\xaf\xbc?\xf5j\xc7\x84\x1f\x1c\xb6?E\'\x14\x9e#e\xa1\xbf\xdb\xceS\xd2qI\x9c\xbf0\xfa\xab\xf5Y\xa2\xd0?\xd9A\xa8\xe4\xfb)O\xbf|\x91\xe8\x88\xaa*\xb3?\xd6\xe34\\\x8d\xf5\x90\xbf\xb3\xcc\xdb\xf1\xd7\x04\xba?\xbd\x9e\x98e\xfa\x97\xc7?x%\x9a\xf7_\xaa\xa5\xbf%\x14`\xe5\xddq\xac\xbfj\xe2\x8aV\x0c\x02\xd7?\xbe\xc5\xd7\xe2c\xf5\xc0\xbf\xc4\xad\x95e\x1d\xfa\xd9?St/\xd3\xb7\xe1\xd3\xbf\xf9\x93\x14\'\xc6!\xb5\xbf:\xa4\xe0\xbb\xc2\xa2\xae?\xc3x\x9dV\xa6\xd8\x99\xbf\xcc=\xb6q\xfc\xda\xa3\xbf\x1f\x7f\xc3FG\xfe\xa0?h\xf4\xdc\xddK:\xa2\xbf\x0f\x86\x8e\xd1\xe1\xb5\xba\xbf\xa8\x93\x9bAb|\xd4\xbf\x9f,\xa2\xc7\xd3]\xc0?\x04\xdc\x84;|[\xa7\xbf\x8d\xfeU\xe2\xc7\x95\x90\xbf\x02`F\xabw\'\xae\xbf^d[\x07`\xf2\xd9?\xd8iH\xb8Q\x85\xd1?\xf6\xd9\xdeAUI\xd7?-\x17\x1aO\x91\x95\xb5\xbf\xa3\xb1\xdf\xba~\x8a\xc1?\xfa\x92\x00\xd5{\xc8\xa0\xbf9BxF\x8fq\xd4?\x9a\xd6~f\x98\xb2\x91?|\x86\xed\xd3BL\xcc?\x0f2\x0e\x93\xd3f\xb0\xbf\xa7P\x846\xc8\xba\xa3?\x8a{E(\xaf\xfb\xc2\xbfM|\xe8#\xc4\xb1\xc5\xbf\x99\x89\xad^k\x03\xdb?\x1f\xbb\xf2\x8b\xea\x89\xac\xbfc\xd2]\x15\x9ed\x96\xbfZ\xa5\xbeb\xf5\x93\xc7\xbf\x8e\x9a\x0e\xe8\xa2"\xbf?\xa3\x15]"\xa4\x90\x91\xbf\xc7^\x15\xea\x86\xe7\xa6?\x17\x16\xf5\x990\x93\xc5\xbfE\xbd\xdd\x9a\xd5\xe2\xa1\xbf\r\x93$\x89\xd9L\xd0?=[\xeb\xd8\xd8\xcb\x8c\xbf\xbc\xc8}\xaai8\xd5?\x1c_\x9d\x0b\xd9/\xc1?x\x12\xa4v\x05u\x90?\x7f\xe9\x84V\xdeQ\xba\xbf\x1c\xd7X\roO\xb9?m\xb4\xb7V\'D\xdc?\xdc\x1by\x8b\xb3tz\xbfq\x05\xe8\xf4\x9c\xc7\xc3?D\x94\xbf\x80\xf6\xfd\x95?\xcf\x8c\x82\xf0\xe1A\xa2\xbf\xdao\xee\xa5\x16^\x83\xbf\x81\x9b;\xb3\x88\x93\xc5\xbf%\x0e9G \x87\xc0\xbf\xe4h\xcb\xbcC!\xb6?\xdfh\xc2\x0b\x9d\xdc\xa6\xbf\xb2\x0b\x95\xb6*\xf8\xc0?!\xdd\xae\xbcl\x9a\xbc?\x00\x00\x00\x00\x00\x00\x00\x00D\xdd\xbd^U\xe3\x82?\xdc"\x9aAi\xc5\xce?\xc4qC}I\xbd\x87?\xba\x8agu\x82\x9f\x85?\x88Y@\x15D\xff\xa5?T\xa8*\xaa5b\x9d?\xa1\x058.\xe3O\xaf\xbfx\xa3\x15\xa7\xabF\xcc\xbfs1\xf2\xc0\x8e\xb2\xc7?>C\xf4\x04G\xa2\xc9?\x99\x0e\x0c\x83D7\xb6?\x96\xd1\x16\xc3i\x80\xd4\xbf\xa6\xe1\x96\xe4\xc2\x9b\xc3\xbf\xa7\xc8\xca\xea%\xa9\xb9?[u\xa5I\xf4\x10\xa8\xbf\x08cr\xee,\xe6\xa9\xbf#\x99\x12_\xf8\x16\x9d?t \xff2\xbe\xf4\xba?ggt\xfc\xc7\x89\xd3?0\x92\xd5\x1cR\x0f\xc5\xbf\xc8\x97d[\xd7@\x85?9\x03\x8c\xa9K\xc5\xd7?\x928d\x195&\x82\xbf\x99R=,\xef\xe6\x97?\xfb\x80T\x9cH\x8f\xc1\xbf\xa0\xa9\x8b\xfb\x083`?d\xdd<\xe3SS\xc0?\x03\xeb \xef\x88\x00\xb4?/\x03\x9e\xf4@\x85\xc1\xbfJ\x00\x90uM\xf9\xd1?\x8a\x15\xd4\xed(-\xa4?\xc9\xfb\xf3/\xdc\x82\xb4\xbf\x9bw\xe9\xb3\xfd\x11t\xbf\xaa\x84\x16GEB\xc1\xbf\x93\x01\x90\x99i&\x96\xbfA\xde)\xbdM>\xa1\xbfDY\x16\x11\x816g\xbf\xd1\x02:\xfe\x06\x8d\xa8?\xbc,E\xf3\x9f\xae\xc5?\xb7\xf5\xd9t}\xb1\xb7?\x18\x9f\xff\xf8\xbd\xb6\xb1?\x8co5o6\xcb\xd8\xbf\xfa\xe7\xb9\xae\x0cp\xc4?\xf3\x06!\xbd\xc4d\xd6\xbf\x00\xec\x87\x9c\x92X\xa0?#\x1brs\x07\x0e\x96\xbf\xe3\xd4\x04)GK\xb4\xbf\xe3\xd4\x04)GK\xb4\xbf\x82t\x16\x931\x9b\xdb?~\xdf/\xd8R\x90\xd4\xbf\x144\xce\x02\xeaC\xcb?\x08-\xc7\xf4PP\xbd\xbf\xc6\xbd\xbc\xe2\xfc\x8f\xc6\xbf\xedj\xcf\x8cUo\xc6?\xa9\x11@\xf3J\x95\x81?\x1a\xe4-5\x03\xde\x81?\n\xc1*\xf8\xe9\'\x8a\xbf\xf3\xe7c\xbd\xfba\xa6?\xe4(\xe1\xd6+<\xc7\xbf\x02N}\xa7c\xaa\xd6?8\xf6b\x90+\x00\xec?\xe5}\x07\x15\xdc/\xc0\xbf\x00F(\x8b\xa8\xbe\xc2\xbf!\x11_f\xf9(\xc2\xbf\xbe\xeb\x1d\x92\xab/\xd7\xbf\xcd\x8c} \xaez\xe9\xbfk>\x86F<)\xa7\xbf\xac\x01)3\xd0\x88\xb7\xbf\xaauS&R\x9b\xa7\xbf\xb0\xb8\xb3\xb1+\xf3\xcb?\xd2\x9b\xa0\x91z\xc7\xd0?\xa1\xc3?\x9a\xab\x04\xd1?\xff\xa9)\x1a\x1d\xc2\xc0\xbf\x06\xe9\xad\xf3\x1b\x9b\xcb\xbf\x16\x11#%\xe2o\xcd?\xe5}\x07\x15\xdc/\xc0\xbfU\xf1\xf1W1c\x84?\xbc\x96u\x1a\x0b\xf3\xaf?x\x1f\x85\xe7\x8dF\xd7\xbf\xb4\x1e\'A\xd2!\xc0\xbf|G\xa7\xfa*;\xe5?\xb7F\xbd_\xc2\xaf\x96\xbf6\x81hp\xa9v\xb8\xbf\xcb\x0b\xf1\xa3$\x9c\xb2\xbf\x8c\xe9\x85S#\x9f\xc7\xbfl\xf8\xf4\x92\x90\xb2\xd2\xbf"\xff:\xdb\xcc\xce\xd2\xbf\xa1\x1c3\x81RG\xd1?a\x19\xc3\nF+\xcf?\x99E\xff\x06\xd9\x87\xba\xbf\x82\xb4w\xebD\x84\xce?\x9f\x88Y\xac\xbf\x82\xd5\xbf\xcfa\xb2\xd1\x8a\xe8\xdb\xbf?fjH\x8fI\xd3?\xd4\x1e\xfd\x1aj9\x82?\xba\xbd=2\r\x91\xaa?\x1dT`H\xac\x12\xdf?\xb9v\x8f\xdb\xb9/\xd2?2\xc6<\x1f\xad\xde\xdb\xbf6\x81hp\xa9v\xb8\xbfD\x9469+\x97\xd4?;4\xb5\x8d8\xbf\xd0?b-\xc7\xb2]v\xd6?fy\xf2\xa6x\xf6\xb8\xbf\x15Z\xc5\xb9\xbb\xcc\xd5\xbf\xb4\xbf\x18\xbc/x\xb4\xbf\xa5\x98\xca\xcc;\xf7\xb6\xbf\xa1\xf3\xb8\x1av\xd0\xcf?R\xb4?\xb8\xd9\xe8\xd6?7\xedk\x1b\xfc3\xcc\xbf^\x16\x92i*\xfa\xa6\xbf3\xa2Q@F\x0c\xd2\xbf\t&\xacoDN\xa5\xbf\x84y\xaf\x8c\xbf\xfa\xd2?\xaa\x84\x16GEB\xd1\xbf\xbe\xa2\xf0#A9\xde\xbf\x13\xcb\xdf\x18\x9f\xa5\xd4?\xaf=sS>S\xca\xbf\xf9\x92\'\xfb\xca4\xb4\xbfQ\x80\xb7\xc3\x0b\x06\xae\xbf\\\x85\x9c\x14\xb6v\xa5?;h\x85\\\xa0M\xa6?\xed\x9e\x13\x94\xf9\xa4\xd7?\xf7^\x03\x7f:=\xe1?\xd8#\xe7!\xf3\xa0\xab\xbf\xb1\x9b\xbc}1\xa3\xea\xbfL_`3\x8co\xa5?2r|k\xbd\xff\xbf\xbf\x0b\xe6\xd3:\xd5\x85\xc7\xbf\xc9\xfc\xc5\xfc\xa1\xca\xb4?\xf6\x88\x9bs^\x0e\xa5\xbf\x80\x9a\xae\xa1\xf9%\xe1\xbfU\xcf\x04O\x91x\xb3\xbfo\x83\xaa\xcd\xd2\x91\xdc?\xa0\xa8\xf0\x9dj8\xd9\xbfWX?\xa6\x8e7\xd4?<\t\xe0Y,Fv?\xca\xed6\xd9\xb0\x06\xd1?\x95\xd7\xbd\xd3\xc9\xb1\xa4?\xdd\xad\xeb\xc6\xe6\x15\xdf\xbf\x84\xc7\x8e\x85`\xf8\xb3\xbf\x85\xfd\xeah\x16\x07\xda?\x95sz\x03L\xf8\x96?\xba\xbd=2\r\x91\xaa?{\x9a\xae\xa3\xb4\xa7\xc6\xbf\x88@\xf5\x1e\xea\x13\xe5?\x8a\xb4\xcf\x80\xd6E\xd5?;V\xaf\xd2\xcf\xbb\xc0\xbf\xa6\xf7\x9c|\xb7f\xd3?\xe8\xf5\xf8:0G\xcb?\xde\xe6\xd3<m\xc5\xb9?\xef\x1a\xa4}\x00\xb6\xe4\xbf\xa5^X4\xc6p\xcb?q\x01\xc6\xec\xa8*\xeb?\xd7\xe0\xe4s[\xba\xe9\xbfY\x10\xf3\xf2\xa2\x8f\xbd?\x8b\xbf\x1e\xa0\xc3\x84\xe2\xbf\xc7\xea0\xef\xdd\xd9\xd8\xbf\xaeA\x11eh\xd7\xa8?\xac\x01)3\xd0\x88\xb7\xbf4h\xfd\x8d\xfeE\xdb\xbf\xed\xb0zk\xeb8\xc6?Y \t\x04\xf0\xef\xd4?\x18r3u\x92i\xdf\xbf\xd5Y\x07\xe8\xca5\xe8?Y+?J}_\xb7\xbfW\xd2\x05\xdb\x90$\xa4\xbf'
tbsS'intercept_'
p1390
g1372
(g1373
(I0
tS'b'
tRp1391
(I1
(I1
tg1389
I00
S'H\x13\x1b\xbcL\x87\x89\xbf'
tbsS'class_weight'
p1392
NsbssS'version'
p1393
S'0.0.2-SNAPSHOT'
p1394
sS'_segments'
p1395
(dp1396
g8
I96
ssS'_feature_model'
p1397
g1
(ccore.trainer.config
FeatureModel
p1398
g3
NtRp1399
(dp1400
S'features'
p1401
ccollections
OrderedDict
p1402
((lp1403
(lp1404
Vcontractor.dev_active_interviews
p1405
a(dp1406
S'transformer'
p1407
NsS'name'
p1408
g1405
sS'scaler'
p1409
g1
(csklearn.preprocessing.data
MinMaxScaler
p1410
g3
NtRp1411
(dp1412
S'copy'
p1413
I01
sS'feature_range'
p1414
(I0
I1
tp1415
sbsg8
NsS'required'
p1416
I01
sS'input-format'
p1417
S'plain'
p1418
sS'transformer-type'
p1419
NsS'type'
p1420
g1
(ccore.trainer.feature_types.primitive_types
PrimitiveFeatureTypeInstance
p1421
g3
NtRp1422
(dp1423
S'_default_params'
p1424
(lp1425
sS'python_type'
p1426
c__builtin__
int
p1427
sS'_default_value'
p1428
NsS'preprocessor'
p1429
NsS'default_scaler'
p1430
S'MinMaxScaler'
p1431
sS'_params'
p1432
Nsbsaa(lp1433
Vcontractor.dev_adj_score
p1434
a(dp1435
g1407
Nsg1408
g1434
sg1409
g1
(g1410
g3
NtRp1436
(dp1437
g1413
I01
sg1414
(I0
I1
tp1438
sbsg8
Nsg1416
I01
sg1417
g1418
sg1419
Nsg1420
g1
(g1421
g3
NtRp1439
(dp1440
g1424
g1425
sg1426
c__builtin__
float
p1441
sg1428
Nsg1429
Nsg1430
g1431
sg1432
Nsbsaa(lp1442
Vcontractor.dev_adj_score_recent
p1443
a(dp1444
g1407
Nsg1408
g1443
sg1409
g1
(g1410
g3
NtRp1445
(dp1446
g1413
I01
sg1414
(I0
I1
tp1447
sbsg8
Nsg1416
I01
sg1417
g1418
sg1419
Nsg1420
g1
(g1421
g3
NtRp1448
(dp1449
g1424
g1425
sg1426
g1441
sg1428
Nsg1429
Nsg1430
g1431
sg1432
Nsbsaa(lp1450
Vcontractor.dev_availability
p1451
a(dp1452
g1407
Nsg1408
g1451
sg1409
g1
(g1410
g3
NtRp1453
(dp1454
g1413
I01
sg1414
(I0
I1
tp1455
sbsg8
Nsg1416
I01
sg1417
g1418
sg1419
Nsg1420
g1
(g1421
g3
NtRp1456
(dp1457
g1424
g1425
sg1426
g1427
sg1428
Nsg1429
Nsg1430
g1431
sg1432
Nsbsaa(lp1458
Vcontractor.dev_billed_assignments
p1459
a(dp1460
g1407
Nsg1408
g1459
sg1409
g1
(g1410
g3
NtRp1461
(dp1462
g1413
I01
sg1414
(I0
I1
tp1463
sbsg8
Nsg1416
I01
sg1417
g1418
sg1419
Nsg1420
g1
(g1421
g3
NtRp1464
(dp1465
g1424
g1425
sg1426
g1427
sg1428
Nsg1429
Nsg1430
g1431
sg1432
Nsbsaa(lp1466
Vcontractor.dev_bill_rate
p1467
a(dp1468
g1407
Nsg1408
g1467
sg1409
g1
(g1410
g3
NtRp1469
(dp1470
g1413
I01
sg1414
(I0
I1
tp1471
sbsg8
Nsg1416
I01
sg1417
g1418
sg1419
Nsg1420
g1
(g1421
g3
NtRp1472
(dp1473
g1424
g1425
sg1426
g1441
sg1428
Nsg1429
Nsg1430
g1431
sg1432
Nsbsaa(lp1474
Vcontractor.dev_blurb
p1475
a(dp1476
g1407
g1
(csklearn.feature_extraction.text
TfidfVectorizer
p1477
g3
NtRp1478
(dp1479
S'decode_error'
p1480
Vstrict
p1481
sS'lowercase'
p1482
I01
sS'stop_words'
p1483
NsS'vocabulary'
p1484
NsS'tokenizer'
p1485
NsS'encoding'
p1486
Vutf-8
p1487
sS'token_pattern'
p1488
V(?u)\u005cb\u005cw\u005cw+\u005cb
p1489
sS'analyzer'
p1490
Vword
p1491
sS'binary'
p1492
I00
sS'ngram_range'
p1493
(I1
I1
tp1494
sg1429
NsS'max_df'
p1495
F1
sS'min_df'
p1496
I10
sS'max_features'
p1497
NsS'input'
p1498
Vcontent
p1499
sS'_tfidf'
p1500
g1
(csklearn.feature_extraction.text
TfidfTransformer
p1501
g3
NtRp1502
(dp1503
S'use_idf'
p1504
I01
sS'smooth_idf'
p1505
I01
sS'sublinear_tf'
p1506
I00
sS'norm'
p1507
Vl2
p1508
sbsS'dtype'
p1509
cnumpy
int64
p1510
sS'strip_accents'
p1511
Nsbsg1408
g1475
sg1409
g1
(g1410
g3
NtRp1512
(dp1513
g1413
I01
sg1414
(I0
I1
tp1514
sbsg8
Nsg1416
I01
sg1417
g1418
sg1419
VTfidf
p1515
sg1420
g1
(g1421
g3
NtRp1516
(dp1517
g1424
g1425
sg1426
c__builtin__
str
p1518
sg1428
Nsg1429
Nsg1430
g1431
sg1432
Nsbsaa(lp1519
Vcontractor.dev_cur_assignments
p1520
a(dp1521
g1407
Nsg1408
g1520
sg1409
g1
(g1410
g3
NtRp1522
(dp1523
g1413
I01
sg1414
(I0
I1
tp1524
sbsg8
Nsg1416
I01
sg1417
g1418
sg1419
Nsg1420
g1
(g1421
g3
NtRp1525
(dp1526
g1424
g1425
sg1426
g1427
sg1428
Nsg1429
Nsg1430
g1431
sg1432
Nsbsaa(lp1527
Vcontractor.dev_eng_skill
p1528
a(dp1529
g1407
Nsg1408
g1528
sg1409
g1
(g1410
g3
NtRp1530
(dp1531
g1413
I01
sg1414
(I0
I1
tp1532
sbsg8
Nsg1416
I01
sg1417
g1418
sg1419
Nsg1420
g1
(g1421
g3
NtRp1533
(dp1534
g1424
g1425
sg1426
g1427
sg1428
Nsg1429
Nsg1430
g1431
sg1432
Nsbsaa(lp1535
Vcontractor.dev_expose_full_name
p1536
a(dp1537
g1407
Nsg1408
g1536
sg1409
g1
(g1410
g3
NtRp1538
(dp1539
g1413
I01
sg1414
(I0
I1
tp1540
sbsg8
Nsg1416
I01
sg1417
g1418
sg1419
Nsg1420
g1
(g1421
g3
NtRp1541
(dp1542
g1424
g1425
sg1426
g1441
sg1428
Nsg1429
Nsg1430
g1431
sg1432
Nsbsaa(lp1543
Vcontractor.dev_is_looking
p1544
a(dp1545
g1407
Nsg1408
g1544
sg1409
g1
(g1410
g3
NtRp1546
(dp1547
g1413
I01
sg1414
(I0
I1
tp1548
sbsg8
Nsg1416
I01
sg1417
g1418
sg1419
Nsg1420
g1
(g1421
g3
NtRp1549
(dp1550
g1424
g1425
sg1426
c__builtin__
bool
p1551
sg1428
Nsg1429
Nsg1430
g1431
sg1432
Nsbsaa(lp1552
Vcontractor.dev_is_looking_week
p1553
a(dp1554
g1407
Nsg1408
g1553
sg1409
g1
(g1410
g3
NtRp1555
(dp1556
g1413
I01
sg1414
(I0
I1
tp1557
sbsg8
Nsg1416
I01
sg1417
g1418
sg1419
Nsg1420
g1
(g1421
g3
NtRp1558
(dp1559
g1424
g1425
sg1426
g1551
sg1428
Nsg1429
Nsg1430
g1431
sg1432
Nsbsaa(lp1560
Vcontractor.dev_last_worked
p1561
a(dp1562
g1407
Nsg1408
g1561
sg1409
g1
(g1410
g3
NtRp1563
(dp1564
g1413
I01
sg1414
(I0
I1
tp1565
sbsg8
I946684800
sg1416
I01
sg1417
g1418
sg1419
Nsg1420
g1
(ccore.trainer.feature_types.date
DateFeatureTypeInstance
p1566
g3
NtRp1567
(dp1568
g1430
g1431
sg1424
g1425
sg1429
Nsg1428
I946684800
sg1432
(dp1569
Vpattern
p1570
V%B %d, %Y
p1571
ssbsaa(lp1572
Vcontractor.dev_pay_rate
p1573
a(dp1574
g1407
Nsg1408
g1573
sg1409
g1
(g1410
g3
NtRp1575
(dp1576
g1413
I01
sg1414
(I0
I1
tp1577
sbsg8
Nsg1416
I01
sg1417
g1418
sg1419
Nsg1420
g1
(g1421
g3
NtRp1578
(dp1579
g1424
g1425
sg1426
g1441
sg1428
Nsg1429
Nsg1430
g1431
sg1432
Nsbsaa(lp1580
Vcontractor.dev_portfolio_items_count
p1581
a(dp1582
g1407
Nsg1408
g1581
sg1409
g1
(g1410
g3
NtRp1583
(dp1584
g1413
I01
sg1414
(I0
I1
tp1585
sbsg8
Nsg1416
I01
sg1417
g1418
sg1419
Nsg1420
g1
(g1421
g3
NtRp1586
(dp1587
g1424
g1425
sg1426
g1427
sg1428
Nsg1429
Nsg1430
g1431
sg1432
Nsbsaa(lp1588
Vcontractor.dev_profile_title
p1589
a(dp1590
g1407
g1
(g1477
g3
NtRp1591
(dp1592
g1480
g1481
sg1482
I01
sg1483
Nsg1484
Nsg1485
Nsg1486
g1487
sg1488
g1489
sg1490
g1491
sg1492
I00
sg1493
(I1
I1
tp1593
sg1429
Nsg1495
F1
sg1496
I3
sg1497
Nsg1498
g1499
sg1500
g1
(g1501
g3
NtRp1594
(dp1595
g1504
I01
sg1505
I01
sg1506
I00
sg1507
g1508
sbsg1509
g1510
sg1511
Nsbsg1408
g1589
sg1409
g1
(g1410
g3
NtRp1596
(dp1597
g1413
I01
sg1414
(I0
I1
tp1598
sbsg8
Nsg1416
I01
sg1417
g1418
sg1419
VTfidf
p1599
sg1420
g1
(g1421
g3
NtRp1600
(dp1601
g1424
g1425
sg1426
g1518
sg1428
Nsg1429
Nsg1430
g1431
sg1432
Nsbsaa(lp1602
Vcontractor.dev_rank_percentile
p1603
a(dp1604
g1407
Nsg1408
g1603
sg1409
g1
(g1410
g3
NtRp1605
(dp1606
g1413
I01
sg1414
(I0
I1
tp1607
sbsg8
Nsg1416
I01
sg1417
g1418
sg1419
Nsg1420
g1
(g1421
g3
NtRp1608
(dp1609
g1424
g1425
sg1426
g1441
sg1428
Nsg1429
Nsg1430
g1431
sg1432
Nsbsaa(lp1610
Vcontractor.dev_recent_fp_jobs
p1611
a(dp1612
g1407
Nsg1408
g1611
sg1409
g1
(g1410
g3
NtRp1613
(dp1614
g1413
I01
sg1414
(I0
I1
tp1615
sbsg8
Nsg1416
I01
sg1417
g1418
sg1419
Nsg1420
g1
(g1421
g3
NtRp1616
(dp1617
g1424
g1425
sg1426
g1427
sg1428
Nsg1429
Nsg1430
g1431
sg1432
Nsbsaa(lp1618
Vcontractor.dev_recent_hourly_jobs
p1619
a(dp1620
g1407
Nsg1408
g1619
sg1409
g1
(g1410
g3
NtRp1621
(dp1622
g1413
I01
sg1414
(I0
I1
tp1623
sbsg8
Nsg1416
I01
sg1417
g1418
sg1419
Nsg1420
g1
(g1421
g3
NtRp1624
(dp1625
g1424
g1425
sg1426
g1427
sg1428
Nsg1429
Nsg1430
g1431
sg1432
Nsbsaa(lp1626
Vcontractor.dev_recent_hours
p1627
a(dp1628
g1407
Nsg1408
g1627
sg1409
g1
(g1410
g3
NtRp1629
(dp1630
g1413
I01
sg1414
(I0
I1
tp1631
sbsg8
Nsg1416
I01
sg1417
g1418
sg1419
Nsg1420
g1
(g1421
g3
NtRp1632
(dp1633
g1424
g1425
sg1426
g1427
sg1428
Nsg1429
Nsg1430
g1431
sg1432
Nsbsaa(lp1634
Vcontractor.dev_recent_rank_percentile
p1635
a(dp1636
g1407
Nsg1408
g1635
sg1409
g1
(g1410
g3
NtRp1637
(dp1638
g1413
I01
sg1414
(I0
I1
tp1639
sbsg8
Nsg1416
I01
sg1417
g1418
sg1419
Nsg1420
g1
(g1421
g3
NtRp1640
(dp1641
g1424
g1425
sg1426
g1441
sg1428
Nsg1429
Nsg1430
g1431
sg1432
Nsbsaa(lp1642
Vcontractor.dev_skill_test_passed_count
p1643
a(dp1644
g1407
Nsg1408
g1643
sg1409
g1
(g1410
g3
NtRp1645
(dp1646
g1413
I01
sg1414
(I0
I1
tp1647
sbsg8
Nsg1416
I01
sg1417
g1418
sg1419
Nsg1420
g1
(g1421
g3
NtRp1648
(dp1649
g1424
g1425
sg1426
g1427
sg1428
Nsg1429
Nsg1430
g1431
sg1432
Nsbsaa(lp1650
Vcontractor.dev_test_passed_count
p1651
a(dp1652
g1407
Nsg1408
g1651
sg1409
g1
(g1410
g3
NtRp1653
(dp1654
g1413
I01
sg1414
(I0
I1
tp1655
sbsg8
Nsg1416
I01
sg1417
g1418
sg1419
Nsg1420
g1
(g1421
g3
NtRp1656
(dp1657
g1424
g1425
sg1426
g1427
sg1428
Nsg1429
Nsg1430
g1431
sg1432
Nsbsaa(lp1658
Vcontractor.dev_timezone
p1659
a(dp1660
g1407
Nsg1408
g1659
sg1409
Nsg8
Nsg1416
I01
sg1417
g1418
sg1419
Nsg1420
g1
(ccore.trainer.feature_types.composite
CompositeFeatureTypeInstance
p1661
g3
NtRp1662
(dp1663
g1424
Nsg1428
Nsg1429
Nsg1430
NsS'strategies'
p1664
(lp1665
g1
(ccore.trainer.feature_types.regex
RegexFeatureTypeInstance
p1666
g3
NtRp1667
(dp1668
g1430
g1431
sg1424
g1425
sg1429
Nsg1428
Nsg1432
(dp1669
Vpattern
p1670
VUTC([-\u005c+]+\u005cd\u005cd).*
p1671
ssbag1
(g1421
g3
NtRp1672
(dp1673
g1424
g1425
sg1426
g1427
sg1428
Nsg1429
Nsg1430
g1431
sg1432
Nsbasg1432
Nsbsaa(lp1674
Vcontractor.dev_total_hourly_jobs
p1675
a(dp1676
g1407
Nsg1408
g1675
sg1409
g1
(g1410
g3
NtRp1677
(dp1678
g1413
I01
sg1414
(I0
I1
tp1679
sbsg8
Nsg1416
I01
sg1417
g1418
sg1419
Nsg1420
g1
(g1421
g3
NtRp1680
(dp1681
g1424
g1425
sg1426
g1427
sg1428
Nsg1429
Nsg1430
g1431
sg1432
Nsbsaa(lp1682
Vcontractor.dev_total_hours_rounded
p1683
a(dp1684
g1407
Nsg1408
g1683
sg1409
g1
(g1410
g3
NtRp1685
(dp1686
g1413
I01
sg1414
(I0
I1
tp1687
sbsg8
Nsg1416
I01
sg1417
g1418
sg1419
Nsg1420
g1
(g1421
g3
NtRp1688
(dp1689
g1424
g1425
sg1426
g1427
sg1428
Nsg1429
Nsg1430
g1431
sg1432
Nsbsaa(lp1690
Vcontractor.dev_total_revenue
p1691
a(dp1692
g1407
Nsg1408
g1691
sg1409
g1
(g1410
g3
NtRp1693
(dp1694
g1413
I01
sg1414
(I0
I1
tp1695
sbsg8
Nsg1416
I01
sg1417
g1418
sg1419
Nsg1420
g1
(g1421
g3
NtRp1696
(dp1697
g1424
g1425
sg1426
g1441
sg1428
Nsg1429
Nsg1430
g1431
sg1432
Nsbsaa(lp1698
Vcontractor.dev_tot_feedback
p1699
a(dp1700
g1407
Nsg1408
g1699
sg1409
g1
(g1410
g3
NtRp1701
(dp1702
g1413
I01
sg1414
(I0
I1
tp1703
sbsg8
Nsg1416
I01
sg1417
g1418
sg1419
Nsg1420
g1
(g1421
g3
NtRp1704
(dp1705
g1424
g1425
sg1426
g1427
sg1428
Nsg1429
Nsg1430
g1431
sg1432
Nsbsaa(lp1706
Vcontractor.dev_tot_feedback_recent
p1707
a(dp1708
g1407
Nsg1408
g1707
sg1409
g1
(g1410
g3
NtRp1709
(dp1710
g1413
I01
sg1414
(I0
I1
tp1711
sbsg8
Nsg1416
I01
sg1417
g1418
sg1419
Nsg1420
g1
(g1421
g3
NtRp1712
(dp1713
g1424
g1425
sg1426
g1427
sg1428
Nsg1429
Nsg1430
g1431
sg1432
Nsbsaa(lp1714
Vcontractor.dev_year_exp
p1715
a(dp1716
g1407
Nsg1408
g1715
sg1409
g1
(g1410
g3
NtRp1717
(dp1718
g1413
I01
sg1414
(I0
I1
tp1719
sbsg8
Nsg1416
I01
sg1417
g1418
sg1419
Nsg1420
g1
(g1421
g3
NtRp1720
(dp1721
g1424
g1425
sg1426
g1427
sg1428
Nsg1429
Nsg1430
g1431
sg1432
Nsbsaa(lp1722
Vcountry_pair
p1723
a(dp1724
g1407
Nsg1408
g1723
sg1409
Nsg8
Nsg1416
I01
sg1417
g1418
sg1419
Nsg1420
g1
(ccore.trainer.feature_types.categorical
CategoricalFeatureTypeInstance
p1725
g3
NtRp1726
(dp1727
g1430
Nsg1424
g1425
sg1429
g1
(csklearn.feature_extraction.text
CountVectorizer
p1728
g3
NtRp1729
(dp1730
g1480
Vstrict
p1731
sg1482
I01
sg1483
Nsg1484
Nsg1485
Nsg1486
Vutf-8
p1732
sg1488
S'.+'
p1733
sg1490
Vword
p1734
sg1492
I01
sg1493
(I1
I1
tp1735
sg1429
Nsg1495
F1
sg1496
I0
sg1497
Nsg1498
Vcontent
p1736
sg1509
g1510
sg1511
Nsbsg1428
Nsg1432
Nsbsaa(lp1737
Vemployer.op_country_tz
p1738
a(dp1739
g1407
Nsg1408
g1738
sg1409
Nsg8
Nsg1416
I01
sg1417
g1418
sg1419
Nsg1420
g1662
saa(lp1740
Vemployer.op_timezone
p1741
a(dp1742
g1407
Nsg1408
g1741
sg1409
Nsg8
Nsg1416
I01
sg1417
g1418
sg1419
Nsg1420
g1662
saa(lp1743
Vemployer.op_tot_jobs_filled
p1744
a(dp1745
g1407
Nsg1408
g1744
sg1409
g1
(g1410
g3
NtRp1746
(dp1747
g1413
I01
sg1414
(I0
I1
tp1748
sbsg8
Nsg1416
I01
sg1417
g1418
sg1419
Nsg1420
g1
(g1421
g3
NtRp1749
(dp1750
g1424
g1425
sg1426
g1427
sg1428
Nsg1429
Nsg1430
g1431
sg1432
Nsbsaa(lp1751
Vhire_outcome
p1752
a(dp1753
g1407
Nsg1408
g1752
sg1409
g1
(g1410
g3
NtRp1754
(dp1755
g1413
I01
sg1414
(I0
I1
tp1756
sbsg8
Nsg1416
I01
sg1417
g1418
sg1419
Nsg1420
g1
(ccore.trainer.feature_types.ordinal
OrdinalFeatureTypeInstance
p1757
g3
NtRp1758
(dp1759
g1430
g1431
sg1424
g1425
sg1429
Nsg1428
Nsg1432
(dp1760
Vmappings
p1761
(dp1762
Vclass2
p1763
I0
sVclass1
p1764
I1
sssbsaa(lp1765
g1109
a(dp1766
g1407
Nsg1408
g1109
sg1409
g1
(g1410
g3
NtRp1767
(dp1768
g1413
I01
sg1414
(I0
I1
tp1769
sbsg8
Nsg1416
I01
sg1417
g1418
sg1419
Nsg1420
g1
(g1421
g3
NtRp1770
(dp1771
g1424
g1425
sg1426
g1427
sg1428
Nsg1429
Nsg1430
g1431
sg1432
Nsbsaa(lp1772
Vtsexams
p1773
a(dp1774
g1407
Nsg1408
g1773
sg1409
g1
(g1410
g3
NtRp1775
(dp1776
g1413
I01
sg1414
(I0
I1
tp1777
sbsg8
F0.33000000000000002
sg1416
I01
sg1417
Vdict
p1778
sg1419
Nsg1420
g1
(g1421
g3
NtRp1779
(dp1780
g1424
g1425
sg1426
g1441
sg1428
Nsg1429
g1
(csklearn.feature_extraction.dict_vectorizer
DictVectorizer
p1781
g3
NtRp1782
(dp1783
S'sort'
p1784
I01
sg1509
cnumpy
float64
p1785
sS'separator'
p1786
S'='
sS'sparse'
p1787
I01
sbsg1430
g1431
sg1432
NsbsaatRp1788
sS'required_feature_names'
p1789
(lp1790
g1405
ag1434
ag1443
ag1451
ag1459
ag1467
ag1475
ag1520
ag1528
ag1536
ag1544
ag1553
ag1561
ag1573
ag1581
ag1589
ag1603
ag1611
ag1619
ag1627
ag1635
ag1643
ag1651
ag1659
ag1675
ag1683
ag1691
ag1699
ag1707
ag1715
ag1723
ag1738
ag1741
ag1744
ag1752
ag1109
ag1773
asS'group_by'
p1791
(lp1792
sg1359
g1360
sS'schema_name'
p1793
Vbestmatch
p1794
sS'_named_feature_types'
p1795
(dp1796
Vstr_to_timezone
p1797
g1662
ssS'classifier_cls'
p1798
g1363
sS'target_variable'
p1799
g1752
sS'classifier'
p1800
(dp1801
S'penalty'
p1802
g1381
ssbsS'_features'
p1803
(dp1804
g8
g1402
((lp1805
(lp1806
g1405
a(dp1807
g1407
Nsg1408
g1405
sg1409
g1
(g1410
g3
NtRp1808
(dp1809
g1414
g1415
sS'scale_'
p1810
g1372
(g1373
(I0
tS'b'
tRp1811
(I1
(I1
tg1389
I00
S'\x00\x00\x00\x00\x00\x00\xc0?'
tbsS'data_range'
p1812
g1372
(g1373
(I0
tS'b'
tRp1813
(I1
(I1
tg1389
I00
S'\x00\x00\x00\x00\x00\x00 @'
tbsS'data_min'
p1814
g1372
(g1373
(I0
tS'b'
tRp1815
(I1
(I1
tg1389
I00
S'\x00\x00\x00\x00\x00\x00\x00\x00'
tbsS'min_'
p1816
g1372
(g1373
(I0
tS'b'
tRp1817
(I1
(I1
tg1389
I00
S'\x00\x00\x00\x00\x00\x00\x00\x00'
tbsg1413
I01
sbsg8
Nsg1416
I01
sg1417
g1418
sg1419
Nsg1420
g1
(g1421
g3
NtRp1818
(dp1819
g1424
(lp1820
sg1428
Nsg1426
g1427
sg1429
Nsg1430
g1431
sg1432
Nsbsaa(lp1821
g1434
a(dp1822
g1407
Nsg1408
g1434
sg1409
g1
(g1410
g3
NtRp1823
(dp1824
g1414
g1438
sg1810
g1372
(g1373
(I0
tS'b'
tRp1825
(I1
(I1
tg1389
I00
S'\x00\x00\x00\x00\x00\x00\xf0?'
tbsg1812
g1372
(g1373
(I0
tS'b'
tRp1826
(I1
(I1
tg1389
I00
S'\x00\x00\x00\x00\x00\x00\xf0?'
tbsg1814
g1372
(g1373
(I0
tS'b'
tRp1827
(I1
(I1
tg1389
I00
S'\x00\x00\x00\x00\x00\x00\x00\x00'
tbsg1816
g1372
(g1373
(I0
tS'b'
tRp1828
(I1
(I1
tg1389
I00
S'\x00\x00\x00\x00\x00\x00\x00\x00'
tbsg1413
I01
sbsg8
Nsg1416
I01
sg1417
g1418
sg1419
Nsg1420
g1
(g1421
g3
NtRp1829
(dp1830
g1424
g1820
sg1428
Nsg1426
g1441
sg1429
Nsg1430
g1431
sg1432
Nsbsaa(lp1831
g1443
a(dp1832
g1407
Nsg1408
g1443
sg1409
g1
(g1410
g3
NtRp1833
(dp1834
g1414
g1447
sg1810
g1372
(g1373
(I0
tS'b'
tRp1835
(I1
(I1
tg1389
I00
S'\x9a\x99\x99\x99\x99\x99\xc9?'
tbsg1812
g1372
(g1373
(I0
tS'b'
tRp1836
(I1
(I1
tg1389
I00
S'\x00\x00\x00\x00\x00\x00\x14@'
tbsg1814
g1372
(g1373
(I0
tS'b'
tRp1837
(I1
(I1
tg1389
I00
S'\x00\x00\x00\x00\x00\x00\x00\x00'
tbsg1816
g1372
(g1373
(I0
tS'b'
tRp1838
(I1
(I1
tg1389
I00
S'\x00\x00\x00\x00\x00\x00\x00\x00'
tbsg1413
I01
sbsg8
Nsg1416
I01
sg1417
g1418
sg1419
Nsg1420
g1
(g1421
g3
NtRp1839
(dp1840
g1424
g1820
sg1428
Nsg1426
g1441
sg1429
Nsg1430
g1431
sg1432
Nsbsaa(lp1841
g1451
a(dp1842
g1407
Nsg1408
g1451
sg1409
g1
(g1410
g3
NtRp1843
(dp1844
g1414
g1455
sg1810
g1372
(g1373
(I0
tS'b'
tRp1845
(I1
(I1
tg1389
I00
S'\x9a\x99\x99\x99\x99\x99\x99?'
tbsg1812
g1372
(g1373
(I0
tS'b'
tRp1846
(I1
(I1
tg1389
I00
S'\x00\x00\x00\x00\x00\x00D@'
tbsg1814
g1372
(g1373
(I0
tS'b'
tRp1847
(I1
(I1
tg1389
I00
S'\x00\x00\x00\x00\x00\x00\x00\x00'
tbsg1816
g1372
(g1373
(I0
tS'b'
tRp1848
(I1
(I1
tg1389
I00
S'\x00\x00\x00\x00\x00\x00\x00\x00'
tbsg1413
I01
sbsg8
Nsg1416
I01
sg1417
g1418
sg1419
Nsg1420
g1
(g1421
g3
NtRp1849
(dp1850
g1424
g1820
sg1428
Nsg1426
g1427
sg1429
Nsg1430
g1431
sg1432
Nsbsaa(lp1851
g1459
a(dp1852
g1407
Nsg1408
g1459
sg1409
g1
(g1410
g3
NtRp1853
(dp1854
g1414
g1463
sg1810
g1372
(g1373
(I0
tS'b'
tRp1855
(I1
(I1
tg1389
I00
S'ysB\x89\x06nq?'
tbsg1812
g1372
(g1373
(I0
tS'b'
tRp1856
(I1
(I1
tg1389
I00
S'\x00\x00\x00\x00\x00`m@'
tbsg1814
g1372
(g1373
(I0
tS'b'
tRp1857
(I1
(I1
tg1389
I00
S'\x00\x00\x00\x00\x00\x00\x00\x00'
tbsg1816
g1372
(g1373
(I0
tS'b'
tRp1858
(I1
(I1
tg1389
I00
S'\x00\x00\x00\x00\x00\x00\x00\x00'
tbsg1413
I01
sbsg8
Nsg1416
I01
sg1417
g1418
sg1419
Nsg1420
g1
(g1421
g3
NtRp1859
(dp1860
g1424
g1820
sg1428
Nsg1426
g1427
sg1429
Nsg1430
g1431
sg1432
Nsbsaa(lp1861
g1467
a(dp1862
g1407
Nsg1408
g1467
sg1409
g1
(g1410
g3
NtRp1863
(dp1864
g1414
g1471
sg1810
g1372
(g1373
(I0
tS'b'
tRp1865
(I1
(I1
tg1389
I00
S'\xba0\x01C\xed\xb7\x8e?'
tbsg1812
g1372
(g1373
(I0
tS'b'
tRp1866
(I1
(I1
tg1389
I00
S'{\x14\xaeG\xe1\xaaP@'
tbsg1814
g1372
(g1373
(I0
tS'b'
tRp1867
(I1
(I1
tg1389
I00
S'\x00\x00\x00\x00\x00\x00\x00\x00'
tbsg1816
g1372
(g1373
(I0
tS'b'
tRp1868
(I1
(I1
tg1389
I00
S'\x00\x00\x00\x00\x00\x00\x00\x00'
tbsg1413
I01
sbsg8
Nsg1416
I01
sg1417
g1418
sg1419
Nsg1420
g1
(g1421
g3
NtRp1869
(dp1870
g1424
g1820
sg1428
Nsg1426
g1441
sg1429
Nsg1430
g1431
sg1432
Nsbsaa(lp1871
g1475
a(dp1872
g1407
g1
(g1477
g3
NtRp1873
(dp1874
g1480
g1481
sg1482
I01
sg1483
Nsg1485
Nsg1484
Nsg1486
g1487
sg1488
g1489
sg1495
F1
sS'fixed_vocabulary_'
p1875
I00
sg1490
g1491
sS'vocabulary_'
p1876
(dp1877
Vall
p1878
g17
(g1377
S'\x00\x00\x00\x00'
tRp1879
sVdeveloped
p1880
g17
(g1377
S'\x19\x00\x00\x00'
tRp1881
sVover
p1882
g17
(g1377
S'?\x00\x00\x00'
tRp1883
sVyears
p1884
g17
(g1377
S'c\x00\x00\x00'
tRp1885
sVcustomer
p1886
g17
(g1377
S'\x15\x00\x00\x00'
tRp1887
sVsolutions
p1888
g17
(g1377
S'J\x00\x00\x00'
tRp1889
sVmysql
p1890
g17
(g1377
S'5\x00\x00\x00'
tRp1891
sVweb
p1892
g17
(g1377
S'V\x00\x00\x00'
tRp1893
sVknowledge
p1894
g17
(g1377
S',\x00\x00\x00'
tRp1895
sVwriting
p1896
g17
(g1377
S'b\x00\x00\x00'
tRp1897
sVto
p1898
g17
(g1377
S'R\x00\x00\x00'
tRp1899
sVother
p1900
g17
(g1377
S'>\x00\x00\x00'
tRp1901
sVdo
p1902
g17
(g1377
S'\x1b\x00\x00\x00'
tRp1903
sVgood
p1904
g17
(g1377
S'$\x00\x00\x00'
tRp1905
sVvery
p1906
g17
(g1377
S'U\x00\x00\x00'
tRp1907
sVnot
p1908
g17
(g1377
S'7\x00\x00\x00'
tRp1909
sVusing
p1910
g17
(g1377
S'T\x00\x00\x00'
tRp1911
sVlike
p1912
g17
(g1377
S'.\x00\x00\x00'
tRp1913
sVskills
p1914
g17
(g1377
S'I\x00\x00\x00'
tRp1915
sValways
p1916
g17
(g1377
S'\x02\x00\x00\x00'
tRp1917
sVcompanies
p1918
g17
(g1377
S'\x12\x00\x00\x00'
tRp1919
sVwhere
p1920
g17
(g1377
S'Z\x00\x00\x00'
tRp1921
sVclients
p1922
g17
(g1377
S'\x10\x00\x00\x00'
tRp1923
sVsome
p1924
g17
(g1377
S'K\x00\x00\x00'
tRp1925
sVdesign
p1926
g17
(g1377
S'\x17\x00\x00\x00'
tRp1927
sVare
p1928
g17
(g1377
S'\x06\x00\x00\x00'
tRp1929
sVseo
p1930
g17
(g1377
S'G\x00\x00\x00'
tRp1931
sVbest
p1932
g17
(g1377
S'\x0b\x00\x00\x00'
tRp1933
sVwill
p1934
g17
(g1377
S'[\x00\x00\x00'
tRp1935
sVwhat
p1936
g17
(g1377
S'Y\x00\x00\x00'
tRp1937
sVfor
p1938
g17
(g1377
S'!\x00\x00\x00'
tRp1939
sVresearch
p1940
g17
(g1377
S'E\x00\x00\x00'
tRp1941
sVlooking
p1942
g17
(g1377
S'/\x00\x00\x00'
tRp1943
sVnew
p1944
g17
(g1377
S'6\x00\x00\x00'
tRp1945
sVbe
p1946
g17
(g1377
S'\t\x00\x00\x00'
tRp1947
sVjobs
p1948
g17
(g1377
S'+\x00\x00\x00'
tRp1949
sVbusiness
p1950
g17
(g1377
S'\x0c\x00\x00\x00'
tRp1951
sVmarketing
p1952
g17
(g1377
S'1\x00\x00\x00'
tRp1953
sVon
p1954
g17
(g1377
S':\x00\x00\x00'
tRp1955
sVlast
p1956
g17
(g1377
S'-\x00\x00\x00'
tRp1957
sVworking
p1958
g17
(g1377
S'`\x00\x00\x00'
tRp1959
sVof
p1960
g17
(g1377
S'9\x00\x00\x00'
tRp1961
sVexperience
p1962
g17
(g1377
S'\x1e\x00\x00\x00'
tRp1963
sVcom
p1964
g17
(g1377
S'\x11\x00\x00\x00'
tRp1965
sVor
p1966
g17
(g1377
S'<\x00\x00\x00'
tRp1967
sVtasks
p1968
g17
(g1377
S'M\x00\x00\x00'
tRp1969
sVone
p1970
g17
(g1377
S';\x00\x00\x00'
tRp1971
sVsatisfaction
p1972
g17
(g1377
S'F\x00\x00\x00'
tRp1973
sVquality
p1974
g17
(g1377
S'D\x00\x00\x00'
tRp1975
sVyour
p1976
g17
(g1377
S'e\x00\x00\x00'
tRp1977
sVuse
p1978
g17
(g1377
S'S\x00\x00\x00'
tRp1979
sVmanagement
p1980
g17
(g1377
S'0\x00\x00\x00'
tRp1981
sVfrom
p1982
g17
(g1377
S'"\x00\x00\x00'
tRp1983
sVservice
p1984
g17
(g1377
S'H\x00\x00\x00'
tRp1985
sVsupport
p1986
g17
(g1377
S'L\x00\x00\x00'
tRp1987
sVbeen
p1988
g17
(g1377
S'\n\x00\x00\x00'
tRp1989
sVwordpress
p1990
g17
(g1377
S'^\x00\x00\x00'
tRp1991
sVmore
p1992
g17
(g1377
S'3\x00\x00\x00'
tRp1993
sVwebsite
p1994
g17
(g1377
S'W\x00\x00\x00'
tRp1995
sVcomplete
p1996
g17
(g1377
S'\x14\x00\x00\x00'
tRp1997
sVthat
p1998
g17
(g1377
S'O\x00\x00\x00'
tRp1999
sVcompany
p2000
g17
(g1377
S'\x13\x00\x00\x00'
tRp2001
sVbut
p2002
g17
(g1377
S'\r\x00\x00\x00'
tRp2003
sVwith
p2004
g17
(g1377
S'\\\x00\x00\x00'
tRp2005
sVthan
p2006
g17
(g1377
S'N\x00\x00\x00'
tRp2007
sVme
p2008
g17
(g1377
S'2\x00\x00\x00'
tRp2009
sVword
p2010
g17
(g1377
S']\x00\x00\x00'
tRp2011
sVwork
p2012
g17
(g1377
S'_\x00\x00\x00'
tRp2013
sVproject
p2014
g17
(g1377
S'B\x00\x00\x00'
tRp2015
sVcan
p2016
g17
(g1377
S'\x0e\x00\x00\x00'
tRp2017
sVfollowing
p2018
g17
(g1377
S' \x00\x00\x00'
tRp2019
sVmy
p2020
g17
(g1377
S'4\x00\x00\x00'
tRp2021
sVand
p2022
g17
(g1377
S'\x05\x00\x00\x00'
tRp2023
sVwould
p2024
g17
(g1377
S'a\x00\x00\x00'
tRp2025
sVis
p2026
g17
(g1377
S')\x00\x00\x00'
tRp2027
sVam
p2028
g17
(g1377
S'\x03\x00\x00\x00'
tRp2029
sVit
p2030
g17
(g1377
S'*\x00\x00\x00'
tRp2031
sVan
p2032
g17
(g1377
S'\x04\x00\x00\x00'
tRp2033
sVas
p2034
g17
(g1377
S'\x07\x00\x00\x00'
tRp2035
sVexpertise
p2036
g17
(g1377
S'\x1f\x00\x00\x00'
tRp2037
sVat
p2038
g17
(g1377
S'\x08\x00\x00\x00'
tRp2039
sVhave
p2040
g17
(g1377
S'%\x00\x00\x00'
tRp2041
sVin
p2042
g17
(g1377
S'(\x00\x00\x00'
tRp2043
sVif
p2044
g17
(g1377
S"'\x00\x00\x00"
tRp2045
sVgoal
p2046
g17
(g1377
S'#\x00\x00\x00'
tRp2047
sVprovide
p2048
g17
(g1377
S'C\x00\x00\x00'
tRp2049
sVexcel
p2050
g17
(g1377
S'\x1d\x00\x00\x00'
tRp2051
sVoriented
p2052
g17
(g1377
S'=\x00\x00\x00'
tRp2053
sValso
p2054
g17
(g1377
S'\x01\x00\x00\x00'
tRp2055
sVhtml
p2056
g17
(g1377
S'&\x00\x00\x00'
tRp2057
sVobjective
p2058
g17
(g1377
S'8\x00\x00\x00'
tRp2059
sVyou
p2060
g17
(g1377
S'd\x00\x00\x00'
tRp2061
sVdevelopment
p2062
g17
(g1377
S'\x1a\x00\x00\x00'
tRp2063
sVdesigner
p2064
g17
(g1377
S'\x18\x00\x00\x00'
tRp2065
sVprofessional
p2066
g17
(g1377
S'A\x00\x00\x00'
tRp2067
sVphp
p2068
g17
(g1377
S'@\x00\x00\x00'
tRp2069
sVdata
p2070
g17
(g1377
S'\x16\x00\x00\x00'
tRp2071
sVwell
p2072
g17
(g1377
S'X\x00\x00\x00'
tRp2073
sVclient
p2074
g17
(g1377
S'\x0f\x00\x00\x00'
tRp2075
sVtime
p2076
g17
(g1377
S'Q\x00\x00\x00'
tRp2077
sVentry
p2078
g17
(g1377
S'\x1c\x00\x00\x00'
tRp2079
sVthe
p2080
g17
(g1377
S'P\x00\x00\x00'
tRp2081
ssg1492
I00
sg1493
g1494
sg1429
Nsg1496
I10
sg1497
Nsg1498
g1499
sg1500
g1
(g1501
g3
NtRp2082
(dp2083
g1504
I01
sg1505
I01
sg1506
I00
sg1507
g1508
sS'_idf_diag'
p2084
g1
(cscipy.sparse.dia
dia_matrix
p2085
g3
NtRp2086
(dp2087
S'data'
p2088
g1372
(g1373
(I0
tS'b'
tRp2089
(I1
(I1
I102
tg1389
I00
S'j\x06_\xd7\x86y\x05@?\xe9Z}\xd3=\x04@\x9f\x0b\x99\xe6\xfd\x13\x08@D\xd7w\x989\xc7\xfd?\xbc\n\xdd\x19\xc0\xd8\x02@\xe7\xbc\xff\x1e\x89\x05\xf1?\xf8j8\x95Z,\x03@\x90\xac\x0e\x98v\xfe\xfe?j\x06_\xd7\x86y\x05@(\xd2\x8c\x9a\x8d\xde\x03@H\xdc\xf2\xfa7|\x07@\xd1O}\xd8\xeb\xee\x06@\xf8j8\x95Z,\x03@H\xdc\xf2\xfa7|\x07@`\x13\xc7Y";\x02@\xa4`KZ\x1ej\t@\x01^\xd0\x12\xbfj\x06@\x9f\x0b\x99\xe6\xfd\x13\x08@s\xf9\xf6T\xeb\xb7\x08@\xa4`KZ\x1ej\t@H\xdc\xf2\xfa7|\x07@\x9f\x0b\x99\xe6\xfd\x13\x08@`\x13\xc7Y";\x02@j\x06_\xd7\x86y\x05@s\xf9\xf6T\xeb\xb7\x08@\xa4`KZ\x1ej\t@\xc4\xe4\xc5\x0b\xcc\n\x05@v\x18\xd0O\x96\xee\x05@\xc4\xe4\xc5\x0b\xcc\n\x05@s\xf9\xf6T\xeb\xb7\x08@Z\x87\x9c\xb5\xf9\xa5\xfc?\xa4`KZ\x1ej\t@\x9f\x0b\x99\xe6\xfd\x13\x08@\xe2-\xf3$BI\xfa?\x01^\xd0\x12\xbfj\x06@H\xdc\xf2\xfa7|\x07@\x9f\x0b\x99\xe6\xfd\x13\x08@\xc8\t\x114#_\xf9?H\xdc\xf2\xfa7|\x07@s\xf9\xf6T\xeb\xb7\x08@\x98\x8f\x91\x18U\xe7\xf3?4\x14\x85R\x11\x94\xfe?\xd1O}\xd8\xeb\xee\x06@\xa4`KZ\x1ej\t@\x01^\xd0\x12\xbfj\x06@s\xf9\xf6T\xeb\xb7\x08@H\xdc\xf2\xfa7|\x07@\xa4`KZ\x1ej\t@\xd1O}\xd8\xeb\xee\x06@\xa4`KZ\x1ej\t@\xbc\n\xdd\x19\xc0\xd8\x02@j\x06_\xd7\x86y\x05@\xfd\xf6\xa5\xa0\xe9\xae\xf5?\x9f\x0b\x99\xe6\xfd\x13\x08@\x9f\x0b\x99\xe6\xfd\x13\x08@\x9f\x0b\x99\xe6\xfd\x13\x08@H\xdc\xf2\xfa7|\x07@\x12\x82\xa6&;\xa7\xf6?\xfa\x89\x11\x90\x05c\x00@\xa4`KZ\x1ej\t@\x01^\xd0\x12\xbfj\x06@s\xf9\xf6T\xeb\xb7\x08@H\xdc\xf2\xfa7|\x07@^\xb4V\x96\xbf\xa1\x04@s\xf9\xf6T\xeb\xb7\x08@\xc4\xe4\xc5\x0b\xcc\n\x05@\xa4`KZ\x1ej\t@j\x06_\xd7\x86y\x05@^\xb4V\x96\xbf\xa1\x04@\xd1O}\xd8\xeb\xee\x06@\xa4`KZ\x1ej\t@\xa4`KZ\x1ej\t@\xbc\n\xdd\x19\xc0\xd8\x02@\xdc\xef@/\xec\xdb\xff?s\xf9\xf6T\xeb\xb7\x08@\xa4`KZ\x1ej\t@\x9f\x0b\x99\xe6\xfd\x13\x08@\xa4`KZ\x1ej\t@H\xdc\xf2\xfa7|\x07@\x1f\xdf\xf4\x1c)\xa0\x00@*\xeb\xf4^\x98\xeb\xf5?\x00\xe4\xf8\x13\x84\x83\x03@<\xf7\x07\xd3\xef|\xf3?H\xdc\xf2\xfa7|\x07@H\xdc\xf2\xfa7|\x07@\x01^\xd0\x12\xbfj\x06@\xd1\x99\xfcE\xc9\xa8\x01@\x9f\x0b\x99\xe6\xfd\x13\x08@\x01^\xd0\x12\xbfj\x06@\xa4`KZ\x1ej\t@s\xf9\xf6T\xeb\xb7\x08@j\x06_\xd7\x86y\x05@\xa2~\xeb\xf6,\xca\xf8?\xa4`KZ\x1ej\t@\xa4`KZ\x1ej\t@\xbeWk\xf7#\x04\xfd?\xf8j8\x95Z,\x03@s\xf9\xf6T\xeb\xb7\x08@v\x18\xd0O\x96\xee\x05@\x97\x9cM6\xedI\xfc?\xbc\n\xdd\x19\xc0\xd8\x02@\xc4\xe4\xc5\x0b\xcc\n\x05@'
tbsS'maxprint'
p2090
I50
sS'_shape'
p2091
(I102
I102
tp2092
sS'offsets'
p2093
g1372
(g1373
(I0
tS'b'
tRp2094
(I1
(I1
tg18
(S'i4'
I0
I1
tRp2095
(I3
S'<'
NNNI-1
I-1
I0
tbI00
S'\x00\x00\x00\x00'
tbsS'format'
p2096
S'dia'
p2097
sbsbsg1509
g1510
sS'stop_words_'
p2098
c__builtin__
set
p2099
((lp2100
Vaided
p2101
aVpersonally
p2102
aVdynamic
p2103
aVyellow
p2104
aVrelationships
p2105
aVwhose
p2106
aVpatches
p2107
aVjavaee
p2108
aVunder
p2109
aVstationery
p2110
aVteaching
p2111
aVpride
p2112
aVspec
p2113
aVicecast
p2114
aVevery
p2115
aVvoip
p2116
aVunity3d
p2117
aVschool
p2118
aVadministrating
p2119
aVsolution
p2120
aVsolutios
p2121
aVsamurai
p2122
aVvector
p2123
aVenhance
p2124
aVcms
p2125
aVenjoy
p2126
aVaeronautics
p2127
aVpragmatic
p2128
aVconsistent
p2129
aVdirect
p2130
aVdisciplined
p2131
aVsecond
p2132
aVsubordinate
p2133
aVimplemented
p2134
aVgetacoder
p2135
aVeven
p2136
aVestablished
p2137
aVdecoding
p2138
aVabove
p2139
aVdesigning
p2140
aVsupplier
p2141
aVnet
p2142
aVever
p2143
aVseeks
p2144
aVspecialist
p2145
aVcentric
p2146
aVsimultaneously
p2147
aVnever
p2148
aVhere
p2149
aVmet
p2150
aVstudio
p2151
aVactive
p2152
aVpath
p2153
aV100
p2154
aVkids
p2155
aVforum
p2156
aVventures
p2157
aVstudy
p2158
aVreports
p2159
aVcredit
p2160
aVchanges
p2161
aVastute
p2162
aVsecure
p2163
aVhighly
p2164
aVpatience
p2165
aVopportunities
p2166
aVchartboost
p2167
aVcatchy
p2168
aVtyps
p2169
aVnodejs
p2170
aVleaks
p2171
aVoverhead
p2172
aVasset
p2173
aVtype
p2174
aVuntil
p2175
aVposting
p2176
aVsuccessful
p2177
aVyahoo
p2178
aVaward
p2179
aVglass
p2180
aVexcellent
p2181
aVhole
p2182
aV95
p2183
aVmust
p2184
aV1991
p2185
aVroom
p2186
aVwowza
p2187
aVpursue
p2188
aVsetup
p2189
aVworth
p2190
aVms
p2191
aVmr
p2192
aVroot
p2193
aVgoood
p2194
aVgive
p2195
aVskype
p2196
aVorganized
p2197
aVhoned
p2198
aVinvolve
p2199
aVcaptcha
p2200
aVwant
p2201
aVscheduling
p2202
aVguarantee
p2203
aVend
p2204
aVthing
p2205
aVsitting
p2206
aVrhinoceros
p2207
aVhow
p2208
aVwriters
p2209
aVactionscript
p2210
aVplace
p2211
aVordinary
p2212
aVvf3
p2213
aVcadence
p2214
aVgaming
p2215
aVdescription
p2216
aVless
p2217
aVmanuals
p2218
aVafter
p2219
aVreassess
p2220
aVpresident
p2221
aVlaw
p2222
aVtypes
p2223
aVpurchase
p2224
aVeffective
p2225
aVappreciate
p2226
aVorder
p2227
aV16mar2011
p2228
aVfeedback
p2229
aVoffice
p2230
aVdevote
p2231
aVdreamed
p2232
aVzen
p2233
aVsatisfied
p2234
aVpartnered
p2235
aVkeyboard
p2236
aVresponsive
p2237
aVfit
p2238
aVmypics
p2239
aVpersonal
p2240
aVexpectations
p2241
aVclc
p2242
aVbetter
p2243
aVproduction
p2244
aV400
p2245
aVfotocommunity
p2246
aVthen
p2247
aVthem
p2248
aVenrich
p2249
aVtrevisd
p2250
aVeffects
p2251
aVthey
p2252
aVlifelong
p2253
aVrepresents
p2254
aVeach
p2255
aVside
p2256
aVmean
p2257
aVadobe
p2258
aVindependent
p2259
aVseries
p2260
aVmagneto
p2261
aVaide
p2262
aVlaboratory
p2263
aVchannal
p2264
aVnetwork
p2265
aVha
p2266
aVcontent
p2267
aVre
p2268
aVsmm
p2269
aVoscommerce
p2270
aVgot
p2271
aVfoundation
p2272
aVlinear
p2273
aVassociate
p2274
aVlittle
p2275
aVfree
p2276
aVstandard
p2277
aVputty
p2278
aVformation
p2279
aVboosting
p2280
aVwanted
p2281
aVacrobat
p2282
aVcertified
p2283
aVshelves
p2284
aVsatisfication
p2285
aVdays
p2286
aVpriorities
p2287
aVmvc
p2288
aVpurpose
p2289
aValready
p2290
aVfeatures
p2291
aVresearcher
p2292
aVcoding
p2293
aVrank
p2294
aVcustomization
p2295
aVelectronic
p2296
aVresearched
p2297
aVillustrate
p2298
aVtoy
p2299
aVguinness
p2300
aVtop
p2301
aVneeded
p2302
aVrates
p2303
aVtoo
p2304
aVupshot
p2305
aVcycle
p2306
aVenhancing
p2307
aVserve
p2308
aVtook
p2309
aVcollaterals
p2310
aVperfectly
p2311
aVtarget
p2312
aVroles
p2313
aVzero
p2314
aVebay
p2315
aVpreparation
p2316
aVmatter
p2317
aVcoregraphics
p2318
aVhacking
p2319
aVenhancement
p2320
aVrewrite
p2321
aVmodern
p2322
aVmind
p2323
aVmanner
p2324
aVseek
p2325
aVdozen
p2326
aVdbms
p2327
aVzoho
p2328
aVresponsible
p2329
aVeagerly
p2330
aVupholding
p2331
aVmaterials
p2332
aVexplanation
p2333
aVdavidson
p2334
aVcommitting
p2335
aVthough
p2336
aVobject
p2337
aVtranslator
p2338
aVsavvy
p2339
aVoptimized
p2340
aVinvolving
p2341
aVodesk
p2342
aVscripts
p2343
aVdoj
p2344
aVassisting
p2345
aVdon
p2346
aVmedical
p2347
aVfineartprint
p2348
aVconsumer
p2349
aVmeetings
p2350
aVperconal
p2351
aVearth
p2352
aVsolusvm
p2353
aVnortheast
p2354
aVbecame
p2355
aVimplementation
p2356
aVsummarizing
p2357
aVpursuing
p2358
aV10
p2359
aVde
p2360
aVdb
p2361
aVscalable
p2362
aVpreferred
p2363
aVgeek
p2364
aVamazon
p2365
aVreport
p2366
aVtoolbox
p2367
aVdr
p2368
aVcomply
p2369
aVfields
p2370
aVarchitecture
p2371
aVrelease
p2372
aVtrevis
p2373
aVthumbs
p2374
aVfair
p2375
aVbranding
p2376
aVtesting
p2377
aVresult
p2378
aVtechniques
p2379
aVsaid
p2380
aVaway
p2381
aVnarrates
p2382
aVbookmarking
p2383
aVapproach
p2384
aVhandwritten
p2385
aVwe
p2386
aVterms
p2387
aVextend
p2388
aVhowever
p2389
aVhtml5
p2390
aVdedication
p2391
aVnews
p2392
aVmotto
p2393
aVpackages
p2394
aVimprove
p2395
aVreceived
p2396
aVgames
p2397
aVexceeds
p2398
aVchina
p2399
aVlogin
p2400
aVhardworking
p2401
aVvexel
p2402
aVkohana
p2403
aVspeak
p2404
aVcustomisation
p2405
aVproceeded
p2406
aVengines
p2407
aVbasis
p2408
aVunion
p2409
aVfrm
p2410
aVquickly
p2411
aVconfident
p2412
aVmuch
p2413
aVdreamweaver
p2414
aVbasic
p2415
aVflexible
p2416
aVtopics
p2417
aVlife
p2418
aVworker
p2419
aVcatering
p2420
aVcraft
p2421
aVraphaeljs
p2422
aVworked
p2423
aVspin
p2424
aVcommerce
p2425
aVwfl
p2426
aVadministrative
p2427
aVprofessionally
p2428
aVaim
p2429
aVadwirl
p2430
aVemployees
p2431
aVplayed
p2432
aVip
p2433
aVplayer
p2434
aVid
p2435
aVtrusted
p2436
aVhone
p2437
aVspecialization
p2438
aVperform
p2439
aVthings
p2440
aVmake
p2441
aVclearly
p2442
aVcraigslist
p2443
aVcomplex
p2444
aVseveral
p2445
aVevolve
p2446
aVsocial
p2447
aVqualifications
p2448
aVworkforce
p2449
aVhand
p2450
aVportal
p2451
aVbitkeeper
p2452
aVpotentials
p2453
aVopportunity
p2454
aVnit
p2455
aVkid
p2456
aVpracticed
p2457
aVlucas
p2458
aVthy
p2459
aVprograms
p2460
aVuploading
p2461
aVezinearticles
p2462
aVcentos
p2463
aVpractices
p2464
aVgreatest
p2465
aVqualities
p2466
aVclaims
p2467
aVcorporate
p2468
aVyours
p2469
aVseasonal
p2470
aVetiquette
p2471
aVisourceph
p2472
aVjust
p2473
aVversed
p2474
aVphoto
p2475
aVgrades
p2476
aVthanks
p2477
aVhuman
p2478
aVyet
p2479
aVprevious
p2480
aVsuccessfactors
p2481
aVhad
p2482
aVadvancement
p2483
aVanimation
p2484
aVbrainstorming
p2485
aVeasy
p2486
aVhas
p2487
aVhat
p2488
aVpossible
p2489
aVbackground
p2490
aVlinda
p2491
aVclustered
p2492
aVunique
p2493
aVsingh
p2494
aVadvanced
p2495
aVdesire
p2496
aVgifs
p2497
aVperforming
p2498
aVmanual
p2499
aV50
p2500
aVbpo
p2501
aVspecific
p2502
aVmajored
p2503
aVanalyzing
p2504
aVsecurity
p2505
aVwww
p2506
aVright
p2507
aVhonored
p2508
aVcrowd
p2509
aVpeople
p2510
aVsuccessfully
p2511
aVemails
p2512
aVborn
p2513
aVdear
p2514
aVcarts
p2515
aVcordoba
p2516
aVfox
p2517
aVcreative
p2518
aVeverything
p2519
aVsqueeze
p2520
aVtracker
p2521
aVbooking
p2522
aVcore
p2523
aVexprience
p2524
aVplz
p2525
aVweb2
p2526
aVanimtor
p2527
aVarchitectural
p2528
aVgraduated
p2529
aVflaws
p2530
aVpost
p2531
aVmanufacturing
p2532
aVpostgresql
p2533
aVmonths
p2534
aVmagazine
p2535
aVplus
p2536
aVconsulting
p2537
aVtarpaulin
p2538
aVcivic
p2539
aVsugarcrm
p2540
aVprofession
p2541
aVsergij
p2542
aVparsing
p2543
aVdown
p2544
aVlies
p2545
aVold
p2546
aVmethods
p2547
aVgit
p2548
aVfabric
p2549
aVavailable
p2550
aVwhy
p2551
aVeditor
p2552
aVway
p2553
aVmusic
p2554
aVwas
p2555
aVhead
p2556
aVmedium
p2557
aVamateur
p2558
aVoffer
p2559
aVbecoming
p2560
aVanalyse
p2561
aVlanding
p2562
aVencoder
p2563
aVfreelancer
p2564
aVtalents
p2565
aVboon
p2566
aVresponding
p2567
aVsophienczuk
p2568
aVwebs
p2569
aVjboss
p2570
aVdevices
p2571
aVtell
p2572
aVlater
p2573
aVzend
p2574
aVproven
p2575
aVdrive
p2576
aVaccounting
p2577
aVmold
p2578
aVcheck
p2579
aVspecially
p2580
aVnl
p2581
aVno
p2582
aVnc
p2583
aVwhen
p2584
aVnx
p2585
aVinterested
p2586
aVrole
p2587
aVpapers
p2588
aVtest
p2589
aVjenkins
p2590
aVdevelopers
p2591
aVmodels
p2592
aVkvm
p2593
aVconvincing
p2594
aVconcurrent
p2595
aVsql
p2596
aVhappening
p2597
aVphone
p2598
aVserious
p2599
aVbanners
p2600
aVpaced
p2601
aVanimator
p2602
aVnow
p2603
aVconcept
p2604
aVmanaged
p2605
aVremarkable
p2606
aVswitched
p2607
aVfocus
p2608
aVmanager
p2609
aVllc
p2610
aVror
p2611
aVvarnish
p2612
aVdepend
p2613
aVgraph
p2614
aVfreelance
p2615
aVflash
p2616
aVgigs
p2617
aVenvironment
p2618
aVpeachtree
p2619
aVfoursquare
p2620
aVjvm
p2621
aVadvantage
p2622
aVreserved
p2623
aVunfamiliar
p2624
aVchoice
p2625
aV21dec2011
p2626
aVartwork
p2627
aVexact
p2628
aVimpressive
p2629
aVsolver
p2630
aVphilippines
p2631
aV1996
p2632
aVstandards
p2633
aVleave
p2634
aVexcellence
p2635
aVteam
p2636
aVquick
p2637
aVspecializes
p2638
aVsays
p2639
aVdealing
p2640
aVhtm
p2641
aVdiscover
p2642
aVprofessionalism
p2643
aVcost
p2644
aVpmb
p2645
aVcodeigniter
p2646
aVcurrent
p2647
aV300
p2648
aVhungry
p2649
aVgoes
p2650
aVrelational
p2651
aVenthusiast
p2652
aVcocoa
p2653
aVassertive
p2654
aVfrench
p2655
aVunderstanding
p2656
aVmarkkiessling
p2657
aVaddress
p2658
aVapache
p2659
aValong
p2660
aVchange
p2661
aVwait
p2662
aVbox
p2663
aVauthkey
p2664
aVthirty
p2665
aVhealthy
p2666
aV6500
p2667
aVexams
p2668
aVlove
p2669
aVconfidentiality
p2670
aVapd62ohyvblhm0u
p2671
aVlogical
p2672
aVsincerely
p2673
aVxero
p2674
aV1st
p2675
aVforefront
p2676
aVemployer
p2677
aVplm
p2678
aVmarket
p2679
aVhandled
p2680
aVprove
p2681
aVreadability
p2682
aVlive
p2683
aViphone
p2684
aVhttps
p2685
aVmemory
p2686
aVtoday
p2687
aVafford
p2688
aVindia
p2689
aVacceptable
p2690
aVenvelope
p2691
aVvisual
p2692
aVeverywhere
p2693
aVoop
p2694
aVcases
p2695
aVeffort
p2696
aVeasiest
p2697
aVorganizations
p2698
aVgraphic
p2699
aVdhtml
p2700
aVtitanium
p2701
aVpretend
p2702
aVreviews
p2703
aVvalues
p2704
aVachieve
p2705
aVcam
p2706
aVgrowing
p2707
aVmaking
p2708
aVcae
p2709
aVcad
p2710
aVdedicated
p2711
aVnursing
p2712
aVfigure
p2713
aVnexus
p2714
aVnewsletters
p2715
aVagent
p2716
aVcritic
p2717
aVproductive
p2718
aVmonitoring
p2719
aVmeans
p2720
aVbrand
p2721
aVjoomla
p2722
aVwrite
p2723
aVtill
p2724
aVxhtml
p2725
aVspeaks
p2726
aVeconomy
p2727
aVmap
p2728
aVproduct
p2729
aV140
p2730
aVhuge
p2731
aVmay
p2732
aVmax
p2733
aVbrazen
p2734
aVapplications
p2735
aVmac
p2736
aVproduce
p2737
aVdesigned
p2738
aVimproving
p2739
aVsuch
p2740
aVsuck
p2741
aVgrow
p2742
aVman
p2743
aVsucceeded
p2744
aVconscious
p2745
aVcorona
p2746
aVfluent
p2747
aVrather
p2748
aVso
p2749
aVrepresentation
p2750
aVse
p2751
aVssh
p2752
aVspreadsheets
p2753
aVhiring
p2754
aVcold
p2755
aVmachine
p2756
aVgroup
p2757
aVthank
p2758
aVrossica
p2759
aVencompasses
p2760
aVforms
p2761
aVplatform
p2762
aVlisting
p2763
aVmail
p2764
aVmain
p2765
aVviews
p2766
aVsooner
p2767
aVscaling
p2768
aVrecords
p2769
aVqualified
p2770
aV1950
p2771
aVhalf
p2772
aVispconfig
p2773
aVmaintaining
p2774
aVpossess
p2775
aVterm
p2776
aVname
p2777
aVnetsuite
p2778
aVadmob
p2779
aVoffshore
p2780
aVshowcasing
p2781
aVtopsolid
p2782
aVdomain
p2783
aVsquare
p2784
aVmysql5
p2785
aVchallenges
p2786
aVyear
p2787
aVteams
p2788
aVcanada
p2789
aVliving
p2790
aVcanvas
p2791
aVaccomplish
p2792
aVgamers
p2793
aV3rd
p2794
aVmultiplayer
p2795
aVincrease
p2796
aVinternet
p2797
aVassurance
p2798
aVsuperiors
p2799
aVcart
p2800
aVquite
p2801
aVajax
p2802
aVmimi
p2803
aVorg
p2804
aVcare
p2805
aVtraining
p2806
aVlanguage
p2807
aVselections
p2808
aVlistings
p2809
aVprogramming
p2810
aVhonest
p2811
aVmotion
p2812
aVturn
p2813
aVyum
p2814
aVpromotion
p2815
aVthink
p2816
aVprograming
p2817
aVfirst
p2818
aVclause
p2819
aVspecifically
p2820
aVdirectly
p2821
aVcarry
p2822
aVopen
p2823
aVgeorge
p2824
aVengineer
p2825
aVsurveys
p2826
aVnecessarily
p2827
aViad
p2828
aVcaught
p2829
aVyii
p2830
aVanyone
p2831
aVrenderings
p2832
aVreturns
p2833
aVnginx
p2834
aVtyping
p2835
aVwhite
p2836
aVspeaking
p2837
aVmining
p2838
aVreleases
p2839
aVcontinuous
p2840
aVcerebro
p2841
aVspecialists
p2842
aVcopy
p2843
aVintrinsically
p2844
aVwide
p2845
aV13
p2846
aV12
p2847
aV15
p2848
aV18
p2849
aVrequire
p2850
aVtypography
p2851
aVventure
p2852
aVcards
p2853
aVpre
p2854
aVdocumentation
p2855
aVpro
p2856
aVlocations
p2857
aVant
p2858
aVsay
p2859
aVsap
p2860
aVany
p2861
aVcassandra
p2862
aVconversion
p2863
aVefficient
p2864
aVtranscription
p2865
aVanswering
p2866
aVideas
p2867
aVnote
p2868
aVacumen
p2869
aVsquad
p2870
aVtranscribed
p2871
aVtake
p2872
aVonline
p2873
aVcreatively
p2874
aVperformance
p2875
aVstrengths
p2876
aVhanding
p2877
aVsure
p2878
aVmultiple
p2879
aVukrainian
p2880
aVtrack
p2881
aVprice
p2882
aVspecialty
p2883
aVvisitors
p2884
aVprinted
p2885
aVremarks
p2886
aVpages
p2887
aVproud
p2888
aVsale
p2889
aVsenior
p2890
aVshop
p2891
aVnextag
p2892
aVshot
p2893
aVoutsourcing
p2894
aVdrawings
p2895
aVline
p2896
aVground
p2897
aVxml
p2898
aVratio
p2899
aVoutside
p2900
aVonly
p2901
aVgoing
p2902
aVblack
p2903
aVequipped
p2904
aVget
p2905
aVassistant
p2906
aVtrustworty
p2907
aVoverdeliver
p2908
aVemployers
p2909
aVnearly
p2910
aVhonours
p2911
aVsecondary
p2912
aVresource
p2913
aVconsist
p2914
aVartist
p2915
aVattitude
p2916
aVsummary
p2917
aVadvertisor
p2918
aVinnovative
p2919
aVcollege
p2920
aVpebble
p2921
aVsatisfying
p2922
aVmanaging
p2923
aVopening
p2924
aVsites
p2925
aVcuello022206
p2926
aVimportance
p2927
aVbehind
p2928
aVbetween
p2929
aVinfrastructure
p2930
aVscreen
p2931
aVjs
p2932
aVjd
p2933
aVarticle
p2934
aVcome
p2935
aVconcentrated
p2936
aVfliers
p2937
aVmany
p2938
aVsolidworks
p2939
aVaccording
p2940
aVenabling
p2941
aVcolumnist
p2942
aVworkplace
p2943
aVcomes
p2944
aVsymfony
p2945
aVamong
p2946
aVnecessary
p2947
aV60
p2948
aVcoredata
p2949
aVlearning
p2950
aVmoreover
p2951
aVendeavor
p2952
aVconsidering
p2953
aVarts
p2954
aVtuning
p2955
aVcapable
p2956
aVmark
p2957
aVdelcam
p2958
aVglassfish
p2959
aVdependable
p2960
aVtheam
p2961
aVwilled
p2962
aV500
p2963
aVengine
p2964
aVenable
p2965
aVshopping
p2966
aVoffered
p2967
aVcreo
p2968
aVcovers
p2969
aVebusiness
p2970
aVattentive
p2971
aVruby
p2972
aVformer
p2973
aVprotocols
p2974
aVsound
p2975
aVmyself
p2976
aVdeveloping
p2977
aVthese
p2978
aVcareer
p2979
aVpromising
p2980
aVnewspaper
p2981
aVsituation
p2982
aVcoolest
p2983
aVtelephone
p2984
aVsudden
p2985
aVconverts
p2986
aVmotivated
p2987
aVtechnology
p2988
aVfastest
p2989
aVdifferent
p2990
aVdevelop
p2991
aVassure
p2992
aVpay
p2993
aVsame
p2994
aVtranscribing
p2995
aVauthentication
p2996
aVgeodatix
p2997
aVlite
p2998
aVdocument
p2999
aVweek
p3000
aVextended
p3001
aVassist
p3002
aVcheers
p3003
aVwpm
p3004
aVdriven
p3005
aVchanging
p3006
aVcck
p3007
aVmodel
p3008
aVdimension
p3009
aVresearchers
p3010
aVpeace
p3011
aVnosql
p3012
aVpakistan
p3013
aVbeing
p3014
aVknowledgeable
p3015
aVvaluable
p3016
aVeager
p3017
aVreputable
p3018
aVgreetings
p3019
aV6days
p3020
aVsummed
p3021
aVtouch
p3022
aVspeed
p3023
aVweekly
p3024
aVautocad
p3025
aVhsphere
p3026
aVdesktop
p3027
aVblog
p3028
aVcomplements
p3029
aVextensive
p3030
aVreal
p3031
aVaspects
p3032
aVaround
p3033
aVdelhi
p3034
aVpsd
p3035
aVbreedlove
p3036
aVtraffic
p3037
aVmom
p3038
aVworld
p3039
aVweb2py
p3040
aVdisappointed
p3041
aVmod
p3042
aVfortune
p3043
aVidentifying
p3044
aVserver
p3045
aVbenefit
p3046
aVeither
p3047
aVoutput
p3048
aVpassionate
p3049
aVsatisfactory
p3050
aVverbal
p3051
aVcompetition
p3052
aVspecified
p3053
aVimages
p3054
aVorganizing
p3055
aVthinks
p3056
aVprovided
p3057
aVredis
p3058
aVredir
p3059
aVlegal
p3060
aVpioneer
p3061
aVcritical
p3062
aVprovider
p3063
aVspecializing
p3064
aVwelcome
p3065
aVscientific
p3066
aVpower
p3067
aVnotepad
p3068
aVliveshare
p3069
aVflyers
p3070
aVknowleadge
p3071
aVcentral
p3072
aVindustry
p3073
aVhiatus
p3074
aVhardcopies
p3075
aVstand
p3076
aVbackup
p3077
aVprocessor
p3078
aVpsh2html
p3079
aVcommunication
p3080
aVimage
p3081
aVskilled
p3082
aVreferences
p3083
aVfinancial
p3084
aVtechnically
p3085
aVbuds
p3086
aVprepare
p3087
aVarea
p3088
aVremoving
p3089
aVthere
p3090
aVdeadlines
p3091
aVbangladeshi
p3092
aVstart
p3093
aVlow
p3094
aVlot
p3095
aVshoutcast
p3096
aVapis
p3097
aVtechnologies
p3098
aVtrying
p3099
aVhire
p3100
aVcacti
p3101
aVillustrator
p3102
aVbachelor
p3103
aVsvg
p3104
aVdetailed
p3105
aVmoney
p3106
aVad
p3107
aVvideos
p3108
aVtaste
p3109
aVdescribe
p3110
aVsales
p3111
aVdeep
p3112
aVnagios
p3113
aVreliability
p3114
aVfile
p3115
aVlogo
p3116
aVquickbooks
p3117
aVagain
p3118
aVdrafts
p3119
aV2003
p3120
aVpersonnel
p3121
aVgraduate
p3122
aVproductively
p3123
aVfield
p3124
aV28078
p3125
aVmathematics
p3126
aVpresenting
p3127
aVoneself
p3128
aVobsessed
p3129
aVpear
p3130
aVincludes
p3131
aVimportant
p3132
aVnapier
p3133
aVsuited
p3134
aVbuilding
p3135
aVremote
p3136
aVcalls
p3137
aVwife
p3138
aVcpa
p3139
aVtricks
p3140
aVwebsites
p3141
aVhaving
p3142
aVdirectory
p3143
aVoral
p3144
aVoriginal
p3145
aVmigrated
p3146
aValm
p3147
aVb43b054378357819
p3148
aVfounder
p3149
aVmonth
p3150
aVpostponing
p3151
aVdeadline
p3152
aVfollow
p3153
aVdecisions
p3154
aVsmo
p3155
aVhunting
p3156
aVicons
p3157
aVtv
p3158
aVplesk
p3159
aVprogram
p3160
aVopensource
p3161
aVpresentation
p3162
aVfax
p3163
aVreturned
p3164
aVreturning
p3165
aVminded
p3166
aVdifference
p3167
aVcondition
p3168
aVlist
p3169
aVapplicable
p3170
aVlarge
p3171
aVscrapping
p3172
aVsmall
p3173
aVten
p3174
aVpast
p3175
aVrate
p3176
aVperspective
p3177
aVfurther
p3178
aVfunctioning
p3179
aVpinterest
p3180
aVsun
p3181
aVsection
p3182
aVresume
p3183
aVlearner
p3184
aVversion
p3185
aVlearned
p3186
aVmemcached
p3187
aVpublic
p3188
aV5002
p3189
aVfull
p3190
aVtags
p3191
aV21st
p3192
aVhours
p3193
aVoperating
p3194
aVdatabases
p3195
aVdirections
p3196
aVstrong
p3197
aVobserving
p3198
aVhass
p3199
aVsearch
p3200
aVahead
p3201
aVinspired
p3202
aVcompliance
p3203
aVprior
p3204
aVadvertising
p3205
aVpublished
p3206
aVaction
p3207
aV45wpm
p3208
aVvia
p3209
aVfamily
p3210
aVtoyo
p3211
aVglitch
p3212
aVdimention
p3213
aVtrained
p3214
aVestablish
p3215
aVselect
p3216
aVliterary
p3217
aVeye
p3218
aVtakes
p3219
aVobjectives
p3220
aVfaint
p3221
aVtwo
p3222
aValmost
p3223
aVcall
p3224
aVmarkets
p3225
aVachieving
p3226
aVdiamond
p3227
aVdoor
p3228
aVknows
p3229
aVopenvz
p3230
aVproblem
p3231
aVbasically
p3232
aVparticular
p3233
aVproducing
p3234
aVwebmaster
p3235
aVglad
p3236
aVkeeping
p3237
aVsalesforce
p3238
aVscience
p3239
aVequation
p3240
aVcreated
p3241
aVfronted
p3242
aVatari
p3243
aVlearn
p3244
aVstrategies
p3245
aVchallenging
p3246
aVstated
p3247
aVshare
p3248
aVvirtuemart
p3249
aVminimum
p3250
aVmagento
p3251
aVaxis
p3252
aVinformation
p3253
aVneeds
p3254
aVcapistrano
p3255
aVutilize
p3256
aVmaps
p3257
aVbuenos
p3258
aVtibay
p3259
aVreflect
p3260
aVcatalog
p3261
aVdisable
p3262
aVlighting
p3263
aVcairngorm
p3264
aVresponse
p3265
aVshort
p3266
aVpostfix
p3267
aVmeticulous
p3268
aVregister
p3269
aVbugs
p3270
aVdjango
p3271
aVresponsibility
p3272
aVmedia
p3273
aVcs5
p3274
aVdream
p3275
aVplaying
p3276
aVcs3
p3277
aVreplied
p3278
aVphotoshop
p3279
aVhelp
p3280
aVmission
p3281
aVlicensure
p3282
aVheld
p3283
aVrounder
p3284
aVpaper
p3285
aVthrough
p3286
aVcommitted
p3287
aVits
p3288
aVdeveloper
p3289
aV25
p3290
aVstyle
p3291
aV20
p3292
aV22
p3293
aV23
p3294
aVsolving
p3295
aV29
p3296
aVsystems
p3297
aVsomeone
p3298
aVsomebody
p3299
aVseeking
p3300
aVfood
p3301
aVnumber
p3302
aVframework
p3303
aVfoot
p3304
aVformulating
p3305
aVyr
p3306
aVbigger
p3307
aVinstructions
p3308
aVeasily
p3309
aVlevel
p3310
aV2d
p3311
aVuploads
p3312
aVgnucash
p3313
aVeveryone
p3314
aVgeneration
p3315
aVhard
p3316
aVnumeric
p3317
aVclockwork
p3318
aVexpect
p3319
aVoperation
p3320
aVscribe
p3321
aVinsurance
p3322
aVreally
p3323
aVftp
p3324
aVcatia
p3325
aVconceptualizing
p3326
aVsencha
p3327
aVsince
p3328
aVhealth
p3329
aVprint
p3330
aVoffline
p3331
aVasp
p3332
aVios
p3333
aVreason
p3334
aVbase
p3335
aVmobile
p3336
aVmembers
p3337
aVcss
p3338
aVput
p3339
aVteach
p3340
aVash
p3341
aVrevolutionary
p3342
aVdirector
p3343
aVdrupal
p3344
aVdashcommerce
p3345
aVneeding
p3346
aVamerican
p3347
aVexpecting
p3348
aVthrows
p3349
aVmajor
p3350
aVstudent
p3351
aVencoding
p3352
aVfeel
p3353
aVscheglov
p3354
aVzurb
p3355
aVdone
p3356
aVdefects
p3357
aVmiss
p3358
aVecommerce
p3359
aVleast
p3360
aVweblogic
p3361
aVpassed
p3362
aV1077457
p3363
aVstore
p3364
aVgps
p3365
aVrelationship
p3366
aVhotel
p3367
aVemploy
p3368
aVpart
p3369
aVtranslation
p3370
aVbelieve
p3371
aVonetieva
p3372
aVjquery
p3373
aVkind
p3374
aVdetermines
p3375
aVkindly
p3376
aVrecruitment
p3377
aVlayouts
p3378
aVaims
p3379
aVrecording
p3380
aVveportal
p3381
aVpolishing
p3382
aVhurco
p3383
aVinteractive
p3384
aVmotivation
p3385
aVoutstanding
p3386
aVchipmunk
p3387
aVmootools
p3388
aVw4m
p3389
aVself
p3390
aVpayments
p3391
aVdianwei
p3392
aVbuild
p3393
aVplay
p3394
aVcompetencies
p3395
aVcomponents
p3396
aVpopular
p3397
aVenglish
p3398
aVchart
p3399
aVmost
p3400
aVexperiences
p3401
aVaires
p3402
aVservices
p3403
aVextremely
p3404
aVachievement
p3405
aVwindows
p3406
aVpopularity
p3407
aVtieva
p3408
aVphonegap
p3409
aVartistic
p3410
aVclean
p3411
aVnotch
p3412
aVphysics
p3413
aVmicrosoft
p3414
aVjoining
p3415
aVperseverance
p3416
aVpaul
p3417
aVrestore
p3418
aVrelation
p3419
aVheadlines
p3420
aVfind
p3421
aVmorisiki
p3422
aVaccess
p3423
aVdepended
p3424
aVwriter
p3425
aVdistributed
p3426
aVfailed
p3427
aVpretty
p3428
aVmanagerial
p3429
aVdarwin
p3430
aVxen
p3431
aVhis
p3432
aVprowess
p3433
aVexpress
p3434
aVrest
p3435
aVinternational
p3436
aVduring
p3437
aVbanner
p3438
aVblogging
p3439
aVexhibiting
p3440
aVadapts
p3441
aVsleeve
p3442
aVrfx
p3443
aVweaver
p3444
aVcrm
p3445
aVbars
p3446
aVset
p3447
aVart
p3448
aVcocos2d
p3449
aVcreator
p3450
aV317
p3451
aVsee
p3452
aVindividual
p3453
aVsem
p3454
aVskill
p3455
aVthreats
p3456
aVexpert
p3457
aVmovie
p3458
aVcurrently
p3459
aVkeepalived
p3460
aVrepresentatives
p3461
aVvarious
p3462
aVeurope
p3463
aVprofiling
p3464
aVrecently
p3465
aVcreating
p3466
aVjavascript
p3467
aVmaintainability
p3468
aV1521986
p3469
aVcoffee
p3470
aVscriptlance
p3471
aVfluently
p3472
aVvasilisbankov
p3473
aVleague
p3474
aVrestaurant
p3475
aVannual
p3476
aVevent
p3477
aVthinking
p3478
aVpdm
p3479
aVimproves
p3480
aVhesitand
p3481
aVpdf
p3482
aVlancing
p3483
aVupgraded
p3484
aVpoint
p3485
aVsimple
p3486
aVcomposting
p3487
aVwhatever
p3488
aVdimensional
p3489
aVheader
p3490
aVsimply
p3491
aVlikes
p3492
aVlinux
p3493
aVthroughout
p3494
aVexpensive
p3495
aVpr
p3496
aVjava
p3497
aVpublishing
p3498
aVcreate
p3499
aVcreativity
p3500
aVdue
p3501
aVstrategy
p3502
aVpc
p3503
aVmaintenance
p3504
aVmeeting
p3505
aVfirm
p3506
aVflight
p3507
aVfreelancing
p3508
aVraj
p3509
aVprecision
p3510
aVadaptable
p3511
aVdetermination
p3512
aVrepresentative
p3513
aVdemand
p3514
aVinstructor
p3515
aVdevelopments
p3516
aVhandling
p3517
aVlook
p3518
aVsolid
p3519
aVreliable
p3520
aVbudget
p3521
aVreceive
p3522
aVwhile
p3523
aVoptimization
p3524
aVsmart
p3525
aVbehavior
p3526
aVfun
p3527
aVanimated
p3528
aVstudied
p3529
aVcentury
p3530
aVitself
p3531
aVturnmill
p3532
aVready
p3533
aVria
p3534
aVclerical
p3535
aVshirt
p3536
aVmint
p3537
aVorders
p3538
aVorientated
p3539
aVcopying
p3540
aVpeoples
p3541
aVcomposition
p3542
aVused
p3543
aVinterpersonal
p3544
aVflurry
p3545
aV000
p3546
aVuser
p3547
aVstack
p3548
aVlower
p3549
aVtask
p3550
aVdatabase
p3551
aVpersuasive
p3552
aVspent
p3553
aVanalysis
p3554
aVhonor
p3555
aVperson
p3556
aVchangeworkssystem
p3557
aVparametric
p3558
aVspend
p3559
aVwhmcs
p3560
aVabilities
p3561
aVendeavour
p3562
aVlistening
p3563
aVphotoworks
p3564
aVcompetitive
p3565
aVopenstack
p3566
aVgems
p3567
aVcut
p3568
aVadvertisements
p3569
aVcontractor
p3570
aVsource
p3571
aVdixon
p3572
aVinput
p3573
aVcum
p3574
aVsubmissions
p3575
aVcustomers
p3576
aVdemands
p3577
aVbig
p3578
aVunlimited
p3579
aVmatters
p3580
aVgame
p3581
aVfalcon
p3582
aVbit
p3583
aVprojects
p3584
aVoutright
p3585
aVsorting
p3586
aVexcluding
p3587
aVsubmission
p3588
aVconfront
p3589
aVfacets
p3590
aVcontinue
p3591
aVtranslated
p3592
aVgoogle
p3593
aVoften
p3594
aVspring
p3595
aVcreation
p3596
aVback
p3597
aVstreaming
p3598
aVtrends
p3599
aVtowards
p3600
aVkeyword
p3601
aVdepartmental
p3602
aVshall
p3603
aVintegration
p3604
aVper
p3605
aVscalr
p3606
aVprod
p3607
aVminimal
p3608
aVinclination
p3609
aVprofessionals
p3610
aVremembered
p3611
aVopencart
p3612
aVprocessing
p3613
aVrus
p3614
aVwsdl
p3615
aVby
p3616
aVhamra
p3617
aVusa
p3618
aVanything
p3619
aVgraduation
p3620
aVsimulation
p3621
aVrange
p3622
aVjsp
p3623
aVplan
p3624
aVhometown
p3625
aVinto
p3626
aVwithin
p3627
aVnonsense
p3628
aVservers
p3629
aVperl
p3630
aVcalming
p3631
aVstatistics
p3632
aVinnate
p3633
aVfast
p3634
aVcustom
p3635
aVheritage
p3636
aVforward
p3637
aVcarnaudmetalbox
p3638
aVpromotions
p3639
aVsolanghansen
p3640
aVposter
p3641
aVenhacement
p3642
aVsearching
p3643
aVlink
p3644
aVpytalhost
p3645
aVrussian
p3646
aVinjection
p3647
aVdirected
p3648
aVintuitive
p3649
aVmunin
p3650
aVup
p3651
aVus
p3652
aVmorocco
p3653
aVthose
p3654
aVceridian
p3655
aVindividuality
p3656
aVvekperevoda
p3657
aVflow
p3658
aVbeckoning
p3659
aVdoesn
p3660
aVassociates
p3661
aVchat
p3662
aVorganizational
p3663
aVmodeling
p3664
aVhuron
p3665
aVmssql
p3666
aVstreamlining
p3667
aVedwards
p3668
aVgooglemap
p3669
aVrewriting
p3670
aVapplication
p3671
aVincome
p3672
aVdepartment
p3673
aVnice
p3674
aVusers
p3675
aVfavourite
p3676
aVmongodb
p3677
aVproblems
p3678
aVrestoration
p3679
aVposters
p3680
aVsvn
p3681
aVhappier
p3682
aVmailing
p3683
aVrequired
p3684
aVdepartments
p3685
aVmonit
p3686
aV1562408
p3687
aVdepth
p3688
aV2006
p3689
aV2007
p3690
aV2005
p3691
aVoracle
p3692
aV2008
p3693
aV2009
p3694
aVhello
p3695
aVcode
p3696
aVbroaden
p3697
aVresults
p3698
aVexisting
p3699
aVvsftp
p3700
aVgo
p3701
aVsend
p3702
aVsuits
p3703
aVintensive
p3704
aVhelps
p3705
aVsuite
p3706
aVinclude
p3707
aVfriendly
p3708
aVresources
p3709
aVuploaded
p3710
aVlogos
p3711
aVlisted
p3712
aVmastering
p3713
aVfacebook
p3714
aVstackoverflow
p3715
aVmixing
p3716
aVcategories
p3717
aVtimely
p3718
aVmercurial
p3719
aVtry
p3720
aVassignments
p3721
aVsearchability
p3722
aVbusinesses
p3723
aVhardening
p3724
aValphanumeric
p3725
aVglusterfs
p3726
aVvideo
p3727
aVdynamics
p3728
aVclick
p3729
aVvmware
p3730
aVuniversities
p3731
aVhourly
p3732
aVchicago
p3733
aVgiving
p3734
aVassisted
p3735
aVmultimedia
p3736
aVnetworks
p3737
aVbox2d
p3738
aVconsistently
p3739
aVturnaround
p3740
aVtapjoy
p3741
aVfirms
p3742
aVmarketer
p3743
aVexercise
p3744
aV3d
p3745
aVdegree
p3746
aVdelivering
p3747
aVexplore
p3748
aVbusy
p3749
aVlet
p3750
aVothers
p3751
aVstellar
p3752
aVgreat
p3753
aVengage
p3754
aVtalent
p3755
aVtechnical
p3756
aVinvolved
p3757
aV30
p3758
aVkiessling
p3759
aVproducts
p3760
aVmakes
p3761
aVnoisymusic
p3762
aVinvolves
p3763
aVapp
p3764
aVmanage
p3765
aVportals
p3766
aVunderpromise
p3767
aVapi
p3768
aVlodging
p3769
aVapply
p3770
aVtools
p3771
aVcloud
p3772
aVconfidence
p3773
aVhears
p3774
aVtensionmanagementinstitute
p3775
aVguideline
p3776
aVfew
p3777
aVdoubt
p3778
aVthemselves
p3779
aVhaproxy
p3780
aVjournalists
p3781
aVstarted
p3782
aVarranging
p3783
aVpotential
p3784
aVstarter
p3785
aVsubscription
p3786
aVaccount
p3787
aVpracticing
p3788
aVphing
p3789
aVlanguages
p3790
aVthis
p3791
aVchallenge
p3792
aVmeet
p3793
aVcontrol
p3794
aVsqlite
p3795
aVperfecting
p3796
aVproprietary
p3797
aVprocess
p3798
aVtax
p3799
aVhigh
p3800
aVsomething
p3801
aVtab
p3802
aVeducational
p3803
aVsit
p3804
aVpoetry
p3805
aVarrangement
p3806
aVlamp
p3807
aVrevision
p3808
aVprofile
p3809
aVadministrator
p3810
aVwatch
p3811
aVfits
p3812
aVcommunicator
p3813
aVmarrow
p3814
aVefficiently
p3815
aVos
p3816
aVzenoss
p3817
aVzbrush
p3818
aVtexturing
p3819
aVelement
p3820
aVencyclopedia
p3821
aVallow
p3822
aVtenure
p3823
aVquotations
p3824
aVpreparing
p3825
aVresearching
p3826
aVincluding
p3827
aVlooks
p3828
aVconverting
p3829
aVhbase
p3830
aVchosen
p3831
aVll
p3832
aVhim
p3833
aVwilling
p3834
aVfirmly
p3835
aVchoose
p3836
aVhobby
p3837
aV2011
p3838
aV2012
p3839
aVflex
p3840
aVdesigns
p3841
aVcrash
p3842
aVpython
p3843
aVpractice
p3844
aVindexing
p3845
aVfunctional
p3846
aVeffectatious
p3847
aVarticulate
p3848
aVhands
p3849
aVfront
p3850
aVcakephp
p3851
aVday
p3852
aVstrive
p3853
aVarticles
p3854
aVmasters
p3855
aVkronos
p3856
aVedit
p3857
aVuniversity
p3858
aV3ds
p3859
aVaccounts
p3860
aVluster
p3861
aVexperienced
p3862
aV709
p3863
aVdoing
p3864
aVrelated
p3865
aVsociety
p3866
aVmeta
p3867
aVstatic
p3868
aVcpanel
p3869
aVmxml
p3870
aVour
p3871
aVprogrammer
p3872
aVspecial
p3873
aVout
p3874
aVproofreader
p3875
aVchaos
p3876
aVricky
p3877
aVmate
p3878
aVimpart
p3879
aVred
p3880
aVproficient
p3881
aVipod
p3882
aVloyola
p3883
aVanalytical
p3884
aVcompletely
p3885
aVplease
p3886
aVsurely
p3887
aVtenant
p3888
aVorganic
p3889
aVcould
p3890
aVopengl
p3891
aVask
p3892
aVtimes
p3893
aVkeen
p3894
aVpasting
p3895
aVstimulate
p3896
aVplastics
p3897
aVindesign
p3898
aVblogger
p3899
aVpowerful
p3900
aVstrategic
p3901
aVimprovements
p3902
aVpuppet
p3903
aVowner
p3904
aVlong
p3905
aVstrict
p3906
aVdetailing
p3907
aVsystem
p3908
aVpriority
p3909
aVtheir
p3910
aVmechnisam
p3911
aVpakistani
p3912
aVfinal
p3913
aVaodrgsiggnrjrzs
p3914
aVcompleted
p3915
aVrsa
p3916
aVregards
p3917
aVmanipulation
p3918
aVhaven
p3919
aVupdating
p3920
aVrss
p3921
aVipad
p3922
aVbother
p3923
aVsubmitted
p3924
aVdmu50
p3925
aVproviding
p3926
aVcollecting
p3927
aVvericut
p3928
aVneed
p3929
aVlinked
p3930
aVcompetency
p3931
aVdocuments
p3932
aVstudying
p3933
aVable
p3934
aVstegloff
p3935
aVcontact
p3936
aVconcerns
p3937
aVwhich
p3938
aVhonestly
p3939
aV328
p3940
aVsubject
p3941
aVsoap
p3942
aVaccuracy
p3943
aVworldwide
p3944
aVunless
p3945
aVcentre
p3946
aVwho
p3947
aVaws
p3948
aVdelve
p3949
aVsegment
p3950
aVclass
p3951
aVdelivery
p3952
aVurl
p3953
aVarchiving
p3954
aVconstruction
p3955
aVmechanical
p3956
aVgoals
p3957
aVselection
p3958
aVdba
p3959
aVtext
p3960
aVretouching
p3961
aVplanning
p3962
aVmanchester
p3963
aVportfolio
p3964
aVdebate
p3965
aVlitigation
p3966
aVediting
p3967
aVbased
p3968
aVearned
p3969
aVcache
p3970
aVshould
p3971
aVemployee
p3972
aVemployed
p3973
aVlocal
p3974
aVhope
p3975
aVexceptional
p3976
aVfamiliar
p3977
aVones
p3978
aVwords
p3979
aVdb2
p3980
aVprocedures
p3981
aVareas
p3982
aVcourse
p3983
aVcalling
p3984
aVqc
p3985
aVstuff
p3986
aVshe
p3987
aVqueries
p3988
aVgrab
p3989
aVconversions
p3990
aVenhances
p3991
aVrightscale
p3992
aVacquired
p3993
aVtravis
p3994
aVcomputer
p3995
aVwritten
p3996
aVcopywriting
p3997
aVprogress
p3998
aVemail
p3999
aVattention
p4000
aVability
p4001
aVrajeev
p4002
aVwojczyszyn
p4003
aVdeliver
p4004
aVimplementing
p4005
aVjob
p4006
aVkey
p4007
aVconfiguration
p4008
aVswift
p4009
aVker
p4010
aVdiligent
p4011
aVadmin
p4012
aVtaking
p4013
aVpresentations
p4014
aVetc
p4015
aVwaiters
p4016
aVmentoring
p4017
aVworksheets
p4018
aVjson
p4019
aVseasoned
p4020
aVpoet
p4021
aVutilizing
p4022
aVwaste
p4023
aVmike
p4024
aVboth
p4025
aVsufficient
p4026
aVal
p4027
aVcontroller
p4028
aVgraphics
p4029
aVgeneral
p4030
aVpresent
p4031
aVhmc
p4032
aVmulti
p4033
aVvalue
p4034
aVframeworks
p4035
aVstunning
p4036
aVscanned
p4037
aVve
p4038
aVsaasu
p4039
aVsite
p4040
aVlinkedin
p4041
aVhelped
p4042
aVarabic
p4043
aVregression
p4044
aVbegan
p4045
aVadministration
p4046
aVmember
p4047
aVunity
p4048
aVparts
p4049
aVparty
p4050
aVandroid
p4051
aVresiding
p4052
aVhttp
p4053
aVreporting
p4054
aVupon
p4055
aVautomation
p4056
aVproficiency
p4057
aVv5
p4058
aVv6
p4059
aVuni
p4060
aVtransaction
p4061
aVoff
p4062
aVcenter
p4063
aVvariety
p4064
aVthought
p4065
aVpatterns
p4066
aVcommand
p4067
aVoops
p4068
aVsets
p4069
aVposition
p4070
aVaudio
p4071
aVdrawing
p4072
aVlatest
p4073
aVload
p4074
aVheavily
p4075
aVaccurate
p4076
aVexecutive
p4077
aVobtain
p4078
aVdose
p4079
aVsourcer
p4080
aVprotecting
p4081
aVbudypress
p4082
aVrapid
p4083
aVads
p4084
aVadp
p4085
aVcomunications
p4086
aVjeff
p4087
aVcapabilities
p4088
aVnor
p4089
aVusage
p4090
aV280
p4091
aVsuit
p4092
aVkick
p4093
aVcss3
p4094
aVcss2
p4095
aVcaptivating
p4096
aVample
p4097
aVmolding
p4098
aVmillturn
p4099
aVexecute
p4100
aVfive
p4101
aVknow
p4102
aVdeployment
p4103
aVpress
p4104
aVloader
p4105
aVprominent
p4106
aVresid
p4107
aVhelpful
p4108
aVsuccess
p4109
aVefficiency
p4110
aVdictionaries
p4111
aVcandy
p4112
aVjournalist
p4113
aVbecome
p4114
aVworks
p4115
aVpage
p4116
aVexceed
p4117
aVbecause
p4118
aVpropel
p4119
aVactuarial
p4120
aVtwitter
p4121
aV987
p4122
aVplatforms
p4123
aVgrowth
p4124
aV110
p4125
aVconvey
p4126
aVproper
p4127
aVhome
p4128
aVprojection
p4129
aVlead
p4130
aVsketching
p4131
aVpassion
p4132
aVcapability
p4133
aVleader
p4134
aVschedule
p4135
aVmaven
p4136
aVpressure
p4137
aValthough
p4138
aVtestflight
p4139
aVshopify
p4140
aVgained
p4141
aVabout
p4142
aVjustin
p4143
aVgetting
p4144
aVcolumn
p4145
aValtb6kgfpg9btvc
p4146
aVpowerpoint
p4147
aVsoftware
p4148
aVown
p4149
aVpolished
p4150
aVcauselle
p4151
aVh2
p4152
aVh1
p4153
aVskydrive
p4154
aVsmarty
p4155
aVassess
p4156
aVvirtualbox
p4157
aV1987
p4158
aVnetworking
p4159
aVadditional
p4160
aVtransfer
p4161
aVapps
p4162
aVawarded
p4163
aV704
p4164
aVaccountant
p4165
aVliceanse
p4166
aVblackprojectstudios
p4167
aVbiggest
p4168
aVyrs
p4169
aVelastix
p4170
aVnaturally
p4171
aVinterest
p4172
aVpeechtree
p4173
aVhr
p4174
aVhp
p4175
aVvolume
p4176
aVhi
p4177
aVgain
p4178
aVoverflow
p4179
aVhighest
p4180
aVbug
p4181
aVversatile
p4182
aVcount
p4183
aVmade
p4184
aVdmg
p4185
aVsmooth
p4186
aVcurrentaly
p4187
aVrecord
p4188
aVbelow
p4189
aVbooks
p4190
aVlimit
p4191
aVdistribution
p4192
aVpiece
p4193
aVpim
p4194
aVrecognize
p4195
aVbrochures
p4196
aVcontribute
p4197
aVmyi
p4198
aVinn
p4199
aVperiods
p4200
aVeducation
p4201
aVmyd
p4202
aVinc
p4203
aVfunctions
p4204
aVcontest
p4205
aVdetail
p4206
aVvirtual
p4207
aVpeoplesoft
p4208
aVbook
p4209
aVdetails
p4210
aVbranch
p4211
aVphp5
p4212
aVasterisk
p4213
aVlearnings
p4214
aVrepeat
p4215
aVchance
p4216
aVadditionally
p4217
aVmultinationals
p4218
aVextjs
p4219
aVlaude
p4220
aVexposure
p4221
aVfocused
p4222
aVsphinx
p4223
aVblogs
p4224
aVcompete
p4225
aVquestionnaires
p4226
aVunderstand
p4227
aVstrategical
p4228
atRp4229
sg1511
Nsbsg1408
g1475
sg1409
g1
(g1410
g3
NtRp4230
(dp4231
g1413
I01
sg1414
g1514
sbsg8
Nsg1416
I01
sg1417
g1418
sg1419
g1515
sg1420
g1
(g1421
g3
NtRp4232
(dp4233
g1424
g1820
sg1428
Nsg1426
g1518
sg1429
Nsg1430
g1431
sg1432
Nsbsaa(lp4234
g1520
a(dp4235
g1407
Nsg1408
g1520
sg1409
g1
(g1410
g3
NtRp4236
(dp4237
g1414
g1524
sg1810
g1372
(g1373
(I0
tS'b'
tRp4238
(I1
(I1
tg1389
I00
S'\x1e\x1e\x1e\x1e\x1e\x1e\x9e?'
tbsg1812
g1372
(g1373
(I0
tS'b'
tRp4239
(I1
(I1
tg1389
I00
S'\x00\x00\x00\x00\x00\x00A@'
tbsg1814
g1372
(g1373
(I0
tS'b'
tRp4240
(I1
(I1
tg1389
I00
S'\x00\x00\x00\x00\x00\x00\x00\x00'
tbsg1816
g1372
(g1373
(I0
tS'b'
tRp4241
(I1
(I1
tg1389
I00
S'\x00\x00\x00\x00\x00\x00\x00\x00'
tbsg1413
I01
sbsg8
Nsg1416
I01
sg1417
g1418
sg1419
Nsg1420
g1
(g1421
g3
NtRp4242
(dp4243
g1424
g1820
sg1428
Nsg1426
g1427
sg1429
Nsg1430
g1431
sg1432
Nsbsaa(lp4244
g1528
a(dp4245
g1407
Nsg1408
g1528
sg1409
g1
(g1410
g3
NtRp4246
(dp4247
g1414
g1532
sg1810
g1372
(g1373
(I0
tS'b'
tRp4248
(I1
(I1
tg1389
I00
S'UUUUUU\xd5?'
tbsg1812
g1372
(g1373
(I0
tS'b'
tRp4249
(I1
(I1
tg1389
I00
S'\x00\x00\x00\x00\x00\x00\x08@'
tbsg1814
g1372
(g1373
(I0
tS'b'
tRp4250
(I1
(I1
tg1389
I00
S'\x00\x00\x00\x00\x00\x00\x00@'
tbsg1816
g1372
(g1373
(I0
tS'b'
tRp4251
(I1
(I1
tg1389
I00
S'UUUUUU\xe5\xbf'
tbsg1413
I01
sbsg8
Nsg1416
I01
sg1417
g1418
sg1419
Nsg1420
g1
(g1421
g3
NtRp4252
(dp4253
g1424
g1820
sg1428
Nsg1426
g1427
sg1429
Nsg1430
g1431
sg1432
Nsbsaa(lp4254
g1536
a(dp4255
g1407
Nsg1408
g1536
sg1409
g1
(g1410
g3
NtRp4256
(dp4257
g1414
g1540
sg1810
g1372
(g1373
(I0
tS'b'
tRp4258
(I1
(I1
tg1389
I00
S'\x00\x00\x00\x00\x00\x00\xf0?'
tbsg1812
g1372
(g1373
(I0
tS'b'
tRp4259
(I1
(I1
tg1389
I00
S'\x00\x00\x00\x00\x00\x00\xf0?'
tbsg1814
g1372
(g1373
(I0
tS'b'
tRp4260
(I1
(I1
tg1389
I00
S'\x00\x00\x00\x00\x00\x00\x00\x00'
tbsg1816
g1372
(g1373
(I0
tS'b'
tRp4261
(I1
(I1
tg1389
I00
S'\x00\x00\x00\x00\x00\x00\x00\x00'
tbsg1413
I01
sbsg8
Nsg1416
I01
sg1417
g1418
sg1419
Nsg1420
g1
(g1421
g3
NtRp4262
(dp4263
g1424
g1820
sg1428
Nsg1426
g1441
sg1429
Nsg1430
g1431
sg1432
Nsbsaa(lp4264
g1544
a(dp4265
g1407
Nsg1408
g1544
sg1409
g1
(g1410
g3
NtRp4266
(dp4267
g1414
g1548
sg1810
g1372
(g1373
(I0
tS'b'
tRp4268
(I1
(I1
tg1389
I00
S'\x00\x00\x00\x00\x00\x00\xf0?'
tbsg1812
g1372
(g1373
(I0
tS'b'
tRp4269
(I1
(I1
tg1389
I00
S'\x00\x00\x00\x00\x00\x00\xf0?'
tbsg1814
g1372
(g1373
(I0
tS'b'
tRp4270
(I1
(I1
tg1389
I00
S'\x00\x00\x00\x00\x00\x00\x00\x00'
tbsg1816
g1372
(g1373
(I0
tS'b'
tRp4271
(I1
(I1
tg1389
I00
S'\x00\x00\x00\x00\x00\x00\x00\x00'
tbsg1413
I01
sbsg8
Nsg1416
I01
sg1417
g1418
sg1419
Nsg1420
g1
(g1421
g3
NtRp4272
(dp4273
g1424
g1820
sg1428
Nsg1426
g1551
sg1429
Nsg1430
g1431
sg1432
Nsbsaa(lp4274
g1553
a(dp4275
g1407
Nsg1408
g1553
sg1409
g1
(g1410
g3
NtRp4276
(dp4277
g1414
g1557
sg1810
g1372
(g1373
(I0
tS'b'
tRp4278
(I1
(I1
tg1389
I00
S'\x00\x00\x00\x00\x00\x00\xf0?'
tbsg1812
g1372
(g1373
(I0
tS'b'
tRp4279
(I1
(I1
tg1389
I00
S'\x00\x00\x00\x00\x00\x00\xf0?'
tbsg1814
g1372
(g1373
(I0
tS'b'
tRp4280
(I1
(I1
tg1389
I00
S'\x00\x00\x00\x00\x00\x00\x00\x00'
tbsg1816
g1372
(g1373
(I0
tS'b'
tRp4281
(I1
(I1
tg1389
I00
S'\x00\x00\x00\x00\x00\x00\x00\x00'
tbsg1413
I01
sbsg8
Nsg1416
I01
sg1417
g1418
sg1419
Nsg1420
g1
(g1421
g3
NtRp4282
(dp4283
g1424
g1820
sg1428
Nsg1426
g1551
sg1429
Nsg1430
g1431
sg1432
Nsbsaa(lp4284
g1561
a(dp4285
g1407
Nsg1408
g1561
sg1409
g1
(g1410
g3
NtRp4286
(dp4287
g1414
g1565
sg1810
g1372
(g1373
(I0
tS'b'
tRp4288
(I1
(I1
tg1389
I00
S'\xb8\xf3\xdaoq\x11%>'
tbsg1812
g1372
(g1373
(I0
tS'b'
tRp4289
(I1
(I1
tg1389
I00
S'\x00\x00\x00\x80VM\xb8A'
tbsg1814
g1372
(g1373
(I0
tS'b'
tRp4290
(I1
(I1
tg1389
I00
S'\x00\x00\x00\xc0\xa16\xccA'
tbsg1816
g1372
(g1373
(I0
tS'b'
tRp4291
(I1
(I1
tg1389
I00
S'!\xbaw/;\x93\x02\xc0'
tbsg1413
I01
sbsg8
I946684800
sg1416
I01
sg1417
g1418
sg1419
Nsg1420
g1
(g1566
g3
NtRp4292
(dp4293
g1430
g1431
sg1424
g1820
sg1429
Nsg1428
I946684800
sg1432
(dp4294
g1570
g1571
ssbsaa(lp4295
g1573
a(dp4296
g1407
Nsg1408
g1573
sg1409
g1
(g1410
g3
NtRp4297
(dp4298
g1414
g1577
sg1810
g1372
(g1373
(I0
tS'b'
tRp4299
(I1
(I1
tg1389
I00
S'\x11\x11\x11\x11\x11\x11\x91?'
tbsg1812
g1372
(g1373
(I0
tS'b'
tRp4300
(I1
(I1
tg1389
I00
S'\x00\x00\x00\x00\x00\x00N@'
tbsg1814
g1372
(g1373
(I0
tS'b'
tRp4301
(I1
(I1
tg1389
I00
S'\x00\x00\x00\x00\x00\x00\x00\x00'
tbsg1816
g1372
(g1373
(I0
tS'b'
tRp4302
(I1
(I1
tg1389
I00
S'\x00\x00\x00\x00\x00\x00\x00\x00'
tbsg1413
I01
sbsg8
Nsg1416
I01
sg1417
g1418
sg1419
Nsg1420
g1
(g1421
g3
NtRp4303
(dp4304
g1424
g1820
sg1428
Nsg1426
g1441
sg1429
Nsg1430
g1431
sg1432
Nsbsaa(lp4305
g1581
a(dp4306
g1407
Nsg1408
g1581
sg1409
g1
(g1410
g3
NtRp4307
(dp4308
g1414
g1585
sg1810
g1372
(g1373
(I0
tS'b'
tRp4309
(I1
(I1
tg1389
I00
S'd!\x0bY\xc8B\x86?'
tbsg1812
g1372
(g1373
(I0
tS'b'
tRp4310
(I1
(I1
tg1389
I00
S'\x00\x00\x00\x00\x00\x00W@'
tbsg1814
g1372
(g1373
(I0
tS'b'
tRp4311
(I1
(I1
tg1389
I00
S'\x00\x00\x00\x00\x00\x00\x00\x00'
tbsg1816
g1372
(g1373
(I0
tS'b'
tRp4312
(I1
(I1
tg1389
I00
S'\x00\x00\x00\x00\x00\x00\x00\x00'
tbsg1413
I01
sbsg8
Nsg1416
I01
sg1417
g1418
sg1419
Nsg1420
g1
(g1421
g3
NtRp4313
(dp4314
g1424
g1820
sg1428
Nsg1426
g1427
sg1429
Nsg1430
g1431
sg1432
Nsbsaa(lp4315
g1589
a(dp4316
g1407
g1
(g1477
g3
NtRp4317
(dp4318
g1480
g1481
sg1482
I01
sg1483
Nsg1485
Nsg1484
Nsg1486
g1487
sg1488
g1489
sg1495
F1
sg1875
I00
sg1490
g1491
sg1876
(dp4319
Vand
p4320
g17
(g1377
S'\x02\x00\x00\x00'
tRp4321
sVphotoshop
p4322
g17
(g1377
S'\x1d\x00\x00\x00'
tRp4323
sVresearcher
p4324
g17
(g1377
S'!\x00\x00\x00'
tRp4325
sVmysql
p4326
g17
(g1377
S'\x1b\x00\x00\x00'
tRp4327
sVfor
p4328
g17
(g1377
S'\x13\x00\x00\x00'
tRp4329
sVexperienced
p4330
g17
(g1377
S'\x11\x00\x00\x00'
tRp4331
sVdesign
p4332
g17
(g1377
S'\n\x00\x00\x00'
tRp4333
sVin
p4334
g17
(g1377
S'\x18\x00\x00\x00'
tRp4335
sVseo
p4336
g17
(g1377
S'#\x00\x00\x00'
tRp4337
sVsem
p4338
g17
(g1377
S'"\x00\x00\x00'
tRp4339
sVwriting
p4340
g17
(g1377
S'/\x00\x00\x00'
tRp4341
sVbest
p4342
g17
(g1377
S'\x06\x00\x00\x00'
tRp4343
sVdeveloper
p4344
g17
(g1377
S'\x0c\x00\x00\x00'
tRp4345
sVweb
p4346
g17
(g1377
S'*\x00\x00\x00'
tRp4347
sVexpert
p4348
g17
(g1377
S'\x12\x00\x00\x00'
tRp4349
sVwith
p4350
g17
(g1377
S'+\x00\x00\x00'
tRp4351
sVfreelance
p4352
g17
(g1377
S'\x14\x00\x00\x00'
tRp4353
sVwriter
p4354
g17
(g1377
S'.\x00\x00\x00'
tRp4355
sVexcel
p4356
g17
(g1377
S'\x10\x00\x00\x00'
tRp4357
sVvirtual
p4358
g17
(g1377
S')\x00\x00\x00'
tRp4359
sVresearch
p4360
g17
(g1377
S' \x00\x00\x00'
tRp4361
sVsmm
p4362
g17
(g1377
S'%\x00\x00\x00'
tRp4363
sVhtml
p4364
g17
(g1377
S'\x17\x00\x00\x00'
tRp4365
sVwordpress
p4366
g17
(g1377
S'-\x00\x00\x00'
tRp4367
sVeditor
p4368
g17
(g1377
S'\r\x00\x00\x00'
tRp4369
sVengineer
p4370
g17
(g1377
S'\x0e\x00\x00\x00'
tRp4371
sVadministrative
p4372
g17
(g1377
S'\x00\x00\x00\x00'
tRp4373
sVcss
p4374
g17
(g1377
S'\x07\x00\x00\x00'
tRp4375
sVspecialist
p4376
g17
(g1377
S"'\x00\x00\x00"
tRp4377
sVdesigner
p4378
g17
(g1377
S'\x0b\x00\x00\x00'
tRp4379
sVassistant
p4380
g17
(g1377
S'\x05\x00\x00\x00'
tRp4381
sVgame
p4382
g17
(g1377
S'\x15\x00\x00\x00'
tRp4383
sVprofessional
p4384
g17
(g1377
S'\x1f\x00\x00\x00'
tRp4385
sVphp
p4386
g17
(g1377
S'\x1e\x00\x00\x00'
tRp4387
sVdata
p4388
g17
(g1377
S'\t\x00\x00\x00'
tRp4389
sVanalyst
p4390
g17
(g1377
S'\x01\x00\x00\x00'
tRp4391
sVcustomer
p4392
g17
(g1377
S'\x08\x00\x00\x00'
tRp4393
sVjquery
p4394
g17
(g1377
S'\x19\x00\x00\x00'
tRp4395
sVgraphic
p4396
g17
(g1377
S'\x16\x00\x00\x00'
tRp4397
sVword
p4398
g17
(g1377
S',\x00\x00\x00'
tRp4399
sVservice
p4400
g17
(g1377
S'$\x00\x00\x00'
tRp4401
sVartist
p4402
g17
(g1377
S'\x04\x00\x00\x00'
tRp4403
sVof
p4404
g17
(g1377
S'\x1c\x00\x00\x00'
tRp4405
sVarchitect
p4406
g17
(g1377
S'\x03\x00\x00\x00'
tRp4407
sVms
p4408
g17
(g1377
S'\x1a\x00\x00\x00'
tRp4409
sVentry
p4410
g17
(g1377
S'\x0f\x00\x00\x00'
tRp4411
sVtop
p4412
g17
(g1377
S'(\x00\x00\x00'
tRp4413
sVsoftware
p4414
g17
(g1377
S'&\x00\x00\x00'
tRp4415
ssg1492
I00
sg1493
g1593
sg1429
Nsg1496
I3
sg1497
Nsg1498
g1499
sg1500
g1
(g1501
g3
NtRp4416
(dp4417
g1504
I01
sg1505
I01
sg1506
I00
sg1507
g1508
sg2084
g1
(g2085
g3
NtRp4418
(dp4419
g2088
g1372
(g1373
(I0
tS'b'
tRp4420
(I1
(I1
I48
tg1389
I00
S'V\xd1\xd3\x15\xe1\xb8\x0f@|\xbd&I\xf0\xc0\x10@\xa4`KZ\x1ej\t@|\xbd&I\xf0\xc0\x10@|\xbd&I\xf0\xc0\x10@}\xec\x8e\xd2O\xf6\x0b@|\xbd&I\xf0\xc0\x10@}\xec\x8e\xd2O\xf6\x0b@|\xbd&I\xf0\xc0\x10@^\xb4V\x96\xbf\xa1\x04@|\xbd&I\xf0\xc0\x10@\xdaB\x15VP-\n@\x9f\x0b\x99\xe6\xfd\x13\x08@\xef\x87\xb5\x14|C\x0e@V\xd1\xd3\x15\xe1\xb8\x0f@j\x06_\xd7\x86y\x05@V\xd1\xd3\x15\xe1\xb8\x0f@\xef\x87\xb5\x14|C\x0e@\xa4`KZ\x1ej\t@|\xbd&I\xf0\xc0\x10@|\xbd&I\xf0\xc0\x10@|\xbd&I\xf0\xc0\x10@\xc4j\xb1\xba\xc8\x07\r@}\xec\x8e\xd2O\xf6\x0b@|\xbd&I\xf0\xc0\x10@|\xbd&I\xf0\xc0\x10@\xef\x87\xb5\x14|C\x0e@|\xbd&I\xf0\xc0\x10@|\xbd&I\xf0\xc0\x10@|\xbd&I\xf0\xc0\x10@\xa4`KZ\x1ej\t@\xe6\x94\x1d\x97\x17\x05\x0b@}\xec\x8e\xd2O\xf6\x0b@\xa4`KZ\x1ej\t@|\xbd&I\xf0\xc0\x10@}\xec\x8e\xd2O\xf6\x0b@\xef\x87\xb5\x14|C\x0e@|\xbd&I\xf0\xc0\x10@\xef\x87\xb5\x14|C\x0e@|\xbd&I\xf0\xc0\x10@|\xbd&I\xf0\xc0\x10@\xc4j\xb1\xba\xc8\x07\r@j\x06_\xd7\x86y\x05@|\xbd&I\xf0\xc0\x10@|\xbd&I\xf0\xc0\x10@\xc4j\xb1\xba\xc8\x07\r@\xdaB\x15VP-\n@|\xbd&I\xf0\xc0\x10@'
tbsg2090
I50
sg2091
(I48
I48
tp4421
sg2093
g1372
(g1373
(I0
tS'b'
tRp4422
(I1
(I1
tg2095
I00
S'\x00\x00\x00\x00'
tbsg2096
S'dia'
p4423
sbsbsg1509
g1510
sg2098
g2099
((lp4424
Vwpf
p4425
aVoffice
p4426
aVcowgirl
p4427
aVphoto
p4428
aVgraphics
p4429
aVyears
p4430
aVmanager
p4431
aVlailani
p4432
aVmanchester
p4433
aVhuman
p4434
aVror
p4435
aVstaff
p4436
aVvisualization
p4437
aVautocad
p4438
aVproducer
p4439
aVfield
p4440
aVflash
p4441
aVjavaee
p4442
aVgigs
p4443
aVto
p4444
aVonly
p4445
aVcomplex
p4446
aVapp
p4447
aVresources
p4448
aV2012
p4449
aVcss3
p4450
aVdo
p4451
aVdesigns
p4452
aV10
p4453
aVvery
p4454
aVinternet
p4455
aVsilverlight
p4456
aVspecailist
p4457
aVqualified
p4458
aVeffects
p4459
aVandriod
p4460
aVpress
p4461
aVbanner
p4462
aVvoip
p4463
aVoutright
p4464
aVskills
p4465
aViphone5
p4466
aVemail
p4467
aVqa
p4468
aVteam
p4469
aVtopsolid
p4470
aVsystem
p4471
aVadobe
p4472
aVcreator
p4473
aVgeneration
p4474
aVecomm
p4475
aVlogo
p4476
aVprogrammer
p4477
aVmother
p4478
aVproofreader
p4479
aVwill
p4480
aVwhat
p4481
aVcatia
p4482
aVnetwork
p4483
aVlead
p4484
aVassistance
p4485
aVminer
p4486
aVcreative
p4487
aVlooking
p4488
aVdesigning
p4489
aVprint
p4490
aVprof
p4491
aVnet
p4492
aVcontent
p4493
aVpublic
p4494
aV3d
p4495
aVasp
p4496
aVvedio
p4497
aV25
p4498
aVmarketing
p4499
aVjavascript
p4500
aVjob
p4501
aVflyer
p4502
aVhtml5
p4503
aVcompetent
p4504
aVmodeling
p4505
aVteacher
p4506
aVcertified
p4507
aVsys
p4508
aVconvert
p4509
aVconnoisseur
p4510
aVtalented
p4511
aVdrupal
p4512
aVsolidworks
p4513
aVcopywriter
p4514
aVprovider
p4515
aVexperience
p4516
aVbookkeeper
p4517
aVcraigslist
p4518
aVjoomla
p4519
aVcolumnist
p4520
aVproducts
p4521
aVadvertising
p4522
aVpublished
p4523
aVmixed
p4524
aVpdf
p4525
aVcad
p4526
aVpowerpoint
p4527
aVtypist
p4528
aVppc
p4529
aVdepalog
p4530
aVindustrial
p4531
aVblogger
p4532
aVsugarcrm
p4533
aVmba
p4534
aVrank
p4535
aVone
p4536
aVxero
p4537
aVarticle
p4538
aVapply
p4539
aVrep
p4540
aVquality
p4541
aVadmin
p4542
aVcloud
p4543
aVspecializing
p4544
aVmanagement
p4545
aVfrom
p4546
aVher
p4547
aVrecruiter
p4548
aVsupport
p4549
aVwab
p4550
aVknockout
p4551
aVaccountant
p4552
aVpa
p4553
aVmusic
p4554
aViphone
p4555
aVdreamweaver
p4556
aVtechnical
p4557
aVyrs
p4558
aVespecialist
p4559
aVwebsite
p4560
aVposting
p4561
aVtester
p4562
aVposter
p4563
aVis
p4564
aVnobody
p4565
aVworker
p4566
aVaca
p4567
aVelse
p4568
aVnirvana
p4569
aVfreelancer
p4570
aVvisual
p4571
aVrepresentative
p4572
aVexcellent
p4573
aVan
p4574
aVkai
p4575
aVme
p4576
aVwide
p4577
aVaccount
p4578
aVillustrator
p4579
aVdhtml
p4580
aV4500hrsworked
p4581
aVup
p4582
aVproject
p4583
aVcareer
p4584
aVonlinecoupons
p4585
aVcan
p4586
aVcam
p4587
aVmy
p4588
aVbrowser
p4589
aVva
p4590
aVdedicated
p4591
aVprocessing
p4592
aVflex
p4593
aVsaasu
p4594
aVnavigate
p4595
aVpro
p4596
aVam
p4597
aVzend
p4598
aVlinkedin
p4599
aVcommerce
p4600
aVhigh
p4601
aVmagento
p4602
aVat
p4603
aVchat
p4604
aVhonest
p4605
aVmint
p4606
aVhire
p4607
aVrespective
p4608
aVquickbooks
p4609
aVauthor
p4610
aVmedia
p4611
aVveteran
p4612
aVseeking
p4613
aVwhen
p4614
aVcross
p4615
aVw4m
p4616
aVapplication
p4617
aVlamp
p4618
aVmvc
p4619
aVbuild
p4620
aVonline
p4621
aVleader
p4622
aVxhtml
p4623
aVadministrator
p4624
aVit
p4625
aVsocial
p4626
aVasterisk
p4627
aVtranscriber
p4628
aVcollection
p4629
aVtranslator
p4630
aVzohocrm
p4631
aVfb
p4632
aVodesk
p4633
aVstudent
p4634
aVevaluator
p4635
aVencoder
p4636
aVthe
p4637
aVbsc
p4638
aVdatabase
p4639
aVmobile
p4640
aVcpa
p4641
aVvariety
p4642
aVuploading
p4643
aVsale
p4644
aVmodeler
p4645
aVmarketer
p4646
aVclient
p4647
aVexp
p4648
aVenglish
p4649
aVcs5
p4650
aVsenior
p4651
aVnotch
p4652
aVphysics
p4653
aVhaving
p4654
aVanimator
p4655
atRp4656
sg1511
Nsbsg1408
g1589
sg1409
g1
(g1410
g3
NtRp4657
(dp4658
g1413
I01
sg1414
g1598
sbsg8
Nsg1416
I01
sg1417
g1418
sg1419
g1599
sg1420
g1
(g1421
g3
NtRp4659
(dp4660
g1424
g1820
sg1428
Nsg1426
g1518
sg1429
Nsg1430
g1431
sg1432
Nsbsaa(lp4661
g1603
a(dp4662
g1407
Nsg1408
g1603
sg1409
g1
(g1410
g3
NtRp4663
(dp4664
g1414
g1607
sg1810
g1372
(g1373
(I0
tS'b'
tRp4665
(I1
(I1
tg1389
I00
S'\x1a\xa4A\x1a\xa4A\x8a?'
tbsg1812
g1372
(g1373
(I0
tS'b'
tRp4666
(I1
(I1
tg1389
I00
S'\x00\x00\x00\x00\x00\x80S@'
tbsg1814
g1372
(g1373
(I0
tS'b'
tRp4667
(I1
(I1
tg1389
I00
S'\x00\x00\x00\x00\x00\x00\x00\x00'
tbsg1816
g1372
(g1373
(I0
tS'b'
tRp4668
(I1
(I1
tg1389
I00
S'\x00\x00\x00\x00\x00\x00\x00\x00'
tbsg1413
I01
sbsg8
Nsg1416
I01
sg1417
g1418
sg1419
Nsg1420
g1
(g1421
g3
NtRp4669
(dp4670
g1424
g1820
sg1428
Nsg1426
g1441
sg1429
Nsg1430
g1431
sg1432
Nsbsaa(lp4671
g1611
a(dp4672
g1407
Nsg1408
g1611
sg1409
g1
(g1410
g3
NtRp4673
(dp4674
g1414
g1615
sg1810
g1372
(g1373
(I0
tS'b'
tRp4675
(I1
(I1
tg1389
I00
S'\xdb\x81\xb9v`\xae\x8d?'
tbsg1812
g1372
(g1373
(I0
tS'b'
tRp4676
(I1
(I1
tg1389
I00
S'\x00\x00\x00\x00\x00@Q@'
tbsg1814
g1372
(g1373
(I0
tS'b'
tRp4677
(I1
(I1
tg1389
I00
S'\x00\x00\x00\x00\x00\x00\x00\x00'
tbsg1816
g1372
(g1373
(I0
tS'b'
tRp4678
(I1
(I1
tg1389
I00
S'\x00\x00\x00\x00\x00\x00\x00\x00'
tbsg1413
I01
sbsg8
Nsg1416
I01
sg1417
g1418
sg1419
Nsg1420
g1
(g1421
g3
NtRp4679
(dp4680
g1424
g1820
sg1428
Nsg1426
g1427
sg1429
Nsg1430
g1431
sg1432
Nsbsaa(lp4681
g1619
a(dp4682
g1407
Nsg1408
g1619
sg1409
g1
(g1410
g3
NtRp4683
(dp4684
g1414
g1623
sg1810
g1372
(g1373
(I0
tS'b'
tRp4685
(I1
(I1
tg1389
I00
S'\x00\x00\x00\x00\x00\x00\xf0?'
tbsg1812
g1372
(g1373
(I0
tS'b'
tRp4686
(I1
(I1
tg1389
I00
S'\x00\x00\x00\x00\x00\x00\xf0?'
tbsg1814
g1372
(g1373
(I0
tS'b'
tRp4687
(I1
(I1
tg1389
I00
S'\x00\x00\x00\x00\x00\x00\x00\x00'
tbsg1816
g1372
(g1373
(I0
tS'b'
tRp4688
(I1
(I1
tg1389
I00
S'\x00\x00\x00\x00\x00\x00\x00\x00'
tbsg1413
I01
sbsg8
Nsg1416
I01
sg1417
g1418
sg1419
Nsg1420
g1
(g1421
g3
NtRp4689
(dp4690
g1424
g1820
sg1428
Nsg1426
g1427
sg1429
Nsg1430
g1431
sg1432
Nsbsaa(lp4691
g1627
a(dp4692
g1407
Nsg1408
g1627
sg1409
g1
(g1410
g3
NtRp4693
(dp4694
g1414
g1631
sg1810
g1372
(g1373
(I0
tS'b'
tRp4695
(I1
(I1
tg1389
I00
S'@+\x01\xad\x04\xb4R?'
tbsg1812
g1372
(g1373
(I0
tS'b'
tRp4696
(I1
(I1
tg1389
I00
S'\x00\x00\x00\x00\x00`\x8b@'
tbsg1814
g1372
(g1373
(I0
tS'b'
tRp4697
(I1
(I1
tg1389
I00
S'\x00\x00\x00\x00\x00\x00\x00\x00'
tbsg1816
g1372
(g1373
(I0
tS'b'
tRp4698
(I1
(I1
tg1389
I00
S'\x00\x00\x00\x00\x00\x00\x00\x00'
tbsg1413
I01
sbsg8
Nsg1416
I01
sg1417
g1418
sg1419
Nsg1420
g1
(g1421
g3
NtRp4699
(dp4700
g1424
g1820
sg1428
Nsg1426
g1427
sg1429
Nsg1430
g1431
sg1432
Nsbsaa(lp4701
g1635
a(dp4702
g1407
Nsg1408
g1635
sg1409
g1
(g1410
g3
NtRp4703
(dp4704
g1414
g1639
sg1810
g1372
(g1373
(I0
tS'b'
tRp4705
(I1
(I1
tg1389
I00
S'\x1a\xa4A\x1a\xa4A\x8a?'
tbsg1812
g1372
(g1373
(I0
tS'b'
tRp4706
(I1
(I1
tg1389
I00
S'\x00\x00\x00\x00\x00\x80S@'
tbsg1814
g1372
(g1373
(I0
tS'b'
tRp4707
(I1
(I1
tg1389
I00
S'\x00\x00\x00\x00\x00\x00\x00\x00'
tbsg1816
g1372
(g1373
(I0
tS'b'
tRp4708
(I1
(I1
tg1389
I00
S'\x00\x00\x00\x00\x00\x00\x00\x00'
tbsg1413
I01
sbsg8
Nsg1416
I01
sg1417
g1418
sg1419
Nsg1420
g1
(g1421
g3
NtRp4709
(dp4710
g1424
g1820
sg1428
Nsg1426
g1441
sg1429
Nsg1430
g1431
sg1432
Nsbsaa(lp4711
g1643
a(dp4712
g1407
Nsg1408
g1643
sg1409
g1
(g1410
g3
NtRp4713
(dp4714
g1414
g1647
sg1810
g1372
(g1373
(I0
tS'b'
tRp4715
(I1
(I1
tg1389
I00
S'(\xaf\xa1\xbc\x86\xf2\xaa?'
tbsg1812
g1372
(g1373
(I0
tS'b'
tRp4716
(I1
(I1
tg1389
I00
S'\x00\x00\x00\x00\x00\x003@'
tbsg1814
g1372
(g1373
(I0
tS'b'
tRp4717
(I1
(I1
tg1389
I00
S'\x00\x00\x00\x00\x00\x00\x00\x00'
tbsg1816
g1372
(g1373
(I0
tS'b'
tRp4718
(I1
(I1
tg1389
I00
S'\x00\x00\x00\x00\x00\x00\x00\x00'
tbsg1413
I01
sbsg8
Nsg1416
I01
sg1417
g1418
sg1419
Nsg1420
g1
(g1421
g3
NtRp4719
(dp4720
g1424
g1820
sg1428
Nsg1426
g1427
sg1429
Nsg1430
g1431
sg1432
Nsbsaa(lp4721
g1651
a(dp4722
g1407
Nsg1408
g1651
sg1409
g1
(g1410
g3
NtRp4723
(dp4724
g1414
g1655
sg1810
g1372
(g1373
(I0
tS'b'
tRp4725
(I1
(I1
tg1389
I00
S'\x9a\x99\x99\x99\x99\x99\xa9?'
tbsg1812
g1372
(g1373
(I0
tS'b'
tRp4726
(I1
(I1
tg1389
I00
S'\x00\x00\x00\x00\x00\x004@'
tbsg1814
g1372
(g1373
(I0
tS'b'
tRp4727
(I1
(I1
tg1389
I00
S'\x00\x00\x00\x00\x00\x00\xf0?'
tbsg1816
g1372
(g1373
(I0
tS'b'
tRp4728
(I1
(I1
tg1389
I00
S'\x9a\x99\x99\x99\x99\x99\xa9\xbf'
tbsg1413
I01
sbsg8
Nsg1416
I01
sg1417
g1418
sg1419
Nsg1420
g1
(g1421
g3
NtRp4729
(dp4730
g1424
g1820
sg1428
Nsg1426
g1427
sg1429
Nsg1430
g1431
sg1432
Nsbsaa(lp4731
g1659
a(dp4732
g1407
Nsg1408
g1659
sg1409
Nsg8
Nsg1416
I01
sg1417
g1418
sg1419
Nsg1420
g1
(g1661
g3
NtRp4733
(dp4734
g1424
Nsg1428
Nsg1429
Nsg1430
Nsg1664
(lp4735
g1
(g1666
g3
NtRp4736
(dp4737
g1430
g1431
sg1424
g1820
sg1429
Nsg1428
Nsg1432
(dp4738
g1670
g1671
ssbag1
(g1421
g3
NtRp4739
(dp4740
g1424
g1820
sg1428
Nsg1426
g1427
sg1429
Nsg1430
g1431
sg1432
Nsbasg1432
Nsbsaa(lp4741
g1675
a(dp4742
g1407
Nsg1408
g1675
sg1409
g1
(g1410
g3
NtRp4743
(dp4744
g1414
g1679
sg1810
g1372
(g1373
(I0
tS'b'
tRp4745
(I1
(I1
tg1389
I00
S'{\x14\xaeG\xe1z\x94?'
tbsg1812
g1372
(g1373
(I0
tS'b'
tRp4746
(I1
(I1
tg1389
I00
S'\x00\x00\x00\x00\x00\x00I@'
tbsg1814
g1372
(g1373
(I0
tS'b'
tRp4747
(I1
(I1
tg1389
I00
S'\x00\x00\x00\x00\x00\x00\x00\x00'
tbsg1816
g1372
(g1373
(I0
tS'b'
tRp4748
(I1
(I1
tg1389
I00
S'\x00\x00\x00\x00\x00\x00\x00\x00'
tbsg1413
I01
sbsg8
Nsg1416
I01
sg1417
g1418
sg1419
Nsg1420
g1
(g1421
g3
NtRp4749
(dp4750
g1424
g1820
sg1428
Nsg1426
g1427
sg1429
Nsg1430
g1431
sg1432
Nsbsaa(lp4751
g1683
a(dp4752
g1407
Nsg1408
g1683
sg1409
g1
(g1410
g3
NtRp4753
(dp4754
g1414
g1687
sg1810
g1372
(g1373
(I0
tS'b'
tRp4755
(I1
(I1
tg1389
I00
S'\xdd\xcd \xb9\xba8+?'
tbsg1812
g1372
(g1373
(I0
tS'b'
tRp4756
(I1
(I1
tg1389
I00
S'\x00\x00\x00\x00\x00\xcf\xb2@'
tbsg1814
g1372
(g1373
(I0
tS'b'
tRp4757
(I1
(I1
tg1389
I00
S'\x00\x00\x00\x00\x00\x00\x00\x00'
tbsg1816
g1372
(g1373
(I0
tS'b'
tRp4758
(I1
(I1
tg1389
I00
S'\x00\x00\x00\x00\x00\x00\x00\x00'
tbsg1413
I01
sbsg8
Nsg1416
I01
sg1417
g1418
sg1419
Nsg1420
g1
(g1421
g3
NtRp4759
(dp4760
g1424
g1820
sg1428
Nsg1426
g1427
sg1429
Nsg1430
g1431
sg1432
Nsbsaa(lp4761
g1691
a(dp4762
g1407
Nsg1408
g1691
sg1409
g1
(g1410
g3
NtRp4763
(dp4764
g1414
g1695
sg1810
g1372
(g1373
(I0
tS'b'
tRp4765
(I1
(I1
tg1389
I00
S'\xbdl@1\xb2\xe4\xf0>'
tbsg1812
g1372
(g1373
(I0
tS'b'
tRp4766
(I1
(I1
tg1389
I00
S'\x02:m\xa0\xcbN\xee@'
tbsg1814
g1372
(g1373
(I0
tS'b'
tRp4767
(I1
(I1
tg1389
I00
S'\x00\x00\x00\x00\x00\x00\x00\x00'
tbsg1816
g1372
(g1373
(I0
tS'b'
tRp4768
(I1
(I1
tg1389
I00
S'\x00\x00\x00\x00\x00\x00\x00\x00'
tbsg1413
I01
sbsg8
Nsg1416
I01
sg1417
g1418
sg1419
Nsg1420
g1
(g1421
g3
NtRp4769
(dp4770
g1424
g1820
sg1428
Nsg1426
g1441
sg1429
Nsg1430
g1431
sg1432
Nsbsaa(lp4771
g1699
a(dp4772
g1407
Nsg1408
g1699
sg1409
g1
(g1410
g3
NtRp4773
(dp4774
g1414
g1703
sg1810
g1372
(g1373
(I0
tS'b'
tRp4775
(I1
(I1
tg1389
I00
S'H\x07\xde\xf3\x8dis?'
tbsg1812
g1372
(g1373
(I0
tS'b'
tRp4776
(I1
(I1
tg1389
I00
S'\x00\x00\x00\x00\x00`j@'
tbsg1814
g1372
(g1373
(I0
tS'b'
tRp4777
(I1
(I1
tg1389
I00
S'\x00\x00\x00\x00\x00\x00\x00\x00'
tbsg1816
g1372
(g1373
(I0
tS'b'
tRp4778
(I1
(I1
tg1389
I00
S'\x00\x00\x00\x00\x00\x00\x00\x00'
tbsg1413
I01
sbsg8
Nsg1416
I01
sg1417
g1418
sg1419
Nsg1420
g1
(g1421
g3
NtRp4779
(dp4780
g1424
g1820
sg1428
Nsg1426
g1427
sg1429
Nsg1430
g1431
sg1432
Nsbsaa(lp4781
g1707
a(dp4782
g1407
Nsg1408
g1707
sg1409
g1
(g1410
g3
NtRp4783
(dp4784
g1414
g1711
sg1810
g1372
(g1373
(I0
tS'b'
tRp4785
(I1
(I1
tg1389
I00
S'{\x14\xaeG\xe1z\x94?'
tbsg1812
g1372
(g1373
(I0
tS'b'
tRp4786
(I1
(I1
tg1389
I00
S'\x00\x00\x00\x00\x00\x00I@'
tbsg1814
g1372
(g1373
(I0
tS'b'
tRp4787
(I1
(I1
tg1389
I00
S'\x00\x00\x00\x00\x00\x00\x00\x00'
tbsg1816
g1372
(g1373
(I0
tS'b'
tRp4788
(I1
(I1
tg1389
I00
S'\x00\x00\x00\x00\x00\x00\x00\x00'
tbsg1413
I01
sbsg8
Nsg1416
I01
sg1417
g1418
sg1419
Nsg1420
g1
(g1421
g3
NtRp4789
(dp4790
g1424
g1820
sg1428
Nsg1426
g1427
sg1429
Nsg1430
g1431
sg1432
Nsbsaa(lp4791
g1715
a(dp4792
g1407
Nsg1408
g1715
sg1409
g1
(g1410
g3
NtRp4793
(dp4794
g1414
g1719
sg1810
g1372
(g1373
(I0
tS'b'
tRp4795
(I1
(I1
tg1389
I00
S'\x11\x11\x11\x11\x11\x11\xa1?'
tbsg1812
g1372
(g1373
(I0
tS'b'
tRp4796
(I1
(I1
tg1389
I00
S'\x00\x00\x00\x00\x00\x00>@'
tbsg1814
g1372
(g1373
(I0
tS'b'
tRp4797
(I1
(I1
tg1389
I00
S'\x00\x00\x00\x00\x00\x00\x00\x00'
tbsg1816
g1372
(g1373
(I0
tS'b'
tRp4798
(I1
(I1
tg1389
I00
S'\x00\x00\x00\x00\x00\x00\x00\x00'
tbsg1413
I01
sbsg8
Nsg1416
I01
sg1417
g1418
sg1419
Nsg1420
g1
(g1421
g3
NtRp4799
(dp4800
g1424
g1820
sg1428
Nsg1426
g1427
sg1429
Nsg1430
g1431
sg1432
Nsbsaa(lp4801
g1723
a(dp4802
g1407
Nsg1408
g1723
sg1409
Nsg8
Nsg1416
I01
sg1417
g1418
sg1419
Nsg1420
g1
(g1725
g3
NtRp4803
(dp4804
g1430
Nsg1424
g1820
sg1429
g1
(g1728
g3
NtRp4805
(dp4806
g1480
g1731
sg1482
I01
sg1483
Nsg1485
Nsg1484
Nsg1486
g1732
sg1488
g1733
sg1495
F1
sg1875
I00
sg1490
g1734
sg1876
(dp4807
Vunited kingdom,sri lanka
p4808
g17
(g1377
S'\x16\x00\x00\x00'
tRp4809
sVaustralia,united kingdom
p4810
g17
(g1377
S'\x04\x00\x00\x00'
tRp4811
sVunited kingdom,bangladesh
p4812
g17
(g1377
S'\x14\x00\x00\x00'
tRp4813
sVaustralia,india
p4814
g17
(g1377
S'\x01\x00\x00\x00'
tRp4815
sVportugal,argentina
p4816
g17
(g1377
S'\x0f\x00\x00\x00'
tRp4817
sVbangladesh,philippines
p4818
g17
(g1377
S'\x06\x00\x00\x00'
tRp4819
sVunited states,united states
p4820
g17
(g1377
S'"\x00\x00\x00'
tRp4821
sVaustralia,bangladesh
p4822
g17
(g1377
S'\x00\x00\x00\x00'
tRp4823
sVcanada,philippines
p4824
g17
(g1377
S'\x07\x00\x00\x00'
tRp4825
sVbangladesh,bangladesh
p4826
g17
(g1377
S'\x05\x00\x00\x00'
tRp4827
sVnew zealand,philippines
p4828
g17
(g1377
S'\x0e\x00\x00\x00'
tRp4829
sVunited states,pakistan
p4830
g17
(g1377
S'\x1f\x00\x00\x00'
tRp4831
sVsri lanka,bangladesh
p4832
g17
(g1377
S'\x10\x00\x00\x00'
tRp4833
sVunited states,india
p4834
g17
(g1377
S'\x1a\x00\x00\x00'
tRp4835
sVsri lanka,philippines
p4836
g17
(g1377
S'\x11\x00\x00\x00'
tRp4837
sVfrance,netherlands
p4838
g17
(g1377
S'\x0b\x00\x00\x00'
tRp4839
sVunited states,nigeria
p4840
g17
(g1377
S'\x1e\x00\x00\x00'
tRp4841
sVunited states,bangladesh
p4842
g17
(g1377
S'\x17\x00\x00\x00'
tRp4843
sVunited states,nepal
p4844
g17
(g1377
S'\x1d\x00\x00\x00'
tRp4845
sVunited states,morocco
p4846
g17
(g1377
S'\x1c\x00\x00\x00'
tRp4847
sVcanada,united states
p4848
g17
(g1377
S'\x08\x00\x00\x00'
tRp4849
sVunited states,china
p4850
g17
(g1377
S'\x19\x00\x00\x00'
tRp4851
sVindia,china
p4852
g17
(g1377
S'\r\x00\x00\x00'
tRp4853
sVegypt,india
p4854
g17
(g1377
S'\n\x00\x00\x00'
tRp4855
sVunited states,philippines
p4856
g17
(g1377
S' \x00\x00\x00'
tRp4857
sVunited arab emirates,united states
p4858
g17
(g1377
S'\x13\x00\x00\x00'
tRp4859
sVunited states,ukraine
p4860
g17
(g1377
S'!\x00\x00\x00'
tRp4861
sVaustralia,pakistan
p4862
g17
(g1377
S'\x02\x00\x00\x00'
tRp4863
sVunited states,kenya
p4864
g17
(g1377
S'\x1b\x00\x00\x00'
tRp4865
sVcroatia,pakistan
p4866
g17
(g1377
S'\t\x00\x00\x00'
tRp4867
sVaustralia,philippines
p4868
g17
(g1377
S'\x03\x00\x00\x00'
tRp4869
sVunited kingdom,pakistan
p4870
g17
(g1377
S'\x15\x00\x00\x00'
tRp4871
sVgermany,india
p4872
g17
(g1377
S'\x0c\x00\x00\x00'
tRp4873
sVunited states,canada
p4874
g17
(g1377
S'\x18\x00\x00\x00'
tRp4875
sVunited arab emirates,india
p4876
g17
(g1377
S'\x12\x00\x00\x00'
tRp4877
ssg1492
I01
sg1493
g1735
sg1429
Nsg1496
I0
sg1497
Nsg1498
g1736
sg1509
g1510
sg2098
g2099
((ltRp4878
sg1511
Nsbsg1428
Nsg1432
Nsbsaa(lp4879
g1738
a(dp4880
g1407
Nsg1408
g1738
sg1409
Nsg8
Nsg1416
I01
sg1417
g1418
sg1419
Nsg1420
g4733
saa(lp4881
g1741
a(dp4882
g1407
Nsg1408
g1741
sg1409
Nsg8
Nsg1416
I01
sg1417
g1418
sg1419
Nsg1420
g4733
saa(lp4883
g1744
a(dp4884
g1407
Nsg1408
g1744
sg1409
g1
(g1410
g3
NtRp4885
(dp4886
g1414
g1748
sg1810
g1372
(g1373
(I0
tS'b'
tRp4887
(I1
(I1
tg1389
I00
S'P\xabR\x00\xd4\xaa4?'
tbsg1812
g1372
(g1373
(I0
tS'b'
tRp4888
(I1
(I1
tg1389
I00
S'\x00\x00\x00\x00\x00\xc6\xa8@'
tbsg1814
g1372
(g1373
(I0
tS'b'
tRp4889
(I1
(I1
tg1389
I00
S'\x00\x00\x00\x00\x00\x00\x00\x00'
tbsg1816
g1372
(g1373
(I0
tS'b'
tRp4890
(I1
(I1
tg1389
I00
S'\x00\x00\x00\x00\x00\x00\x00\x00'
tbsg1413
I01
sbsg8
Nsg1416
I01
sg1417
g1418
sg1419
Nsg1420
g1
(g1421
g3
NtRp4891
(dp4892
g1424
g1820
sg1428
Nsg1426
g1427
sg1429
Nsg1430
g1431
sg1432
Nsbsaa(lp4893
g1752
a(dp4894
g1407
Nsg1408
g1752
sg1409
g1
(g1410
g3
NtRp4895
(dp4896
g1413
I01
sg1414
g1756
sbsg8
Nsg1416
I01
sg1417
g1418
sg1419
Nsg1420
g1
(g1757
g3
NtRp4897
(dp4898
g1430
g1431
sg1424
g1820
sg1429
Nsg1428
Nsg1432
(dp4899
g1761
(dp4900
g1763
I0
sg1764
I1
sssbsaa(lp4901
g1109
a(dp4902
g1407
Nsg1408
g1109
sg1409
g1
(g1410
g3
NtRp4903
(dp4904
g1414
g1769
sg1810
g1372
(g1373
(I0
tS'b'
tRp4905
(I1
(I1
tg1389
I00
S'\xa50\x06{\xfcb\xb6>'
tbsg1812
g1372
(g1373
(I0
tS'b'
tRp4906
(I1
(I1
tg1389
I00
S'\x00\x00\x00\x00\xea\xde&A'
tbsg1814
g1372
(g1373
(I0
tS'b'
tRp4907
(I1
(I1
tg1389
I00
S'\x00\x00\x00\xa8\x17\xfb\xa7A'
tbsg1816
g1372
(g1373
(I0
tS'b'
tRp4908
(I1
(I1
tg1389
I00
S'v\x91~q\xce\xc6p\xc0'
tbsg1413
I01
sbsg8
Nsg1416
I01
sg1417
g1418
sg1419
Nsg1420
g1
(g1421
g3
NtRp4909
(dp4910
g1424
g1820
sg1428
Nsg1426
g1427
sg1429
Nsg1430
g1431
sg1432
Nsbsaa(lp4911
g1773
a(dp4912
g1407
Nsg1408
g1773
sg1409
g1
(g1410
g3
NtRp4913
(dp4914
g1413
I01
sg1414
g1777
sbsg8
F0.33000000000000002
sg1416
I01
sg1417
g1778
sg1419
Nsg1420
g1
(g1421
g3
NtRp4915
(dp4916
g1424
g1820
sg1428
Nsg1426
g1441
sg1429
g1
(g1781
g3
NtRp4917
(dp4918
g1784
I01
sS'feature_names_'
p4919
(lp4920
V3ds Max 7.0 Test
p4921
aV3ds Max 9 Test
p4922
aVASP.Net 3.5 using C# Test
p4923
aVAccounting Principles Test
p4924
aVAccounting Skills Test (Assets and Revenue)
p4925
aVAccounting Skills Test (Cash Flow)
p4926
aVAccounts Payable Test
p4927
aVAccounts Receivable Test
p4928
aVAdobe After Effects 7.0 Test
p4929
aVAdobe Flex 3.0 Test
p4930
aVAdobe Illustrator CS3 Test
p4931
aVAdobe Illustrator CS4 Test
p4932
aVAdobe Illustrator Test
p4933
aVAdobe Photoshop 6.0
p4934
aVAdobe Photoshop CS3 Test
p4935
aVAdobe Photoshop CS4 Test
p4936
aVAdobe Premiere Test
p4937
aVAdvanced PHP Test
p4938
aVAnalytical Skills Test
p4939
aVAutoCad 2007 Test
p4940
aVBook keeping Test
p4941
aVBusiness Mathematics Test
p4942
aVCSS 2.0 Test
p4943
aVCSS 3 Test
p4944
aVCall Center Skills Test
p4945
aVChrome Product Test
p4946
aVCocoa programming for Mac OS X 10.5 Test
p4947
aVContent Writing Skills Test
p4948
aVCreative Writing Test - Fiction (U.S. Version)
p4949
aVCreative Writing Test - Non-fiction (U.S. Version)
p4950
aVCustomer Service Test
p4951
aVDreamweaver 8 Test
p4952
aVDrupal 6.14 Test
p4953
aVEmail Etiquette Certification
p4954
aVEnglish Spelling Test (U.S. Version)
p4955
aVEnglish Spelling Test (UK Version)
p4956
aVEnglish To French Translation Skills Test
p4957
aVEnglish To Russian Translation Skills Test
p4958
aVEnglish To Tagalog (Filipino) Translation Skills Test
p4959
aVEnglish Vocabulary Test (U.S. Version)
p4960
aVEnglish Vocabulary Test (UK Version)
p4961
aVFacebook Connect Test
p4962
aVFrench Spelling Skills Test
p4963
aVFrench To English Translation Skills Test
p4964
aVGenerally Accepted Accounting Principles (GAAP) Test
p4965
aVGmail Product Test
p4966
aVGoogle AdWords Test
p4967
aVGoogle Android Programming Test
p4968
aVHTML 4.01 Test
p4969
aVHTML 5 Test
p4970
aVHelp Desk Certification
p4971
aVHospitality Terminology Test
p4972
aVInternet Marketing Test
p4973
aVJSON Test
p4974
aVJSP 2.0 Test
p4975
aVJava Test
p4976
aVJavaScript 1.3 Test
p4977
aVJavaScript 1.8 Test
p4978
aVJoomla 1.5 Test
p4979
aVKnowledge of Microsoft Silverlight Skills Test
p4980
aVKnowledge of Windows 7 Skills Test
p4981
aVKnowledge of jQuery 1.3.2 Skills Test
p4982
aVMS Excel 2003 Test
p4983
aVMS Excel 2007 Test
p4984
aVMS PowerPoint 2007 Test
p4985
aVMS Word 2003 Test
p4986
aVMS Word 2007 Test
p4987
aVMagento eCommerce Test
p4988
aVManagement Skills Test
p4989
aVMaya 7.0 Test
p4990
aVMedical Billing Certification
p4991
aVMicrosoft Excel 2010 Test
p4992
aVMySQL 5.0 Test
p4993
aVNetworking Concepts Test
p4994
aVObjective C Test
p4995
aVOffice Skills Test
p4996
aVOnline Article Writing and Blogging Test (U.S. Version)
p4997
aVOrganizational Behavior Test
p4998
aVOutbound Sales Skills Test
p4999
aVPC Graphics Test
p5000
aVPHP4 Test
p5001
aVPHP5 Test
p5002
aVPerl 5 Test
p5003
aVPrinciples of  Web Graphics Design Test
p5004
aVProgramming with C++ Test
p5005
aVPython 2.x Test
p5006
aVQuick Books Pro 2008 Test
p5007
aVReport Writing Test
p5008
aVResume Writing Skills Test
p5009
aVRuby on Rails  2.3 Test
p5010
aVRuby on Rails Test
p5011
aVSQL Test
p5012
aVSearch Engine Optimization Test
p5013
aVSlideshow Product Test
p5014
aVSocial Media Marketing Test
p5015
aVSoftware Testing Test
p5016
aVSpanish To English Translation Skills Test
p5017
aVTechnical Writing Skills Certification
p5018
aVTelephone Etiquette Certification
p5019
aVU.S. English Basic Skills Test
p5020
aVU.S. English Chicago Style Editing Skills Test (For Writing Professionals)
p5021
aVU.S. English Punctuation and Mechanics Test
p5022
aVU.S. English Sentence Structure Test (For Writing Professionals)
p5023
aVU.S. Word Usage Test
p5024
aVUK English Basic Skills Test
p5025
aVUK English Grammar Test (For Writing Professionals)
p5026
aVWindows XP Test
p5027
aVWordPress 2.8 Test
p5028
aVWordpress Test
p5029
aVXHTML 1.0 Test
p5030
aVXML 1.0 Test
p5031
aViPhone Programming OS 2.1 Test
p5032
aViPhone Programming OS 4.0 Test
p5033
aVoDesk Readiness Test for Affiliated Contractors
p5034
aVoDesk Readiness Test for Agency Contractors
p5035
aVoDesk Readiness Test for Independent Contractors and Company Managers
p5036
aVoDesk Readiness Test for Independent Contractors and Staffing Managers
p5037
asg1509
g1785
sg1876
(dp5038
g4993
I72
sg4954
I33
sg5034
I113
sg4958
I37
sg5036
I115
sg5010
I89
sg4966
I45
sg4987
I66
sg4962
I41
sg4970
I49
sg5022
I101
sg4971
I50
sg4939
I18
sg5029
I108
sg5011
I90
sg5031
I110
sg4956
I35
sg5006
I85
sg5027
I106
sg5030
I109
sg4938
I17
sg4969
I48
sg4989
I68
sg4943
I22
sg4995
I74
sg4999
I78
sg5021
I100
sg5004
I83
sg4922
I1
sg4934
I13
sg5015
I94
sg4926
I5
sg4981
I60
sg4991
I70
sg5000
I79
sg4959
I38
sg4968
I47
sg4992
I71
sg4996
I75
sg5020
I99
sg5035
I114
sg5037
I116
sg5012
I91
sg4965
I44
sg4927
I6
sg4961
I40
sg5013
I92
sg4937
I16
sg5033
I112
sg4941
I20
sg5008
I87
sg5017
I96
sg5007
I86
sg4957
I36
sg4933
I12
sg4972
I51
sg4977
I56
sg4976
I55
sg5014
I93
sg4990
I69
sg5002
I81
sg5028
I107
sg5026
I105
sg5016
I95
sg4928
I7
sg5005
I84
sg4982
I61
sg4925
I4
sg4988
I67
sg4921
I0
sg4940
I19
sg5025
I104
sg5024
I103
sg4931
I10
sg4936
I15
sg4997
I76
sg4963
I42
sg4942
I21
sg5032
I111
sg4924
I3
sg4935
I14
sg4984
I63
sg4967
I46
sg4946
I25
sg4944
I23
sg4950
I29
sg4949
I28
sg4994
I73
sg4948
I27
sg4952
I31
sg4985
I64
sg4945
I24
sg4955
I34
sg5023
I102
sg4964
I43
sg4978
I57
sg4975
I54
sg5009
I88
sg4947
I26
sg5018
I97
sg4980
I59
sg4953
I32
sg4923
I2
sg4986
I65
sg5019
I98
sg4930
I9
sg4951
I30
sg4983
I62
sg4979
I58
sg5003
I82
sg4974
I53
sg4929
I8
sg4960
I39
sg4973
I52
sg4998
I77
sg5001
I80
sg4932
I11
ssg1786
S'='
sg1787
I01
sbsg1430
g1431
sg1432
NsbsaatRp5039
ssb.