ccopy_reg
_reconstructor
p1
(ccloudml.trainer.store
TrainerStorage
p2
c__builtin__
object
p3
NtRp4
(dp5
S'visualization'
p6
(dp7
S'default'
p8
(dp9
S'weights'
p10
(dp11
I1
(dp12
S'positive'
p13
(lp14
(dp15
S'feature_weight'
p16
cnumpy.core.multiarray
scalar
p17
(cnumpy
dtype
p18
(S'f8'
I0
I1
tRp19
(I3
S'<'
NNNI-1
I-1
I0
tbS'\xf6\xe8\x84}\x0bI\xf3?'
tRp20
sS'name'
p21
Vtsexams->oDesk Readiness Test for Independent Contractors and Staffing Managers
p22
sS'weight'
p23
g17
(g19
S'x\xd8\xe1H\x16P\xd1?'
tRp24
sa(dp25
g16
g17
(g19
S'\xa8\x94\x06G\xa7\xc0\xbd?'
tRp26
sg21
Vtsexams->oDesk Readiness Test for Independent Contractors and Company Managers
p27
sg23
g17
(g19
S'\x10\xf22\xf1K\xc7\xde?'
tRp28
sa(dp29
g16
g17
(g19
S'\xbdi\xebKaa\xa1?'
tRp30
sg21
Vtsexams->iPhone Programming OS 4.0 Test
p31
sg23
g17
(g19
S'h\xfb\xf1\xde9[\xc3?'
tRp32
sa(dp33
g16
g17
(g19
S'\x1d\xddc\x9a\xef0\x8f?'
tRp34
sg21
Vtsexams->XML 1.0 Test
p35
sg23
g17
(g19
S'\xc6K:\x83\xc4\xe8\xc3?'
tRp36
sa(dp37
g16
g17
(g19
S'\xee/\xd1\x0b\xb2\xf6\x87?'
tRp38
sg21
Vtsexams->Wordpress Test
p39
sg23
g17
(g19
S'\x98\xaag\xd9\xac\x8f\xb9?'
tRp40
sa(dp41
g16
g17
(g19
S'\x8f\xb5!2\xa1\x80\xa6?'
tRp42
sg21
Vtsexams->WordPress 2.8 Test
p43
sg23
g17
(g19
S'\xf4"\xaa~\xc9 \xdc?'
tRp44
sa(dp45
g16
g17
(g19
S'\x85\x98zr\xff\x96u?'
tRp46
sg21
Vtsexams->UK English Grammar Test (For Writing Professionals)
p47
sg23
g17
(g19
S'\x18\xc4\xc0k\x89\x9b\xc0?'
tRp48
sa(dp49
g16
g17
(g19
S'2f&\x0f\xb7\x8b\x96?'
tRp50
sg21
Vtsexams->UK English Basic Skills Test
p51
sg23
g17
(g19
S'p\xbf\x80fo\x18\xb5?'
tRp52
sa(dp53
g16
g17
(g19
S'\x16L\xb1\x8b\xffZ\x97?'
tRp54
sg21
Vtsexams->U.S. English Sentence Structure Test (For Writing Professionals)
p55
sg23
g17
(g19
S'\xef\xae\x05\n\xdb\x04\xd4?'
tRp56
sa(dp57
g16
g17
(g19
S'\x9c\x98\xee\xe8\xa9hp?'
tRp58
sg21
Vtsexams->U.S. English Chicago Style Editing Skills Test (For Writing Professionals)
p59
sg23
g17
(g19
S'\xbav\x0e\x9b\xef\xf4\xbc?'
tRp60
sa(dp61
g16
g17
(g19
S'\x9f:\xb8\x86\xd9Q\xa1?'
tRp62
sg21
Vtsexams->Technical Writing Skills Certification
p63
sg23
g17
(g19
S'S\xca\x07\x8d4\x03\xce?'
tRp64
sa(dp65
g16
g17
(g19
S'\rY\xfa{ \xb7\x9a?'
tRp66
sg21
Vtsexams->Social Media Marketing Test
p67
sg23
g17
(g19
S'\x90\xe8\x1a\xe6\xa3H\xcb?'
tRp68
sa(dp69
g16
g17
(g19
S'\xbc\xe2N\x14EG\xc8?'
tRp70
sg21
Vtsexams->Search Engine Optimization Test
p71
sg23
g17
(g19
S'\xa2>\x13\r\x07\xbc\xe7?'
tRp72
sa(dp73
g16
g17
(g19
S'v=H~\xee\xb5\x86?'
tRp74
sg21
Vtsexams->Resume Writing Skills Test
p75
sg23
g17
(g19
S'\x1f`V\xc3\xb4\xf6\xc4?'
tRp76
sa(dp77
g16
g17
(g19
S'i\xa8\x05\xd0\xb6\x16|?'
tRp78
sg21
Vtsexams->Report Writing Test
p79
sg23
g17
(g19
S'PW>)}4\xd0?'
tRp80
sa(dp81
g16
g17
(g19
S'iU\x10\xa2\xb1mR?'
tRp82
sg21
Vtsexams->Quick Books Pro 2008 Test
p83
sg23
g17
(g19
S'\xd0\xe8n<\x93\x1a\xa4?'
tRp84
sa(dp85
g16
g17
(g19
S"\x99sL'\xd6yf?"
tRp86
sg21
Vtsexams->Python 2.x Test
p87
sg23
g17
(g19
S"\x99sL'\xd6y\xb6?"
tRp88
sa(dp89
g16
g17
(g19
S'\xa4e\x1f\xc9eg}?'
tRp90
sg21
Vtsexams->Programming with C++ Test
p91
sg23
g17
(g19
S'A\x93\xf4\xb8\xba\xf6\xd0?'
tRp92
sa(dp93
g16
g17
(g19
S',\xbczV\x81\xfe\x93?'
tRp94
sg21
Vtsexams->Principles of  Web Graphics Design Test
p95
sg23
g17
(g19
S'\x02\x0f JJ#\xe1?'
tRp96
sa(dp97
g16
g17
(g19
S'K$\xfao;\xf4\x8a?'
tRp98
sg21
Vtsexams->Networking Concepts Test
p99
sg23
g17
(g19
S'\xab1\xcd\xc5Y\x9a\xc3?'
tRp100
sa(dp101
g16
g17
(g19
S'b\xddD2I\xc6b?'
tRp102
sg21
Vtsexams->Microsoft Excel 2010 Test
p103
sg23
g17
(g19
S'b\xddD2I\xc6\xb2?'
tRp104
sa(dp105
g16
g17
(g19
S'\x8dP\xdfo\xa7\x06\x8e?'
tRp106
sg21
Vtsexams->Medical Billing Certification
p107
sg23
g17
(g19
S'\x88c\xec\x0f\xfe\x03\xe2?'
tRp108
sa(dp109
g16
g17
(g19
S'\x87\xf1k\xba\x93$}?'
tRp110
sg21
Vtsexams->Maya 7.0 Test
p111
sg23
g17
(g19
S'\xe2\x85\\\xc4\xc7\xfa\xc8?'
tRp112
sa(dp113
g16
g17
(g19
S'\xcb\x12o\xec>\xc2v?'
tRp114
sg21
Vtsexams->MS Word 2003 Test
p115
sg23
g17
(g19
S'\xaf\xd3\x7f\xff\x83\x1f\x9f?'
tRp116
sa(dp117
g16
g17
(g19
S'y\x19?PG"\xbb?'
tRp118
sg21
Vtsexams->MS Excel 2007 Test
p119
sg23
g17
(g19
S'z\x89\xe8/\x083\xe0?'
tRp120
sa(dp121
g16
g17
(g19
S'\xda8[2\x11\xfb\xb4?'
tRp122
sg21
Vtsexams->MS Excel 2003 Test
p123
sg23
g17
(g19
S'D\x8aU\xc1F\xb4\xd5?'
tRp124
sa(dp125
g16
g17
(g19
S')F\xa7\xeb\xfe\xcf\x8d?'
tRp126
sg21
Vtsexams->Knowledge of jQuery 1.3.2 Skills Test
p127
sg23
g17
(g19
S'\xa3\xd2#\t\xe1a\xc7?'
tRp128
sa(dp129
g16
g17
(g19
S'\xa0!\x97\xc4\x91\xd1\x8d?'
tRp130
sg21
Vtsexams->Knowledge of Windows 7 Skills Test
p131
sg23
g17
(g19
S'\xb9E\x98\xa8*\x82\xd8?'
tRp132
sa(dp133
g16
g17
(g19
S'\xc4k\xfa\x85\xba\xa2\x83?'
tRp134
sg21
Vtsexams->Knowledge of Microsoft Silverlight Skills Test
p135
sg23
g17
(g19
S'\xdd\x8a\x0e\xa3\x0e \xd2?'
tRp136
sa(dp137
g16
g17
(g19
S'\xbfX8\xab\x86e\x99?'
tRp138
sg21
Vtsexams->JavaScript 1.8 Test
p139
sg23
g17
(g19
S'(\xd1\xcc\x05\xe95\xd0?'
tRp140
sa(dp141
g16
g17
(g19
S'\x87\x1cORcf\x87?'
tRp142
sg21
Vtsexams->JSP 2.0 Test
p143
sg23
g17
(g19
S'\xb0\x14\xdf\xfc\xf34\xd8?'
tRp144
sa(dp145
g16
g17
(g19
S'\x0e\xc8\xea\x01\xee\xc9\x7f?'
tRp146
sg21
Vtsexams->Internet Marketing Test
p147
sg23
g17
(g19
S'\x0e\xc8\xea\x01\xee\xc9\xcf?'
tRp148
sa(dp149
g16
g17
(g19
S'\xc5\xd5\x98o\xbb\x9f\x82?'
tRp150
sg21
Vtsexams->Hospitality Terminology Test
p151
sg23
g17
(g19
S'\x07\x1d!\xea\xf9\xd4\xc8?'
tRp152
sa(dp153
g16
g17
(g19
S'\xc4\xf2\x7f\x1a\x1f\xb6z?'
tRp154
sg21
Vtsexams->Help Desk Certification
p155
sg23
g17
(g19
S'b7\x17\xd7\xc4#\xcd?'
tRp156
sa(dp157
g16
g17
(g19
S'\xc0\xe4\xcf\x96jj\x8e?'
tRp158
sg21
Vtsexams->Google AdWords Test
p159
sg23
g17
(g19
S'`\xca\xa8\x16\xbc\xfc\xd5?'
tRp160
sa(dp161
g16
g17
(g19
S'-\xef\xcdU@\xach?'
tRp162
sg21
Vtsexams->Generally Accepted Accounting Principles (GAAP) Test
p163
sg23
g17
(g19
S'\x1eJ\x89\x8e\xd5r\xb0?'
tRp164
sa(dp165
g16
g17
(g19
S'\x9e\x1ea\xfda\xd4\x82?'
tRp166
sg21
Vtsexams->French Spelling Skills Test
p167
sg23
g17
(g19
S'\x113\xab\xaet\x8f\xc8?'
tRp168
sa(dp169
g16
g17
(g19
S'\xbb\x84\x8c~a\xfa\x84?'
tRp170
sg21
Vtsexams->Facebook Connect Test
p171
sg23
g17
(g19
S'\xf9\xb0\x10\xfe\x81\xf8\xcb?'
tRp172
sa(dp173
g16
g17
(g19
S'\xc3\x8d\xd6\xd4\x9c\xeb~?'
tRp174
sg21
Vtsexams->English Vocabulary Test (UK Version)
p175
sg23
g17
(g19
S'EB\x8ac\xe9\x9f\xc6?'
tRp176
sa(dp177
g16
g17
(g19
S'p\xa1\xaa\x01/\xa2\x9b?'
tRp178
sg21
Vtsexams->English To Tagalog (Filipino) Translation Skills Test
p179
sg23
g17
(g19
S'\xb2\xcej\x15j\xe3\xb4?'
tRp180
sa(dp181
g16
g17
(g19
S'\x05\xff\x0b<p\x1aq?'
tRp182
sg21
Vtsexams->English To French Translation Skills Test
p183
sg23
g17
(g19
S'`I\xc1\xce2\x8d\xc0?'
tRp184
sa(dp185
g16
g17
(g19
S'*K\xf1*\xc6\xb1\xe2?'
tRp186
sg21
Vtsexams->English Spelling Test (U.S. Version)
p187
sg23
g17
(g19
S'\xb3\xc1\xc4\xa1\x06\xbb\xce?'
tRp188
sa(dp189
g16
g17
(g19
S'/5\x0e\x14\xf2\x16U?'
tRp190
sg21
Vtsexams->Creative Writing Test - Fiction (U.S. Version)
p191
sg23
g17
(g19
S'\xa3\xf3};9\x1a\x88?'
tRp192
sa(dp193
g16
g17
(g19
S"\xf4M\xc65\x80'\xa9?"
tRp194
sg21
Vtsexams->Cocoa programming for Mac OS X 10.5 Test
p195
sg23
g17
(g19
S':\x99\xcd\x8b<\xf5\xe0?'
tRp196
sa(dp197
g16
g17
(g19
S'\x0e\xcd\xa3\xc1\x9c\xb8\xb0?'
tRp198
sg21
Vtsexams->Book keeping Test
p199
sg23
g17
(g19
S'\xfb\xdf&v\xd6B\xdc?'
tRp200
sa(dp201
g16
g17
(g19
S'@\xc63\xb7\x93y\x8f?'
tRp202
sg21
Vtsexams->Analytical Skills Test
p203
sg23
g17
(g19
S'\x00\x05\xc3\xc5\x0f.\xd9?'
tRp204
sa(dp205
g16
g17
(g19
S'5\xc9\xa0\xfc\xcdWq?'
tRp206
sg21
Vtsexams->Adobe Premiere Test
p207
sg23
g17
(g19
S'WQ]\xc3\x1dE\xc3?'
tRp208
sa(dp209
g16
g17
(g19
S'h\xfe\xb6\xa9\x99\x84\x9e?'
tRp210
sg21
Vtsexams->Adobe Photoshop CS4 Test
p211
sg23
g17
(g19
S'\xf2\xb5\xb1\xceWp\xd1?'
tRp212
sa(dp213
g16
g17
(g19
S"\x98\x12\xe8\xa2'\x9c\xa0?"
tRp214
sg21
Vtsexams->Adobe After Effects 7.0 Test
p215
sg23
g17
(g19
S'5\xc4\xa8\xdeb\xef\xda?'
tRp216
sa(dp217
g16
g17
(g19
S',\xbb$y\\\x93~?'
tRp218
sg21
Vtsexams->Accounts Receivable Test
p219
sg23
g17
(g19
S'@vVKDZ\xbd?'
tRp220
sa(dp221
g16
g17
(g19
S'\xcd7\x9f\xe08\xec\x97?'
tRp222
sg21
Vtsexams->Accounts Payable Test
p223
sg23
g17
(g19
S'\xfe^\xba\xac\xaf\x1f\xc8?'
tRp224
sa(dp225
g16
g17
(g19
S'p\xfc\xad\xb1c\xb2\x91?'
tRp226
sg21
Vtsexams->Accounting Skills Test (Cash Flow)
p227
sg23
g17
(g19
S'\x01b\x05\xd4\x93\xb2\xcc?'
tRp228
sa(dp229
g16
g17
(g19
S'5\x11\xde#\xc8\xed\x8f?'
tRp230
sg21
Vtsexams->Accounting Skills Test (Assets and Revenue)
p231
sg23
g17
(g19
S'\xfc\xa52\xd6k\xfb\xca?'
tRp232
sa(dp233
g16
g17
(g19
S'ZE\xedJ\xb3\xad\x98?'
tRp234
sg21
Vtsexams->Accounting Principles Test
p235
sg23
g17
(g19
S'\x87\x8f\xac\xf0\xb0\xf2\xd1?'
tRp236
sa(dp237
g16
g17
(g19
S'\xbfV\rn6"y?'
tRp238
sg21
Vtsexams->ASP.Net 3.5 using C# Test
p239
sg23
g17
(g19
S'\xc8wJk\x17\x00\xcd?'
tRp240
sa(dp241
g16
g17
(g19
S's\n\x83j\xc7\xb2|?'
tRp242
sg21
Vtsexams->3ds Max 9 Test
p243
sg23
g17
(g19
S'\xb1\x81U\xb8sR\xc9?'
tRp244
sa(dp245
g16
g17
(g19
S'[\x8b\xfb-\xb3\xc9\xa2?'
tRp246
sg21
Vtsexams->3ds Max 7.0 Test
p247
sg23
g17
(g19
S'\xbf\xe8\x9f@\x92\xac\xde?'
tRp248
sa(dp249
g16
g17
(g19
S's\x9a\x8cR>\x15q?'
tRp250
sg21
Vcountry_pair->united states,canada
p251
sg23
g17
(g19
S'\xad\xe7\xd2{\xdd\x9f\xc9?'
tRp252
sa(dp253
g16
g17
(g19
S'\xf2\xd3\xe2\x7f?\xdf\xb1?'
tRp254
sg21
Vcountry_pair->philippines,united states
p255
sg23
g17
(g19
S'\xc6\x93\xa3\x08\xd3\x94\xcd?'
tRp256
sa(dp257
g16
g17
(g19
S'\x07\xf9\x1dJ\x9e~#?'
tRp258
sg21
Vcountry_pair->philippines,new zealand
p259
sg23
g17
(g19
S'\x8b\xf5,o\xed=\x8d?'
tRp260
sa(dp261
g16
g17
(g19
S'\xfa\xf4Cx\x85\xfa3?'
tRp262
sg21
Vcountry_pair->philippines,bangladesh
p263
sg23
g17
(g19
S'w\xefe4\xc8\xf7\x9d?'
tRp264
sa(dp265
g16
g17
(g19
S'\xbe%\xf1khTB?'
tRp266
sg21
Vcountry_pair->pakistan,united kingdom
p267
sg23
g17
(g19
S'\x9e\xb8\xe9\xa1\x9c~\xab?'
tRp268
sa(dp269
g16
g17
(g19
S'}\xb0\x11\xe6\xf6\xa4g?'
tRp270
sg21
Vcountry_pair->pakistan,australia
p271
sg23
g17
(g19
S'^D\x8d,\xb9\xbb\xc1?'
tRp272
sa(dp273
g16
g17
(g19
S'\xfa\xb8Wd\x1cWZ?'
tRp274
sg21
Vcountry_pair->nepal,united states
p275
sg23
g17
(g19
S'\xbc\xcaAKU\xc1\xc3?'
tRp276
sa(dp277
g16
g17
(g19
S'\x9ec\xaeM:\xbd^?'
tRp278
sg21
Vcountry_pair->kenya,united states
p279
sg23
g17
(g19
S'\xb7\xcaB\xba\xeb\r\xc7?'
tRp280
sa(dp281
g16
g17
(g19
S'BJ9\xc2\x8b(\x83?'
tRp282
sg21
Vcountry_pair->india,united states
p283
sg23
g17
(g19
S'BJ9\xc2\x8b(\xc3?'
tRp284
sa(dp285
g16
g17
(g19
S']9\x17p\xa1\xb0j?'
tRp286
sg21
Vcountry_pair->india,egypt
p287
sg23
g17
(g19
S'\x06k\x11\x14y\x04\xd4?'
tRp288
sa(dp289
g16
g17
(g19
S'\xd1~\xb1\xaeF\xdcC?'
tRp290
sg21
Vcountry_pair->canada,united states
p291
sg23
g17
(g19
S':>\n\x06j\xca\xad?'
tRp292
sa(dp293
g16
g17
(g19
S'\x1eH\xb67\xf1Di?'
tRp294
sg21
Vcountry_pair->bangladesh,united kingdom
p295
sg23
g17
(g19
S'\x17\xb6\xc8\xe9\xb4\xf3\xd2?'
tRp296
sa(dp297
g16
g17
(g19
S'\xeb+\x98\xc6\xbf\xc8c?'
tRp298
sg21
Vcountry_pair->bangladesh,sri lanka
p299
sg23
g17
(g19
S'\xe1A\xe4\xa9\x1f\xad\xcd?'
tRp300
sa(dp301
g16
g17
(g19
S'\xdcl\xd7+D<H?'
tRp302
sg21
Vcountry_pair->bangladesh,bangladesh
p303
sg23
g17
(g19
S'\xa5\x91\xe1 3-\xb2?'
tRp304
sa(dp305
g16
g17
(g19
S'\x9a\xf1x\xbe\x01U\x81?'
tRp306
sg21
Vcountry_pair->bangladesh,australia
p307
sg23
g17
(g19
S'\x9a\xf1x\xbe\x01U\xd1?'
tRp308
sa(dp309
g16
g17
(g19
S'\xad\n=\x03e\x1dZ?'
tRp310
sg21
Vcountry_pair->argentina,portugal
p311
sg23
g17
(g19
S'\x02\xc8m\xc2\x0b\x96\xc3?'
tRp312
sa(dp313
g16
g17
(g19
S'\xc0\x9b\xfb\xd0\x8c"\xec>'
tRp314
sg21
Vcontractor->dev_total_hourly_jobs
p315
sg23
g17
(g19
S'jI\xc9@\n\x82\x16?'
tRp316
sa(dp317
g16
g17
(g19
S'\x98\xa2\\V\xcb\xc6S?'
tRp318
sg21
Vcontractor->dev_tot_feedback_recent
p319
sg23
g17
(g19
S'\x83\xfe\x0f\x8d\xc0\xd3\x87?'
tRp320
sa(dp321
g16
g17
(g19
S'\xf2\xac\xc8\xf7\n\x0b\xce?'
tRp322
sg21
Vcontractor->dev_timezone
p323
sg23
g17
(g19
S'\xfc\xe4x\x9b\xc0\xd9\xa2?'
tRp324
sa(dp325
g16
g17
(g19
S'\x10\\B\r\x91B\x97?'
tRp326
sg21
Vcontractor->dev_test_passed_count
p327
sg23
g17
(g19
S'K07m\x8d}\xb9?'
tRp328
sa(dp329
g16
g17
(g19
S'\\\x18\xe3\x01H\x82\x92?'
tRp330
sg21
Vcontractor->dev_skill_test_passed_count
p331
sg23
g17
(g19
S'\x98,\xab\xbd\x15\xc4\xb3?'
tRp332
sa(dp333
g16
g17
(g19
S"i\xf9'\x83>\x1c\x83?"
tRp334
sg21
Vcontractor->dev_recent_hourly_jobs
p335
sg23
g17
(g19
S'\x88/\n\xbd\xeah\xa8?'
tRp336
sa(dp337
g16
g17
(g19
S'Qo\x93\xef`\rB?'
tRp338
sg21
Vcontractor->dev_profile_title->writing
p339
sg23
g17
(g19
S'\xf7\xb9uv\xcd\x97\x99?'
tRp340
sa(dp341
g16
g17
(g19
S'\x1d\xeb\x9b\xe8\x8dno?'
tRp342
sg21
Vcontractor->dev_profile_title->wordpress
p343
sg23
g17
(g19
S'\xf5d\x97p"d\xba?'
tRp344
sa(dp345
g16
g17
(g19
S'\x9d\x13\xff\\\x95\xeaQ?'
tRp346
sg21
Vcontractor->dev_profile_title->with
p347
sg23
g17
(g19
S'\x1do\xfa\xdb`\xe8\xad?'
tRp348
sa(dp349
g16
g17
(g19
S'\x17G\x11\xef\xf51|?'
tRp350
sg21
Vcontractor->dev_profile_title->virtual
p351
sg23
g17
(g19
S'V\xcfy\xebn\xf1\xca?'
tRp352
sa(dp353
g16
g17
(g19
S'\xf4\xa0\xa9\x1cv\x8f\x06?'
tRp354
sg21
Vcontractor->dev_profile_title->top
p355
sg23
g17
(g19
S'\xe3V\x0e\x91\xa4\xbbd?'
tRp356
sa(dp357
g16
g17
(g19
S't\xf1\xb5)\x1e\x1e&?'
tRp358
sg21
Vcontractor->dev_profile_title->specialist
p359
sg23
g17
(g19
S'\xce\x9b\xff\xcc\x0fa\x83?'
tRp360
sa(dp361
g16
g17
(g19
S'\xe9\x98\xa4h\x1d\xdae?'
tRp362
sg21
Vcontractor->dev_profile_title->smm
p363
sg23
g17
(g19
S'^\xe1K\xdeg\xdb\xc5?'
tRp364
sa(dp365
g16
g17
(g19
S'\xdf\x9d\xb64T\\\x86?'
tRp366
sg21
Vcontractor->dev_profile_title->seo
p367
sg23
g17
(g19
S'\xf9\xd1IM[\x8e\xd5?'
tRp368
sa(dp369
g16
g17
(g19
S'8\x80\xc7\x0b\xf66j?'
tRp370
sg21
Vcontractor->dev_profile_title->sem
p371
sg23
g17
(g19
S'\x88\xeb\xf5\xe6D\xe1\xc8?'
tRp372
sa(dp373
g16
g17
(g19
S'\xd0A\xa9!\xa2HQ?'
tRp374
sg21
Vcontractor->dev_profile_title->researcher
p375
sg23
g17
(g19
S'\xc2Q\xb7\xb19v\x94?'
tRp376
sa(dp377
g16
g17
(g19
S'\x0b\x15\x8f^\x958\x8d?'
tRp378
sg21
Vcontractor->dev_profile_title->research
p379
sg23
g17
(g19
S'\xa3\x02\x8d\xeb\x16\xc5\xd8?'
tRp380
sa(dp381
g16
g17
(g19
S'\x0c_@\nwTX?'
tRp382
sg21
Vcontractor->dev_profile_title->photoshop
p383
sg23
g17
(g19
S'nR\xec\xa7k\x9c\xb3?'
tRp384
sa(dp385
g16
g17
(g19
S'4\xb4*\xf3\xbc\x05(?'
tRp386
sg21
Vcontractor->dev_profile_title->mysql
p387
sg23
g17
(g19
S'L\x0e~\xccD\xd0\x86?'
tRp388
sa(dp389
g16
g17
(g19
S'\x9f \x9cL\xbc?<?'
tRp390
sg21
Vcontractor->dev_profile_title->ms
p391
sg23
g17
(g19
S'+\xa2\xcd\xbe\x8d3\x91?'
tRp392
sa(dp393
g16
g17
(g19
S'!(\x03\x8c\xdb\xd3j?'
tRp394
sg21
Vcontractor->dev_profile_title->jquery
p395
sg23
g17
(g19
S'\xa3FHp\xa2\xa5\xc3?'
tRp396
sa(dp397
g16
g17
(g19
S'\xe4?ac\x9a\x12\x89?'
tRp398
sg21
Vcontractor->dev_profile_title->html
p399
sg23
g17
(g19
S'\xb5\xf4\xffMI\xe7\xd7?'
tRp400
sa(dp401
g16
g17
(g19
S'\x12A\xc7m\r\xc1\\?'
tRp402
sg21
Vcontractor->dev_profile_title->graphic
p403
sg23
g17
(g19
S'\xe9\xc6gS4\x1e\xab?'
tRp404
sa(dp405
g16
g17
(g19
S'\x95\\\xe7\xc4\xa5d+?'
tRp406
sg21
Vcontractor->dev_profile_title->for
p407
sg23
g17
(g19
S'\xc6k\xac!\xa4I\x86?'
tRp408
sa(dp409
g16
g17
(g19
S'\x9a\xd7@\xfe\r\xb4\x93?'
tRp410
sg21
Vcontractor->dev_profile_title->expert
p411
sg23
g17
(g19
S'\xf7D\x19\xd5\x96\x9e\xd8?'
tRp412
sa(dp413
g16
g17
(g19
S'\xc3%\xfc^\xe7\xdcy?'
tRp414
sg21
Vcontractor->dev_profile_title->experienced
p415
sg23
g17
(g19
S'\x87\x14\xccM\x1d\x16\xcc?'
tRp416
sa(dp417
g16
g17
(g19
S'\xf4\xbe\xa3Qb\xa1}?'
tRp418
sg21
Vcontractor->dev_profile_title->entry
p419
sg23
g17
(g19
S'\xa4\xa6\xdf\xe8\xeb\x1c\xb8?'
tRp420
sa(dp421
g16
g17
(g19
S'U\xf8\xf7\xbc\x8aqj?'
tRp422
sg21
Vcontractor->dev_profile_title->engineer
p423
sg23
g17
(g19
S'\x12\x08\xda\xa26\xe5\xbc?'
tRp424
sa(dp425
g16
g17
(g19
S'(n9\xd4r\xb0y?'
tRp426
sg21
Vcontractor->dev_profile_title->designer
p427
sg23
g17
(g19
S'\xfe\x1c%[\xd2\xd7\xbd?'
tRp428
sa(dp429
g16
g17
(g19
S'H\xd5\xaf\xd5e\xc9u?'
tRp430
sg21
Vcontractor->dev_profile_title->design
p431
sg23
g17
(g19
S'\x90\x9d\xf5\xe4\xcaW\xd2?'
tRp432
sa(dp433
g16
g17
(g19
S'\xa3\x9en(\xce\x08\x8a?'
tRp434
sg21
Vcontractor->dev_profile_title->css
p435
sg23
g17
(g19
S'\x03\x13\x18\n\x1eM\xd9?'
tRp436
sa(dp437
g16
g17
(g19
S'\xe8\x9b:\xbc2\x0ey?'
tRp438
sg21
Vcontractor->dev_profile_title->assistant
p439
sg23
g17
(g19
S'o\xdd\x80\xef\x19(\xc5?'
tRp440
sa(dp441
g16
g17
(g19
S'a\xfe\xe7\xbf\xc9\xaac?'
tRp442
sg21
Vcontractor->dev_profile_title->artist
p443
sg23
g17
(g19
S'y(\x89\x80\xffP\xbf?'
tRp444
sa(dp445
g16
g17
(g19
S'\xac\xbe\xf3\xb8\x17\x89\x9e?'
tRp446
sg21
Vcontractor->dev_profile_title->and
p447
sg23
g17
(g19
S'\x9aq+\n\xc5\xca\xe0?'
tRp448
sa(dp449
g16
g17
(g19
S'\xa6\\\xa4\x88\xfd\xb7\x11?'
tRp450
sg21
Vcontractor->dev_profile_title->analyst
p451
sg23
g17
(g19
S'\x81}O\xdd\xffen?'
tRp452
sa(dp453
g16
g17
(g19
S'\xd4\x15\x16t(d\x8a?'
tRp454
sg21
Vcontractor->dev_portfolio_items_count
p455
sg23
g17
(g19
S'8\xb9\x0e\xf8\x1a\x98\xc1?'
tRp456
sa(dp457
g16
g17
(g19
S'\xea\xd7\xd4\x12\xf5"\xc1?'
tRp458
sg21
Vcontractor->dev_last_worked
p459
sg23
g17
(g19
S'\xdd\x99L\x97\x93\xed\xc5?'
tRp460
sa(dp461
g16
g17
(g19
S'\xc7-q\x82\xcb\xe3\xe4?'
tRp462
sg21
Vcontractor->dev_is_looking
p463
sg23
g17
(g19
S'{gb\xdf\x03\r\xe7?'
tRp464
sa(dp465
g16
g17
(g19
S'/DUO<At?'
tRp466
sg21
Vcontractor->dev_blurb->you
p467
sg23
g17
(g19
S'\x06v\xac\xa0\xbd`\xb8?'
tRp468
sa(dp469
g16
g17
(g19
S's&\x0be\x8c\xcf\x82?'
tRp470
sg21
Vcontractor->dev_blurb->years
p471
sg23
g17
(g19
S')\x1e\xbe\xa1VK\xc5?'
tRp472
sa(dp473
g16
g17
(g19
S'\x8dQ\x06J\xee$_?'
tRp474
sg21
Vcontractor->dev_blurb->working
p475
sg23
g17
(g19
S"'\x1a\xc2\xfc\xaf\xf0\xa7?"
tRp476
sa(dp477
g16
g17
(g19
S'A\xf0\xb4\xce\xca1p?'
tRp478
sg21
Vcontractor->dev_blurb->wordpress
p479
sg23
g17
(g19
S'Y\xdd%\xa0\xcbt\xc5?'
tRp480
sa(dp481
g16
g17
(g19
S'y\xc5\r\x00R\x84\x8e?'
tRp482
sg21
Vcontractor->dev_blurb->with
p483
sg23
g17
(g19
S'-\xb5B~\x9f\x17\xc6?'
tRp484
sa(dp485
g16
g17
(g19
S'\x14)\x8a<\xe5\x8cD?'
tRp486
sg21
Vcontractor->dev_blurb->what
p487
sg23
g17
(g19
S'l\xe4D+\x84\x12\xa4?'
tRp488
sa(dp489
g16
g17
(g19
S'~\x97\xf4H\x19\xc2h?'
tRp490
sg21
Vcontractor->dev_blurb->web
p491
sg23
g17
(g19
S'\x13\x06\xd8>\xb1\xe2\xaa?'
tRp492
sa(dp493
g16
g17
(g19
S'>\x92\x16x\xc4*{?'
tRp494
sg21
Vcontractor->dev_blurb->very
p495
sg23
g17
(g19
S'\x83\x9f\x92\x088\x88\xc9?'
tRp496
sa(dp497
g16
g17
(g19
S'O@D\x9b0G\xb9?'
tRp498
sg21
Vcontractor->dev_blurb->to
p499
sg23
g17
(g19
S'z~\xf7\xfa3F\xe2?'
tRp500
sa(dp501
g16
g17
(g19
S'\x12\x95\x83\xfe\x97\xddH?'
tRp502
sg21
Vcontractor->dev_blurb->that
p503
sg23
g17
(g19
S'\xc6\x0b\x94\xcd 7\x87?'
tRp504
sa(dp505
g16
g17
(g19
S'\x17;yx\xe3\nd?'
tRp506
sg21
Vcontractor->dev_blurb->than
p507
sg23
g17
(g19
S'\xf8\x00i\xb9\xd7\x84\xc3?'
tRp508
sa(dp509
g16
g17
(g19
S'H\xd6\xaf\xb8\xf3\rn?'
tRp510
sg21
Vcontractor->dev_blurb->tasks
p511
sg23
g17
(g19
S'\xf1\xf4\xa5\x85\xde/\xc5?'
tRp512
sa(dp513
g16
g17
(g19
S'\xd7^{\xdcV#*?'
tRp514
sg21
Vcontractor->dev_blurb->some
p515
sg23
g17
(g19
S'\xd4:0\xd5\x82{\x8c?'
tRp516
sa(dp517
g16
g17
(g19
S'{\xa9\xa1\x075"r?'
tRp518
sg21
Vcontractor->dev_blurb->seo
p519
sg23
g17
(g19
S'5u+\xc0\x10u\xc7?'
tRp520
sa(dp521
g16
g17
(g19
S'E\xbb\xa5\x98\xa0\x18Z?'
tRp522
sg21
Vcontractor->dev_blurb->research
p523
sg23
g17
(g19
S'\xd8\x99\xea\x8d\x9a7\xae?'
tRp524
sa(dp525
g16
g17
(g19
S"T\xb8I6'As?"
tRp526
sg21
Vcontractor->dev_blurb->provide
p527
sg23
g17
(g19
S'0\x17@Q/\x99\xc6?'
tRp528
sa(dp529
g16
g17
(g19
S'X\x08\xdc\x15\xcd\x1c`?'
tRp530
sg21
Vcontractor->dev_blurb->project
p531
sg23
g17
(g19
S'\x8d\xafw\x97\x1d\xa6\xb7?'
tRp532
sa(dp533
g16
g17
(g19
S'0\x8fs^\x9e\xab`?'
tRp534
sg21
Vcontractor->dev_blurb->professional
p535
sg23
g17
(g19
S'V\x8f*\x0c\xeb\xec\xae?'
tRp536
sa(dp537
g16
g17
(g19
S'\x0b`R4\xef{`?'
tRp538
sg21
Vcontractor->dev_blurb->over
p539
sg23
g17
(g19
S'\x1b\x0b\xf3\xd3\xfc\x94\xab?'
tRp540
sa(dp541
g16
g17
(g19
S'{\xa6\x8e\x95\xba\xc9d?'
tRp542
sg21
Vcontractor->dev_blurb->oriented
p543
sg23
g17
(g19
S'|\x87\xf9\xb0sX\xc0?'
tRp544
sa(dp545
g16
g17
(g19
S'\xa48WP\x80WA?'
tRp546
sg21
Vcontractor->dev_blurb->one
p547
sg23
g17
(g19
S'\xceY\xc1j\x99\xbb\xa5?'
tRp548
sa(dp549
g16
g17
(g19
S'\xa0\xc6s\xc4\x055T?'
tRp550
sg21
Vcontractor->dev_blurb->not
p551
sg23
g17
(g19
S'\xfdK\xed`S)\xab?'
tRp552
sa(dp553
g16
g17
(g19
S'=\x9b\xf3\x83&\xa2[?'
tRp554
sg21
Vcontractor->dev_blurb->new
p555
sg23
g17
(g19
S'\xa3q\x02~\x80\x06\xb8?'
tRp556
sa(dp557
g16
g17
(g19
S'\x8co\x9a\r\xc2\xdb.?'
tRp558
sg21
Vcontractor->dev_blurb->mysql
p559
sg23
g17
(g19
S'\xb5\xe6A\xfd\x83\x8b\x82?'
tRp560
sa(dp561
g16
g17
(g19
S'\x1b\x90\xdf\r0E\xa2?'
tRp562
sg21
Vcontractor->dev_blurb->my
p563
sg23
g17
(g19
S'\x8e\xc5\x89y\xe0\xc4\xd1?'
tRp564
sa(dp565
g16
g17
(g19
S'hh\r\x0f\xca\xa9`?'
tRp566
sg21
Vcontractor->dev_blurb->more
p567
sg23
g17
(g19
S'\x12-_\x1c\xea!\xb3?'
tRp568
sa(dp569
g16
g17
(g19
S'\xb5\xe7x\xa4xc\x7f?'
tRp570
sg21
Vcontractor->dev_blurb->me
p571
sg23
g17
(g19
S'\x0b\x8d[\xeb\xfc\xd4\xc9?'
tRp572
sa(dp573
g16
g17
(g19
S'\xfb<\xcf\xc7&\x89T?'
tRp574
sg21
Vcontractor->dev_blurb->marketing
p575
sg23
g17
(g19
S'\x88\x92\x80\xc2\xa0l\xae?'
tRp576
sa(dp577
g16
g17
(g19
S'\x1c\xeb\x94\xef"\x87e?'
tRp578
sg21
Vcontractor->dev_blurb->management
p579
sg23
g17
(g19
S'i\x18\xbb<\x02B\xb7?'
tRp580
sa(dp581
g16
g17
(g19
S'[\x00\x87\xc0\xf0\x19S?'
tRp582
sg21
Vcontractor->dev_blurb->jobs
p583
sg23
g17
(g19
S'SH\xf9\xcc\x03\xb8\xb0?'
tRp584
sa(dp585
g16
g17
(g19
S'\x16y\x19|J\x99r?'
tRp586
sg21
Vcontractor->dev_blurb->is
p587
sg23
g17
(g19
S'\t\xe3J\xd5\xdal\xb2?'
tRp588
sa(dp589
g16
g17
(g19
S'\xe5\xb9W\x89\x96\x93R?'
tRp590
sg21
Vcontractor->dev_blurb->if
p591
sg23
g17
(g19
S'\xfc\x95\x8cm!\xbd\xb0?'
tRp592
sa(dp593
g16
g17
(g19
S'\t6:&u\xbak?'
tRp594
sg21
Vcontractor->dev_blurb->html
p595
sg23
g17
(g19
S'\xdd\xcb\xea\xb0\xa6\xa2\xbf?'
tRp596
sa(dp597
g16
g17
(g19
S'\\\xbb\xd2\x85oay?'
tRp598
sg21
Vcontractor->dev_blurb->have
p599
sg23
g17
(g19
S'\xb4\xbf\xe2\xd9QL\xb4?'
tRp600
sa(dp601
g16
g17
(g19
S'\xb9\\\x8c\x00\xdb_c?'
tRp602
sg21
Vcontractor->dev_blurb->goal
p603
sg23
g17
(g19
S'\x9a\xab\x86\xcd\x0c_\xba?'
tRp604
sa(dp605
g16
g17
(g19
S'\x14\xf0\xb6\xe7D\xd9^?'
tRp606
sg21
Vcontractor->dev_blurb->from
p607
sg23
g17
(g19
S'E\xc6\x96KI\xdf\xb5?'
tRp608
sa(dp609
g16
g17
(g19
S'\x80\xfaU\x19<\xdd\x86?'
tRp610
sg21
Vcontractor->dev_blurb->experience
p611
sg23
g17
(g19
S'\x1c\x82O3\x82\xae\xc3?'
tRp612
sa(dp613
g16
g17
(g19
S'\x0ch/\xc0\x8a\xc7>?'
tRp614
sg21
Vcontractor->dev_blurb->do
p615
sg23
g17
(g19
S'\xa0O\x95\xac`\xd2\x91?'
tRp616
sa(dp617
g16
g17
(g19
S'\xe4&r\xdc\xc6\xfb`?'
tRp618
sg21
Vcontractor->dev_blurb->development
p619
sg23
g17
(g19
S'\xaeo\xad\xaa\xb9\xc8\xaf?'
tRp620
sa(dp621
g16
g17
(g19
S'U\x17\x99\xc2xoU?'
tRp622
sg21
Vcontractor->dev_blurb->designer
p623
sg23
g17
(g19
S'\x88\xeeY}\x8e\xb2\xab?'
tRp624
sa(dp625
g16
g17
(g19
S'X>\xda\xd4\x05CJ?'
tRp626
sg21
Vcontractor->dev_blurb->companies
p627
sg23
g17
(g19
S'\x1a"\x11X\xf9`\xaa?'
tRp628
sa(dp629
g16
g17
(g19
S'\xae|\x91]\xb92p?'
tRp630
sg21
Vcontractor->dev_blurb->clients
p631
sg23
g17
(g19
S'\xdc\x15\xb0#\xabv\xc0?'
tRp632
sa(dp633
g16
g17
(g19
S'O\xe5\x8d\xf2\x14]e?'
tRp634
sg21
Vcontractor->dev_blurb->but
p635
sg23
g17
(g19
S'8g\xc208h\xbd?'
tRp636
sa(dp637
g16
g17
(g19
S'\xa7\xff\xb8a_5F?'
tRp638
sg21
Vcontractor->dev_blurb->been
p639
sg23
g17
(g19
S'\xecn\xac\xa2\xc1\x87\x9d?'
tRp640
sa(dp641
g16
g17
(g19
S'E\x94e\xc5j\xb55?'
tRp642
sg21
Vcontractor->dev_blurb->at
p643
sg23
g17
(g19
S'\xf5~"\xc9f\x97\x8a?'
tRp644
sa(dp645
g16
g17
(g19
S'\xa6\xc3\xdb;W.s?'
tRp646
sg21
Vcontractor->dev_blurb->as
p647
sg23
g17
(g19
S'\x1f\xda\xa9\xa4\xcd\xdc\xaf?'
tRp648
sa(dp649
g16
g17
(g19
S'}\xa1O\\\x08d\x82?'
tRp650
sg21
Vcontractor->dev_blurb->are
p651
sg23
g17
(g19
S'\x9a\x07\xfb\xf4\x06\xf0\xd1?'
tRp652
sa(dp653
g16
g17
(g19
S'\xc4\x0cR\xe5\xf6Vy?'
tRp654
sg21
Vcontractor->dev_blurb->am
p655
sg23
g17
(g19
S'ZsPq?\x89\xb7?'
tRp656
sa(dp657
g16
g17
(g19
S'\xa0\x08)b\xb9\x0bT?'
tRp658
sg21
Vcontractor->dev_blurb->always
p659
sg23
g17
(g19
S'O\xea\\\x04\x80/\xb0?'
tRp660
sa(dp661
g16
g17
(g19
S'\xc0U\xae\xd2\x9c\xc3\x8b?'
tRp662
sg21
Vcontractor->dev_blurb->all
p663
sg23
g17
(g19
S'N_\xfb\xe5l\xa2\xd9?'
tRp664
sa(dp665
g16
g17
(g19
S'z1\x8e\x7f\xb1\xe4\x87?'
tRp666
sg21
Vcontractor->dev_bill_rate
p667
sg23
g17
(g19
S'1rPH:\x1a\xb4?'
tRp668
sa(dp669
g16
g17
(g19
S'\x89\xa6u\x80\xe0\xcc\xa6?'
tRp670
sg21
Vcontractor->dev_active_interviews
p671
sg23
g17
(g19
S'\x14\xec\xe5\xf5\xb3\x90\xd6?'
tRp672
sasS'negative'
p673
(lp674
(dp675
g16
g17
(g19
S'\x98\xe8 Up\x88\xc6?'
tRp676
sg21
Vcontractor->dev_adj_score
p677
sg23
g17
(g19
S'G\xb9\x1a\xd8k\xf0\xd0\xbf'
tRp678
sa(dp679
g16
g17
(g19
S'V!\xebKk\x1a\xc8?'
tRp680
sg21
Vcontractor->dev_adj_score_recent
p681
sg23
g17
(g19
S'\x7fy\xffD@\xe6\xd3\xbf'
tRp682
sa(dp683
g16
g17
(g19
S'\xe5\xab\\\xcd\x0eG\xbf?'
tRp684
sg21
Vcontractor->dev_availability
p685
sg23
g17
(g19
S'Xl\x9a\xbc\x03_\xc5\xbf'
tRp686
sa(dp687
g16
g17
(g19
S'5\xed\xdch-\x05\x8f?'
tRp688
sg21
Vcontractor->dev_billed_assignments
p689
sg23
g17
(g19
S'\r\x9cy\xe6\x95\xa9\xc6\xbf'
tRp690
sa(dp691
g16
g17
(g19
S'@\x97c\xd0\x0f\xc6G?'
tRp692
sg21
Vcontractor->dev_blurb->also
p693
sg23
g17
(g19
S'\xa7\x87S\xa4\x1a\xdd\x97\xbf'
tRp694
sa(dp695
g16
g17
(g19
S'YY4x_\x9df?'
tRp696
sg21
Vcontractor->dev_blurb->an
p697
sg23
g17
(g19
S'\xbc\xf5;\xde\xb0(\xb4\xbf'
tRp698
sa(dp699
g16
g17
(g19
S'\xd7\xb9\x1dHu\xff\xa7?'
tRp700
sg21
Vcontractor->dev_blurb->and
p701
sg23
g17
(g19
S'\x18\xa1E\xe0\xc7\xf2\xc9\xbf'
tRp702
sa(dp703
g16
g17
(g19
S'\xed\x00\x94\xc4\x9f\x9cb?'
tRp704
sg21
Vcontractor->dev_blurb->be
p705
sg23
g17
(g19
S'\x9ce\xd0?N]\xa8\xbf'
tRp706
sa(dp707
g16
g17
(g19
S'\x88\xb6\xbd\xa7\xf4\x96r?'
tRp708
sg21
Vcontractor->dev_blurb->best
p709
sg23
g17
(g19
S'\xfe\xa7\xe7IA\x83\xc7\xbf'
tRp710
sa(dp711
g16
g17
(g19
S'#Y\xfbi\xc5Xn?'
tRp712
sg21
Vcontractor->dev_blurb->business
p713
sg23
g17
(g19
S'\xfd\xe1)P-@\xb9\xbf'
tRp714
sa(dp715
g16
g17
(g19
S'\x0b\xf4\x9a\xe4\xc3\xf16?'
tRp716
sg21
Vcontractor->dev_blurb->can
p717
sg23
g17
(g19
S'>\xb5\x8b\xec\xcd\xf9\x80\xbf'
tRp718
sa(dp719
g16
g17
(g19
S'\xc6\xe4\n\x05\x12\xc7m?'
tRp720
sg21
Vcontractor->dev_blurb->client
p721
sg23
g17
(g19
S'e\xe2\xec\nR2\xc6\xbf'
tRp722
sa(dp723
g16
g17
(g19
S'\x94S8?t<\x89?'
tRp724
sg21
Vcontractor->dev_blurb->com
p725
sg23
g17
(g19
S'\xcc&\x1bR>\x12\xcf\xbf'
tRp726
sa(dp727
g16
g17
(g19
S'\xf0\x18\xbb\xb2\x03\xcep?'
tRp728
sg21
Vcontractor->dev_blurb->company
p729
sg23
g17
(g19
S'\xa3\x87\xb8H\x7fM\xca\xbf'
tRp730
sa(dp731
g16
g17
(g19
S'4\r\xb08"\'N?'
tRp732
sg21
Vcontractor->dev_blurb->complete
p733
sg23
g17
(g19
S'\x16NL\x98\xaa4\xa6\xbf'
tRp734
sa(dp735
g16
g17
(g19
S'dw>\xe5\xbe\xdfe?'
tRp736
sg21
Vcontractor->dev_blurb->customer
p737
sg23
g17
(g19
S'E\x7f@\xd6\xed+\xb6\xbf'
tRp738
sa(dp739
g16
g17
(g19
S"K'\xc5\x87\xc7\xba{?"
tRp740
sg21
Vcontractor->dev_blurb->data
p741
sg23
g17
(g19
S'\xcf\x1b/~{\xf3\xbe\xbf'
tRp742
sa(dp743
g16
g17
(g19
S'\x9b9A\xd7I\x0b\x84?'
tRp744
sg21
Vcontractor->dev_blurb->design
p745
sg23
g17
(g19
S'\x1b\x9c\xa0\x9e\x7fv\xce\xbf'
tRp746
sa(dp747
g16
g17
(g19
S'\xb7\xf9N\xa5\xb1\x8as?'
tRp748
sg21
Vcontractor->dev_blurb->developed
p749
sg23
g17
(g19
S'\x8b\xe1\xcf\xd6\xec\xde\xcd\xbf'
tRp750
sa(dp751
g16
g17
(g19
S'\x98\x98\x9a\xb6\x04\xe3p?'
tRp752
sg21
Vcontractor->dev_blurb->entry
p753
sg23
g17
(g19
S'\xf5\xd2\xfaU\xe0\x1c\xb8\xbf'
tRp754
sa(dp755
g16
g17
(g19
S'=\xcf\xdd\x9b<\xacr?'
tRp756
sg21
Vcontractor->dev_blurb->excel
p757
sg23
g17
(g19
S'\xe1\xc5\x1f\x0f\x8c\xda\xc9\xbf'
tRp758
sa(dp759
g16
g17
(g19
S'\x8d\xedu\xed]^B?'
tRp760
sg21
Vcontractor->dev_blurb->expertise
p761
sg23
g17
(g19
S']T\x87\x02\xbb;\x9c\xbf'
tRp762
sa(dp763
g16
g17
(g19
S'\x9a\xcee7-\x87,?'
tRp764
sg21
Vcontractor->dev_blurb->following
p765
sg23
g17
(g19
S'\xc9\xbd\xc6\x8d\x01\x1e\x8c\xbf'
tRp766
sa(dp767
g16
g17
(g19
S'\x17&Gi\xe8\xd6\x80?'
tRp768
sg21
Vcontractor->dev_blurb->for
p769
sg23
g17
(g19
S'uX\x04\xcd\xf3M\xb9\xbf'
tRp770
sa(dp771
g16
g17
(g19
S'\x9e\x06\xd62\x96\xd3\x8c?'
tRp772
sg21
Vcontractor->dev_blurb->good
p773
sg23
g17
(g19
S'\xfd\x83\xb1.f\xc9\xd5\xbf'
tRp774
sa(dp775
g16
g17
(g19
S'\r1\x967j2\x95?'
tRp776
sg21
Vcontractor->dev_blurb->in
p777
sg23
g17
(g19
S'a\xf1\xdc_\x86-\xc3\xbf'
tRp778
sa(dp779
g16
g17
(g19
S'\x8f$\xfa2\x06\x98{?'
tRp780
sg21
Vcontractor->dev_blurb->it
p781
sg23
g17
(g19
S'M\x87\xe2\xf2R\x9c\xd0\xbf'
tRp782
sa(dp783
g16
g17
(g19
S'\xdb\xb5~\xb2g\xeeQ?'
tRp784
sg21
Vcontractor->dev_blurb->knowledge
p785
sg23
g17
(g19
S'c\x00\xdb\xfb\xfee\xa2\xbf'
tRp786
sa(dp787
g16
g17
(g19
S"'~#\xbbX3e?"
tRp788
sg21
Vcontractor->dev_blurb->last
p789
sg23
g17
(g19
S'<w\x95\x84\xe5S\xbe\xbf'
tRp790
sa(dp791
g16
g17
(g19
S'j"3\xb0\x9e\xe9c?'
tRp792
sg21
Vcontractor->dev_blurb->like
p793
sg23
g17
(g19
S'\xe7\xd0\xf1O\xf8O\xbc\xbf'
tRp794
sa(dp795
g16
g17
(g19
S'\xda\x9dr9&Fm?'
tRp796
sg21
Vcontractor->dev_blurb->looking
p797
sg23
g17
(g19
S'H\xea\xb4\x91S\xc3\xc5\xbf'
tRp798
sa(dp799
g16
g17
(g19
S'b\xf9\xfb#\x1eAX?'
tRp800
sg21
Vcontractor->dev_blurb->objective
p801
sg23
g17
(g19
S'\x87\xfc\x94\x03\x95\xa2\xb1\xbf'
tRp802
sa(dp803
g16
g17
(g19
S'-\xddG_x4q?'
tRp804
sg21
Vcontractor->dev_blurb->of
p805
sg23
g17
(g19
S'"/\x9e\x05\xe4\xb3\xa3\xbf'
tRp806
sa(dp807
g16
g17
(g19
S'\xc8\x0e\x07\xf1\x16\x92N?'
tRp808
sg21
Vcontractor->dev_blurb->on
p809
sg23
g17
(g19
S"\xd4\x07'\x0c\x8c\xfb\x92\xbf"
tRp810
sa(dp811
g16
g17
(g19
S'/\xb7\xee\xe2\xd36i?'
tRp812
sg21
Vcontractor->dev_blurb->or
p813
sg23
g17
(g19
S'\xb6\xa1]\xc4\xa2\xfb\xbe\xbf'
tRp814
sa(dp815
g16
g17
(g19
S'\xb8\x0b\xed\x97\xdb%P?'
tRp816
sg21
Vcontractor->dev_blurb->other
p817
sg23
g17
(g19
S'\xd0\x80\xb9\xd5\xd6\xf5\xa9\xbf'
tRp818
sa(dp819
g16
g17
(g19
S'\x95\x1d\x98A.\xe5\\?'
tRp820
sg21
Vcontractor->dev_blurb->php
p821
sg23
g17
(g19
S'i\xfeh\xfe\x89]\xb0\xbf'
tRp822
sa(dp823
g16
g17
(g19
S'\x19\x1e\x95y\xce\x83w?'
tRp824
sg21
Vcontractor->dev_blurb->quality
p825
sg23
g17
(g19
S'"\x16\x1a\xder\xe4\xc4\xbf'
tRp826
sa(dp827
g16
g17
(g19
S'\x88\x95\\\x1bL$b?'
tRp828
sg21
Vcontractor->dev_blurb->satisfaction
p829
sg23
g17
(g19
S'\xd1\x1b\xd7\x16"g\xba\xbf'
tRp830
sa(dp831
g16
g17
(g19
S'\xf53[A\x97\x99d?'
tRp832
sg21
Vcontractor->dev_blurb->service
p833
sg23
g17
(g19
S'a\xbb:\x87\x01\xe9\xad\xbf'
tRp834
sa(dp835
g16
g17
(g19
S'}\xbb\xf9\xf1,Lr?'
tRp836
sg21
Vcontractor->dev_blurb->skills
p837
sg23
g17
(g19
S'J\xbd\x8ft\xf92\xb4\xbf'
tRp838
sa(dp839
g16
g17
(g19
S'\xfc\xd1\x0c\xdd,hn?'
tRp840
sg21
Vcontractor->dev_blurb->solutions
p841
sg23
g17
(g19
S'\x97V\x16[\n\x93\xc6\xbf'
tRp842
sa(dp843
g16
g17
(g19
S'\r\xb4\x9f\x97\xdb\xfbC?'
tRp844
sg21
Vcontractor->dev_blurb->support
p845
sg23
g17
(g19
S'8\xe3>pw\x88\x9a\xbf'
tRp846
sa(dp847
g16
g17
(g19
S'\xaa\xd1\xd6K4\xb0}?'
tRp848
sg21
Vcontractor->dev_blurb->the
p849
sg23
g17
(g19
S'bn\x86\x04\xf3\x9c\xad\xbf'
tRp850
sa(dp851
g16
g17
(g19
S'`\xf4\xe5\xdb"\xd3U?'
tRp852
sg21
Vcontractor->dev_blurb->time
p853
sg23
g17
(g19
S'\x89\xad\xdd\xc7\xca\xd0\xa5\xbf'
tRp854
sa(dp855
g16
g17
(g19
S'5P6\x05FNg?'
tRp856
sg21
Vcontractor->dev_blurb->use
p857
sg23
g17
(g19
S'\xaa\xfc\xeb\x88\xbf\xa9\xba\xbf'
tRp858
sa(dp859
g16
g17
(g19
S'\xd8\xa7\xadj9Ew?'
tRp860
sg21
Vcontractor->dev_blurb->using
p861
sg23
g17
(g19
S'\x86s*q\x8eC\xc7\xbf'
tRp862
sa(dp863
g16
g17
(g19
S'(mFi\x8f\xca3?'
tRp864
sg21
Vcontractor->dev_blurb->website
p865
sg23
g17
(g19
S'\xf8\xdfH~1\x80\x88\xbf'
tRp866
sa(dp867
g16
g17
(g19
S'\x1e\xf09\xcfe\xaaV?'
tRp868
sg21
Vcontractor->dev_blurb->well
p869
sg23
g17
(g19
S'9f\xa7\xa1K\xd3\xad\xbf'
tRp870
sa(dp871
g16
g17
(g19
S'\xb4\x90\xcf\xbeJ[8?'
tRp872
sg21
Vcontractor->dev_blurb->where
p873
sg23
g17
(g19
S't5\x10\xc9\xf9\x16\x95\xbf'
tRp874
sa(dp875
g16
g17
(g19
S'0\x9a\n\x0f\x14@z?'
tRp876
sg21
Vcontractor->dev_blurb->will
p877
sg23
g17
(g19
S'\x9c\x9d\x8d\xb9\xddq\xc5\xbf'
tRp878
sa(dp879
g16
g17
(g19
S'?\xa2\x9f\xa3I2s?'
tRp880
sg21
Vcontractor->dev_blurb->word
p881
sg23
g17
(g19
S'\xa1\xcc_2\x81\xc9\xca\xbf'
tRp882
sa(dp883
g16
g17
(g19
S'\x19VS\x04\x8aUb?'
tRp884
sg21
Vcontractor->dev_blurb->work
p885
sg23
g17
(g19
S'4\xc7\x08\xf4\x9b\xd9\xa0\xbf'
tRp886
sa(dp887
g16
g17
(g19
S'\xf1J\xfa\xd9\x15\xcdH?'
tRp888
sg21
Vcontractor->dev_blurb->would
p889
sg23
g17
(g19
S'\x13\xae!vZ\xe0\xa4\xbf'
tRp890
sa(dp891
g16
g17
(g19
S'3\x8ew\x7f\xd8(V?'
tRp892
sg21
Vcontractor->dev_blurb->writing
p893
sg23
g17
(g19
S'\xa7\xb9_\xe7\t_\xa1\xbf'
tRp894
sa(dp895
g16
g17
(g19
S'\x14\x87H\x13I)[?'
tRp896
sg21
Vcontractor->dev_blurb->your
p897
sg23
g17
(g19
S'\xfa\xb0.\xc2q\x96\xac\xbf'
tRp898
sa(dp899
g16
g17
(g19
S'\xd7\n\xf1o\x01\xb1o?'
tRp900
sg21
Vcontractor->dev_cur_assignments
p901
sg23
g17
(g19
S'\xcb\x84\x1a\x82\x8e\xa6\xa3\xbf'
tRp902
sa(dp903
g16
g17
(g19
S'.\xf8M6\x80\xd6\xb1?'
tRp904
sg21
Vcontractor->dev_eng_skill
p905
sg23
g17
(g19
S'gf1\xd3H+\xb3\xbf'
tRp906
sa(dp907
g16
g17
(g19
S'h$\xfd\xc7\xebo\xb5?'
tRp908
sg21
Vcontractor->dev_expose_full_name
p909
sg23
g17
(g19
S'\x00\xd3\x15c\xf3 \xb6\xbf'
tRp910
sa(dp911
g16
g17
(g19
S'\x83G\xb3\xb3\xc9#\xd2?'
tRp912
sg21
Vcontractor->dev_is_looking_week
p913
sg23
g17
(g19
S'7\xbcp\xa4\x8b\xc4\xd5\xbf'
tRp914
sa(dp915
g16
g17
(g19
S'\xf4\x8c\xdfYa\x13\xd7>'
tRp916
sg21
Vcontractor->dev_profile_title->administrative
p917
sg23
g17
(g19
S'bKzE\xd3\xca&\xbf'
tRp918
sa(dp919
g16
g17
(g19
S'\xf8\xa7\xe1\x8a\x9b~\x8e?'
tRp920
sg21
Vcontractor->dev_profile_title->architect
p921
sg23
g17
(g19
S'G\xe7\x8bR\x8a\xb8\xe3\xbf'
tRp922
sa(dp923
g16
g17
(g19
S'\xe7"I`\\\n|?'
tRp924
sg21
Vcontractor->dev_profile_title->best
p925
sg23
g17
(g19
S'\xe0gV\xf1\xd63\xd0\xbf'
tRp926
sa(dp927
g16
g17
(g19
S'\x80\x1c\xdeZ\xd5\xa9S?'
tRp928
sg21
Vcontractor->dev_profile_title->customer
p929
sg23
g17
(g19
S'\xbf\xcfB\xbb\x13P\xaf\xbf'
tRp930
sa(dp931
g16
g17
(g19
S"z\xdfA\xd9'=[?"
tRp932
sg21
Vcontractor->dev_profile_title->data
p933
sg23
g17
(g19
S'\xfe\n\xb2*v{\x93\xbf'
tRp934
sa(dp935
g16
g17
(g19
S'\x0e\x91\xd7\x11\xddy\x97?'
tRp936
sg21
Vcontractor->dev_profile_title->developer
p937
sg23
g17
(g19
S'\x9c9P\xc8?A\xd8\xbf'
tRp938
sa(dp939
g16
g17
(g19
S'\xb4u\x84\xc6X\xa5\x81?'
tRp940
sg21
Vcontractor->dev_profile_title->editor
p941
sg23
g17
(g19
S'\xff\xc5\x9e\xe5\xbeN\xd1\xbf'
tRp942
sa(dp943
g16
g17
(g19
S'\xc9T\x90q\xec\xc4K?'
tRp944
sg21
Vcontractor->dev_profile_title->excel
p945
sg23
g17
(g19
S'\xae\x9e\xc9`\x05\xa4\xa0\xbf'
tRp946
sa(dp947
g16
g17
(g19
S'\x14\xdc<EV\xael?'
tRp948
sg21
Vcontractor->dev_profile_title->freelance
p949
sg23
g17
(g19
S'39\xa4#\xf7\xf1\xc6\xbf'
tRp950
sa(dp951
g16
g17
(g19
S'M\x1b\xc0\x02H\x94\x83?'
tRp952
sg21
Vcontractor->dev_profile_title->game
p953
sg23
g17
(g19
S'`?a!\xd2\xe3\xd8\xbf'
tRp954
sa(dp955
g16
g17
(g19
S'\xf8\x12\x7f9k<q?'
tRp956
sg21
Vcontractor->dev_profile_title->in
p957
sg23
g17
(g19
S'\xe9?\xc9\xde\x03|\xcd\xbf'
tRp958
sa(dp959
g16
g17
(g19
S"\x14\xd3uQ\x94'9?"
tRp960
sg21
Vcontractor->dev_profile_title->of
p961
sg23
g17
(g19
S'\xac\x0bZi\xfc\xc0\x94\xbf'
tRp962
sa(dp963
g16
g17
(g19
S'\xb9}\xc7\x04\xb5\xddw?'
tRp964
sg21
Vcontractor->dev_profile_title->php
p965
sg23
g17
(g19
S'\x81\x12\xe5P\xff\x1a\xbd\xbf'
tRp966
sa(dp967
g16
g17
(g19
S'\xa1\x9b\x7f#B\xe9s?'
tRp968
sg21
Vcontractor->dev_profile_title->professional
p969
sg23
g17
(g19
S'\xafy\xc4\x07)\xab\xbc\xbf'
tRp970
sa(dp971
g16
g17
(g19
S'\xa5\xb9!\xb5\xdaZT?'
tRp972
sg21
Vcontractor->dev_profile_title->service
p973
sg23
g17
(g19
S'\xaf\xbf\xa2\x1a\xec\xfb\xa4\xbf'
tRp974
sa(dp975
g16
g17
(g19
S'\x05\x19\x8b\x144\xe7\x86?'
tRp976
sg21
Vcontractor->dev_profile_title->software
p977
sg23
g17
(g19
S'\xa0\x19%\xac\x12\xb3\xd3\xbf'
tRp978
sa(dp979
g16
g17
(g19
S'\xaa\xac\xf8l\x94X|?'
tRp980
sg21
Vcontractor->dev_profile_title->web
p981
sg23
g17
(g19
S'r\xef\x07\xb1NW\xb8\xbf'
tRp982
sa(dp983
g16
g17
(g19
S"`\xd6\xfcv'\xc0Z?"
tRp984
sg21
Vcontractor->dev_profile_title->word
p985
sg23
g17
(g19
S'\xd3\xdfx_\x0e\x12\xbb\xbf'
tRp986
sa(dp987
g16
g17
(g19
S'\xc5\x16\xd6\xb2&Kv?'
tRp988
sg21
Vcontractor->dev_profile_title->writer
p989
sg23
g17
(g19
S'X\xe4\x89\xdd\xf3\x8d\xbd\xbf'
tRp990
sa(dp991
g16
g17
(g19
S'\xa6)J\x84\xfb}\xb6?'
tRp992
sg21
Vcontractor->dev_rank_percentile
p993
sg23
g17
(g19
S'\xbd,\nxB<\xc9\xbf'
tRp994
sa(dp995
g16
g17
(g19
S'\xe5\x96\xa3\xed\xd0\xacr?'
tRp996
sg21
Vcontractor->dev_recent_fp_jobs
p997
sg23
g17
(g19
S'<8\xa4-o\x10\xb2\xbf'
tRp998
sa(dp999
g16
g17
(g19
S'\xfe\xc9\x8a\xbb0lw?'
tRp1000
sg21
Vcontractor->dev_recent_hours
p1001
sg23
g17
(g19
S'%\xae\xe6\xa0q\x7f\xc3\xbf'
tRp1002
sa(dp1003
g16
g17
(g19
S'@\xbb\x8a\xceU>\xb6?'
tRp1004
sg21
Vcontractor->dev_recent_rank_percentile
p1005
sg23
g17
(g19
S'b]\\F\xea_\xcc\xbf'
tRp1006
sa(dp1007
g16
g17
(g19
S'\xc8\xb4\xd2<"\xb7\x86?'
tRp1008
sg21
Vcontractor->dev_tot_feedback
p1009
sg23
g17
(g19
S'x\xe5h\x05\xd2\xbc\xc3\xbf'
tRp1010
sa(dp1011
g16
g17
(g19
S'\xc9&\xd6 2(v?'
tRp1012
sg21
Vcontractor->dev_total_hours_rounded
p1013
sg23
g17
(g19
S'\x94\x0by\x05\xa7U\xa9\xbf'
tRp1014
sa(dp1015
g16
g17
(g19
S'\xc4\xc2q\xdf\xa7\n\x8d?'
tRp1016
sg21
Vcontractor->dev_total_revenue
p1017
sg23
g17
(g19
S'\x8ei\t\xd83t\xcc\xbf'
tRp1018
sa(dp1019
g16
g17
(g19
S"d@'j<\xd0\xb7?"
tRp1020
sg21
Vcontractor->dev_year_exp
p1021
sg23
g17
(g19
S'\x98\x81l\x99\x18\xd3\xdc\xbf'
tRp1022
sa(dp1023
g16
g17
(g19
S'\xa2\xf6\x1cV5H\xc2>'
tRp1024
sg21
Vcountry_pair->bangladesh,united states
p1025
sg23
g17
(g19
S'\xf4q+\x01Pl+\xbf'
tRp1026
sa(dp1027
g16
g17
(g19
S'\xf6\xea\xbb)}H8?'
tRp1028
sg21
Vcountry_pair->china,india
p1029
sg23
g17
(g19
S'9\xf0L\xdf]6\xa2\xbf'
tRp1030
sa(dp1031
g16
g17
(g19
S'\xc1\xa0f>\x85\xeeU?'
tRp1032
sg21
Vcountry_pair->china,united states
p1033
sg23
g17
(g19
S'\x91\xf8\xcc\xee\xe3r\xa0\xbf'
tRp1034
sa(dp1035
g16
g17
(g19
S'\x19,\xb2\xf5Vye?'
tRp1036
sg21
Vcountry_pair->india,australia
p1037
sg23
g17
(g19
S'\x13\xa1E8\x01\x1b\xd0\xbf'
tRp1038
sa(dp1039
g16
g17
(g19
S'\\\x00j\xbb\x8bAO?'
tRp1040
sg21
Vcountry_pair->india,germany
p1041
sg23
g17
(g19
S'E\x80\x8f\xcc(q\xb7\xbf'
tRp1042
sa(dp1043
g16
g17
(g19
S'\x1e4\xfd\x08[\x01n?'
tRp1044
sg21
Vcountry_pair->india,united arab emirates
p1045
sg23
g17
(g19
S'\x17\xe7\xbdF\x04\x81\xc6\xbf'
tRp1046
sa(dp1047
g16
g17
(g19
S'\x81\xaa\x1bME\x11W?'
tRp1048
sg21
Vcountry_pair->morocco,united states
p1049
sg23
g17
(g19
S'\xe1\xbf\xd4\xf9\xf3L\xb1\xbf'
tRp1050
sa(dp1051
g16
g17
(g19
S'8\xb6\x81W\xed\xba@?'
tRp1052
sg21
Vcountry_pair->netherlands,france
p1053
sg23
g17
(g19
S'U\x91B\x03d\x18\xa9\xbf'
tRp1054
sa(dp1055
g16
g17
(g19
S'<$`/\xb3\xc5s?'
tRp1056
sg21
Vcountry_pair->nigeria,united states
p1057
sg23
g17
(g19
S'[6\x10\xc7\x8c\xa8\xdd\xbf'
tRp1058
sa(dp1059
g16
g17
(g19
S'\xd4\x9b\x7faA\xf4@?'
tRp1060
sg21
Vcountry_pair->pakistan,croatia
p1061
sg23
g17
(g19
S'\xbfi?\x12bn\xa9\xbf'
tRp1062
sa(dp1063
g16
g17
(g19
S'\x95mr\xeeh\x17\x86?'
tRp1064
sg21
Vcountry_pair->pakistan,united states
p1065
sg23
g17
(g19
S'0\xd2\xd5\xb2\x8e\x91\xe0\xbf'
tRp1066
sa(dp1067
g16
g17
(g19
S'*\xfd\xdf\xa4\xac\xeaw?'
tRp1068
sg21
Vcountry_pair->philippines,australia
p1069
sg23
g17
(g19
S'\xe0\xfd\xa7{\x01\xf0\xd1\xbf'
tRp1070
sa(dp1071
g16
g17
(g19
S'\x9d\x16\xce\x94y3u?'
tRp1072
sg21
Vcountry_pair->philippines,canada
p1073
sg23
g17
(g19
S'\x9d\x16\xce\x94y3\xb5\xbf'
tRp1074
sa(dp1075
g16
g17
(g19
S'\x80w\x8f\xd4i\x10Q?'
tRp1076
sg21
Vcountry_pair->philippines,sri lanka
p1077
sg23
g17
(g19
S'A3\xd7\xbe\x9e\x98\xb9\xbf'
tRp1078
sa(dp1079
g16
g17
(g19
S'\xbd[\xff\x9fW\xd8e?'
tRp1080
sg21
Vcountry_pair->sri lanka,united kingdom
p1081
sg23
g17
(g19
S'\xce\x84\xff\xb7Ab\xd0\xbf'
tRp1082
sa(dp1083
g16
g17
(g19
S'\tk\xd3\xef\x891{?'
tRp1084
sg21
Vcountry_pair->ukraine,united states
p1085
sg23
g17
(g19
S'\tk\xd3\xef\x891\xcb\xbf'
tRp1086
sa(dp1087
g16
g17
(g19
S'\xeeMT!znS?'
tRp1088
sg21
Vcountry_pair->united kingdom,australia
p1089
sg23
g17
(g19
S'\xe5t\xfe1\xb7%\xbd\xbf'
tRp1090
sa(dp1091
g16
g17
(g19
S'6\xf6Q\x15\x90Nh?'
tRp1092
sg21
Vcountry_pair->united states,united arab emirates
p1093
sg23
g17
(g19
S'6\xf6Q\x15\x90N\xb8\xbf'
tRp1094
sa(dp1095
g16
g17
(g19
S'u\xad,O\x8c\x9d\x95?'
tRp1096
sg21
Vcountry_pair->united states,united states
p1097
sg23
g17
(g19
S'G\xe7\x90i\x10\xd2\xcc\xbf'
tRp1098
sa(dp1099
g16
g17
(g19
S'\xb8\xf5)Z\xcc\xd7\xbf?'
tRp1100
sg21
Vemployer->op_country_tz
p1101
sg23
g17
(g19
S'\x8e\x1e}\xceG\xf9\x94\xbf'
tRp1102
sa(dp1103
g16
g17
(g19
S'\xb8\xf5)Z\xcc\xd7\xbf?'
tRp1104
sg21
Vemployer->op_timezone
p1105
sg23
g17
(g19
S'\x8e\x1e}\xceG\xf9\x94\xbf'
tRp1106
sa(dp1107
g16
g17
(g19
S'\xf3\x98.\x0b\xcfO\x96?'
tRp1108
sg21
Vemployer->op_tot_jobs_filled
p1109
sg23
g17
(g19
S'\xe3\xf2\xc7o\x97\x98\xd8\xbf'
tRp1110
sa(dp1111
g16
g17
(g19
S'\x87g\xffg\xba?\xbf?'
tRp1112
sg21
Vopening_id
p1113
sg23
g17
(g19
S'\xdc\xb0\xbb\xec\xf4\xc8\xc0\xbf'
tRp1114
sa(dp1115
g16
g17
(g19
S'\xee-\x9a\xf2#\x1e\x8a?'
tRp1116
sg21
Vtsexams->Adobe Flex 3.0 Test
p1117
sg23
g17
(g19
S'X\xbe\xe1\x8e\xe9\xe4\xd4\xbf'
tRp1118
sa(dp1119
g16
g17
(g19
S'\x89\x96\x01\xa2\xaa\xd4\x85?'
tRp1120
sg21
Vtsexams->Adobe Illustrator CS3 Test
p1121
sg23
g17
(g19
S'\x1d\xa8V\xdc81\xd2\xbf'
tRp1122
sa(dp1123
g16
g17
(g19
S'\xc3\xb9\x13\xd4\x9e\\~?'
tRp1124
sg21
Vtsexams->Adobe Illustrator CS4 Test
p1125
sg23
g17
(g19
S'\x0f\t?\x7f\x927\xd2\xbf'
tRp1126
sa(dp1127
g16
g17
(g19
S'\xd0:A\xcc\xdbJ\x82?'
tRp1128
sg21
Vtsexams->Adobe Illustrator Test
p1129
sg23
g17
(g19
S'\x8b\xd2o\xf0\xc1[\xcf\xbf'
tRp1130
sa(dp1131
g16
g17
(g19
S'\xa9\xb0\x8a7\xa9.\x9a?'
tRp1132
sg21
Vtsexams->Adobe Photoshop 6.0
p1133
sg23
g17
(g19
S'/\xe3\x06\xcf]\x13\xc8\xbf'
tRp1134
sa(dp1135
g16
g17
(g19
S'\xce\xc2\xa6 ^1\xba?'
tRp1136
sg21
Vtsexams->Adobe Photoshop CS3 Test
p1137
sg23
g17
(g19
S'\n\xb4\x04\x86\x9a8\xd2\xbf'
tRp1138
sa(dp1139
g16
g17
(g19
S'p\xb266\x84\xa3\x04?'
tRp1140
sg21
Vtsexams->Advanced PHP Test
p1141
sg23
g17
(g19
S'\x18)>\x01\x15#M\xbf'
tRp1142
sa(dp1143
g16
g17
(g19
S'hnF\xfe\x88\x0f\x82?'
tRp1144
sg21
Vtsexams->AutoCad 2007 Test
p1145
sg23
g17
(g19
S'\xd6\xc2\xf4\xfc-\xdf\xcf\xbf'
tRp1146
sa(dp1147
g16
g17
(g19
S'\xdf,\x19\xdc\xd0\xf5V?'
tRp1148
sg21
Vtsexams->Business Mathematics Test
p1149
sg23
g17
(g19
S'\xdf,\x19\xdc\xd0\xf5\xa6\xbf'
tRp1150
sa(dp1151
g16
g17
(g19
S'\x01\xc9Eg\x02\xfb\x93?'
tRp1152
sg21
Vtsexams->CSS 2.0 Test
p1153
sg23
g17
(g19
S'\xd4\xaa\xfd~\xf7\xb7\xcb\xbf'
tRp1154
sa(dp1155
g16
g17
(g19
S'\x88\xb6\xb3\xadf\xc1\xa0?'
tRp1156
sg21
Vtsexams->CSS 3 Test
p1157
sg23
g17
(g19
S'\x96Wa\xb0*\x8a\xcf\xbf'
tRp1158
sa(dp1159
g16
g17
(g19
S'U4X\xe3c\x88\xa5?'
tRp1160
sg21
Vtsexams->Call Center Skills Test
p1161
sg23
g17
(g19
S'\xbe\xee\xaa\xbf\x96\x02\xbc\xbf'
tRp1162
sa(dp1163
g16
g17
(g19
S'\xc3\xb9\x13\xd4\x9e\\~?'
tRp1164
sg21
Vtsexams->Chrome Product Test
p1165
sg23
g17
(g19
S'\x0f\t?\x7f\x927\xd2\xbf'
tRp1166
sa(dp1167
g16
g17
(g19
S'\x1e\xdc\xf9{N:\x84?'
tRp1168
sg21
Vtsexams->Content Writing Skills Test
p1169
sg23
g17
(g19
S'~\x16\xfb/\xa5.\xd0\xbf'
tRp1170
sa(dp1171
g16
g17
(g19
S'u\xd1H\x1c\x16+\x97?'
tRp1172
sg21
Vtsexams->Creative Writing Test - Non-fiction (U.S. Version)
p1173
sg23
g17
(g19
S'\x8fH\x152\xa6Z\xe0\xbf'
tRp1174
sa(dp1175
g16
g17
(g19
S'\xb2\x87<o\x8e\xab\xa0?'
tRp1176
sg21
Vtsexams->Customer Service Test
p1177
sg23
g17
(g19
S'I\xdf\x08\xea.2\xb6\xbf'
tRp1178
sa(dp1179
g16
g17
(g19
S'\xb8\xac\xba\xd8\x12$j?'
tRp1180
sg21
Vtsexams->Dreamweaver 8 Test
p1181
sg23
g17
(g19
S'\xaa5\x13\x04}^\xbf\xbf'
tRp1182
sa(dp1183
g16
g17
(g19
S'\x10\x1b\x97\xfaP\xd1g?'
tRp1184
sg21
Vtsexams->Drupal 6.14 Test
p1185
sg23
g17
(g19
S']&\xd3\x03\x1a*\xad\xbf'
tRp1186
sa(dp1187
g16
g17
(g19
S'\xe9\xed\xfb\x8d\x00_\xb4?'
tRp1188
sg21
Vtsexams->Email Etiquette Certification
p1189
sg23
g17
(g19
S'\x04\xcd\x8b\xc09\x18\xc1\xbf'
tRp1190
sa(dp1191
g16
g17
(g19
S'3QY\xd2\xcc\x8f\xc2?'
tRp1192
sg21
Vtsexams->English Spelling Test (UK Version)
p1193
sg23
g17
(g19
S'\xc5\x04\x9c\ng\x8e\xda\xbf'
tRp1194
sa(dp1195
g16
g17
(g19
S'\xbb\x93\xe8\xb4\x03]\xa2?'
tRp1196
sg21
Vtsexams->English To Russian Translation Skills Test
p1197
sg23
g17
(g19
S'\x87Y\x874\xd2\xd5\xd6\xbf'
tRp1198
sa(dp1199
g16
g17
(g19
S'&\x94\xba\xbfC\xa2x?'
tRp1200
sg21
Vtsexams->English Vocabulary Test (U.S. Version)
p1201
sg23
g17
(g19
S':\xa7h\x99P\xa1|\xbf'
tRp1202
sa(dp1203
g16
g17
(g19
S'\x90(HY\xba}]?'
tRp1204
sg21
Vtsexams->French To English Translation Skills Test
p1205
sg23
g17
(g19
S'\xda2\xc7N\x86\x05\xaa\xbf'
tRp1206
sa(dp1207
g16
g17
(g19
S'{cW(\xa6}\x8a?'
tRp1208
sg21
Vtsexams->Gmail Product Test
p1209
sg23
g17
(g19
S'.D\xcf\x96\xfa\xc9\xcf\xbf'
tRp1210
sa(dp1211
g16
g17
(g19
S'\xe5\x88\xb3\xc8#\xa2\xac?'
tRp1212
sg21
Vtsexams->Google Android Programming Test
p1213
sg23
g17
(g19
S'\xa05s@\xd5_\xd2\xbf'
tRp1214
sa(dp1215
g16
g17
(g19
S'u\xf0\xd2\x9b\x14\xa9\xc0?'
tRp1216
sg21
Vtsexams->HTML 4.01 Test
p1217
sg23
g17
(g19
S's\x85\x865BY\xe4\xbf'
tRp1218
sa(dp1219
g16
g17
(g19
S'\x10\x1b\x97\xfaP\xd1g?'
tRp1220
sg21
Vtsexams->HTML 5 Test
p1221
sg23
g17
(g19
S']&\xd3\x03\x1a*\xad\xbf'
tRp1222
sa(dp1223
g16
g17
(g19
S'\x13\x90}\xd2\xb9\xcch?'
tRp1224
sg21
Vtsexams->JSON Test
p1225
sg23
g17
(g19
S'~F0\x96x\xc2\xad\xbf'
tRp1226
sa(dp1227
g16
g17
(g19
S'\x80\x999\x1e\xe2\xac`?'
tRp1228
sg21
Vtsexams->Java Test
p1229
sg23
g17
(g19
S'R%\xeap%g\xa8\xbf'
tRp1230
sa(dp1231
g16
g17
(g19
S'q\xc2\\\xc3\x8f\xfdd?'
tRp1232
sg21
Vtsexams->JavaScript 1.3 Test
p1233
sg23
g17
(g19
S'\xf8\xc5\xbbL\xfe`\xab\xbf'
tRp1234
sa(dp1235
g16
g17
(g19
S'\x82!\xce\xa3\x0f\xc3\xbe?'
tRp1236
sg21
Vtsexams->Joomla 1.5 Test
p1237
sg23
g17
(g19
S'm\xed\xd5\xd4\xfd\xbc\xe2\xbf'
tRp1238
sa(dp1239
g16
g17
(g19
S'\xbd[\xff\x9fW\xd8\x85?'
tRp1240
sg21
Vtsexams->MS PowerPoint 2007 Test
p1241
sg23
g17
(g19
S'\xce\x84\xff\xb7Ab\xe0\xbf'
tRp1242
sa(dp1243
g16
g17
(g19
S'\xe4\xe1\x9e\xa3\x97S\x87?'
tRp1244
sg21
Vtsexams->MS Word 2007 Test
p1245
sg23
g17
(g19
S't\x9f\xe8\xdc=w\xb0\xbf'
tRp1246
sa(dp1247
g16
g17
(g19
S'\x19\xc5\xd7\x1f\xfd>y?'
tRp1248
sg21
Vtsexams->Magento eCommerce Test
p1249
sg23
g17
(g19
S'\xb8\x1f6&\x96K\xae\xbf'
tRp1250
sa(dp1251
g16
g17
(g19
S'{\xf2\xaa\xdc\x95\xfe~?'
tRp1252
sg21
Vtsexams->Management Skills Test
p1253
sg23
g17
(g19
S'D\xffYK\t\xca\xbf\xbf'
tRp1254
sa(dp1255
g16
g17
(g19
S'\xd1m\xb10\xb5\xe0\x89?'
tRp1256
sg21
Vtsexams->MySQL 5.0 Test
p1257
sg23
g17
(g19
S'z\xeb~*\x90\x95\xb6\xbf'
tRp1258
sa(dp1259
g16
g17
(g19
S'\x08~=\x8f\xf0?\xa1?'
tRp1260
sg21
Vtsexams->Objective C Test
p1261
sg23
g17
(g19
S'\xcc\x9bX\xbfc\xdf\xc6\xbf'
tRp1262
sa(dp1263
g16
g17
(g19
S'\x81\xbc4J\x8c\xd1\xdf?'
tRp1264
sg21
Vtsexams->Office Skills Test
p1265
sg23
g17
(g19
S'q\xe8(\x06\x16\xff\xe9\xbf'
tRp1266
sa(dp1267
g16
g17
(g19
S'\x0e\xed\r\xb3\xa8\xc4\xb8?'
tRp1268
sg21
Vtsexams->Online Article Writing and Blogging Test (U.S. Version)
p1269
sg23
g17
(g19
S'\xee\x94W\xf8\xb2\xda\xd5\xbf'
tRp1270
sa(dp1271
g16
g17
(g19
S'\xa8\x0f]\xefO2\x9f?'
tRp1272
sg21
Vtsexams->Organizational Behavior Test
p1273
sg23
g17
(g19
S'\x1f\xe1\xb0a~\xf7\xd6\xbf'
tRp1274
sa(dp1275
g16
g17
(g19
S'A`,\xad\xfeXf?'
tRp1276
sg21
Vtsexams->Outbound Sales Skills Test
p1277
sg23
g17
(g19
S'A`,\xad\xfeX\xb6\xbf'
tRp1278
sa(dp1279
g16
g17
(g19
S'?W\xbaa\x07VZ?'
tRp1280
sg21
Vtsexams->PC Graphics Test
p1281
sg23
g17
(g19
S'i\xac\xc0\xfb\x1d\xf1\x97\xbf'
tRp1282
sa(dp1283
g16
g17
(g19
S'\xfc\x00f1\xbc\xa8\x98?'
tRp1284
sg21
Vtsexams->PHP4 Test
p1285
sg23
g17
(g19
S'R\x94\xc3\x90\xcfz\xcf\xbf'
tRp1286
sa(dp1287
g16
g17
(g19
S'<\xcb3P\xd3\x9f\x91?'
tRp1288
sg21
Vtsexams->PHP5 Test
p1289
sg23
g17
(g19
S'\x91\x87>\xb3?n\xb2\xbf'
tRp1290
sa(dp1291
g16
g17
(g19
S'\xfa\xdc\xd7/!-^?'
tRp1292
sg21
Vtsexams->Perl 5 Test
p1293
sg23
g17
(g19
S'\x10\xe5/Lh6\xa7\xbf'
tRp1294
sa(dp1295
g16
g17
(g19
S'\xfd\t\xb5S\x11\xc7\x97?'
tRp1296
sg21
Vtsexams->Ruby on Rails  2.3 Test
p1297
sg23
g17
(g19
S'\xfd\t\xb5S\x11\xc7\xe7\xbf'
tRp1298
sa(dp1299
g16
g17
(g19
S'B\\\x11~^\xbe_?'
tRp1300
sg21
Vtsexams->Ruby on Rails Test
p1301
sg23
g17
(g19
S'2\x05\x8d\xde\xc6\xce\xa7\xbf'
tRp1302
sa(dp1303
g16
g17
(g19
S'/\xd9\xf9V\x12\xce\x93?'
tRp1304
sg21
Vtsexams->SQL Test
p1305
sg23
g17
(g19
S'\x97\x95\xb1\x93\xc6\xf9\xe0\xbf'
tRp1306
sa(dp1307
g16
g17
(g19
S'{cW(\xa6}\x8a?'
tRp1308
sg21
Vtsexams->Slideshow Product Test
p1309
sg23
g17
(g19
S'.D\xcf\x96\xfa\xc9\xcf\xbf'
tRp1310
sa(dp1311
g16
g17
(g19
S"\x80\xa0M'\xce]\x97?"
tRp1312
sg21
Vtsexams->Software Testing Test
p1313
sg23
g17
(g19
S'\xf3\xd2\xf3\x1a1\xc3\xd7\xbf'
tRp1314
sa(dp1315
g16
g17
(g19
S'\x0e\xab\xf3+\x0b\xf0a?'
tRp1316
sg21
Vtsexams->Spanish To English Translation Skills Test
p1317
sg23
g17
(g19
S'\x16x\x1f\x13E\xb3\xac\xbf'
tRp1318
sa(dp1319
g16
g17
(g19
S'\xce~\xb9S.\x8c\xc6?'
tRp1320
sg21
Vtsexams->Telephone Etiquette Certification
p1321
sg23
g17
(g19
S'\x1f\x1b\xce\xce\x88\r\xd9\xbf'
tRp1322
sa(dp1323
g16
g17
(g19
S'\xc75\x01\x0b\x0f+\xba?'
tRp1324
sg21
Vtsexams->U.S. English Basic Skills Test
p1325
sg23
g17
(g19
S'\x0e\xb6\xc0u\xb0\xc3\xb0\xbf'
tRp1326
sa(dp1327
g16
g17
(g19
S'\x8aG\xaa\xed\xee\xbe\x97?'
tRp1328
sg21
Vtsexams->U.S. English Punctuation and Mechanics Test
p1329
sg23
g17
(g19
S'\x0cH\xae-\xba0\xe0\xbf'
tRp1330
sa(dp1331
g16
g17
(g19
S'\xfe0KiY%\x96?'
tRp1332
sg21
Vtsexams->U.S. Word Usage Test
p1333
sg23
g17
(g19
S'\x93\xb4\x17\xe5\xf3\xf6\xbc\xbf'
tRp1334
sa(dp1335
g16
g17
(g19
S'5\x9a\x8d+K\x8a\xb1?'
tRp1336
sg21
Vtsexams->Windows XP Test
p1337
sg23
g17
(g19
S'5\\\x99/\x82\xaf\xca\xbf'
tRp1338
sa(dp1339
g16
g17
(g19
S'p\xb266\x84\xa3\x04?'
tRp1340
sg21
Vtsexams->XHTML 1.0 Test
p1341
sg23
g17
(g19
S'\x18)>\x01\x15#M\xbf'
tRp1342
sa(dp1343
g16
g17
(g19
S'\xc2\xca\xeb\x1e,8|?'
tRp1344
sg21
Vtsexams->iPhone Programming OS 2.1 Test
p1345
sg23
g17
(g19
S'\xb46\xf1\xd1\xfa\xa5\xc4\xbf'
tRp1346
sa(dp1347
g16
g17
(g19
S'\xff\xffu\xc2\x9dg\x87?'
tRp1348
sg21
Vtsexams->oDesk Readiness Test for Affiliated Contractors
p1349
sg23
g17
(g19
S'\x00\x00\xf4\x82\xf0\x15\xcc\xbf'
tRp1350
sa(dp1351
g16
g17
(g19
S'N0\xe7\x19\x16\x90\xc3?'
tRp1352
sg21
Vtsexams->oDesk Readiness Test for Agency Contractors
p1353
sg23
g17
(g19
S'\x83\x85\xc1\xbaY\n\xc9\xbf'
tRp1354
sasssS'classifier_type'
p1355
Vlogistic regression
p1356
sssS'_classifier'
p1357
(dp1358
g8
g1
(csklearn.linear_model.logistic
LogisticRegression
p1359
g3
NtRp1360
(dp1361
S'C'
F1
sS'max_iter'
p1362
I100
sS'verbose'
p1363
I0
sS'fit_intercept'
p1364
I01
sS'solver'
p1365
S'liblinear'
p1366
sS'classes_'
p1367
cnumpy.core.multiarray
_reconstruct
p1368
(cnumpy
ndarray
p1369
(I0
tS'b'
tRp1370
(I1
(I2
tg18
(S'S1'
I0
I1
tRp1371
(I3
S'|'
NNNI1
I1
I0
tbI00
S'01'
tbsS'n_iter_'
p1372
g17
(g18
(S'i4'
I0
I1
tRp1373
(I3
S'<'
NNNI-1
I-1
I0
tbS'\x07\x00\x00\x00'
tRp1374
sS'intercept_scaling'
p1375
I1
sS'penalty'
p1376
Vl2
p1377
sS'multi_class'
p1378
S'ovr'
p1379
sS'random_state'
p1380
NsS'dual'
p1381
I00
sS'tol'
p1382
F0.0001
sS'coef_'
p1383
g1368
(g1369
(I0
tS'b'
tRp1384
(I1
(I1
I333
tg18
(S'f8'
I0
I1
tRp1385
(I3
S'<'
NNNI-1
I-1
I0
tbI01
S'\x14\xec\xe5\xf5\xb3\x90\xd6?G\xb9\x1a\xd8k\xf0\xd0\xbf\x7fy\xffD@\xe6\xd3\xbfXl\x9a\xbc\x03_\xc5\xbf\r\x9cy\xe6\x95\xa9\xc6\xbf1rPH:\x1a\xb4?N_\xfb\xe5l\xa2\xd9?\xa7\x87S\xa4\x1a\xdd\x97\xbfO\xea\\\x04\x80/\xb0?ZsPq?\x89\xb7?\xbc\xf5;\xde\xb0(\xb4\xbf\x18\xa1E\xe0\xc7\xf2\xc9\xbf\x9a\x07\xfb\xf4\x06\xf0\xd1?\x1f\xda\xa9\xa4\xcd\xdc\xaf?\xf5~"\xc9f\x97\x8a?\x9ce\xd0?N]\xa8\xbf\xecn\xac\xa2\xc1\x87\x9d?\xfe\xa7\xe7IA\x83\xc7\xbf\xfd\xe1)P-@\xb9\xbf8g\xc208h\xbd?>\xb5\x8b\xec\xcd\xf9\x80\xbfe\xe2\xec\nR2\xc6\xbf\xdc\x15\xb0#\xabv\xc0?\xcc&\x1bR>\x12\xcf\xbf\x1a"\x11X\xf9`\xaa?\xa3\x87\xb8H\x7fM\xca\xbf\x16NL\x98\xaa4\xa6\xbfE\x7f@\xd6\xed+\xb6\xbf\xcf\x1b/~{\xf3\xbe\xbf\x1b\x9c\xa0\x9e\x7fv\xce\xbf\x88\xeeY}\x8e\xb2\xab?\x8b\xe1\xcf\xd6\xec\xde\xcd\xbf\xaeo\xad\xaa\xb9\xc8\xaf?\xa0O\x95\xac`\xd2\x91?\xf5\xd2\xfaU\xe0\x1c\xb8\xbf\xe1\xc5\x1f\x0f\x8c\xda\xc9\xbf\x1c\x82O3\x82\xae\xc3?]T\x87\x02\xbb;\x9c\xbf\xc9\xbd\xc6\x8d\x01\x1e\x8c\xbfuX\x04\xcd\xf3M\xb9\xbfE\xc6\x96KI\xdf\xb5?\x9a\xab\x86\xcd\x0c_\xba?\xfd\x83\xb1.f\xc9\xd5\xbf\xb4\xbf\xe2\xd9QL\xb4?\xdd\xcb\xea\xb0\xa6\xa2\xbf?\xfc\x95\x8cm!\xbd\xb0?a\xf1\xdc_\x86-\xc3\xbf\t\xe3J\xd5\xdal\xb2?M\x87\xe2\xf2R\x9c\xd0\xbfSH\xf9\xcc\x03\xb8\xb0?c\x00\xdb\xfb\xfee\xa2\xbf<w\x95\x84\xe5S\xbe\xbf\xe7\xd0\xf1O\xf8O\xbc\xbfH\xea\xb4\x91S\xc3\xc5\xbfi\x18\xbb<\x02B\xb7?\x88\x92\x80\xc2\xa0l\xae?\x0b\x8d[\xeb\xfc\xd4\xc9?\x12-_\x1c\xea!\xb3?\x8e\xc5\x89y\xe0\xc4\xd1?\xb5\xe6A\xfd\x83\x8b\x82?\xa3q\x02~\x80\x06\xb8?\xfdK\xed`S)\xab?\x87\xfc\x94\x03\x95\xa2\xb1\xbf"/\x9e\x05\xe4\xb3\xa3\xbf\xd4\x07\'\x0c\x8c\xfb\x92\xbf\xceY\xc1j\x99\xbb\xa5?\xb6\xa1]\xc4\xa2\xfb\xbe\xbf|\x87\xf9\xb0sX\xc0?\xd0\x80\xb9\xd5\xd6\xf5\xa9\xbf\x1b\x0b\xf3\xd3\xfc\x94\xab?i\xfeh\xfe\x89]\xb0\xbfV\x8f*\x0c\xeb\xec\xae?\x8d\xafw\x97\x1d\xa6\xb7?0\x17@Q/\x99\xc6?"\x16\x1a\xder\xe4\xc4\xbf\xd8\x99\xea\x8d\x9a7\xae?\xd1\x1b\xd7\x16"g\xba\xbf5u+\xc0\x10u\xc7?a\xbb:\x87\x01\xe9\xad\xbfJ\xbd\x8ft\xf92\xb4\xbf\x97V\x16[\n\x93\xc6\xbf\xd4:0\xd5\x82{\x8c?8\xe3>pw\x88\x9a\xbf\xf1\xf4\xa5\x85\xde/\xc5?\xf8\x00i\xb9\xd7\x84\xc3?\xc6\x0b\x94\xcd 7\x87?bn\x86\x04\xf3\x9c\xad\xbf\x89\xad\xdd\xc7\xca\xd0\xa5\xbfz~\xf7\xfa3F\xe2?\xaa\xfc\xeb\x88\xbf\xa9\xba\xbf\x86s*q\x8eC\xc7\xbf\x83\x9f\x92\x088\x88\xc9?\x13\x06\xd8>\xb1\xe2\xaa?\xf8\xdfH~1\x80\x88\xbf9f\xa7\xa1K\xd3\xad\xbfl\xe4D+\x84\x12\xa4?t5\x10\xc9\xf9\x16\x95\xbf\x9c\x9d\x8d\xb9\xddq\xc5\xbf-\xb5B~\x9f\x17\xc6?\xa1\xcc_2\x81\xc9\xca\xbfY\xdd%\xa0\xcbt\xc5?4\xc7\x08\xf4\x9b\xd9\xa0\xbf\'\x1a\xc2\xfc\xaf\xf0\xa7?\x13\xae!vZ\xe0\xa4\xbf\xa7\xb9_\xe7\t_\xa1\xbf)\x1e\xbe\xa1VK\xc5?\x06v\xac\xa0\xbd`\xb8?\xfa\xb0.\xc2q\x96\xac\xbf\xcb\x84\x1a\x82\x8e\xa6\xa3\xbfgf1\xd3H+\xb3\xbf\x00\xd3\x15c\xf3 \xb6\xbf{gb\xdf\x03\r\xe7?7\xbcp\xa4\x8b\xc4\xd5\xbf\xdd\x99L\x97\x93\xed\xc5?8\xb9\x0e\xf8\x1a\x98\xc1?bKzE\xd3\xca&\xbf\x81}O\xdd\xffen?\x9aq+\n\xc5\xca\xe0?G\xe7\x8bR\x8a\xb8\xe3\xbfy(\x89\x80\xffP\xbf?o\xdd\x80\xef\x19(\xc5?\xe0gV\xf1\xd63\xd0\xbf\x03\x13\x18\n\x1eM\xd9?\xbf\xcfB\xbb\x13P\xaf\xbf\xfe\n\xb2*v{\x93\xbf\x90\x9d\xf5\xe4\xcaW\xd2?\xfe\x1c%[\xd2\xd7\xbd?\x9c9P\xc8?A\xd8\xbf\xff\xc5\x9e\xe5\xbeN\xd1\xbf\x12\x08\xda\xa26\xe5\xbc?\xa4\xa6\xdf\xe8\xeb\x1c\xb8?\xae\x9e\xc9`\x05\xa4\xa0\xbf\x87\x14\xccM\x1d\x16\xcc?\xf7D\x19\xd5\x96\x9e\xd8?\xc6k\xac!\xa4I\x86?39\xa4#\xf7\xf1\xc6\xbf`?a!\xd2\xe3\xd8\xbf\xe9\xc6gS4\x1e\xab?\xb5\xf4\xffMI\xe7\xd7?\xe9?\xc9\xde\x03|\xcd\xbf\xa3FHp\xa2\xa5\xc3?+\xa2\xcd\xbe\x8d3\x91?L\x0e~\xccD\xd0\x86?\xac\x0bZi\xfc\xc0\x94\xbfnR\xec\xa7k\x9c\xb3?\x81\x12\xe5P\xff\x1a\xbd\xbf\xafy\xc4\x07)\xab\xbc\xbf\xa3\x02\x8d\xeb\x16\xc5\xd8?\xc2Q\xb7\xb19v\x94?\x88\xeb\xf5\xe6D\xe1\xc8?\xf9\xd1IM[\x8e\xd5?\xaf\xbf\xa2\x1a\xec\xfb\xa4\xbf^\xe1K\xdeg\xdb\xc5?\xa0\x19%\xac\x12\xb3\xd3\xbf\xce\x9b\xff\xcc\x0fa\x83?\xe3V\x0e\x91\xa4\xbbd?V\xcfy\xebn\xf1\xca?r\xef\x07\xb1NW\xb8\xbf\x1do\xfa\xdb`\xe8\xad?\xd3\xdfx_\x0e\x12\xbb\xbf\xf5d\x97p"d\xba?X\xe4\x89\xdd\xf3\x8d\xbd\xbf\xf7\xb9uv\xcd\x97\x99?\xbd,\nxB<\xc9\xbf<8\xa4-o\x10\xb2\xbf\x88/\n\xbd\xeah\xa8?%\xae\xe6\xa0q\x7f\xc3\xbfb]\\F\xea_\xcc\xbf\x98,\xab\xbd\x15\xc4\xb3?K07m\x8d}\xb9?\xfc\xe4x\x9b\xc0\xd9\xa2?jI\xc9@\n\x82\x16?\x94\x0by\x05\xa7U\xa9\xbf\x8ei\t\xd83t\xcc\xbfx\xe5h\x05\xd2\xbc\xc3\xbf\x83\xfe\x0f\x8d\xc0\xd3\x87?\x98\x81l\x99\x18\xd3\xdc\xbf\x02\xc8m\xc2\x0b\x96\xc3?\x9a\xf1x\xbe\x01U\xd1?\xa5\x91\xe1 3-\xb2?\xe1A\xe4\xa9\x1f\xad\xcd?\x17\xb6\xc8\xe9\xb4\xf3\xd2?\xf4q+\x01Pl+\xbf:>\n\x06j\xca\xad?9\xf0L\xdf]6\xa2\xbf\x91\xf8\xcc\xee\xe3r\xa0\xbf\x13\xa1E8\x01\x1b\xd0\xbf\x06k\x11\x14y\x04\xd4?E\x80\x8f\xcc(q\xb7\xbf\x17\xe7\xbdF\x04\x81\xc6\xbfBJ9\xc2\x8b(\xc3?\xb7\xcaB\xba\xeb\r\xc7?\xe1\xbf\xd4\xf9\xf3L\xb1\xbf\xbc\xcaAKU\xc1\xc3?U\x91B\x03d\x18\xa9\xbf[6\x10\xc7\x8c\xa8\xdd\xbf^D\x8d,\xb9\xbb\xc1?\xbfi?\x12bn\xa9\xbf\x9e\xb8\xe9\xa1\x9c~\xab?0\xd2\xd5\xb2\x8e\x91\xe0\xbf\xe0\xfd\xa7{\x01\xf0\xd1\xbfw\xefe4\xc8\xf7\x9d?\x9d\x16\xce\x94y3\xb5\xbf\x8b\xf5,o\xed=\x8d?A3\xd7\xbe\x9e\x98\xb9\xbf\xc6\x93\xa3\x08\xd3\x94\xcd?\xce\x84\xff\xb7Ab\xd0\xbf\tk\xd3\xef\x891\xcb\xbf\xe5t\xfe1\xb7%\xbd\xbf\xad\xe7\xd2{\xdd\x9f\xc9?6\xf6Q\x15\x90N\xb8\xbfG\xe7\x90i\x10\xd2\xcc\xbf\x8e\x1e}\xceG\xf9\x94\xbf\x8e\x1e}\xceG\xf9\x94\xbf\xe3\xf2\xc7o\x97\x98\xd8\xbf\xdc\xb0\xbb\xec\xf4\xc8\xc0\xbf\xbf\xe8\x9f@\x92\xac\xde?\xb1\x81U\xb8sR\xc9?\xc8wJk\x17\x00\xcd?\x87\x8f\xac\xf0\xb0\xf2\xd1?\xfc\xa52\xd6k\xfb\xca?\x01b\x05\xd4\x93\xb2\xcc?\xfe^\xba\xac\xaf\x1f\xc8?@vVKDZ\xbd?5\xc4\xa8\xdeb\xef\xda?X\xbe\xe1\x8e\xe9\xe4\xd4\xbf\x1d\xa8V\xdc81\xd2\xbf\x0f\t?\x7f\x927\xd2\xbf\x8b\xd2o\xf0\xc1[\xcf\xbf/\xe3\x06\xcf]\x13\xc8\xbf\n\xb4\x04\x86\x9a8\xd2\xbf\xf2\xb5\xb1\xceWp\xd1?WQ]\xc3\x1dE\xc3?\x18)>\x01\x15#M\xbf\x00\x05\xc3\xc5\x0f.\xd9?\xd6\xc2\xf4\xfc-\xdf\xcf\xbf\xfb\xdf&v\xd6B\xdc?\xdf,\x19\xdc\xd0\xf5\xa6\xbf\xd4\xaa\xfd~\xf7\xb7\xcb\xbf\x96Wa\xb0*\x8a\xcf\xbf\xbe\xee\xaa\xbf\x96\x02\xbc\xbf\x0f\t?\x7f\x927\xd2\xbf:\x99\xcd\x8b<\xf5\xe0?~\x16\xfb/\xa5.\xd0\xbf\xa3\xf3};9\x1a\x88?\x8fH\x152\xa6Z\xe0\xbfI\xdf\x08\xea.2\xb6\xbf\xaa5\x13\x04}^\xbf\xbf]&\xd3\x03\x1a*\xad\xbf\x04\xcd\x8b\xc09\x18\xc1\xbf\xb3\xc1\xc4\xa1\x06\xbb\xce?\xc5\x04\x9c\ng\x8e\xda\xbf`I\xc1\xce2\x8d\xc0?\x87Y\x874\xd2\xd5\xd6\xbf\xb2\xcej\x15j\xe3\xb4?:\xa7h\x99P\xa1|\xbfEB\x8ac\xe9\x9f\xc6?\xf9\xb0\x10\xfe\x81\xf8\xcb?\x113\xab\xaet\x8f\xc8?\xda2\xc7N\x86\x05\xaa\xbf\x1eJ\x89\x8e\xd5r\xb0?.D\xcf\x96\xfa\xc9\xcf\xbf`\xca\xa8\x16\xbc\xfc\xd5?\xa05s@\xd5_\xd2\xbfs\x85\x865BY\xe4\xbf]&\xd3\x03\x1a*\xad\xbfb7\x17\xd7\xc4#\xcd?\x07\x1d!\xea\xf9\xd4\xc8?\x0e\xc8\xea\x01\xee\xc9\xcf?~F0\x96x\xc2\xad\xbf\xb0\x14\xdf\xfc\xf34\xd8?R%\xeap%g\xa8\xbf\xf8\xc5\xbbL\xfe`\xab\xbf(\xd1\xcc\x05\xe95\xd0?m\xed\xd5\xd4\xfd\xbc\xe2\xbf\xdd\x8a\x0e\xa3\x0e \xd2?\xb9E\x98\xa8*\x82\xd8?\xa3\xd2#\t\xe1a\xc7?D\x8aU\xc1F\xb4\xd5?z\x89\xe8/\x083\xe0?\xce\x84\xff\xb7Ab\xe0\xbf\xaf\xd3\x7f\xff\x83\x1f\x9f?t\x9f\xe8\xdc=w\xb0\xbf\xb8\x1f6&\x96K\xae\xbfD\xffYK\t\xca\xbf\xbf\xe2\x85\\\xc4\xc7\xfa\xc8?\x88c\xec\x0f\xfe\x03\xe2?b\xddD2I\xc6\xb2?z\xeb~*\x90\x95\xb6\xbf\xab1\xcd\xc5Y\x9a\xc3?\xcc\x9bX\xbfc\xdf\xc6\xbfq\xe8(\x06\x16\xff\xe9\xbf\xee\x94W\xf8\xb2\xda\xd5\xbf\x1f\xe1\xb0a~\xf7\xd6\xbfA`,\xad\xfeX\xb6\xbfi\xac\xc0\xfb\x1d\xf1\x97\xbfR\x94\xc3\x90\xcfz\xcf\xbf\x91\x87>\xb3?n\xb2\xbf\x10\xe5/Lh6\xa7\xbf\x02\x0f JJ#\xe1?A\x93\xf4\xb8\xba\xf6\xd0?\x99sL\'\xd6y\xb6?\xd0\xe8n<\x93\x1a\xa4?PW>)}4\xd0?\x1f`V\xc3\xb4\xf6\xc4?\xfd\t\xb5S\x11\xc7\xe7\xbf2\x05\x8d\xde\xc6\xce\xa7\xbf\x97\x95\xb1\x93\xc6\xf9\xe0\xbf\xa2>\x13\r\x07\xbc\xe7?.D\xcf\x96\xfa\xc9\xcf\xbf\x90\xe8\x1a\xe6\xa3H\xcb?\xf3\xd2\xf3\x1a1\xc3\xd7\xbf\x16x\x1f\x13E\xb3\xac\xbfS\xca\x07\x8d4\x03\xce?\x1f\x1b\xce\xce\x88\r\xd9\xbf\x0e\xb6\xc0u\xb0\xc3\xb0\xbf\xbav\x0e\x9b\xef\xf4\xbc?\x0cH\xae-\xba0\xe0\xbf\xef\xae\x05\n\xdb\x04\xd4?\x93\xb4\x17\xe5\xf3\xf6\xbc\xbfp\xbf\x80fo\x18\xb5?\x18\xc4\xc0k\x89\x9b\xc0?5\\\x99/\x82\xaf\xca\xbf\xf4"\xaa~\xc9 \xdc?\x98\xaag\xd9\xac\x8f\xb9?\x18)>\x01\x15#M\xbf\xc6K:\x83\xc4\xe8\xc3?\xb46\xf1\xd1\xfa\xa5\xc4\xbfh\xfb\xf1\xde9[\xc3?\x00\x00\xf4\x82\xf0\x15\xcc\xbf\x83\x85\xc1\xbaY\n\xc9\xbf\x10\xf22\xf1K\xc7\xde?x\xd8\xe1H\x16P\xd1?'
tbsS'intercept_'
p1386
g1368
(g1369
(I0
tS'b'
tRp1387
(I1
(I1
tg1385
I00
S'\x88TX\xa6\xc8\xc1\xe1\xbf'
tbsS'class_weight'
p1388
NsbssS'version'
p1389
S'0.0.2-SNAPSHOT'
p1390
sS'_segments'
p1391
(dp1392
g8
I96
ssS'_feature_model'
p1393
g1
(ccloudml.trainer.config
FeatureModel
p1394
g3
NtRp1395
(dp1396
S'features'
p1397
ccollections
OrderedDict
p1398
((lp1399
(lp1400
Vcontractor.dev_active_interviews
p1401
a(dp1402
S'transformer'
p1403
Nsg21
g1401
sS'scaler'
p1404
g1
(csklearn.preprocessing.data
MinMaxScaler
p1405
g3
NtRp1406
(dp1407
S'copy'
p1408
I01
sS'feature_range'
p1409
(I0
I1
tp1410
sbsg8
NsS'required'
p1411
I01
sS'input-format'
p1412
S'plain'
p1413
sS'transformer-type'
p1414
NsS'type'
p1415
g1
(ccloudml.trainer.feature_types.primitive_types
PrimitiveFeatureTypeInstance
p1416
g3
NtRp1417
(dp1418
S'_default_params'
p1419
(lp1420
sS'python_type'
p1421
S'int'
p1422
sS'_default_value'
p1423
NsS'preprocessor'
p1424
NsS'default_scaler'
p1425
S'MinMaxScaler'
p1426
sS'_params'
p1427
Nsbsaa(lp1428
Vcontractor.dev_adj_score
p1429
a(dp1430
g1403
Nsg21
g1429
sg1404
g1
(g1405
g3
NtRp1431
(dp1432
g1408
I01
sg1409
(I0
I1
tp1433
sbsg8
Nsg1411
I01
sg1412
g1413
sg1414
Nsg1415
g1
(g1416
g3
NtRp1434
(dp1435
g1419
g1420
sg1421
S'float'
p1436
sg1423
Nsg1424
Nsg1425
g1426
sg1427
Nsbsaa(lp1437
Vcontractor.dev_adj_score_recent
p1438
a(dp1439
g1403
Nsg21
g1438
sg1404
g1
(g1405
g3
NtRp1440
(dp1441
g1408
I01
sg1409
(I0
I1
tp1442
sbsg8
Nsg1411
I01
sg1412
g1413
sg1414
Nsg1415
g1
(g1416
g3
NtRp1443
(dp1444
g1419
g1420
sg1421
g1436
sg1423
Nsg1424
Nsg1425
g1426
sg1427
Nsbsaa(lp1445
Vcontractor.dev_availability
p1446
a(dp1447
g1403
Nsg21
g1446
sg1404
g1
(g1405
g3
NtRp1448
(dp1449
g1408
I01
sg1409
(I0
I1
tp1450
sbsg8
Nsg1411
I01
sg1412
g1413
sg1414
Nsg1415
g1
(g1416
g3
NtRp1451
(dp1452
g1419
g1420
sg1421
g1422
sg1423
Nsg1424
Nsg1425
g1426
sg1427
Nsbsaa(lp1453
Vcontractor.dev_billed_assignments
p1454
a(dp1455
g1403
Nsg21
g1454
sg1404
g1
(g1405
g3
NtRp1456
(dp1457
g1408
I01
sg1409
(I0
I1
tp1458
sbsg8
Nsg1411
I01
sg1412
g1413
sg1414
Nsg1415
g1
(g1416
g3
NtRp1459
(dp1460
g1419
g1420
sg1421
g1422
sg1423
Nsg1424
Nsg1425
g1426
sg1427
Nsbsaa(lp1461
Vcontractor.dev_bill_rate
p1462
a(dp1463
g1403
Nsg21
g1462
sg1404
g1
(g1405
g3
NtRp1464
(dp1465
g1408
I01
sg1409
(I0
I1
tp1466
sbsg8
Nsg1411
I01
sg1412
g1413
sg1414
Nsg1415
g1
(g1416
g3
NtRp1467
(dp1468
g1419
g1420
sg1421
g1436
sg1423
Nsg1424
Nsg1425
g1426
sg1427
Nsbsaa(lp1469
Vcontractor.dev_blurb
p1470
a(dp1471
g1403
g1
(csklearn.feature_extraction.text
TfidfVectorizer
p1472
g3
NtRp1473
(dp1474
S'decode_error'
p1475
Vstrict
p1476
sS'lowercase'
p1477
I01
sS'stop_words'
p1478
NsS'vocabulary'
p1479
NsS'tokenizer'
p1480
NsS'encoding'
p1481
Vutf-8
p1482
sS'token_pattern'
p1483
V(?u)\u005cb\u005cw\u005cw+\u005cb
p1484
sS'analyzer'
p1485
Vword
p1486
sS'binary'
p1487
I00
sS'ngram_range'
p1488
(I1
I1
tp1489
sg1424
NsS'max_df'
p1490
F1
sS'min_df'
p1491
I10
sS'max_features'
p1492
NsS'input'
p1493
Vcontent
p1494
sS'_tfidf'
p1495
g1
(csklearn.feature_extraction.text
TfidfTransformer
p1496
g3
NtRp1497
(dp1498
S'use_idf'
p1499
I01
sS'smooth_idf'
p1500
I01
sS'sublinear_tf'
p1501
I00
sS'norm'
p1502
Vl2
p1503
sbsS'dtype'
p1504
cnumpy
int64
p1505
sS'strip_accents'
p1506
Nsbsg21
g1470
sg1404
g1
(g1405
g3
NtRp1507
(dp1508
g1408
I01
sg1409
(I0
I1
tp1509
sbsg8
Nsg1411
I01
sg1412
g1413
sg1414
VTfidf
p1510
sg1415
g1
(g1416
g3
NtRp1511
(dp1512
g1419
g1420
sg1421
S'str'
p1513
sg1423
Nsg1424
Nsg1425
g1426
sg1427
Nsbsaa(lp1514
Vcontractor.dev_cur_assignments
p1515
a(dp1516
g1403
Nsg21
g1515
sg1404
g1
(g1405
g3
NtRp1517
(dp1518
g1408
I01
sg1409
(I0
I1
tp1519
sbsg8
Nsg1411
I01
sg1412
g1413
sg1414
Nsg1415
g1
(g1416
g3
NtRp1520
(dp1521
g1419
g1420
sg1421
g1422
sg1423
Nsg1424
Nsg1425
g1426
sg1427
Nsbsaa(lp1522
Vcontractor.dev_eng_skill
p1523
a(dp1524
g1403
Nsg21
g1523
sg1404
g1
(g1405
g3
NtRp1525
(dp1526
g1408
I01
sg1409
(I0
I1
tp1527
sbsg8
Nsg1411
I01
sg1412
g1413
sg1414
Nsg1415
g1
(g1416
g3
NtRp1528
(dp1529
g1419
g1420
sg1421
g1422
sg1423
Nsg1424
Nsg1425
g1426
sg1427
Nsbsaa(lp1530
Vcontractor.dev_expose_full_name
p1531
a(dp1532
g1403
Nsg21
g1531
sg1404
g1
(g1405
g3
NtRp1533
(dp1534
g1408
I01
sg1409
(I0
I1
tp1535
sbsg8
Nsg1411
I01
sg1412
g1413
sg1414
Nsg1415
g1
(g1416
g3
NtRp1536
(dp1537
g1419
g1420
sg1421
g1436
sg1423
Nsg1424
Nsg1425
g1426
sg1427
Nsbsaa(lp1538
Vcontractor.dev_is_looking
p1539
a(dp1540
g1403
Nsg21
g1539
sg1404
g1
(g1405
g3
NtRp1541
(dp1542
g1408
I01
sg1409
(I0
I1
tp1543
sbsg8
Nsg1411
I01
sg1412
g1413
sg1414
Nsg1415
g1
(g1416
g3
NtRp1544
(dp1545
g1419
g1420
sg1421
S'bool'
p1546
sg1423
Nsg1424
Nsg1425
g1426
sg1427
Nsbsaa(lp1547
Vcontractor.dev_is_looking_week
p1548
a(dp1549
g1403
Nsg21
g1548
sg1404
g1
(g1405
g3
NtRp1550
(dp1551
g1408
I01
sg1409
(I0
I1
tp1552
sbsg8
Nsg1411
I01
sg1412
g1413
sg1414
Nsg1415
g1
(g1416
g3
NtRp1553
(dp1554
g1419
g1420
sg1421
g1546
sg1423
Nsg1424
Nsg1425
g1426
sg1427
Nsbsaa(lp1555
Vcontractor.dev_last_worked
p1556
a(dp1557
g1403
Nsg21
g1556
sg1404
g1
(g1405
g3
NtRp1558
(dp1559
g1408
I01
sg1409
(I0
I1
tp1560
sbsg8
I946684800
sg1411
I01
sg1412
g1413
sg1414
Nsg1415
g1
(ccloudml.trainer.feature_types.date
DateFeatureTypeInstance
p1561
g3
NtRp1562
(dp1563
g1425
g1426
sg1419
g1420
sg1424
Nsg1423
I946684800
sg1427
(dp1564
Vpattern
p1565
V%B %d, %Y
p1566
ssbsaa(lp1567
Vcontractor.dev_portfolio_items_count
p1568
a(dp1569
g1403
Nsg21
g1568
sg1404
g1
(g1405
g3
NtRp1570
(dp1571
g1408
I01
sg1409
(I0
I1
tp1572
sbsg8
Nsg1411
I01
sg1412
g1413
sg1414
Nsg1415
g1
(g1416
g3
NtRp1573
(dp1574
g1419
g1420
sg1421
g1422
sg1423
Nsg1424
Nsg1425
g1426
sg1427
Nsbsaa(lp1575
Vcontractor.dev_profile_title
p1576
a(dp1577
g1403
g1
(g1472
g3
NtRp1578
(dp1579
g1475
g1476
sg1477
I01
sg1478
Nsg1479
Nsg1480
Nsg1481
g1482
sg1483
g1484
sg1485
g1486
sg1487
I00
sg1488
(I1
I1
tp1580
sg1424
Nsg1490
F1
sg1491
I3
sg1492
Nsg1493
g1494
sg1495
g1
(g1496
g3
NtRp1581
(dp1582
g1499
I01
sg1500
I01
sg1501
I00
sg1502
g1503
sbsg1504
g1505
sg1506
Nsbsg21
g1576
sg1404
g1
(g1405
g3
NtRp1583
(dp1584
g1408
I01
sg1409
(I0
I1
tp1585
sbsg8
Nsg1411
I01
sg1412
g1413
sg1414
VTfidf
p1586
sg1415
g1
(g1416
g3
NtRp1587
(dp1588
g1419
g1420
sg1421
g1513
sg1423
Nsg1424
Nsg1425
g1426
sg1427
Nsbsaa(lp1589
Vcontractor.dev_rank_percentile
p1590
a(dp1591
g1403
Nsg21
g1590
sg1404
g1
(g1405
g3
NtRp1592
(dp1593
g1408
I01
sg1409
(I0
I1
tp1594
sbsg8
Nsg1411
I01
sg1412
g1413
sg1414
Nsg1415
g1
(g1416
g3
NtRp1595
(dp1596
g1419
g1420
sg1421
g1436
sg1423
Nsg1424
Nsg1425
g1426
sg1427
Nsbsaa(lp1597
Vcontractor.dev_recent_fp_jobs
p1598
a(dp1599
g1403
Nsg21
g1598
sg1404
g1
(g1405
g3
NtRp1600
(dp1601
g1408
I01
sg1409
(I0
I1
tp1602
sbsg8
Nsg1411
I01
sg1412
g1413
sg1414
Nsg1415
g1
(g1416
g3
NtRp1603
(dp1604
g1419
g1420
sg1421
g1422
sg1423
Nsg1424
Nsg1425
g1426
sg1427
Nsbsaa(lp1605
Vcontractor.dev_recent_hourly_jobs
p1606
a(dp1607
g1403
Nsg21
g1606
sg1404
g1
(g1405
g3
NtRp1608
(dp1609
g1408
I01
sg1409
(I0
I1
tp1610
sbsg8
Nsg1411
I01
sg1412
g1413
sg1414
Nsg1415
g1
(g1416
g3
NtRp1611
(dp1612
g1419
g1420
sg1421
g1422
sg1423
Nsg1424
Nsg1425
g1426
sg1427
Nsbsaa(lp1613
Vcontractor.dev_recent_hours
p1614
a(dp1615
g1403
Nsg21
g1614
sg1404
g1
(g1405
g3
NtRp1616
(dp1617
g1408
I01
sg1409
(I0
I1
tp1618
sbsg8
Nsg1411
I01
sg1412
g1413
sg1414
Nsg1415
g1
(g1416
g3
NtRp1619
(dp1620
g1419
g1420
sg1421
g1422
sg1423
Nsg1424
Nsg1425
g1426
sg1427
Nsbsaa(lp1621
Vcontractor.dev_recent_rank_percentile
p1622
a(dp1623
g1403
Nsg21
g1622
sg1404
g1
(g1405
g3
NtRp1624
(dp1625
g1408
I01
sg1409
(I0
I1
tp1626
sbsg8
Nsg1411
I01
sg1412
g1413
sg1414
Nsg1415
g1
(g1416
g3
NtRp1627
(dp1628
g1419
g1420
sg1421
g1436
sg1423
Nsg1424
Nsg1425
g1426
sg1427
Nsbsaa(lp1629
Vcontractor.dev_skill_test_passed_count
p1630
a(dp1631
g1403
Nsg21
g1630
sg1404
g1
(g1405
g3
NtRp1632
(dp1633
g1408
I01
sg1409
(I0
I1
tp1634
sbsg8
Nsg1411
I01
sg1412
g1413
sg1414
Nsg1415
g1
(g1416
g3
NtRp1635
(dp1636
g1419
g1420
sg1421
g1422
sg1423
Nsg1424
Nsg1425
g1426
sg1427
Nsbsaa(lp1637
Vcontractor.dev_test_passed_count
p1638
a(dp1639
g1403
Nsg21
g1638
sg1404
g1
(g1405
g3
NtRp1640
(dp1641
g1408
I01
sg1409
(I0
I1
tp1642
sbsg8
Nsg1411
I01
sg1412
g1413
sg1414
Nsg1415
g1
(g1416
g3
NtRp1643
(dp1644
g1419
g1420
sg1421
g1422
sg1423
Nsg1424
Nsg1425
g1426
sg1427
Nsbsaa(lp1645
Vcontractor.dev_timezone
p1646
a(dp1647
g1403
Nsg21
g1646
sg1404
Nsg8
Nsg1411
I01
sg1412
g1413
sg1414
Nsg1415
g1
(ccloudml.trainer.feature_types.composite
CompositeFeatureTypeInstance
p1648
g3
NtRp1649
(dp1650
g1419
Nsg1423
Nsg1424
Nsg1425
NsS'strategies'
p1651
(lp1652
g1
(ccloudml.trainer.feature_types.regex
RegexFeatureTypeInstance
p1653
g3
NtRp1654
(dp1655
g1425
g1426
sg1419
g1420
sg1424
Nsg1423
Nsg1427
(dp1656
Vpattern
p1657
VUTC([-\u005c+]+\u005cd\u005cd).*
p1658
ssbag1
(g1416
g3
NtRp1659
(dp1660
g1419
g1420
sg1421
g1422
sg1423
Nsg1424
Nsg1425
g1426
sg1427
Nsbasg1427
Nsbsaa(lp1661
Vcontractor.dev_total_hourly_jobs
p1662
a(dp1663
g1403
Nsg21
g1662
sg1404
g1
(g1405
g3
NtRp1664
(dp1665
g1408
I01
sg1409
(I0
I1
tp1666
sbsg8
Nsg1411
I01
sg1412
g1413
sg1414
Nsg1415
g1
(g1416
g3
NtRp1667
(dp1668
g1419
g1420
sg1421
g1422
sg1423
Nsg1424
Nsg1425
g1426
sg1427
Nsbsaa(lp1669
Vcontractor.dev_total_hours_rounded
p1670
a(dp1671
g1403
Nsg21
g1670
sg1404
g1
(g1405
g3
NtRp1672
(dp1673
g1408
I01
sg1409
(I0
I1
tp1674
sbsg8
Nsg1411
I01
sg1412
g1413
sg1414
Nsg1415
g1
(g1416
g3
NtRp1675
(dp1676
g1419
g1420
sg1421
g1422
sg1423
Nsg1424
Nsg1425
g1426
sg1427
Nsbsaa(lp1677
Vcontractor.dev_total_revenue
p1678
a(dp1679
g1403
Nsg21
g1678
sg1404
g1
(g1405
g3
NtRp1680
(dp1681
g1408
I01
sg1409
(I0
I1
tp1682
sbsg8
Nsg1411
I01
sg1412
g1413
sg1414
Nsg1415
g1
(g1416
g3
NtRp1683
(dp1684
g1419
g1420
sg1421
g1436
sg1423
Nsg1424
Nsg1425
g1426
sg1427
Nsbsaa(lp1685
Vcontractor.dev_tot_feedback
p1686
a(dp1687
g1403
Nsg21
g1686
sg1404
g1
(g1405
g3
NtRp1688
(dp1689
g1408
I01
sg1409
(I0
I1
tp1690
sbsg8
Nsg1411
I01
sg1412
g1413
sg1414
Nsg1415
g1
(g1416
g3
NtRp1691
(dp1692
g1419
g1420
sg1421
g1422
sg1423
Nsg1424
Nsg1425
g1426
sg1427
Nsbsaa(lp1693
Vcontractor.dev_tot_feedback_recent
p1694
a(dp1695
g1403
Nsg21
g1694
sg1404
g1
(g1405
g3
NtRp1696
(dp1697
g1408
I01
sg1409
(I0
I1
tp1698
sbsg8
Nsg1411
I01
sg1412
g1413
sg1414
Nsg1415
g1
(g1416
g3
NtRp1699
(dp1700
g1419
g1420
sg1421
g1422
sg1423
Nsg1424
Nsg1425
g1426
sg1427
Nsbsaa(lp1701
Vcontractor.dev_year_exp
p1702
a(dp1703
g1403
Nsg21
g1702
sg1404
g1
(g1405
g3
NtRp1704
(dp1705
g1408
I01
sg1409
(I0
I1
tp1706
sbsg8
Nsg1411
I01
sg1412
g1413
sg1414
Nsg1415
g1
(g1416
g3
NtRp1707
(dp1708
g1419
g1420
sg1421
g1422
sg1423
Nsg1424
Nsg1425
g1426
sg1427
Nsbsaa(lp1709
Vcountry_pair
p1710
a(dp1711
g1403
Nsg21
g1710
sg1404
Nsg8
Nsg1411
I01
sg1412
g1413
sg1414
Nsg1415
g1
(ccloudml.trainer.feature_types.categorical
CategoricalFeatureTypeInstance
p1712
g3
NtRp1713
(dp1714
g1425
Nsg1419
g1420
sg1424
g1
(csklearn.feature_extraction.text
CountVectorizer
p1715
g3
NtRp1716
(dp1717
g1475
Vstrict
p1718
sg1477
I01
sg1478
Nsg1479
Nsg1480
Nsg1481
Vutf-8
p1719
sg1483
S'.+'
p1720
sg1485
Vword
p1721
sg1487
I01
sg1488
(I1
I1
tp1722
sg1424
Nsg1490
F1
sg1491
I0
sg1492
Nsg1493
Vcontent
p1723
sg1504
g1505
sg1506
Nsbsg1423
Nsg1427
Nsbsaa(lp1724
Vemployer.op_country_tz
p1725
a(dp1726
g1403
Nsg21
g1725
sg1404
Nsg8
Nsg1411
I01
sg1412
g1413
sg1414
Nsg1415
g1649
saa(lp1727
Vemployer.op_timezone
p1728
a(dp1729
g1403
Nsg21
g1728
sg1404
Nsg8
Nsg1411
I01
sg1412
g1413
sg1414
Nsg1415
g1649
saa(lp1730
Vemployer.op_tot_jobs_filled
p1731
a(dp1732
g1403
Nsg21
g1731
sg1404
g1
(g1405
g3
NtRp1733
(dp1734
g1408
I01
sg1409
(I0
I1
tp1735
sbsg8
Nsg1411
I01
sg1412
g1413
sg1414
Nsg1415
g1
(g1416
g3
NtRp1736
(dp1737
g1419
g1420
sg1421
g1422
sg1423
Nsg1424
Nsg1425
g1426
sg1427
Nsbsaa(lp1738
Vhire_outcome
p1739
a(dp1740
g1403
Nsg21
g1739
sg1404
g1
(g1405
g3
NtRp1741
(dp1742
g1408
I01
sg1409
(I0
I1
tp1743
sbsg8
Nsg1411
I01
sg1412
g1413
sg1414
Nsg1415
g1
(ccloudml.trainer.feature_types.ordinal
OrdinalFeatureTypeInstance
p1744
g3
NtRp1745
(dp1746
g1425
g1426
sg1419
g1420
sg1424
Nsg1423
Nsg1427
(dp1747
Vmappings
p1748
(dp1749
Vclass2
p1750
I0
sVclass1
p1751
I1
sssbsaa(lp1752
g1113
a(dp1753
g1403
Nsg21
g1113
sg1404
g1
(g1405
g3
NtRp1754
(dp1755
g1408
I01
sg1409
(I0
I1
tp1756
sbsg8
Nsg1411
I01
sg1412
g1413
sg1414
Nsg1415
g1
(g1416
g3
NtRp1757
(dp1758
g1419
g1420
sg1421
g1422
sg1423
Nsg1424
Nsg1425
g1426
sg1427
Nsbsaa(lp1759
Vtsexams
p1760
a(dp1761
g1403
Nsg21
g1760
sg1404
g1
(g1405
g3
NtRp1762
(dp1763
g1408
I01
sg1409
(I0
I1
tp1764
sbsg8
F0.33000000000000002
sg1411
I01
sg1412
Vdict
p1765
sg1414
Nsg1415
g1
(g1416
g3
NtRp1766
(dp1767
g1419
g1420
sg1421
g1436
sg1423
Nsg1424
g1
(csklearn.feature_extraction.dict_vectorizer
DictVectorizer
p1768
g3
NtRp1769
(dp1770
S'sort'
p1771
I01
sg1504
cnumpy
float64
p1772
sS'separator'
p1773
S'='
sS'sparse'
p1774
I01
sbsg1425
g1426
sg1427
NsbsaatRp1775
sS'required_feature_names'
p1776
(lp1777
g1401
ag1429
ag1438
ag1446
ag1454
ag1462
ag1470
ag1515
ag1523
ag1531
ag1539
ag1548
ag1556
ag1568
ag1576
ag1590
ag1598
ag1606
ag1614
ag1622
ag1630
ag1638
ag1646
ag1662
ag1670
ag1678
ag1686
ag1694
ag1702
ag1710
ag1725
ag1728
ag1731
ag1739
ag1113
ag1760
asS'feature_names'
p1778
(lp1779
g1401
ag1429
ag1438
ag1446
ag1454
ag1462
ag1470
ag1515
ag1523
ag1531
ag1539
ag1548
ag1556
ag1568
ag1576
ag1590
ag1598
ag1606
ag1614
ag1622
ag1630
ag1638
ag1646
ag1662
ag1670
ag1678
ag1686
ag1694
ag1702
ag1710
ag1725
ag1728
ag1731
ag1739
ag1113
ag1760
asS'group_by'
p1780
(lp1781
sS'classifier_type'
p1782
g1356
sS'schema_name'
p1783
Vbestmatch
p1784
sS'_named_feature_types'
p1785
(dp1786
Vstr_to_timezone
p1787
g1649
ssS'classifier_cls'
p1788
g1359
sS'target_variable'
p1789
g1739
sS'classifier'
p1790
(dp1791
S'penalty'
p1792
g1377
ssbsS'_features'
p1793
(dp1794
g8
g1398
((lp1795
(lp1796
g1401
a(dp1797
g1403
NsS'imputer'
p1798
g1
(csklearn.preprocessing.imputation
Imputer
p1799
g3
NtRp1800
(dp1801
g1363
I0
sS'missing_values'
p1802
S'NaN'
p1803
sS'strategy'
p1804
S'median'
p1805
sS'statistics_'
p1806
g1368
(g1369
(I0
tS'b'
tRp1807
(I1
(I1
tg1385
I00
S'\x00\x00\x00\x00\x00\x00\xf0?'
tbsg1408
I01
sS'axis'
p1808
I0
sbsg21
g1401
sg1404
g1
(g1405
g3
NtRp1809
(dp1810
g1409
g1410
sS'scale_'
p1811
g1368
(g1369
(I0
tS'b'
tRp1812
(I1
(I1
tg1385
I00
S'\x00\x00\x00\x00\x00\x00\xc0?'
tbsS'data_range'
p1813
g1368
(g1369
(I0
tS'b'
tRp1814
(I1
(I1
tg1385
I00
S'\x00\x00\x00\x00\x00\x00 @'
tbsS'data_min'
p1815
g1368
(g1369
(I0
tS'b'
tRp1816
(I1
(I1
tg1385
I00
S'\x00\x00\x00\x00\x00\x00\x00\x00'
tbsS'min_'
p1817
g1368
(g1369
(I0
tS'b'
tRp1818
(I1
(I1
tg1385
I00
S'\x00\x00\x00\x00\x00\x00\x00\x00'
tbsg1408
I01
sbsg8
Nsg1411
I01
sg1412
g1413
sg1414
Nsg1415
g1
(g1416
g3
NtRp1819
(dp1820
g1419
(lp1821
sg1423
Nsg1421
g1422
sg1424
Nsg1425
g1426
sg1427
Nsbsaa(lp1822
g1429
a(dp1823
g1403
Nsg1798
g1
(g1799
g3
NtRp1824
(dp1825
g1363
I0
sg1802
g1803
sg1804
g1805
sg1806
g1368
(g1369
(I0
tS'b'
tRp1826
(I1
(I1
tg1385
I00
S'\xa8\x98\xa7\xbe\xef\xc4\x12@'
tbsg1408
I01
sg1808
I0
sbsg21
g1429
sg1404
g1
(g1405
g3
NtRp1827
(dp1828
g1409
g1433
sg1811
g1368
(g1369
(I0
tS'b'
tRp1829
(I1
(I1
tg1385
I00
S'\x9a\x99\x99\x99\x99\x99\xc9?'
tbsg1813
g1368
(g1369
(I0
tS'b'
tRp1830
(I1
(I1
tg1385
I00
S'\x00\x00\x00\x00\x00\x00\x14@'
tbsg1815
g1368
(g1369
(I0
tS'b'
tRp1831
(I1
(I1
tg1385
I00
S'\x00\x00\x00\x00\x00\x00\x00\x00'
tbsg1817
g1368
(g1369
(I0
tS'b'
tRp1832
(I1
(I1
tg1385
I00
S'\x00\x00\x00\x00\x00\x00\x00\x00'
tbsg1408
I01
sbsg8
Nsg1411
I01
sg1412
g1413
sg1414
Nsg1415
g1
(g1416
g3
NtRp1833
(dp1834
g1419
g1821
sg1423
Nsg1421
g1436
sg1424
Nsg1425
g1426
sg1427
Nsbsaa(lp1835
g1438
a(dp1836
g1403
Nsg1798
g1
(g1799
g3
NtRp1837
(dp1838
g1363
I0
sg1802
g1803
sg1804
g1805
sg1806
g1368
(g1369
(I0
tS'b'
tRp1839
(I1
(I1
tg1385
I00
S'\xa1\x8c%\x94\x0f\xa2\x12@'
tbsg1408
I01
sg1808
I0
sbsg21
g1438
sg1404
g1
(g1405
g3
NtRp1840
(dp1841
g1409
g1442
sg1811
g1368
(g1369
(I0
tS'b'
tRp1842
(I1
(I1
tg1385
I00
S'\x9a\x99\x99\x99\x99\x99\xc9?'
tbsg1813
g1368
(g1369
(I0
tS'b'
tRp1843
(I1
(I1
tg1385
I00
S'\x00\x00\x00\x00\x00\x00\x14@'
tbsg1815
g1368
(g1369
(I0
tS'b'
tRp1844
(I1
(I1
tg1385
I00
S'\x00\x00\x00\x00\x00\x00\x00\x00'
tbsg1817
g1368
(g1369
(I0
tS'b'
tRp1845
(I1
(I1
tg1385
I00
S'\x00\x00\x00\x00\x00\x00\x00\x00'
tbsg1408
I01
sbsg8
Nsg1411
I01
sg1412
g1413
sg1414
Nsg1415
g1
(g1416
g3
NtRp1846
(dp1847
g1419
g1821
sg1423
Nsg1421
g1436
sg1424
Nsg1425
g1426
sg1427
Nsbsaa(lp1848
g1446
a(dp1849
g1403
Nsg1798
g1
(g1799
g3
NtRp1850
(dp1851
g1363
I0
sg1802
g1803
sg1804
g1805
sg1806
g1368
(g1369
(I0
tS'b'
tRp1852
(I1
(I1
tg1385
I00
S'\x00\x00\x00\x00\x00\xc0B@'
tbsg1408
I01
sg1808
I0
sbsg21
g1446
sg1404
g1
(g1405
g3
NtRp1853
(dp1854
g1409
g1450
sg1811
g1368
(g1369
(I0
tS'b'
tRp1855
(I1
(I1
tg1385
I00
S'\x9a\x99\x99\x99\x99\x99\x99?'
tbsg1813
g1368
(g1369
(I0
tS'b'
tRp1856
(I1
(I1
tg1385
I00
S'\x00\x00\x00\x00\x00\x00D@'
tbsg1815
g1368
(g1369
(I0
tS'b'
tRp1857
(I1
(I1
tg1385
I00
S'\x00\x00\x00\x00\x00\x00\x00\x00'
tbsg1817
g1368
(g1369
(I0
tS'b'
tRp1858
(I1
(I1
tg1385
I00
S'\x00\x00\x00\x00\x00\x00\x00\x00'
tbsg1408
I01
sbsg8
Nsg1411
I01
sg1412
g1413
sg1414
Nsg1415
g1
(g1416
g3
NtRp1859
(dp1860
g1419
g1821
sg1423
Nsg1421
g1422
sg1424
Nsg1425
g1426
sg1427
Nsbsaa(lp1861
g1454
a(dp1862
g1403
Nsg1798
g1
(g1799
g3
NtRp1863
(dp1864
g1363
I0
sg1802
g1803
sg1804
g1805
sg1806
g1368
(g1369
(I0
tS'b'
tRp1865
(I1
(I1
tg1385
I00
S'\x00\x00\x00\x00\x00\x00\x1c@'
tbsg1408
I01
sg1808
I0
sbsg21
g1454
sg1404
g1
(g1405
g3
NtRp1866
(dp1867
g1409
g1458
sg1811
g1368
(g1369
(I0
tS'b'
tRp1868
(I1
(I1
tg1385
I00
S'ysB\x89\x06nq?'
tbsg1813
g1368
(g1369
(I0
tS'b'
tRp1869
(I1
(I1
tg1385
I00
S'\x00\x00\x00\x00\x00`m@'
tbsg1815
g1368
(g1369
(I0
tS'b'
tRp1870
(I1
(I1
tg1385
I00
S'\x00\x00\x00\x00\x00\x00\x00\x00'
tbsg1817
g1368
(g1369
(I0
tS'b'
tRp1871
(I1
(I1
tg1385
I00
S'\x00\x00\x00\x00\x00\x00\x00\x00'
tbsg1408
I01
sbsg8
Nsg1411
I01
sg1412
g1413
sg1414
Nsg1415
g1
(g1416
g3
NtRp1872
(dp1873
g1419
g1821
sg1423
Nsg1421
g1422
sg1424
Nsg1425
g1426
sg1427
Nsbsaa(lp1874
g1462
a(dp1875
g1403
Nsg1798
g1
(g1799
g3
NtRp1876
(dp1877
g1363
I0
sg1802
g1803
sg1804
g1805
sg1806
g1368
(g1369
(I0
tS'b'
tRp1878
(I1
(I1
tg1385
I00
S'\x90\xc2\xf5(\\\x8f\x19@'
tbsg1408
I01
sg1808
I0
sbsg21
g1462
sg1404
g1
(g1405
g3
NtRp1879
(dp1880
g1409
g1466
sg1811
g1368
(g1369
(I0
tS'b'
tRp1881
(I1
(I1
tg1385
I00
S'\xba0\x01C\xed\xb7\x8e?'
tbsg1813
g1368
(g1369
(I0
tS'b'
tRp1882
(I1
(I1
tg1385
I00
S'{\x14\xaeG\xe1\xaaP@'
tbsg1815
g1368
(g1369
(I0
tS'b'
tRp1883
(I1
(I1
tg1385
I00
S'\x00\x00\x00\x00\x00\x00\x00\x00'
tbsg1817
g1368
(g1369
(I0
tS'b'
tRp1884
(I1
(I1
tg1385
I00
S'\x00\x00\x00\x00\x00\x00\x00\x00'
tbsg1408
I01
sbsg8
Nsg1411
I01
sg1412
g1413
sg1414
Nsg1415
g1
(g1416
g3
NtRp1885
(dp1886
g1419
g1821
sg1423
Nsg1421
g1436
sg1424
Nsg1425
g1426
sg1427
Nsbsaa(lp1887
g1470
a(dp1888
g1403
g1
(g1472
g3
NtRp1889
(dp1890
g1475
g1476
sg1477
I01
sg1478
Nsg1480
Nsg1479
Nsg1481
g1482
sg1483
g1484
sg1490
F1
sS'fixed_vocabulary_'
p1891
I00
sg1485
g1486
sS'vocabulary_'
p1892
(dp1893
Vall
p1894
g17
(g1373
S'\x00\x00\x00\x00'
tRp1895
sVdeveloped
p1896
g17
(g1373
S'\x19\x00\x00\x00'
tRp1897
sVover
p1898
g17
(g1373
S'?\x00\x00\x00'
tRp1899
sVyears
p1900
g17
(g1373
S'c\x00\x00\x00'
tRp1901
sVcustomer
p1902
g17
(g1373
S'\x15\x00\x00\x00'
tRp1903
sVsolutions
p1904
g17
(g1373
S'J\x00\x00\x00'
tRp1905
sVmysql
p1906
g17
(g1373
S'5\x00\x00\x00'
tRp1907
sVweb
p1908
g17
(g1373
S'V\x00\x00\x00'
tRp1909
sVknowledge
p1910
g17
(g1373
S',\x00\x00\x00'
tRp1911
sVwriting
p1912
g17
(g1373
S'b\x00\x00\x00'
tRp1913
sVto
p1914
g17
(g1373
S'R\x00\x00\x00'
tRp1915
sVother
p1916
g17
(g1373
S'>\x00\x00\x00'
tRp1917
sVdo
p1918
g17
(g1373
S'\x1b\x00\x00\x00'
tRp1919
sVgood
p1920
g17
(g1373
S'$\x00\x00\x00'
tRp1921
sVvery
p1922
g17
(g1373
S'U\x00\x00\x00'
tRp1923
sVnot
p1924
g17
(g1373
S'7\x00\x00\x00'
tRp1925
sVusing
p1926
g17
(g1373
S'T\x00\x00\x00'
tRp1927
sVlike
p1928
g17
(g1373
S'.\x00\x00\x00'
tRp1929
sVskills
p1930
g17
(g1373
S'I\x00\x00\x00'
tRp1931
sValways
p1932
g17
(g1373
S'\x02\x00\x00\x00'
tRp1933
sVcompanies
p1934
g17
(g1373
S'\x12\x00\x00\x00'
tRp1935
sVwhere
p1936
g17
(g1373
S'Z\x00\x00\x00'
tRp1937
sVclients
p1938
g17
(g1373
S'\x10\x00\x00\x00'
tRp1939
sVsome
p1940
g17
(g1373
S'K\x00\x00\x00'
tRp1941
sVdesign
p1942
g17
(g1373
S'\x17\x00\x00\x00'
tRp1943
sVare
p1944
g17
(g1373
S'\x06\x00\x00\x00'
tRp1945
sVseo
p1946
g17
(g1373
S'G\x00\x00\x00'
tRp1947
sVbest
p1948
g17
(g1373
S'\x0b\x00\x00\x00'
tRp1949
sVwill
p1950
g17
(g1373
S'[\x00\x00\x00'
tRp1951
sVwhat
p1952
g17
(g1373
S'Y\x00\x00\x00'
tRp1953
sVfor
p1954
g17
(g1373
S'!\x00\x00\x00'
tRp1955
sVresearch
p1956
g17
(g1373
S'E\x00\x00\x00'
tRp1957
sVlooking
p1958
g17
(g1373
S'/\x00\x00\x00'
tRp1959
sVnew
p1960
g17
(g1373
S'6\x00\x00\x00'
tRp1961
sVbe
p1962
g17
(g1373
S'\t\x00\x00\x00'
tRp1963
sVjobs
p1964
g17
(g1373
S'+\x00\x00\x00'
tRp1965
sVbusiness
p1966
g17
(g1373
S'\x0c\x00\x00\x00'
tRp1967
sVmarketing
p1968
g17
(g1373
S'1\x00\x00\x00'
tRp1969
sVon
p1970
g17
(g1373
S':\x00\x00\x00'
tRp1971
sVlast
p1972
g17
(g1373
S'-\x00\x00\x00'
tRp1973
sVworking
p1974
g17
(g1373
S'`\x00\x00\x00'
tRp1975
sVof
p1976
g17
(g1373
S'9\x00\x00\x00'
tRp1977
sVexperience
p1978
g17
(g1373
S'\x1e\x00\x00\x00'
tRp1979
sVcom
p1980
g17
(g1373
S'\x11\x00\x00\x00'
tRp1981
sVor
p1982
g17
(g1373
S'<\x00\x00\x00'
tRp1983
sVtasks
p1984
g17
(g1373
S'M\x00\x00\x00'
tRp1985
sVone
p1986
g17
(g1373
S';\x00\x00\x00'
tRp1987
sVsatisfaction
p1988
g17
(g1373
S'F\x00\x00\x00'
tRp1989
sVquality
p1990
g17
(g1373
S'D\x00\x00\x00'
tRp1991
sVyour
p1992
g17
(g1373
S'e\x00\x00\x00'
tRp1993
sVuse
p1994
g17
(g1373
S'S\x00\x00\x00'
tRp1995
sVmanagement
p1996
g17
(g1373
S'0\x00\x00\x00'
tRp1997
sVfrom
p1998
g17
(g1373
S'"\x00\x00\x00'
tRp1999
sVservice
p2000
g17
(g1373
S'H\x00\x00\x00'
tRp2001
sVsupport
p2002
g17
(g1373
S'L\x00\x00\x00'
tRp2003
sVbeen
p2004
g17
(g1373
S'\n\x00\x00\x00'
tRp2005
sVwordpress
p2006
g17
(g1373
S'^\x00\x00\x00'
tRp2007
sVmore
p2008
g17
(g1373
S'3\x00\x00\x00'
tRp2009
sVwebsite
p2010
g17
(g1373
S'W\x00\x00\x00'
tRp2011
sVcomplete
p2012
g17
(g1373
S'\x14\x00\x00\x00'
tRp2013
sVthat
p2014
g17
(g1373
S'O\x00\x00\x00'
tRp2015
sVcompany
p2016
g17
(g1373
S'\x13\x00\x00\x00'
tRp2017
sVbut
p2018
g17
(g1373
S'\r\x00\x00\x00'
tRp2019
sVwith
p2020
g17
(g1373
S'\\\x00\x00\x00'
tRp2021
sVthan
p2022
g17
(g1373
S'N\x00\x00\x00'
tRp2023
sVme
p2024
g17
(g1373
S'2\x00\x00\x00'
tRp2025
sVword
p2026
g17
(g1373
S']\x00\x00\x00'
tRp2027
sVwork
p2028
g17
(g1373
S'_\x00\x00\x00'
tRp2029
sVproject
p2030
g17
(g1373
S'B\x00\x00\x00'
tRp2031
sVcan
p2032
g17
(g1373
S'\x0e\x00\x00\x00'
tRp2033
sVfollowing
p2034
g17
(g1373
S' \x00\x00\x00'
tRp2035
sVmy
p2036
g17
(g1373
S'4\x00\x00\x00'
tRp2037
sVand
p2038
g17
(g1373
S'\x05\x00\x00\x00'
tRp2039
sVwould
p2040
g17
(g1373
S'a\x00\x00\x00'
tRp2041
sVis
p2042
g17
(g1373
S')\x00\x00\x00'
tRp2043
sVam
p2044
g17
(g1373
S'\x03\x00\x00\x00'
tRp2045
sVit
p2046
g17
(g1373
S'*\x00\x00\x00'
tRp2047
sVan
p2048
g17
(g1373
S'\x04\x00\x00\x00'
tRp2049
sVas
p2050
g17
(g1373
S'\x07\x00\x00\x00'
tRp2051
sVexpertise
p2052
g17
(g1373
S'\x1f\x00\x00\x00'
tRp2053
sVat
p2054
g17
(g1373
S'\x08\x00\x00\x00'
tRp2055
sVhave
p2056
g17
(g1373
S'%\x00\x00\x00'
tRp2057
sVin
p2058
g17
(g1373
S'(\x00\x00\x00'
tRp2059
sVif
p2060
g17
(g1373
S"'\x00\x00\x00"
tRp2061
sVgoal
p2062
g17
(g1373
S'#\x00\x00\x00'
tRp2063
sVprovide
p2064
g17
(g1373
S'C\x00\x00\x00'
tRp2065
sVexcel
p2066
g17
(g1373
S'\x1d\x00\x00\x00'
tRp2067
sVoriented
p2068
g17
(g1373
S'=\x00\x00\x00'
tRp2069
sValso
p2070
g17
(g1373
S'\x01\x00\x00\x00'
tRp2071
sVhtml
p2072
g17
(g1373
S'&\x00\x00\x00'
tRp2073
sVobjective
p2074
g17
(g1373
S'8\x00\x00\x00'
tRp2075
sVyou
p2076
g17
(g1373
S'd\x00\x00\x00'
tRp2077
sVdevelopment
p2078
g17
(g1373
S'\x1a\x00\x00\x00'
tRp2079
sVdesigner
p2080
g17
(g1373
S'\x18\x00\x00\x00'
tRp2081
sVprofessional
p2082
g17
(g1373
S'A\x00\x00\x00'
tRp2083
sVphp
p2084
g17
(g1373
S'@\x00\x00\x00'
tRp2085
sVdata
p2086
g17
(g1373
S'\x16\x00\x00\x00'
tRp2087
sVwell
p2088
g17
(g1373
S'X\x00\x00\x00'
tRp2089
sVclient
p2090
g17
(g1373
S'\x0f\x00\x00\x00'
tRp2091
sVtime
p2092
g17
(g1373
S'Q\x00\x00\x00'
tRp2093
sVentry
p2094
g17
(g1373
S'\x1c\x00\x00\x00'
tRp2095
sVthe
p2096
g17
(g1373
S'P\x00\x00\x00'
tRp2097
ssg1487
I00
sg1488
g1489
sg1424
Nsg1491
I10
sg1492
Nsg1493
g1494
sg1495
g1
(g1496
g3
NtRp2098
(dp2099
g1499
I01
sg1500
I01
sg1501
I00
sg1502
g1503
sS'_idf_diag'
p2100
g1
(cscipy.sparse.dia
dia_matrix
p2101
g3
NtRp2102
(dp2103
S'data'
p2104
g1368
(g1369
(I0
tS'b'
tRp2105
(I1
(I1
I102
tg1385
I00
S'j\x06_\xd7\x86y\x05@?\xe9Z}\xd3=\x04@\x9f\x0b\x99\xe6\xfd\x13\x08@D\xd7w\x989\xc7\xfd?\xbc\n\xdd\x19\xc0\xd8\x02@\xe7\xbc\xff\x1e\x89\x05\xf1?\xf8j8\x95Z,\x03@\x90\xac\x0e\x98v\xfe\xfe?j\x06_\xd7\x86y\x05@(\xd2\x8c\x9a\x8d\xde\x03@H\xdc\xf2\xfa7|\x07@\xd1O}\xd8\xeb\xee\x06@\xf8j8\x95Z,\x03@H\xdc\xf2\xfa7|\x07@`\x13\xc7Y";\x02@\xa4`KZ\x1ej\t@\x01^\xd0\x12\xbfj\x06@\x9f\x0b\x99\xe6\xfd\x13\x08@s\xf9\xf6T\xeb\xb7\x08@\xa4`KZ\x1ej\t@H\xdc\xf2\xfa7|\x07@\x9f\x0b\x99\xe6\xfd\x13\x08@`\x13\xc7Y";\x02@j\x06_\xd7\x86y\x05@s\xf9\xf6T\xeb\xb7\x08@\xa4`KZ\x1ej\t@\xc4\xe4\xc5\x0b\xcc\n\x05@v\x18\xd0O\x96\xee\x05@\xc4\xe4\xc5\x0b\xcc\n\x05@s\xf9\xf6T\xeb\xb7\x08@Z\x87\x9c\xb5\xf9\xa5\xfc?\xa4`KZ\x1ej\t@\x9f\x0b\x99\xe6\xfd\x13\x08@\xe2-\xf3$BI\xfa?\x01^\xd0\x12\xbfj\x06@H\xdc\xf2\xfa7|\x07@\x9f\x0b\x99\xe6\xfd\x13\x08@\xc8\t\x114#_\xf9?H\xdc\xf2\xfa7|\x07@s\xf9\xf6T\xeb\xb7\x08@\x98\x8f\x91\x18U\xe7\xf3?4\x14\x85R\x11\x94\xfe?\xd1O}\xd8\xeb\xee\x06@\xa4`KZ\x1ej\t@\x01^\xd0\x12\xbfj\x06@s\xf9\xf6T\xeb\xb7\x08@H\xdc\xf2\xfa7|\x07@\xa4`KZ\x1ej\t@\xd1O}\xd8\xeb\xee\x06@\xa4`KZ\x1ej\t@\xbc\n\xdd\x19\xc0\xd8\x02@j\x06_\xd7\x86y\x05@\xfd\xf6\xa5\xa0\xe9\xae\xf5?\x9f\x0b\x99\xe6\xfd\x13\x08@\x9f\x0b\x99\xe6\xfd\x13\x08@\x9f\x0b\x99\xe6\xfd\x13\x08@H\xdc\xf2\xfa7|\x07@\x12\x82\xa6&;\xa7\xf6?\xfa\x89\x11\x90\x05c\x00@\xa4`KZ\x1ej\t@\x01^\xd0\x12\xbfj\x06@s\xf9\xf6T\xeb\xb7\x08@H\xdc\xf2\xfa7|\x07@^\xb4V\x96\xbf\xa1\x04@s\xf9\xf6T\xeb\xb7\x08@\xc4\xe4\xc5\x0b\xcc\n\x05@\xa4`KZ\x1ej\t@j\x06_\xd7\x86y\x05@^\xb4V\x96\xbf\xa1\x04@\xd1O}\xd8\xeb\xee\x06@\xa4`KZ\x1ej\t@\xa4`KZ\x1ej\t@\xbc\n\xdd\x19\xc0\xd8\x02@\xdc\xef@/\xec\xdb\xff?s\xf9\xf6T\xeb\xb7\x08@\xa4`KZ\x1ej\t@\x9f\x0b\x99\xe6\xfd\x13\x08@\xa4`KZ\x1ej\t@H\xdc\xf2\xfa7|\x07@\x1f\xdf\xf4\x1c)\xa0\x00@*\xeb\xf4^\x98\xeb\xf5?\x00\xe4\xf8\x13\x84\x83\x03@<\xf7\x07\xd3\xef|\xf3?H\xdc\xf2\xfa7|\x07@H\xdc\xf2\xfa7|\x07@\x01^\xd0\x12\xbfj\x06@\xd1\x99\xfcE\xc9\xa8\x01@\x9f\x0b\x99\xe6\xfd\x13\x08@\x01^\xd0\x12\xbfj\x06@\xa4`KZ\x1ej\t@s\xf9\xf6T\xeb\xb7\x08@j\x06_\xd7\x86y\x05@\xa2~\xeb\xf6,\xca\xf8?\xa4`KZ\x1ej\t@\xa4`KZ\x1ej\t@\xbeWk\xf7#\x04\xfd?\xf8j8\x95Z,\x03@s\xf9\xf6T\xeb\xb7\x08@v\x18\xd0O\x96\xee\x05@\x97\x9cM6\xedI\xfc?\xbc\n\xdd\x19\xc0\xd8\x02@\xc4\xe4\xc5\x0b\xcc\n\x05@'
tbsS'maxprint'
p2106
I50
sS'_shape'
p2107
(I102
I102
tp2108
sS'offsets'
p2109
g1368
(g1369
(I0
tS'b'
tRp2110
(I1
(I1
tg18
(S'i4'
I0
I1
tRp2111
(I3
S'<'
NNNI-1
I-1
I0
tbI00
S'\x00\x00\x00\x00'
tbsS'format'
p2112
S'dia'
p2113
sbsbsg1504
g1505
sS'stop_words_'
p2114
c__builtin__
set
p2115
((lp2116
Vaided
p2117
aVpersonally
p2118
aVdynamic
p2119
aVyellow
p2120
aVrelationships
p2121
aVwhose
p2122
aVpatches
p2123
aVjavaee
p2124
aVunder
p2125
aVstationery
p2126
aVteaching
p2127
aVpride
p2128
aVspec
p2129
aVicecast
p2130
aVevery
p2131
aVvoip
p2132
aVunity3d
p2133
aVschool
p2134
aVadministrating
p2135
aVsolution
p2136
aVsolutios
p2137
aVsamurai
p2138
aVvector
p2139
aVenhance
p2140
aVcms
p2141
aVenjoy
p2142
aVaeronautics
p2143
aVpragmatic
p2144
aVconsistent
p2145
aVdirect
p2146
aVdisciplined
p2147
aVsecond
p2148
aVsubordinate
p2149
aVimplemented
p2150
aVgetacoder
p2151
aVeven
p2152
aVestablished
p2153
aVdecoding
p2154
aVabove
p2155
aVdesigning
p2156
aVsupplier
p2157
aVnet
p2158
aVever
p2159
aVseeks
p2160
aVspecialist
p2161
aVcentric
p2162
aVsimultaneously
p2163
aVnever
p2164
aVhere
p2165
aVmet
p2166
aVstudio
p2167
aVactive
p2168
aVpath
p2169
aV100
p2170
aVkids
p2171
aVforum
p2172
aVventures
p2173
aVstudy
p2174
aVreports
p2175
aVcredit
p2176
aVchanges
p2177
aVastute
p2178
aVsecure
p2179
aVhighly
p2180
aVpatience
p2181
aVopportunities
p2182
aVchartboost
p2183
aVcatchy
p2184
aVtyps
p2185
aVnodejs
p2186
aVleaks
p2187
aVoverhead
p2188
aVasset
p2189
aVtype
p2190
aVuntil
p2191
aVposting
p2192
aVsuccessful
p2193
aVyahoo
p2194
aVaward
p2195
aVglass
p2196
aVexcellent
p2197
aVhole
p2198
aV95
p2199
aVmust
p2200
aV1991
p2201
aVroom
p2202
aVwowza
p2203
aVpursue
p2204
aVsetup
p2205
aVworth
p2206
aVms
p2207
aVmr
p2208
aVroot
p2209
aVgoood
p2210
aVgive
p2211
aVskype
p2212
aVorganized
p2213
aVhoned
p2214
aVinvolve
p2215
aVcaptcha
p2216
aVwant
p2217
aVscheduling
p2218
aVguarantee
p2219
aVend
p2220
aVthing
p2221
aVsitting
p2222
aVrhinoceros
p2223
aVhow
p2224
aVwriters
p2225
aVactionscript
p2226
aVplace
p2227
aVordinary
p2228
aVvf3
p2229
aVcadence
p2230
aVgaming
p2231
aVdescription
p2232
aVless
p2233
aVmanuals
p2234
aVafter
p2235
aVreassess
p2236
aVpresident
p2237
aVlaw
p2238
aVtypes
p2239
aVpurchase
p2240
aVeffective
p2241
aVappreciate
p2242
aVorder
p2243
aV16mar2011
p2244
aVfeedback
p2245
aVoffice
p2246
aVdevote
p2247
aVdreamed
p2248
aVzen
p2249
aVsatisfied
p2250
aVpartnered
p2251
aVkeyboard
p2252
aVresponsive
p2253
aVfit
p2254
aVmypics
p2255
aVpersonal
p2256
aVexpectations
p2257
aVclc
p2258
aVbetter
p2259
aVproduction
p2260
aV400
p2261
aVfotocommunity
p2262
aVthen
p2263
aVthem
p2264
aVenrich
p2265
aVtrevisd
p2266
aVeffects
p2267
aVthey
p2268
aVlifelong
p2269
aVrepresents
p2270
aVeach
p2271
aVside
p2272
aVmean
p2273
aVadobe
p2274
aVindependent
p2275
aVseries
p2276
aVmagneto
p2277
aVaide
p2278
aVlaboratory
p2279
aVchannal
p2280
aVnetwork
p2281
aVha
p2282
aVcontent
p2283
aVre
p2284
aVsmm
p2285
aVoscommerce
p2286
aVgot
p2287
aVfoundation
p2288
aVlinear
p2289
aVassociate
p2290
aVlittle
p2291
aVfree
p2292
aVstandard
p2293
aVputty
p2294
aVformation
p2295
aVboosting
p2296
aVwanted
p2297
aVacrobat
p2298
aVcertified
p2299
aVshelves
p2300
aVsatisfication
p2301
aVdays
p2302
aVpriorities
p2303
aVmvc
p2304
aVpurpose
p2305
aValready
p2306
aVfeatures
p2307
aVresearcher
p2308
aVcoding
p2309
aVrank
p2310
aVcustomization
p2311
aVelectronic
p2312
aVresearched
p2313
aVillustrate
p2314
aVtoy
p2315
aVguinness
p2316
aVtop
p2317
aVneeded
p2318
aVrates
p2319
aVtoo
p2320
aVupshot
p2321
aVcycle
p2322
aVenhancing
p2323
aVserve
p2324
aVtook
p2325
aVcollaterals
p2326
aVperfectly
p2327
aVtarget
p2328
aVroles
p2329
aVzero
p2330
aVebay
p2331
aVpreparation
p2332
aVmatter
p2333
aVcoregraphics
p2334
aVhacking
p2335
aVenhancement
p2336
aVrewrite
p2337
aVmodern
p2338
aVmind
p2339
aVmanner
p2340
aVseek
p2341
aVdozen
p2342
aVdbms
p2343
aVzoho
p2344
aVresponsible
p2345
aVeagerly
p2346
aVupholding
p2347
aVmaterials
p2348
aVexplanation
p2349
aVdavidson
p2350
aVcommitting
p2351
aVthough
p2352
aVobject
p2353
aVtranslator
p2354
aVsavvy
p2355
aVoptimized
p2356
aVinvolving
p2357
aVodesk
p2358
aVscripts
p2359
aVdoj
p2360
aVassisting
p2361
aVdon
p2362
aVmedical
p2363
aVfineartprint
p2364
aVconsumer
p2365
aVmeetings
p2366
aVperconal
p2367
aVearth
p2368
aVsolusvm
p2369
aVnortheast
p2370
aVbecame
p2371
aVimplementation
p2372
aVsummarizing
p2373
aVpursuing
p2374
aV10
p2375
aVde
p2376
aVdb
p2377
aVscalable
p2378
aVpreferred
p2379
aVgeek
p2380
aVamazon
p2381
aVreport
p2382
aVtoolbox
p2383
aVdr
p2384
aVcomply
p2385
aVfields
p2386
aVarchitecture
p2387
aVrelease
p2388
aVtrevis
p2389
aVthumbs
p2390
aVfair
p2391
aVbranding
p2392
aVtesting
p2393
aVresult
p2394
aVtechniques
p2395
aVsaid
p2396
aVaway
p2397
aVnarrates
p2398
aVbookmarking
p2399
aVapproach
p2400
aVhandwritten
p2401
aVwe
p2402
aVterms
p2403
aVextend
p2404
aVhowever
p2405
aVhtml5
p2406
aVdedication
p2407
aVnews
p2408
aVmotto
p2409
aVpackages
p2410
aVimprove
p2411
aVreceived
p2412
aVgames
p2413
aVexceeds
p2414
aVchina
p2415
aVlogin
p2416
aVhardworking
p2417
aVvexel
p2418
aVkohana
p2419
aVspeak
p2420
aVcustomisation
p2421
aVproceeded
p2422
aVengines
p2423
aVbasis
p2424
aVunion
p2425
aVfrm
p2426
aVquickly
p2427
aVconfident
p2428
aVmuch
p2429
aVdreamweaver
p2430
aVbasic
p2431
aVflexible
p2432
aVtopics
p2433
aVlife
p2434
aVworker
p2435
aVcatering
p2436
aVcraft
p2437
aVraphaeljs
p2438
aVworked
p2439
aVspin
p2440
aVcommerce
p2441
aVwfl
p2442
aVadministrative
p2443
aVprofessionally
p2444
aVaim
p2445
aVadwirl
p2446
aVemployees
p2447
aVplayed
p2448
aVip
p2449
aVplayer
p2450
aVid
p2451
aVtrusted
p2452
aVhone
p2453
aVspecialization
p2454
aVperform
p2455
aVthings
p2456
aVmake
p2457
aVclearly
p2458
aVcraigslist
p2459
aVcomplex
p2460
aVseveral
p2461
aVevolve
p2462
aVsocial
p2463
aVqualifications
p2464
aVworkforce
p2465
aVhand
p2466
aVportal
p2467
aVbitkeeper
p2468
aVpotentials
p2469
aVopportunity
p2470
aVnit
p2471
aVkid
p2472
aVpracticed
p2473
aVlucas
p2474
aVthy
p2475
aVprograms
p2476
aVuploading
p2477
aVezinearticles
p2478
aVcentos
p2479
aVpractices
p2480
aVgreatest
p2481
aVqualities
p2482
aVclaims
p2483
aVcorporate
p2484
aVyours
p2485
aVseasonal
p2486
aVetiquette
p2487
aVisourceph
p2488
aVjust
p2489
aVversed
p2490
aVphoto
p2491
aVgrades
p2492
aVthanks
p2493
aVhuman
p2494
aVyet
p2495
aVprevious
p2496
aVsuccessfactors
p2497
aVhad
p2498
aVadvancement
p2499
aVanimation
p2500
aVbrainstorming
p2501
aVeasy
p2502
aVhas
p2503
aVhat
p2504
aVpossible
p2505
aVbackground
p2506
aVlinda
p2507
aVclustered
p2508
aVunique
p2509
aVsingh
p2510
aVadvanced
p2511
aVdesire
p2512
aVgifs
p2513
aVperforming
p2514
aVmanual
p2515
aV50
p2516
aVbpo
p2517
aVspecific
p2518
aVmajored
p2519
aVanalyzing
p2520
aVsecurity
p2521
aVwww
p2522
aVright
p2523
aVhonored
p2524
aVcrowd
p2525
aVpeople
p2526
aVsuccessfully
p2527
aVemails
p2528
aVborn
p2529
aVdear
p2530
aVcarts
p2531
aVcordoba
p2532
aVfox
p2533
aVcreative
p2534
aVeverything
p2535
aVsqueeze
p2536
aVtracker
p2537
aVbooking
p2538
aVcore
p2539
aVexprience
p2540
aVplz
p2541
aVweb2
p2542
aVanimtor
p2543
aVarchitectural
p2544
aVgraduated
p2545
aVflaws
p2546
aVpost
p2547
aVmanufacturing
p2548
aVpostgresql
p2549
aVmonths
p2550
aVmagazine
p2551
aVplus
p2552
aVconsulting
p2553
aVtarpaulin
p2554
aVcivic
p2555
aVsugarcrm
p2556
aVprofession
p2557
aVsergij
p2558
aVparsing
p2559
aVdown
p2560
aVlies
p2561
aVold
p2562
aVmethods
p2563
aVgit
p2564
aVfabric
p2565
aVavailable
p2566
aVwhy
p2567
aVeditor
p2568
aVway
p2569
aVmusic
p2570
aVwas
p2571
aVhead
p2572
aVmedium
p2573
aVamateur
p2574
aVoffer
p2575
aVbecoming
p2576
aVanalyse
p2577
aVlanding
p2578
aVencoder
p2579
aVfreelancer
p2580
aVtalents
p2581
aVboon
p2582
aVresponding
p2583
aVsophienczuk
p2584
aVwebs
p2585
aVjboss
p2586
aVdevices
p2587
aVtell
p2588
aVlater
p2589
aVzend
p2590
aVproven
p2591
aVdrive
p2592
aVaccounting
p2593
aVmold
p2594
aVcheck
p2595
aVspecially
p2596
aVnl
p2597
aVno
p2598
aVnc
p2599
aVwhen
p2600
aVnx
p2601
aVinterested
p2602
aVrole
p2603
aVpapers
p2604
aVtest
p2605
aVjenkins
p2606
aVdevelopers
p2607
aVmodels
p2608
aVkvm
p2609
aVconvincing
p2610
aVconcurrent
p2611
aVsql
p2612
aVhappening
p2613
aVphone
p2614
aVserious
p2615
aVbanners
p2616
aVpaced
p2617
aVanimator
p2618
aVnow
p2619
aVconcept
p2620
aVmanaged
p2621
aVremarkable
p2622
aVswitched
p2623
aVfocus
p2624
aVmanager
p2625
aVllc
p2626
aVror
p2627
aVvarnish
p2628
aVdepend
p2629
aVgraph
p2630
aVfreelance
p2631
aVflash
p2632
aVgigs
p2633
aVenvironment
p2634
aVpeachtree
p2635
aVfoursquare
p2636
aVjvm
p2637
aVadvantage
p2638
aVreserved
p2639
aVunfamiliar
p2640
aVchoice
p2641
aV21dec2011
p2642
aVartwork
p2643
aVexact
p2644
aVimpressive
p2645
aVsolver
p2646
aVphilippines
p2647
aV1996
p2648
aVstandards
p2649
aVleave
p2650
aVexcellence
p2651
aVteam
p2652
aVquick
p2653
aVspecializes
p2654
aVsays
p2655
aVdealing
p2656
aVhtm
p2657
aVdiscover
p2658
aVprofessionalism
p2659
aVcost
p2660
aVpmb
p2661
aVcodeigniter
p2662
aVcurrent
p2663
aV300
p2664
aVhungry
p2665
aVgoes
p2666
aVrelational
p2667
aVenthusiast
p2668
aVcocoa
p2669
aVassertive
p2670
aVfrench
p2671
aVunderstanding
p2672
aVmarkkiessling
p2673
aVaddress
p2674
aVapache
p2675
aValong
p2676
aVchange
p2677
aVwait
p2678
aVbox
p2679
aVauthkey
p2680
aVthirty
p2681
aVhealthy
p2682
aV6500
p2683
aVexams
p2684
aVlove
p2685
aVconfidentiality
p2686
aVapd62ohyvblhm0u
p2687
aVlogical
p2688
aVsincerely
p2689
aVxero
p2690
aV1st
p2691
aVforefront
p2692
aVemployer
p2693
aVplm
p2694
aVmarket
p2695
aVhandled
p2696
aVprove
p2697
aVreadability
p2698
aVlive
p2699
aViphone
p2700
aVhttps
p2701
aVmemory
p2702
aVtoday
p2703
aVafford
p2704
aVindia
p2705
aVacceptable
p2706
aVenvelope
p2707
aVvisual
p2708
aVeverywhere
p2709
aVoop
p2710
aVcases
p2711
aVeffort
p2712
aVeasiest
p2713
aVorganizations
p2714
aVgraphic
p2715
aVdhtml
p2716
aVtitanium
p2717
aVpretend
p2718
aVreviews
p2719
aVvalues
p2720
aVachieve
p2721
aVcam
p2722
aVgrowing
p2723
aVmaking
p2724
aVcae
p2725
aVcad
p2726
aVdedicated
p2727
aVnursing
p2728
aVfigure
p2729
aVnexus
p2730
aVnewsletters
p2731
aVagent
p2732
aVcritic
p2733
aVproductive
p2734
aVmonitoring
p2735
aVmeans
p2736
aVbrand
p2737
aVjoomla
p2738
aVwrite
p2739
aVtill
p2740
aVxhtml
p2741
aVspeaks
p2742
aVeconomy
p2743
aVmap
p2744
aVproduct
p2745
aV140
p2746
aVhuge
p2747
aVmay
p2748
aVmax
p2749
aVbrazen
p2750
aVapplications
p2751
aVmac
p2752
aVproduce
p2753
aVdesigned
p2754
aVimproving
p2755
aVsuch
p2756
aVsuck
p2757
aVgrow
p2758
aVman
p2759
aVsucceeded
p2760
aVconscious
p2761
aVcorona
p2762
aVfluent
p2763
aVrather
p2764
aVso
p2765
aVrepresentation
p2766
aVse
p2767
aVssh
p2768
aVspreadsheets
p2769
aVhiring
p2770
aVcold
p2771
aVmachine
p2772
aVgroup
p2773
aVthank
p2774
aVrossica
p2775
aVencompasses
p2776
aVforms
p2777
aVplatform
p2778
aVlisting
p2779
aVmail
p2780
aVmain
p2781
aVviews
p2782
aVsooner
p2783
aVscaling
p2784
aVrecords
p2785
aVqualified
p2786
aV1950
p2787
aVhalf
p2788
aVispconfig
p2789
aVmaintaining
p2790
aVpossess
p2791
aVterm
p2792
aVname
p2793
aVnetsuite
p2794
aVadmob
p2795
aVoffshore
p2796
aVshowcasing
p2797
aVtopsolid
p2798
aVdomain
p2799
aVsquare
p2800
aVmysql5
p2801
aVchallenges
p2802
aVyear
p2803
aVteams
p2804
aVcanada
p2805
aVliving
p2806
aVcanvas
p2807
aVaccomplish
p2808
aVgamers
p2809
aV3rd
p2810
aVmultiplayer
p2811
aVincrease
p2812
aVinternet
p2813
aVassurance
p2814
aVsuperiors
p2815
aVcart
p2816
aVquite
p2817
aVajax
p2818
aVmimi
p2819
aVorg
p2820
aVcare
p2821
aVtraining
p2822
aVlanguage
p2823
aVselections
p2824
aVlistings
p2825
aVprogramming
p2826
aVhonest
p2827
aVmotion
p2828
aVturn
p2829
aVyum
p2830
aVpromotion
p2831
aVthink
p2832
aVprograming
p2833
aVfirst
p2834
aVclause
p2835
aVspecifically
p2836
aVdirectly
p2837
aVcarry
p2838
aVopen
p2839
aVgeorge
p2840
aVengineer
p2841
aVsurveys
p2842
aVnecessarily
p2843
aViad
p2844
aVcaught
p2845
aVyii
p2846
aVanyone
p2847
aVrenderings
p2848
aVreturns
p2849
aVnginx
p2850
aVtyping
p2851
aVwhite
p2852
aVspeaking
p2853
aVmining
p2854
aVreleases
p2855
aVcontinuous
p2856
aVcerebro
p2857
aVspecialists
p2858
aVcopy
p2859
aVintrinsically
p2860
aVwide
p2861
aV13
p2862
aV12
p2863
aV15
p2864
aV18
p2865
aVrequire
p2866
aVtypography
p2867
aVventure
p2868
aVcards
p2869
aVpre
p2870
aVdocumentation
p2871
aVpro
p2872
aVlocations
p2873
aVant
p2874
aVsay
p2875
aVsap
p2876
aVany
p2877
aVcassandra
p2878
aVconversion
p2879
aVefficient
p2880
aVtranscription
p2881
aVanswering
p2882
aVideas
p2883
aVnote
p2884
aVacumen
p2885
aVsquad
p2886
aVtranscribed
p2887
aVtake
p2888
aVonline
p2889
aVcreatively
p2890
aVperformance
p2891
aVstrengths
p2892
aVhanding
p2893
aVsure
p2894
aVmultiple
p2895
aVukrainian
p2896
aVtrack
p2897
aVprice
p2898
aVspecialty
p2899
aVvisitors
p2900
aVprinted
p2901
aVremarks
p2902
aVpages
p2903
aVproud
p2904
aVsale
p2905
aVsenior
p2906
aVshop
p2907
aVnextag
p2908
aVshot
p2909
aVoutsourcing
p2910
aVdrawings
p2911
aVline
p2912
aVground
p2913
aVxml
p2914
aVratio
p2915
aVoutside
p2916
aVonly
p2917
aVgoing
p2918
aVblack
p2919
aVequipped
p2920
aVget
p2921
aVassistant
p2922
aVtrustworty
p2923
aVoverdeliver
p2924
aVemployers
p2925
aVnearly
p2926
aVhonours
p2927
aVsecondary
p2928
aVresource
p2929
aVconsist
p2930
aVartist
p2931
aVattitude
p2932
aVsummary
p2933
aVadvertisor
p2934
aVinnovative
p2935
aVcollege
p2936
aVpebble
p2937
aVsatisfying
p2938
aVmanaging
p2939
aVopening
p2940
aVsites
p2941
aVcuello022206
p2942
aVimportance
p2943
aVbehind
p2944
aVbetween
p2945
aVinfrastructure
p2946
aVscreen
p2947
aVjs
p2948
aVjd
p2949
aVarticle
p2950
aVcome
p2951
aVconcentrated
p2952
aVfliers
p2953
aVmany
p2954
aVsolidworks
p2955
aVaccording
p2956
aVenabling
p2957
aVcolumnist
p2958
aVworkplace
p2959
aVcomes
p2960
aVsymfony
p2961
aVamong
p2962
aVnecessary
p2963
aV60
p2964
aVcoredata
p2965
aVlearning
p2966
aVmoreover
p2967
aVendeavor
p2968
aVconsidering
p2969
aVarts
p2970
aVtuning
p2971
aVcapable
p2972
aVmark
p2973
aVdelcam
p2974
aVglassfish
p2975
aVdependable
p2976
aVtheam
p2977
aVwilled
p2978
aV500
p2979
aVengine
p2980
aVenable
p2981
aVshopping
p2982
aVoffered
p2983
aVcreo
p2984
aVcovers
p2985
aVebusiness
p2986
aVattentive
p2987
aVruby
p2988
aVformer
p2989
aVprotocols
p2990
aVsound
p2991
aVmyself
p2992
aVdeveloping
p2993
aVthese
p2994
aVcareer
p2995
aVpromising
p2996
aVnewspaper
p2997
aVsituation
p2998
aVcoolest
p2999
aVtelephone
p3000
aVsudden
p3001
aVconverts
p3002
aVmotivated
p3003
aVtechnology
p3004
aVfastest
p3005
aVdifferent
p3006
aVdevelop
p3007
aVassure
p3008
aVpay
p3009
aVsame
p3010
aVtranscribing
p3011
aVauthentication
p3012
aVgeodatix
p3013
aVlite
p3014
aVdocument
p3015
aVweek
p3016
aVextended
p3017
aVassist
p3018
aVcheers
p3019
aVwpm
p3020
aVdriven
p3021
aVchanging
p3022
aVcck
p3023
aVmodel
p3024
aVdimension
p3025
aVresearchers
p3026
aVpeace
p3027
aVnosql
p3028
aVpakistan
p3029
aVbeing
p3030
aVknowledgeable
p3031
aVvaluable
p3032
aVeager
p3033
aVreputable
p3034
aVgreetings
p3035
aV6days
p3036
aVsummed
p3037
aVtouch
p3038
aVspeed
p3039
aVweekly
p3040
aVautocad
p3041
aVhsphere
p3042
aVdesktop
p3043
aVblog
p3044
aVcomplements
p3045
aVextensive
p3046
aVreal
p3047
aVaspects
p3048
aVaround
p3049
aVdelhi
p3050
aVpsd
p3051
aVbreedlove
p3052
aVtraffic
p3053
aVmom
p3054
aVworld
p3055
aVweb2py
p3056
aVdisappointed
p3057
aVmod
p3058
aVfortune
p3059
aVidentifying
p3060
aVserver
p3061
aVbenefit
p3062
aVeither
p3063
aVoutput
p3064
aVpassionate
p3065
aVsatisfactory
p3066
aVverbal
p3067
aVcompetition
p3068
aVspecified
p3069
aVimages
p3070
aVorganizing
p3071
aVthinks
p3072
aVprovided
p3073
aVredis
p3074
aVredir
p3075
aVlegal
p3076
aVpioneer
p3077
aVcritical
p3078
aVprovider
p3079
aVspecializing
p3080
aVwelcome
p3081
aVscientific
p3082
aVpower
p3083
aVnotepad
p3084
aVliveshare
p3085
aVflyers
p3086
aVknowleadge
p3087
aVcentral
p3088
aVindustry
p3089
aVhiatus
p3090
aVhardcopies
p3091
aVstand
p3092
aVbackup
p3093
aVprocessor
p3094
aVpsh2html
p3095
aVcommunication
p3096
aVimage
p3097
aVskilled
p3098
aVreferences
p3099
aVfinancial
p3100
aVtechnically
p3101
aVbuds
p3102
aVprepare
p3103
aVarea
p3104
aVremoving
p3105
aVthere
p3106
aVdeadlines
p3107
aVbangladeshi
p3108
aVstart
p3109
aVlow
p3110
aVlot
p3111
aVshoutcast
p3112
aVapis
p3113
aVtechnologies
p3114
aVtrying
p3115
aVhire
p3116
aVcacti
p3117
aVillustrator
p3118
aVbachelor
p3119
aVsvg
p3120
aVdetailed
p3121
aVmoney
p3122
aVad
p3123
aVvideos
p3124
aVtaste
p3125
aVdescribe
p3126
aVsales
p3127
aVdeep
p3128
aVnagios
p3129
aVreliability
p3130
aVfile
p3131
aVlogo
p3132
aVquickbooks
p3133
aVagain
p3134
aVdrafts
p3135
aV2003
p3136
aVpersonnel
p3137
aVgraduate
p3138
aVproductively
p3139
aVfield
p3140
aV28078
p3141
aVmathematics
p3142
aVpresenting
p3143
aVoneself
p3144
aVobsessed
p3145
aVpear
p3146
aVincludes
p3147
aVimportant
p3148
aVnapier
p3149
aVsuited
p3150
aVbuilding
p3151
aVremote
p3152
aVcalls
p3153
aVwife
p3154
aVcpa
p3155
aVtricks
p3156
aVwebsites
p3157
aVhaving
p3158
aVdirectory
p3159
aVoral
p3160
aVoriginal
p3161
aVmigrated
p3162
aValm
p3163
aVb43b054378357819
p3164
aVfounder
p3165
aVmonth
p3166
aVpostponing
p3167
aVdeadline
p3168
aVfollow
p3169
aVdecisions
p3170
aVsmo
p3171
aVhunting
p3172
aVicons
p3173
aVtv
p3174
aVplesk
p3175
aVprogram
p3176
aVopensource
p3177
aVpresentation
p3178
aVfax
p3179
aVreturned
p3180
aVreturning
p3181
aVminded
p3182
aVdifference
p3183
aVcondition
p3184
aVlist
p3185
aVapplicable
p3186
aVlarge
p3187
aVscrapping
p3188
aVsmall
p3189
aVten
p3190
aVpast
p3191
aVrate
p3192
aVperspective
p3193
aVfurther
p3194
aVfunctioning
p3195
aVpinterest
p3196
aVsun
p3197
aVsection
p3198
aVresume
p3199
aVlearner
p3200
aVversion
p3201
aVlearned
p3202
aVmemcached
p3203
aVpublic
p3204
aV5002
p3205
aVfull
p3206
aVtags
p3207
aV21st
p3208
aVhours
p3209
aVoperating
p3210
aVdatabases
p3211
aVdirections
p3212
aVstrong
p3213
aVobserving
p3214
aVhass
p3215
aVsearch
p3216
aVahead
p3217
aVinspired
p3218
aVcompliance
p3219
aVprior
p3220
aVadvertising
p3221
aVpublished
p3222
aVaction
p3223
aV45wpm
p3224
aVvia
p3225
aVfamily
p3226
aVtoyo
p3227
aVglitch
p3228
aVdimention
p3229
aVtrained
p3230
aVestablish
p3231
aVselect
p3232
aVliterary
p3233
aVeye
p3234
aVtakes
p3235
aVobjectives
p3236
aVfaint
p3237
aVtwo
p3238
aValmost
p3239
aVcall
p3240
aVmarkets
p3241
aVachieving
p3242
aVdiamond
p3243
aVdoor
p3244
aVknows
p3245
aVopenvz
p3246
aVproblem
p3247
aVbasically
p3248
aVparticular
p3249
aVproducing
p3250
aVwebmaster
p3251
aVglad
p3252
aVkeeping
p3253
aVsalesforce
p3254
aVscience
p3255
aVequation
p3256
aVcreated
p3257
aVfronted
p3258
aVatari
p3259
aVlearn
p3260
aVstrategies
p3261
aVchallenging
p3262
aVstated
p3263
aVshare
p3264
aVvirtuemart
p3265
aVminimum
p3266
aVmagento
p3267
aVaxis
p3268
aVinformation
p3269
aVneeds
p3270
aVcapistrano
p3271
aVutilize
p3272
aVmaps
p3273
aVbuenos
p3274
aVtibay
p3275
aVreflect
p3276
aVcatalog
p3277
aVdisable
p3278
aVlighting
p3279
aVcairngorm
p3280
aVresponse
p3281
aVshort
p3282
aVpostfix
p3283
aVmeticulous
p3284
aVregister
p3285
aVbugs
p3286
aVdjango
p3287
aVresponsibility
p3288
aVmedia
p3289
aVcs5
p3290
aVdream
p3291
aVplaying
p3292
aVcs3
p3293
aVreplied
p3294
aVphotoshop
p3295
aVhelp
p3296
aVmission
p3297
aVlicensure
p3298
aVheld
p3299
aVrounder
p3300
aVpaper
p3301
aVthrough
p3302
aVcommitted
p3303
aVits
p3304
aVdeveloper
p3305
aV25
p3306
aVstyle
p3307
aV20
p3308
aV22
p3309
aV23
p3310
aVsolving
p3311
aV29
p3312
aVsystems
p3313
aVsomeone
p3314
aVsomebody
p3315
aVseeking
p3316
aVfood
p3317
aVnumber
p3318
aVframework
p3319
aVfoot
p3320
aVformulating
p3321
aVyr
p3322
aVbigger
p3323
aVinstructions
p3324
aVeasily
p3325
aVlevel
p3326
aV2d
p3327
aVuploads
p3328
aVgnucash
p3329
aVeveryone
p3330
aVgeneration
p3331
aVhard
p3332
aVnumeric
p3333
aVclockwork
p3334
aVexpect
p3335
aVoperation
p3336
aVscribe
p3337
aVinsurance
p3338
aVreally
p3339
aVftp
p3340
aVcatia
p3341
aVconceptualizing
p3342
aVsencha
p3343
aVsince
p3344
aVhealth
p3345
aVprint
p3346
aVoffline
p3347
aVasp
p3348
aVios
p3349
aVreason
p3350
aVbase
p3351
aVmobile
p3352
aVmembers
p3353
aVcss
p3354
aVput
p3355
aVteach
p3356
aVash
p3357
aVrevolutionary
p3358
aVdirector
p3359
aVdrupal
p3360
aVdashcommerce
p3361
aVneeding
p3362
aVamerican
p3363
aVexpecting
p3364
aVthrows
p3365
aVmajor
p3366
aVstudent
p3367
aVencoding
p3368
aVfeel
p3369
aVscheglov
p3370
aVzurb
p3371
aVdone
p3372
aVdefects
p3373
aVmiss
p3374
aVecommerce
p3375
aVleast
p3376
aVweblogic
p3377
aVpassed
p3378
aV1077457
p3379
aVstore
p3380
aVgps
p3381
aVrelationship
p3382
aVhotel
p3383
aVemploy
p3384
aVpart
p3385
aVtranslation
p3386
aVbelieve
p3387
aVonetieva
p3388
aVjquery
p3389
aVkind
p3390
aVdetermines
p3391
aVkindly
p3392
aVrecruitment
p3393
aVlayouts
p3394
aVaims
p3395
aVrecording
p3396
aVveportal
p3397
aVpolishing
p3398
aVhurco
p3399
aVinteractive
p3400
aVmotivation
p3401
aVoutstanding
p3402
aVchipmunk
p3403
aVmootools
p3404
aVw4m
p3405
aVself
p3406
aVpayments
p3407
aVdianwei
p3408
aVbuild
p3409
aVplay
p3410
aVcompetencies
p3411
aVcomponents
p3412
aVpopular
p3413
aVenglish
p3414
aVchart
p3415
aVmost
p3416
aVexperiences
p3417
aVaires
p3418
aVservices
p3419
aVextremely
p3420
aVachievement
p3421
aVwindows
p3422
aVpopularity
p3423
aVtieva
p3424
aVphonegap
p3425
aVartistic
p3426
aVclean
p3427
aVnotch
p3428
aVphysics
p3429
aVmicrosoft
p3430
aVjoining
p3431
aVperseverance
p3432
aVpaul
p3433
aVrestore
p3434
aVrelation
p3435
aVheadlines
p3436
aVfind
p3437
aVmorisiki
p3438
aVaccess
p3439
aVdepended
p3440
aVwriter
p3441
aVdistributed
p3442
aVfailed
p3443
aVpretty
p3444
aVmanagerial
p3445
aVdarwin
p3446
aVxen
p3447
aVhis
p3448
aVprowess
p3449
aVexpress
p3450
aVrest
p3451
aVinternational
p3452
aVduring
p3453
aVbanner
p3454
aVblogging
p3455
aVexhibiting
p3456
aVadapts
p3457
aVsleeve
p3458
aVrfx
p3459
aVweaver
p3460
aVcrm
p3461
aVbars
p3462
aVset
p3463
aVart
p3464
aVcocos2d
p3465
aVcreator
p3466
aV317
p3467
aVsee
p3468
aVindividual
p3469
aVsem
p3470
aVskill
p3471
aVthreats
p3472
aVexpert
p3473
aVmovie
p3474
aVcurrently
p3475
aVkeepalived
p3476
aVrepresentatives
p3477
aVvarious
p3478
aVeurope
p3479
aVprofiling
p3480
aVrecently
p3481
aVcreating
p3482
aVjavascript
p3483
aVmaintainability
p3484
aV1521986
p3485
aVcoffee
p3486
aVscriptlance
p3487
aVfluently
p3488
aVvasilisbankov
p3489
aVleague
p3490
aVrestaurant
p3491
aVannual
p3492
aVevent
p3493
aVthinking
p3494
aVpdm
p3495
aVimproves
p3496
aVhesitand
p3497
aVpdf
p3498
aVlancing
p3499
aVupgraded
p3500
aVpoint
p3501
aVsimple
p3502
aVcomposting
p3503
aVwhatever
p3504
aVdimensional
p3505
aVheader
p3506
aVsimply
p3507
aVlikes
p3508
aVlinux
p3509
aVthroughout
p3510
aVexpensive
p3511
aVpr
p3512
aVjava
p3513
aVpublishing
p3514
aVcreate
p3515
aVcreativity
p3516
aVdue
p3517
aVstrategy
p3518
aVpc
p3519
aVmaintenance
p3520
aVmeeting
p3521
aVfirm
p3522
aVflight
p3523
aVfreelancing
p3524
aVraj
p3525
aVprecision
p3526
aVadaptable
p3527
aVdetermination
p3528
aVrepresentative
p3529
aVdemand
p3530
aVinstructor
p3531
aVdevelopments
p3532
aVhandling
p3533
aVlook
p3534
aVsolid
p3535
aVreliable
p3536
aVbudget
p3537
aVreceive
p3538
aVwhile
p3539
aVoptimization
p3540
aVsmart
p3541
aVbehavior
p3542
aVfun
p3543
aVanimated
p3544
aVstudied
p3545
aVcentury
p3546
aVitself
p3547
aVturnmill
p3548
aVready
p3549
aVria
p3550
aVclerical
p3551
aVshirt
p3552
aVmint
p3553
aVorders
p3554
aVorientated
p3555
aVcopying
p3556
aVpeoples
p3557
aVcomposition
p3558
aVused
p3559
aVinterpersonal
p3560
aVflurry
p3561
aV000
p3562
aVuser
p3563
aVstack
p3564
aVlower
p3565
aVtask
p3566
aVdatabase
p3567
aVpersuasive
p3568
aVspent
p3569
aVanalysis
p3570
aVhonor
p3571
aVperson
p3572
aVchangeworkssystem
p3573
aVparametric
p3574
aVspend
p3575
aVwhmcs
p3576
aVabilities
p3577
aVendeavour
p3578
aVlistening
p3579
aVphotoworks
p3580
aVcompetitive
p3581
aVopenstack
p3582
aVgems
p3583
aVcut
p3584
aVadvertisements
p3585
aVcontractor
p3586
aVsource
p3587
aVdixon
p3588
aVinput
p3589
aVcum
p3590
aVsubmissions
p3591
aVcustomers
p3592
aVdemands
p3593
aVbig
p3594
aVunlimited
p3595
aVmatters
p3596
aVgame
p3597
aVfalcon
p3598
aVbit
p3599
aVprojects
p3600
aVoutright
p3601
aVsorting
p3602
aVexcluding
p3603
aVsubmission
p3604
aVconfront
p3605
aVfacets
p3606
aVcontinue
p3607
aVtranslated
p3608
aVgoogle
p3609
aVoften
p3610
aVspring
p3611
aVcreation
p3612
aVback
p3613
aVstreaming
p3614
aVtrends
p3615
aVtowards
p3616
aVkeyword
p3617
aVdepartmental
p3618
aVshall
p3619
aVintegration
p3620
aVper
p3621
aVscalr
p3622
aVprod
p3623
aVminimal
p3624
aVinclination
p3625
aVprofessionals
p3626
aVremembered
p3627
aVopencart
p3628
aVprocessing
p3629
aVrus
p3630
aVwsdl
p3631
aVby
p3632
aVhamra
p3633
aVusa
p3634
aVanything
p3635
aVgraduation
p3636
aVsimulation
p3637
aVrange
p3638
aVjsp
p3639
aVplan
p3640
aVhometown
p3641
aVinto
p3642
aVwithin
p3643
aVnonsense
p3644
aVservers
p3645
aVperl
p3646
aVcalming
p3647
aVstatistics
p3648
aVinnate
p3649
aVfast
p3650
aVcustom
p3651
aVheritage
p3652
aVforward
p3653
aVcarnaudmetalbox
p3654
aVpromotions
p3655
aVsolanghansen
p3656
aVposter
p3657
aVenhacement
p3658
aVsearching
p3659
aVlink
p3660
aVpytalhost
p3661
aVrussian
p3662
aVinjection
p3663
aVdirected
p3664
aVintuitive
p3665
aVmunin
p3666
aVup
p3667
aVus
p3668
aVmorocco
p3669
aVthose
p3670
aVceridian
p3671
aVindividuality
p3672
aVvekperevoda
p3673
aVflow
p3674
aVbeckoning
p3675
aVdoesn
p3676
aVassociates
p3677
aVchat
p3678
aVorganizational
p3679
aVmodeling
p3680
aVhuron
p3681
aVmssql
p3682
aVstreamlining
p3683
aVedwards
p3684
aVgooglemap
p3685
aVrewriting
p3686
aVapplication
p3687
aVincome
p3688
aVdepartment
p3689
aVnice
p3690
aVusers
p3691
aVfavourite
p3692
aVmongodb
p3693
aVproblems
p3694
aVrestoration
p3695
aVposters
p3696
aVsvn
p3697
aVhappier
p3698
aVmailing
p3699
aVrequired
p3700
aVdepartments
p3701
aVmonit
p3702
aV1562408
p3703
aVdepth
p3704
aV2006
p3705
aV2007
p3706
aV2005
p3707
aVoracle
p3708
aV2008
p3709
aV2009
p3710
aVhello
p3711
aVcode
p3712
aVbroaden
p3713
aVresults
p3714
aVexisting
p3715
aVvsftp
p3716
aVgo
p3717
aVsend
p3718
aVsuits
p3719
aVintensive
p3720
aVhelps
p3721
aVsuite
p3722
aVinclude
p3723
aVfriendly
p3724
aVresources
p3725
aVuploaded
p3726
aVlogos
p3727
aVlisted
p3728
aVmastering
p3729
aVfacebook
p3730
aVstackoverflow
p3731
aVmixing
p3732
aVcategories
p3733
aVtimely
p3734
aVmercurial
p3735
aVtry
p3736
aVassignments
p3737
aVsearchability
p3738
aVbusinesses
p3739
aVhardening
p3740
aValphanumeric
p3741
aVglusterfs
p3742
aVvideo
p3743
aVdynamics
p3744
aVclick
p3745
aVvmware
p3746
aVuniversities
p3747
aVhourly
p3748
aVchicago
p3749
aVgiving
p3750
aVassisted
p3751
aVmultimedia
p3752
aVnetworks
p3753
aVbox2d
p3754
aVconsistently
p3755
aVturnaround
p3756
aVtapjoy
p3757
aVfirms
p3758
aVmarketer
p3759
aVexercise
p3760
aV3d
p3761
aVdegree
p3762
aVdelivering
p3763
aVexplore
p3764
aVbusy
p3765
aVlet
p3766
aVothers
p3767
aVstellar
p3768
aVgreat
p3769
aVengage
p3770
aVtalent
p3771
aVtechnical
p3772
aVinvolved
p3773
aV30
p3774
aVkiessling
p3775
aVproducts
p3776
aVmakes
p3777
aVnoisymusic
p3778
aVinvolves
p3779
aVapp
p3780
aVmanage
p3781
aVportals
p3782
aVunderpromise
p3783
aVapi
p3784
aVlodging
p3785
aVapply
p3786
aVtools
p3787
aVcloud
p3788
aVconfidence
p3789
aVhears
p3790
aVtensionmanagementinstitute
p3791
aVguideline
p3792
aVfew
p3793
aVdoubt
p3794
aVthemselves
p3795
aVhaproxy
p3796
aVjournalists
p3797
aVstarted
p3798
aVarranging
p3799
aVpotential
p3800
aVstarter
p3801
aVsubscription
p3802
aVaccount
p3803
aVpracticing
p3804
aVphing
p3805
aVlanguages
p3806
aVthis
p3807
aVchallenge
p3808
aVmeet
p3809
aVcontrol
p3810
aVsqlite
p3811
aVperfecting
p3812
aVproprietary
p3813
aVprocess
p3814
aVtax
p3815
aVhigh
p3816
aVsomething
p3817
aVtab
p3818
aVeducational
p3819
aVsit
p3820
aVpoetry
p3821
aVarrangement
p3822
aVlamp
p3823
aVrevision
p3824
aVprofile
p3825
aVadministrator
p3826
aVwatch
p3827
aVfits
p3828
aVcommunicator
p3829
aVmarrow
p3830
aVefficiently
p3831
aVos
p3832
aVzenoss
p3833
aVzbrush
p3834
aVtexturing
p3835
aVelement
p3836
aVencyclopedia
p3837
aVallow
p3838
aVtenure
p3839
aVquotations
p3840
aVpreparing
p3841
aVresearching
p3842
aVincluding
p3843
aVlooks
p3844
aVconverting
p3845
aVhbase
p3846
aVchosen
p3847
aVll
p3848
aVhim
p3849
aVwilling
p3850
aVfirmly
p3851
aVchoose
p3852
aVhobby
p3853
aV2011
p3854
aV2012
p3855
aVflex
p3856
aVdesigns
p3857
aVcrash
p3858
aVpython
p3859
aVpractice
p3860
aVindexing
p3861
aVfunctional
p3862
aVeffectatious
p3863
aVarticulate
p3864
aVhands
p3865
aVfront
p3866
aVcakephp
p3867
aVday
p3868
aVstrive
p3869
aVarticles
p3870
aVmasters
p3871
aVkronos
p3872
aVedit
p3873
aVuniversity
p3874
aV3ds
p3875
aVaccounts
p3876
aVluster
p3877
aVexperienced
p3878
aV709
p3879
aVdoing
p3880
aVrelated
p3881
aVsociety
p3882
aVmeta
p3883
aVstatic
p3884
aVcpanel
p3885
aVmxml
p3886
aVour
p3887
aVprogrammer
p3888
aVspecial
p3889
aVout
p3890
aVproofreader
p3891
aVchaos
p3892
aVricky
p3893
aVmate
p3894
aVimpart
p3895
aVred
p3896
aVproficient
p3897
aVipod
p3898
aVloyola
p3899
aVanalytical
p3900
aVcompletely
p3901
aVplease
p3902
aVsurely
p3903
aVtenant
p3904
aVorganic
p3905
aVcould
p3906
aVopengl
p3907
aVask
p3908
aVtimes
p3909
aVkeen
p3910
aVpasting
p3911
aVstimulate
p3912
aVplastics
p3913
aVindesign
p3914
aVblogger
p3915
aVpowerful
p3916
aVstrategic
p3917
aVimprovements
p3918
aVpuppet
p3919
aVowner
p3920
aVlong
p3921
aVstrict
p3922
aVdetailing
p3923
aVsystem
p3924
aVpriority
p3925
aVtheir
p3926
aVmechnisam
p3927
aVpakistani
p3928
aVfinal
p3929
aVaodrgsiggnrjrzs
p3930
aVcompleted
p3931
aVrsa
p3932
aVregards
p3933
aVmanipulation
p3934
aVhaven
p3935
aVupdating
p3936
aVrss
p3937
aVipad
p3938
aVbother
p3939
aVsubmitted
p3940
aVdmu50
p3941
aVproviding
p3942
aVcollecting
p3943
aVvericut
p3944
aVneed
p3945
aVlinked
p3946
aVcompetency
p3947
aVdocuments
p3948
aVstudying
p3949
aVable
p3950
aVstegloff
p3951
aVcontact
p3952
aVconcerns
p3953
aVwhich
p3954
aVhonestly
p3955
aV328
p3956
aVsubject
p3957
aVsoap
p3958
aVaccuracy
p3959
aVworldwide
p3960
aVunless
p3961
aVcentre
p3962
aVwho
p3963
aVaws
p3964
aVdelve
p3965
aVsegment
p3966
aVclass
p3967
aVdelivery
p3968
aVurl
p3969
aVarchiving
p3970
aVconstruction
p3971
aVmechanical
p3972
aVgoals
p3973
aVselection
p3974
aVdba
p3975
aVtext
p3976
aVretouching
p3977
aVplanning
p3978
aVmanchester
p3979
aVportfolio
p3980
aVdebate
p3981
aVlitigation
p3982
aVediting
p3983
aVbased
p3984
aVearned
p3985
aVcache
p3986
aVshould
p3987
aVemployee
p3988
aVemployed
p3989
aVlocal
p3990
aVhope
p3991
aVexceptional
p3992
aVfamiliar
p3993
aVones
p3994
aVwords
p3995
aVdb2
p3996
aVprocedures
p3997
aVareas
p3998
aVcourse
p3999
aVcalling
p4000
aVqc
p4001
aVstuff
p4002
aVshe
p4003
aVqueries
p4004
aVgrab
p4005
aVconversions
p4006
aVenhances
p4007
aVrightscale
p4008
aVacquired
p4009
aVtravis
p4010
aVcomputer
p4011
aVwritten
p4012
aVcopywriting
p4013
aVprogress
p4014
aVemail
p4015
aVattention
p4016
aVability
p4017
aVrajeev
p4018
aVwojczyszyn
p4019
aVdeliver
p4020
aVimplementing
p4021
aVjob
p4022
aVkey
p4023
aVconfiguration
p4024
aVswift
p4025
aVker
p4026
aVdiligent
p4027
aVadmin
p4028
aVtaking
p4029
aVpresentations
p4030
aVetc
p4031
aVwaiters
p4032
aVmentoring
p4033
aVworksheets
p4034
aVjson
p4035
aVseasoned
p4036
aVpoet
p4037
aVutilizing
p4038
aVwaste
p4039
aVmike
p4040
aVboth
p4041
aVsufficient
p4042
aVal
p4043
aVcontroller
p4044
aVgraphics
p4045
aVgeneral
p4046
aVpresent
p4047
aVhmc
p4048
aVmulti
p4049
aVvalue
p4050
aVframeworks
p4051
aVstunning
p4052
aVscanned
p4053
aVve
p4054
aVsaasu
p4055
aVsite
p4056
aVlinkedin
p4057
aVhelped
p4058
aVarabic
p4059
aVregression
p4060
aVbegan
p4061
aVadministration
p4062
aVmember
p4063
aVunity
p4064
aVparts
p4065
aVparty
p4066
aVandroid
p4067
aVresiding
p4068
aVhttp
p4069
aVreporting
p4070
aVupon
p4071
aVautomation
p4072
aVproficiency
p4073
aVv5
p4074
aVv6
p4075
aVuni
p4076
aVtransaction
p4077
aVoff
p4078
aVcenter
p4079
aVvariety
p4080
aVthought
p4081
aVpatterns
p4082
aVcommand
p4083
aVoops
p4084
aVsets
p4085
aVposition
p4086
aVaudio
p4087
aVdrawing
p4088
aVlatest
p4089
aVload
p4090
aVheavily
p4091
aVaccurate
p4092
aVexecutive
p4093
aVobtain
p4094
aVdose
p4095
aVsourcer
p4096
aVprotecting
p4097
aVbudypress
p4098
aVrapid
p4099
aVads
p4100
aVadp
p4101
aVcomunications
p4102
aVjeff
p4103
aVcapabilities
p4104
aVnor
p4105
aVusage
p4106
aV280
p4107
aVsuit
p4108
aVkick
p4109
aVcss3
p4110
aVcss2
p4111
aVcaptivating
p4112
aVample
p4113
aVmolding
p4114
aVmillturn
p4115
aVexecute
p4116
aVfive
p4117
aVknow
p4118
aVdeployment
p4119
aVpress
p4120
aVloader
p4121
aVprominent
p4122
aVresid
p4123
aVhelpful
p4124
aVsuccess
p4125
aVefficiency
p4126
aVdictionaries
p4127
aVcandy
p4128
aVjournalist
p4129
aVbecome
p4130
aVworks
p4131
aVpage
p4132
aVexceed
p4133
aVbecause
p4134
aVpropel
p4135
aVactuarial
p4136
aVtwitter
p4137
aV987
p4138
aVplatforms
p4139
aVgrowth
p4140
aV110
p4141
aVconvey
p4142
aVproper
p4143
aVhome
p4144
aVprojection
p4145
aVlead
p4146
aVsketching
p4147
aVpassion
p4148
aVcapability
p4149
aVleader
p4150
aVschedule
p4151
aVmaven
p4152
aVpressure
p4153
aValthough
p4154
aVtestflight
p4155
aVshopify
p4156
aVgained
p4157
aVabout
p4158
aVjustin
p4159
aVgetting
p4160
aVcolumn
p4161
aValtb6kgfpg9btvc
p4162
aVpowerpoint
p4163
aVsoftware
p4164
aVown
p4165
aVpolished
p4166
aVcauselle
p4167
aVh2
p4168
aVh1
p4169
aVskydrive
p4170
aVsmarty
p4171
aVassess
p4172
aVvirtualbox
p4173
aV1987
p4174
aVnetworking
p4175
aVadditional
p4176
aVtransfer
p4177
aVapps
p4178
aVawarded
p4179
aV704
p4180
aVaccountant
p4181
aVliceanse
p4182
aVblackprojectstudios
p4183
aVbiggest
p4184
aVyrs
p4185
aVelastix
p4186
aVnaturally
p4187
aVinterest
p4188
aVpeechtree
p4189
aVhr
p4190
aVhp
p4191
aVvolume
p4192
aVhi
p4193
aVgain
p4194
aVoverflow
p4195
aVhighest
p4196
aVbug
p4197
aVversatile
p4198
aVcount
p4199
aVmade
p4200
aVdmg
p4201
aVsmooth
p4202
aVcurrentaly
p4203
aVrecord
p4204
aVbelow
p4205
aVbooks
p4206
aVlimit
p4207
aVdistribution
p4208
aVpiece
p4209
aVpim
p4210
aVrecognize
p4211
aVbrochures
p4212
aVcontribute
p4213
aVmyi
p4214
aVinn
p4215
aVperiods
p4216
aVeducation
p4217
aVmyd
p4218
aVinc
p4219
aVfunctions
p4220
aVcontest
p4221
aVdetail
p4222
aVvirtual
p4223
aVpeoplesoft
p4224
aVbook
p4225
aVdetails
p4226
aVbranch
p4227
aVphp5
p4228
aVasterisk
p4229
aVlearnings
p4230
aVrepeat
p4231
aVchance
p4232
aVadditionally
p4233
aVmultinationals
p4234
aVextjs
p4235
aVlaude
p4236
aVexposure
p4237
aVfocused
p4238
aVsphinx
p4239
aVblogs
p4240
aVcompete
p4241
aVquestionnaires
p4242
aVunderstand
p4243
aVstrategical
p4244
atRp4245
sg1506
Nsbsg21
g1470
sg1404
g1
(g1405
g3
NtRp4246
(dp4247
g1408
I01
sg1409
g1509
sbsg8
Nsg1411
I01
sg1412
g1413
sg1414
g1510
sg1415
g1
(g1416
g3
NtRp4248
(dp4249
g1419
g1821
sg1423
Nsg1421
g1513
sg1424
Nsg1425
g1426
sg1427
Nsbsaa(lp4250
g1515
a(dp4251
g1403
Nsg1798
g1
(g1799
g3
NtRp4252
(dp4253
g1363
I0
sg1802
g1803
sg1804
g1805
sg1806
g1368
(g1369
(I0
tS'b'
tRp4254
(I1
(I1
tg1385
I00
S'\x00\x00\x00\x00\x00\x00\x00@'
tbsg1408
I01
sg1808
I0
sbsg21
g1515
sg1404
g1
(g1405
g3
NtRp4255
(dp4256
g1409
g1519
sg1811
g1368
(g1369
(I0
tS'b'
tRp4257
(I1
(I1
tg1385
I00
S'\x1e\x1e\x1e\x1e\x1e\x1e\x9e?'
tbsg1813
g1368
(g1369
(I0
tS'b'
tRp4258
(I1
(I1
tg1385
I00
S'\x00\x00\x00\x00\x00\x00A@'
tbsg1815
g1368
(g1369
(I0
tS'b'
tRp4259
(I1
(I1
tg1385
I00
S'\x00\x00\x00\x00\x00\x00\x00\x00'
tbsg1817
g1368
(g1369
(I0
tS'b'
tRp4260
(I1
(I1
tg1385
I00
S'\x00\x00\x00\x00\x00\x00\x00\x00'
tbsg1408
I01
sbsg8
Nsg1411
I01
sg1412
g1413
sg1414
Nsg1415
g1
(g1416
g3
NtRp4261
(dp4262
g1419
g1821
sg1423
Nsg1421
g1422
sg1424
Nsg1425
g1426
sg1427
Nsbsaa(lp4263
g1523
a(dp4264
g1403
Nsg1798
g1
(g1799
g3
NtRp4265
(dp4266
g1363
I0
sg1802
g1803
sg1804
g1805
sg1806
g1368
(g1369
(I0
tS'b'
tRp4267
(I1
(I1
tg1385
I00
S'\x00\x00\x00\x00\x00\x00\x14@'
tbsg1408
I01
sg1808
I0
sbsg21
g1523
sg1404
g1
(g1405
g3
NtRp4268
(dp4269
g1409
g1527
sg1811
g1368
(g1369
(I0
tS'b'
tRp4270
(I1
(I1
tg1385
I00
S'UUUUUU\xd5?'
tbsg1813
g1368
(g1369
(I0
tS'b'
tRp4271
(I1
(I1
tg1385
I00
S'\x00\x00\x00\x00\x00\x00\x08@'
tbsg1815
g1368
(g1369
(I0
tS'b'
tRp4272
(I1
(I1
tg1385
I00
S'\x00\x00\x00\x00\x00\x00\x00@'
tbsg1817
g1368
(g1369
(I0
tS'b'
tRp4273
(I1
(I1
tg1385
I00
S'UUUUUU\xe5\xbf'
tbsg1408
I01
sbsg8
Nsg1411
I01
sg1412
g1413
sg1414
Nsg1415
g1
(g1416
g3
NtRp4274
(dp4275
g1419
g1821
sg1423
Nsg1421
g1422
sg1424
Nsg1425
g1426
sg1427
Nsbsaa(lp4276
g1531
a(dp4277
g1403
Nsg1798
g1
(g1799
g3
NtRp4278
(dp4279
g1363
I0
sg1802
g1803
sg1804
g1805
sg1806
g1368
(g1369
(I0
tS'b'
tRp4280
(I1
(I1
tg1385
I00
S'\x00\x00\x00\x00\x00\x00\xf0?'
tbsg1408
I01
sg1808
I0
sbsg21
g1531
sg1404
g1
(g1405
g3
NtRp4281
(dp4282
g1409
g1535
sg1811
g1368
(g1369
(I0
tS'b'
tRp4283
(I1
(I1
tg1385
I00
S'\x00\x00\x00\x00\x00\x00\xf0?'
tbsg1813
g1368
(g1369
(I0
tS'b'
tRp4284
(I1
(I1
tg1385
I00
S'\x00\x00\x00\x00\x00\x00\xf0?'
tbsg1815
g1368
(g1369
(I0
tS'b'
tRp4285
(I1
(I1
tg1385
I00
S'\x00\x00\x00\x00\x00\x00\x00\x00'
tbsg1817
g1368
(g1369
(I0
tS'b'
tRp4286
(I1
(I1
tg1385
I00
S'\x00\x00\x00\x00\x00\x00\x00\x00'
tbsg1408
I01
sbsg8
Nsg1411
I01
sg1412
g1413
sg1414
Nsg1415
g1
(g1416
g3
NtRp4287
(dp4288
g1419
g1821
sg1423
Nsg1421
g1436
sg1424
Nsg1425
g1426
sg1427
Nsbsaa(lp4289
g1539
a(dp4290
g1403
Nsg1798
g1
(g1799
g3
NtRp4291
(dp4292
g1363
I0
sg1802
g1803
sg1804
g1805
sg1806
g1368
(g1369
(I0
tS'b'
tRp4293
(I1
(I1
tg1385
I00
S'\x00\x00\x00\x00\x00\x00\xf0?'
tbsg1408
I01
sg1808
I0
sbsg21
g1539
sg1404
g1
(g1405
g3
NtRp4294
(dp4295
g1409
g1543
sg1811
g1368
(g1369
(I0
tS'b'
tRp4296
(I1
(I1
tg1385
I00
S'\x00\x00\x00\x00\x00\x00\xf0?'
tbsg1813
g1368
(g1369
(I0
tS'b'
tRp4297
(I1
(I1
tg1385
I00
S'\x00\x00\x00\x00\x00\x00\xf0?'
tbsg1815
g1368
(g1369
(I0
tS'b'
tRp4298
(I1
(I1
tg1385
I00
S'\x00\x00\x00\x00\x00\x00\x00\x00'
tbsg1817
g1368
(g1369
(I0
tS'b'
tRp4299
(I1
(I1
tg1385
I00
S'\x00\x00\x00\x00\x00\x00\x00\x00'
tbsg1408
I01
sbsg8
Nsg1411
I01
sg1412
g1413
sg1414
Nsg1415
g1
(g1416
g3
NtRp4300
(dp4301
g1419
g1821
sg1423
Nsg1421
g1546
sg1424
Nsg1425
g1426
sg1427
Nsbsaa(lp4302
g1548
a(dp4303
g1403
Nsg1798
g1
(g1799
g3
NtRp4304
(dp4305
g1363
I0
sg1802
g1803
sg1804
g1805
sg1806
g1368
(g1369
(I0
tS'b'
tRp4306
(I1
(I1
tg1385
I00
S'\x00\x00\x00\x00\x00\x00\xf0?'
tbsg1408
I01
sg1808
I0
sbsg21
g1548
sg1404
g1
(g1405
g3
NtRp4307
(dp4308
g1409
g1552
sg1811
g1368
(g1369
(I0
tS'b'
tRp4309
(I1
(I1
tg1385
I00
S'\x00\x00\x00\x00\x00\x00\xf0?'
tbsg1813
g1368
(g1369
(I0
tS'b'
tRp4310
(I1
(I1
tg1385
I00
S'\x00\x00\x00\x00\x00\x00\xf0?'
tbsg1815
g1368
(g1369
(I0
tS'b'
tRp4311
(I1
(I1
tg1385
I00
S'\x00\x00\x00\x00\x00\x00\x00\x00'
tbsg1817
g1368
(g1369
(I0
tS'b'
tRp4312
(I1
(I1
tg1385
I00
S'\x00\x00\x00\x00\x00\x00\x00\x00'
tbsg1408
I01
sbsg8
Nsg1411
I01
sg1412
g1413
sg1414
Nsg1415
g1
(g1416
g3
NtRp4313
(dp4314
g1419
g1821
sg1423
Nsg1421
g1546
sg1424
Nsg1425
g1426
sg1427
Nsbsaa(lp4315
g1556
a(dp4316
g1403
Nsg1798
g1
(g1799
g3
NtRp4317
(dp4318
g1363
I0
sg1802
g1803
sg1804
g1805
sg1806
g1368
(g1369
(I0
tS'b'
tRp4319
(I1
(I1
tg1385
I00
S'\x00\x00\x00\xe0W,\xd4A'
tbsg1408
I01
sg1808
I0
sbsg21
g1556
sg1404
g1
(g1405
g3
NtRp4320
(dp4321
g1409
g1560
sg1811
g1368
(g1369
(I0
tS'b'
tRp4322
(I1
(I1
tg1385
I00
S'\xb8\xf3\xdaoq\x11%>'
tbsg1813
g1368
(g1369
(I0
tS'b'
tRp4323
(I1
(I1
tg1385
I00
S'\x00\x00\x00\x80VM\xb8A'
tbsg1815
g1368
(g1369
(I0
tS'b'
tRp4324
(I1
(I1
tg1385
I00
S'\x00\x00\x00\xc0\xa16\xccA'
tbsg1817
g1368
(g1369
(I0
tS'b'
tRp4325
(I1
(I1
tg1385
I00
S'!\xbaw/;\x93\x02\xc0'
tbsg1408
I01
sbsg8
I946684800
sg1411
I01
sg1412
g1413
sg1414
Nsg1415
g1
(g1561
g3
NtRp4326
(dp4327
g1425
g1426
sg1419
g1821
sg1424
Nsg1423
I946684800
sg1427
(dp4328
g1565
g1566
ssbsaa(lp4329
g1568
a(dp4330
g1403
Nsg1798
g1
(g1799
g3
NtRp4331
(dp4332
g1363
I0
sg1802
g1803
sg1804
g1805
sg1806
g1368
(g1369
(I0
tS'b'
tRp4333
(I1
(I1
tg1385
I00
S'\x00\x00\x00\x00\x00\x00\x10@'
tbsg1408
I01
sg1808
I0
sbsg21
g1568
sg1404
g1
(g1405
g3
NtRp4334
(dp4335
g1409
g1572
sg1811
g1368
(g1369
(I0
tS'b'
tRp4336
(I1
(I1
tg1385
I00
S'd!\x0bY\xc8B\x86?'
tbsg1813
g1368
(g1369
(I0
tS'b'
tRp4337
(I1
(I1
tg1385
I00
S'\x00\x00\x00\x00\x00\x00W@'
tbsg1815
g1368
(g1369
(I0
tS'b'
tRp4338
(I1
(I1
tg1385
I00
S'\x00\x00\x00\x00\x00\x00\x00\x00'
tbsg1817
g1368
(g1369
(I0
tS'b'
tRp4339
(I1
(I1
tg1385
I00
S'\x00\x00\x00\x00\x00\x00\x00\x00'
tbsg1408
I01
sbsg8
Nsg1411
I01
sg1412
g1413
sg1414
Nsg1415
g1
(g1416
g3
NtRp4340
(dp4341
g1419
g1821
sg1423
Nsg1421
g1422
sg1424
Nsg1425
g1426
sg1427
Nsbsaa(lp4342
g1576
a(dp4343
g1403
g1
(g1472
g3
NtRp4344
(dp4345
g1475
g1476
sg1477
I01
sg1478
Nsg1480
Nsg1479
Nsg1481
g1482
sg1483
g1484
sg1490
F1
sg1891
I00
sg1485
g1486
sg1892
(dp4346
Vand
p4347
g17
(g1373
S'\x02\x00\x00\x00'
tRp4348
sVphotoshop
p4349
g17
(g1373
S'\x1d\x00\x00\x00'
tRp4350
sVresearcher
p4351
g17
(g1373
S'!\x00\x00\x00'
tRp4352
sVmysql
p4353
g17
(g1373
S'\x1b\x00\x00\x00'
tRp4354
sVfor
p4355
g17
(g1373
S'\x13\x00\x00\x00'
tRp4356
sVexperienced
p4357
g17
(g1373
S'\x11\x00\x00\x00'
tRp4358
sVdesign
p4359
g17
(g1373
S'\n\x00\x00\x00'
tRp4360
sVin
p4361
g17
(g1373
S'\x18\x00\x00\x00'
tRp4362
sVseo
p4363
g17
(g1373
S'#\x00\x00\x00'
tRp4364
sVsem
p4365
g17
(g1373
S'"\x00\x00\x00'
tRp4366
sVwriting
p4367
g17
(g1373
S'/\x00\x00\x00'
tRp4368
sVbest
p4369
g17
(g1373
S'\x06\x00\x00\x00'
tRp4370
sVdeveloper
p4371
g17
(g1373
S'\x0c\x00\x00\x00'
tRp4372
sVweb
p4373
g17
(g1373
S'*\x00\x00\x00'
tRp4374
sVexpert
p4375
g17
(g1373
S'\x12\x00\x00\x00'
tRp4376
sVwith
p4377
g17
(g1373
S'+\x00\x00\x00'
tRp4378
sVfreelance
p4379
g17
(g1373
S'\x14\x00\x00\x00'
tRp4380
sVwriter
p4381
g17
(g1373
S'.\x00\x00\x00'
tRp4382
sVexcel
p4383
g17
(g1373
S'\x10\x00\x00\x00'
tRp4384
sVvirtual
p4385
g17
(g1373
S')\x00\x00\x00'
tRp4386
sVresearch
p4387
g17
(g1373
S' \x00\x00\x00'
tRp4388
sVsmm
p4389
g17
(g1373
S'%\x00\x00\x00'
tRp4390
sVhtml
p4391
g17
(g1373
S'\x17\x00\x00\x00'
tRp4392
sVwordpress
p4393
g17
(g1373
S'-\x00\x00\x00'
tRp4394
sVeditor
p4395
g17
(g1373
S'\r\x00\x00\x00'
tRp4396
sVengineer
p4397
g17
(g1373
S'\x0e\x00\x00\x00'
tRp4398
sVadministrative
p4399
g17
(g1373
S'\x00\x00\x00\x00'
tRp4400
sVcss
p4401
g17
(g1373
S'\x07\x00\x00\x00'
tRp4402
sVspecialist
p4403
g17
(g1373
S"'\x00\x00\x00"
tRp4404
sVdesigner
p4405
g17
(g1373
S'\x0b\x00\x00\x00'
tRp4406
sVassistant
p4407
g17
(g1373
S'\x05\x00\x00\x00'
tRp4408
sVgame
p4409
g17
(g1373
S'\x15\x00\x00\x00'
tRp4410
sVprofessional
p4411
g17
(g1373
S'\x1f\x00\x00\x00'
tRp4412
sVphp
p4413
g17
(g1373
S'\x1e\x00\x00\x00'
tRp4414
sVdata
p4415
g17
(g1373
S'\t\x00\x00\x00'
tRp4416
sVanalyst
p4417
g17
(g1373
S'\x01\x00\x00\x00'
tRp4418
sVcustomer
p4419
g17
(g1373
S'\x08\x00\x00\x00'
tRp4420
sVjquery
p4421
g17
(g1373
S'\x19\x00\x00\x00'
tRp4422
sVgraphic
p4423
g17
(g1373
S'\x16\x00\x00\x00'
tRp4424
sVword
p4425
g17
(g1373
S',\x00\x00\x00'
tRp4426
sVservice
p4427
g17
(g1373
S'$\x00\x00\x00'
tRp4428
sVartist
p4429
g17
(g1373
S'\x04\x00\x00\x00'
tRp4430
sVof
p4431
g17
(g1373
S'\x1c\x00\x00\x00'
tRp4432
sVarchitect
p4433
g17
(g1373
S'\x03\x00\x00\x00'
tRp4434
sVms
p4435
g17
(g1373
S'\x1a\x00\x00\x00'
tRp4436
sVentry
p4437
g17
(g1373
S'\x0f\x00\x00\x00'
tRp4438
sVtop
p4439
g17
(g1373
S'(\x00\x00\x00'
tRp4440
sVsoftware
p4441
g17
(g1373
S'&\x00\x00\x00'
tRp4442
ssg1487
I00
sg1488
g1580
sg1424
Nsg1491
I3
sg1492
Nsg1493
g1494
sg1495
g1
(g1496
g3
NtRp4443
(dp4444
g1499
I01
sg1500
I01
sg1501
I00
sg1502
g1503
sg2100
g1
(g2101
g3
NtRp4445
(dp4446
g2104
g1368
(g1369
(I0
tS'b'
tRp4447
(I1
(I1
I48
tg1385
I00
S'V\xd1\xd3\x15\xe1\xb8\x0f@|\xbd&I\xf0\xc0\x10@\xa4`KZ\x1ej\t@|\xbd&I\xf0\xc0\x10@|\xbd&I\xf0\xc0\x10@}\xec\x8e\xd2O\xf6\x0b@|\xbd&I\xf0\xc0\x10@}\xec\x8e\xd2O\xf6\x0b@|\xbd&I\xf0\xc0\x10@^\xb4V\x96\xbf\xa1\x04@|\xbd&I\xf0\xc0\x10@\xdaB\x15VP-\n@\x9f\x0b\x99\xe6\xfd\x13\x08@\xef\x87\xb5\x14|C\x0e@V\xd1\xd3\x15\xe1\xb8\x0f@j\x06_\xd7\x86y\x05@V\xd1\xd3\x15\xe1\xb8\x0f@\xef\x87\xb5\x14|C\x0e@\xa4`KZ\x1ej\t@|\xbd&I\xf0\xc0\x10@|\xbd&I\xf0\xc0\x10@|\xbd&I\xf0\xc0\x10@\xc4j\xb1\xba\xc8\x07\r@}\xec\x8e\xd2O\xf6\x0b@|\xbd&I\xf0\xc0\x10@|\xbd&I\xf0\xc0\x10@\xef\x87\xb5\x14|C\x0e@|\xbd&I\xf0\xc0\x10@|\xbd&I\xf0\xc0\x10@|\xbd&I\xf0\xc0\x10@\xa4`KZ\x1ej\t@\xe6\x94\x1d\x97\x17\x05\x0b@}\xec\x8e\xd2O\xf6\x0b@\xa4`KZ\x1ej\t@|\xbd&I\xf0\xc0\x10@}\xec\x8e\xd2O\xf6\x0b@\xef\x87\xb5\x14|C\x0e@|\xbd&I\xf0\xc0\x10@\xef\x87\xb5\x14|C\x0e@|\xbd&I\xf0\xc0\x10@|\xbd&I\xf0\xc0\x10@\xc4j\xb1\xba\xc8\x07\r@j\x06_\xd7\x86y\x05@|\xbd&I\xf0\xc0\x10@|\xbd&I\xf0\xc0\x10@\xc4j\xb1\xba\xc8\x07\r@\xdaB\x15VP-\n@|\xbd&I\xf0\xc0\x10@'
tbsg2106
I50
sg2107
(I48
I48
tp4448
sg2109
g1368
(g1369
(I0
tS'b'
tRp4449
(I1
(I1
tg2111
I00
S'\x00\x00\x00\x00'
tbsg2112
S'dia'
p4450
sbsbsg1504
g1505
sg2114
g2115
((lp4451
Vwpf
p4452
aVoffice
p4453
aVcowgirl
p4454
aVphoto
p4455
aVgraphics
p4456
aVyears
p4457
aVmanager
p4458
aVlailani
p4459
aVmanchester
p4460
aVhuman
p4461
aVror
p4462
aVstaff
p4463
aVvisualization
p4464
aVautocad
p4465
aVproducer
p4466
aVfield
p4467
aVflash
p4468
aVjavaee
p4469
aVgigs
p4470
aVto
p4471
aVonly
p4472
aVcomplex
p4473
aVapp
p4474
aVresources
p4475
aV2012
p4476
aVcss3
p4477
aVdo
p4478
aVdesigns
p4479
aV10
p4480
aVvery
p4481
aVinternet
p4482
aVsilverlight
p4483
aVspecailist
p4484
aVqualified
p4485
aVeffects
p4486
aVandriod
p4487
aVpress
p4488
aVbanner
p4489
aVvoip
p4490
aVoutright
p4491
aVskills
p4492
aViphone5
p4493
aVemail
p4494
aVqa
p4495
aVteam
p4496
aVtopsolid
p4497
aVsystem
p4498
aVadobe
p4499
aVcreator
p4500
aVgeneration
p4501
aVecomm
p4502
aVlogo
p4503
aVprogrammer
p4504
aVmother
p4505
aVproofreader
p4506
aVwill
p4507
aVwhat
p4508
aVcatia
p4509
aVnetwork
p4510
aVlead
p4511
aVassistance
p4512
aVminer
p4513
aVcreative
p4514
aVlooking
p4515
aVdesigning
p4516
aVprint
p4517
aVprof
p4518
aVnet
p4519
aVcontent
p4520
aVpublic
p4521
aV3d
p4522
aVasp
p4523
aVvedio
p4524
aV25
p4525
aVmarketing
p4526
aVjavascript
p4527
aVjob
p4528
aVflyer
p4529
aVhtml5
p4530
aVcompetent
p4531
aVmodeling
p4532
aVteacher
p4533
aVcertified
p4534
aVsys
p4535
aVconvert
p4536
aVconnoisseur
p4537
aVtalented
p4538
aVdrupal
p4539
aVsolidworks
p4540
aVcopywriter
p4541
aVprovider
p4542
aVexperience
p4543
aVbookkeeper
p4544
aVcraigslist
p4545
aVjoomla
p4546
aVcolumnist
p4547
aVproducts
p4548
aVadvertising
p4549
aVpublished
p4550
aVmixed
p4551
aVpdf
p4552
aVcad
p4553
aVpowerpoint
p4554
aVtypist
p4555
aVppc
p4556
aVdepalog
p4557
aVindustrial
p4558
aVblogger
p4559
aVsugarcrm
p4560
aVmba
p4561
aVrank
p4562
aVone
p4563
aVxero
p4564
aVarticle
p4565
aVapply
p4566
aVrep
p4567
aVquality
p4568
aVadmin
p4569
aVcloud
p4570
aVspecializing
p4571
aVmanagement
p4572
aVfrom
p4573
aVher
p4574
aVrecruiter
p4575
aVsupport
p4576
aVwab
p4577
aVknockout
p4578
aVaccountant
p4579
aVpa
p4580
aVmusic
p4581
aViphone
p4582
aVdreamweaver
p4583
aVtechnical
p4584
aVyrs
p4585
aVespecialist
p4586
aVwebsite
p4587
aVposting
p4588
aVtester
p4589
aVposter
p4590
aVis
p4591
aVnobody
p4592
aVworker
p4593
aVaca
p4594
aVelse
p4595
aVnirvana
p4596
aVfreelancer
p4597
aVvisual
p4598
aVrepresentative
p4599
aVexcellent
p4600
aVan
p4601
aVkai
p4602
aVme
p4603
aVwide
p4604
aVaccount
p4605
aVillustrator
p4606
aVdhtml
p4607
aV4500hrsworked
p4608
aVup
p4609
aVproject
p4610
aVcareer
p4611
aVonlinecoupons
p4612
aVcan
p4613
aVcam
p4614
aVmy
p4615
aVbrowser
p4616
aVva
p4617
aVdedicated
p4618
aVprocessing
p4619
aVflex
p4620
aVsaasu
p4621
aVnavigate
p4622
aVpro
p4623
aVam
p4624
aVzend
p4625
aVlinkedin
p4626
aVcommerce
p4627
aVhigh
p4628
aVmagento
p4629
aVat
p4630
aVchat
p4631
aVhonest
p4632
aVmint
p4633
aVhire
p4634
aVrespective
p4635
aVquickbooks
p4636
aVauthor
p4637
aVmedia
p4638
aVveteran
p4639
aVseeking
p4640
aVwhen
p4641
aVcross
p4642
aVw4m
p4643
aVapplication
p4644
aVlamp
p4645
aVmvc
p4646
aVbuild
p4647
aVonline
p4648
aVleader
p4649
aVxhtml
p4650
aVadministrator
p4651
aVit
p4652
aVsocial
p4653
aVasterisk
p4654
aVtranscriber
p4655
aVcollection
p4656
aVtranslator
p4657
aVzohocrm
p4658
aVfb
p4659
aVodesk
p4660
aVstudent
p4661
aVevaluator
p4662
aVencoder
p4663
aVthe
p4664
aVbsc
p4665
aVdatabase
p4666
aVmobile
p4667
aVcpa
p4668
aVvariety
p4669
aVuploading
p4670
aVsale
p4671
aVmodeler
p4672
aVmarketer
p4673
aVclient
p4674
aVexp
p4675
aVenglish
p4676
aVcs5
p4677
aVsenior
p4678
aVnotch
p4679
aVphysics
p4680
aVhaving
p4681
aVanimator
p4682
atRp4683
sg1506
Nsbsg21
g1576
sg1404
g1
(g1405
g3
NtRp4684
(dp4685
g1408
I01
sg1409
g1585
sbsg8
Nsg1411
I01
sg1412
g1413
sg1414
g1586
sg1415
g1
(g1416
g3
NtRp4686
(dp4687
g1419
g1821
sg1423
Nsg1421
g1513
sg1424
Nsg1425
g1426
sg1427
Nsbsaa(lp4688
g1590
a(dp4689
g1403
Nsg1798
g1
(g1799
g3
NtRp4690
(dp4691
g1363
I0
sg1802
g1803
sg1804
g1805
sg1806
g1368
(g1369
(I0
tS'b'
tRp4692
(I1
(I1
tg1385
I00
S'\x00\x00\x00\x00\x00@@@'
tbsg1408
I01
sg1808
I0
sbsg21
g1590
sg1404
g1
(g1405
g3
NtRp4693
(dp4694
g1409
g1594
sg1811
g1368
(g1369
(I0
tS'b'
tRp4695
(I1
(I1
tg1385
I00
S'\x1a\xa4A\x1a\xa4A\x8a?'
tbsg1813
g1368
(g1369
(I0
tS'b'
tRp4696
(I1
(I1
tg1385
I00
S'\x00\x00\x00\x00\x00\x80S@'
tbsg1815
g1368
(g1369
(I0
tS'b'
tRp4697
(I1
(I1
tg1385
I00
S'\x00\x00\x00\x00\x00\x00\x00\x00'
tbsg1817
g1368
(g1369
(I0
tS'b'
tRp4698
(I1
(I1
tg1385
I00
S'\x00\x00\x00\x00\x00\x00\x00\x00'
tbsg1408
I01
sbsg8
Nsg1411
I01
sg1412
g1413
sg1414
Nsg1415
g1
(g1416
g3
NtRp4699
(dp4700
g1419
g1821
sg1423
Nsg1421
g1436
sg1424
Nsg1425
g1426
sg1427
Nsbsaa(lp4701
g1598
a(dp4702
g1403
Nsg1798
g1
(g1799
g3
NtRp4703
(dp4704
g1363
I0
sg1802
g1803
sg1804
g1805
sg1806
g1368
(g1369
(I0
tS'b'
tRp4705
(I1
(I1
tg1385
I00
S'\x00\x00\x00\x00\x00\x00\xf0?'
tbsg1408
I01
sg1808
I0
sbsg21
g1598
sg1404
g1
(g1405
g3
NtRp4706
(dp4707
g1409
g1602
sg1811
g1368
(g1369
(I0
tS'b'
tRp4708
(I1
(I1
tg1385
I00
S'\xdb\x81\xb9v`\xae\x8d?'
tbsg1813
g1368
(g1369
(I0
tS'b'
tRp4709
(I1
(I1
tg1385
I00
S'\x00\x00\x00\x00\x00@Q@'
tbsg1815
g1368
(g1369
(I0
tS'b'
tRp4710
(I1
(I1
tg1385
I00
S'\x00\x00\x00\x00\x00\x00\x00\x00'
tbsg1817
g1368
(g1369
(I0
tS'b'
tRp4711
(I1
(I1
tg1385
I00
S'\x00\x00\x00\x00\x00\x00\x00\x00'
tbsg1408
I01
sbsg8
Nsg1411
I01
sg1412
g1413
sg1414
Nsg1415
g1
(g1416
g3
NtRp4712
(dp4713
g1419
g1821
sg1423
Nsg1421
g1422
sg1424
Nsg1425
g1426
sg1427
Nsbsaa(lp4714
g1606
a(dp4715
g1403
Nsg1798
g1
(g1799
g3
NtRp4716
(dp4717
g1363
I0
sg1802
g1803
sg1804
g1805
sg1806
g1368
(g1369
(I0
tS'b'
tRp4718
(I1
(I1
tg1385
I00
S'\x00\x00\x00\x00\x00\x00\x00@'
tbsg1408
I01
sg1808
I0
sbsg21
g1606
sg1404
g1
(g1405
g3
NtRp4719
(dp4720
g1409
g1610
sg1811
g1368
(g1369
(I0
tS'b'
tRp4721
(I1
(I1
tg1385
I00
S'(\xaf\xa1\xbc\x86\xf2\xaa?'
tbsg1813
g1368
(g1369
(I0
tS'b'
tRp4722
(I1
(I1
tg1385
I00
S'\x00\x00\x00\x00\x00\x003@'
tbsg1815
g1368
(g1369
(I0
tS'b'
tRp4723
(I1
(I1
tg1385
I00
S'\x00\x00\x00\x00\x00\x00\x00\x00'
tbsg1817
g1368
(g1369
(I0
tS'b'
tRp4724
(I1
(I1
tg1385
I00
S'\x00\x00\x00\x00\x00\x00\x00\x00'
tbsg1408
I01
sbsg8
Nsg1411
I01
sg1412
g1413
sg1414
Nsg1415
g1
(g1416
g3
NtRp4725
(dp4726
g1419
g1821
sg1423
Nsg1421
g1422
sg1424
Nsg1425
g1426
sg1427
Nsbsaa(lp4727
g1614
a(dp4728
g1403
Nsg1798
g1
(g1799
g3
NtRp4729
(dp4730
g1363
I0
sg1802
g1803
sg1804
g1805
sg1806
g1368
(g1369
(I0
tS'b'
tRp4731
(I1
(I1
tg1385
I00
S'\x00\x00\x00\x00\x00\x00\x00\x00'
tbsg1408
I01
sg1808
I0
sbsg21
g1614
sg1404
g1
(g1405
g3
NtRp4732
(dp4733
g1409
g1618
sg1811
g1368
(g1369
(I0
tS'b'
tRp4734
(I1
(I1
tg1385
I00
S'@+\x01\xad\x04\xb4R?'
tbsg1813
g1368
(g1369
(I0
tS'b'
tRp4735
(I1
(I1
tg1385
I00
S'\x00\x00\x00\x00\x00`\x8b@'
tbsg1815
g1368
(g1369
(I0
tS'b'
tRp4736
(I1
(I1
tg1385
I00
S'\x00\x00\x00\x00\x00\x00\x00\x00'
tbsg1817
g1368
(g1369
(I0
tS'b'
tRp4737
(I1
(I1
tg1385
I00
S'\x00\x00\x00\x00\x00\x00\x00\x00'
tbsg1408
I01
sbsg8
Nsg1411
I01
sg1412
g1413
sg1414
Nsg1415
g1
(g1416
g3
NtRp4738
(dp4739
g1419
g1821
sg1423
Nsg1421
g1422
sg1424
Nsg1425
g1426
sg1427
Nsbsaa(lp4740
g1622
a(dp4741
g1403
Nsg1798
g1
(g1799
g3
NtRp4742
(dp4743
g1363
I0
sg1802
g1803
sg1804
g1805
sg1806
g1368
(g1369
(I0
tS'b'
tRp4744
(I1
(I1
tg1385
I00
S'\x00\x00\x00\x00\x00\x80:@'
tbsg1408
I01
sg1808
I0
sbsg21
g1622
sg1404
g1
(g1405
g3
NtRp4745
(dp4746
g1409
g1626
sg1811
g1368
(g1369
(I0
tS'b'
tRp4747
(I1
(I1
tg1385
I00
S'\x1a\xa4A\x1a\xa4A\x8a?'
tbsg1813
g1368
(g1369
(I0
tS'b'
tRp4748
(I1
(I1
tg1385
I00
S'\x00\x00\x00\x00\x00\x80S@'
tbsg1815
g1368
(g1369
(I0
tS'b'
tRp4749
(I1
(I1
tg1385
I00
S'\x00\x00\x00\x00\x00\x00\x00\x00'
tbsg1817
g1368
(g1369
(I0
tS'b'
tRp4750
(I1
(I1
tg1385
I00
S'\x00\x00\x00\x00\x00\x00\x00\x00'
tbsg1408
I01
sbsg8
Nsg1411
I01
sg1412
g1413
sg1414
Nsg1415
g1
(g1416
g3
NtRp4751
(dp4752
g1419
g1821
sg1423
Nsg1421
g1436
sg1424
Nsg1425
g1426
sg1427
Nsbsaa(lp4753
g1630
a(dp4754
g1403
Nsg1798
g1
(g1799
g3
NtRp4755
(dp4756
g1363
I0
sg1802
g1803
sg1804
g1805
sg1806
g1368
(g1369
(I0
tS'b'
tRp4757
(I1
(I1
tg1385
I00
S'\x00\x00\x00\x00\x00\x00\x08@'
tbsg1408
I01
sg1808
I0
sbsg21
g1630
sg1404
g1
(g1405
g3
NtRp4758
(dp4759
g1409
g1634
sg1811
g1368
(g1369
(I0
tS'b'
tRp4760
(I1
(I1
tg1385
I00
S'(\xaf\xa1\xbc\x86\xf2\xaa?'
tbsg1813
g1368
(g1369
(I0
tS'b'
tRp4761
(I1
(I1
tg1385
I00
S'\x00\x00\x00\x00\x00\x003@'
tbsg1815
g1368
(g1369
(I0
tS'b'
tRp4762
(I1
(I1
tg1385
I00
S'\x00\x00\x00\x00\x00\x00\x00\x00'
tbsg1817
g1368
(g1369
(I0
tS'b'
tRp4763
(I1
(I1
tg1385
I00
S'\x00\x00\x00\x00\x00\x00\x00\x00'
tbsg1408
I01
sbsg8
Nsg1411
I01
sg1412
g1413
sg1414
Nsg1415
g1
(g1416
g3
NtRp4764
(dp4765
g1419
g1821
sg1423
Nsg1421
g1422
sg1424
Nsg1425
g1426
sg1427
Nsbsaa(lp4766
g1638
a(dp4767
g1403
Nsg1798
g1
(g1799
g3
NtRp4768
(dp4769
g1363
I0
sg1802
g1803
sg1804
g1805
sg1806
g1368
(g1369
(I0
tS'b'
tRp4770
(I1
(I1
tg1385
I00
S'\x00\x00\x00\x00\x00\x00\x10@'
tbsg1408
I01
sg1808
I0
sbsg21
g1638
sg1404
g1
(g1405
g3
NtRp4771
(dp4772
g1409
g1642
sg1811
g1368
(g1369
(I0
tS'b'
tRp4773
(I1
(I1
tg1385
I00
S'\x9a\x99\x99\x99\x99\x99\xa9?'
tbsg1813
g1368
(g1369
(I0
tS'b'
tRp4774
(I1
(I1
tg1385
I00
S'\x00\x00\x00\x00\x00\x004@'
tbsg1815
g1368
(g1369
(I0
tS'b'
tRp4775
(I1
(I1
tg1385
I00
S'\x00\x00\x00\x00\x00\x00\xf0?'
tbsg1817
g1368
(g1369
(I0
tS'b'
tRp4776
(I1
(I1
tg1385
I00
S'\x9a\x99\x99\x99\x99\x99\xa9\xbf'
tbsg1408
I01
sbsg8
Nsg1411
I01
sg1412
g1413
sg1414
Nsg1415
g1
(g1416
g3
NtRp4777
(dp4778
g1419
g1821
sg1423
Nsg1421
g1422
sg1424
Nsg1425
g1426
sg1427
Nsbsaa(lp4779
g1646
a(dp4780
g1403
Nsg1798
g1
(g1799
g3
NtRp4781
(dp4782
g1363
I0
sg1802
g1803
sg1804
g1805
sg1806
g1368
(g1369
(I0
tS'b'
tRp4783
(I1
(I1
tg1385
I00
S'\x00\x00\x00\x00\x00\x00\x18@'
tbsg1408
I01
sg1808
I0
sbsg21
g1646
sg1404
Nsg8
Nsg1411
I01
sg1412
g1413
sg1414
Nsg1415
g1
(g1648
g3
NtRp4784
(dp4785
g1419
Nsg1423
Nsg1424
Nsg1425
Nsg1651
(lp4786
g1
(g1653
g3
NtRp4787
(dp4788
g1425
g1426
sg1419
g1821
sg1424
Nsg1423
Nsg1427
(dp4789
g1657
g1658
ssbag1
(g1416
g3
NtRp4790
(dp4791
g1419
g1821
sg1423
Nsg1421
g1422
sg1424
Nsg1425
g1426
sg1427
Nsbasg1427
Nsbsaa(lp4792
g1662
a(dp4793
g1403
Nsg1798
g1
(g1799
g3
NtRp4794
(dp4795
g1363
I0
sg1802
g1803
sg1804
g1805
sg1806
g1368
(g1369
(I0
tS'b'
tRp4796
(I1
(I1
tg1385
I00
S'\x00\x00\x00\x00\x00\x00\x08@'
tbsg1408
I01
sg1808
I0
sbsg21
g1662
sg1404
g1
(g1405
g3
NtRp4797
(dp4798
g1409
g1666
sg1811
g1368
(g1369
(I0
tS'b'
tRp4799
(I1
(I1
tg1385
I00
S'{\x14\xaeG\xe1z\x94?'
tbsg1813
g1368
(g1369
(I0
tS'b'
tRp4800
(I1
(I1
tg1385
I00
S'\x00\x00\x00\x00\x00\x00I@'
tbsg1815
g1368
(g1369
(I0
tS'b'
tRp4801
(I1
(I1
tg1385
I00
S'\x00\x00\x00\x00\x00\x00\x00\x00'
tbsg1817
g1368
(g1369
(I0
tS'b'
tRp4802
(I1
(I1
tg1385
I00
S'\x00\x00\x00\x00\x00\x00\x00\x00'
tbsg1408
I01
sbsg8
Nsg1411
I01
sg1412
g1413
sg1414
Nsg1415
g1
(g1416
g3
NtRp4803
(dp4804
g1419
g1821
sg1423
Nsg1421
g1422
sg1424
Nsg1425
g1426
sg1427
Nsbsaa(lp4805
g1670
a(dp4806
g1403
Nsg1798
g1
(g1799
g3
NtRp4807
(dp4808
g1363
I0
sg1802
g1803
sg1804
g1805
sg1806
g1368
(g1369
(I0
tS'b'
tRp4809
(I1
(I1
tg1385
I00
S'\x00\x00\x00\x00\x00\x80Q@'
tbsg1408
I01
sg1808
I0
sbsg21
g1670
sg1404
g1
(g1405
g3
NtRp4810
(dp4811
g1409
g1674
sg1811
g1368
(g1369
(I0
tS'b'
tRp4812
(I1
(I1
tg1385
I00
S'\xdd\xcd \xb9\xba8+?'
tbsg1813
g1368
(g1369
(I0
tS'b'
tRp4813
(I1
(I1
tg1385
I00
S'\x00\x00\x00\x00\x00\xcf\xb2@'
tbsg1815
g1368
(g1369
(I0
tS'b'
tRp4814
(I1
(I1
tg1385
I00
S'\x00\x00\x00\x00\x00\x00\x00\x00'
tbsg1817
g1368
(g1369
(I0
tS'b'
tRp4815
(I1
(I1
tg1385
I00
S'\x00\x00\x00\x00\x00\x00\x00\x00'
tbsg1408
I01
sbsg8
Nsg1411
I01
sg1412
g1413
sg1414
Nsg1415
g1
(g1416
g3
NtRp4816
(dp4817
g1419
g1821
sg1423
Nsg1421
g1422
sg1424
Nsg1425
g1426
sg1427
Nsbsaa(lp4818
g1678
a(dp4819
g1403
Nsg1798
g1
(g1799
g3
NtRp4820
(dp4821
g1363
I0
sg1802
g1803
sg1804
g1805
sg1806
g1368
(g1369
(I0
tS'b'
tRp4822
(I1
(I1
tg1385
I00
S'OUUUU\x91\x83@'
tbsg1408
I01
sg1808
I0
sbsg21
g1678
sg1404
g1
(g1405
g3
NtRp4823
(dp4824
g1409
g1682
sg1811
g1368
(g1369
(I0
tS'b'
tRp4825
(I1
(I1
tg1385
I00
S'\xbdl@1\xb2\xe4\xf0>'
tbsg1813
g1368
(g1369
(I0
tS'b'
tRp4826
(I1
(I1
tg1385
I00
S'\x02:m\xa0\xcbN\xee@'
tbsg1815
g1368
(g1369
(I0
tS'b'
tRp4827
(I1
(I1
tg1385
I00
S'\x00\x00\x00\x00\x00\x00\x00\x00'
tbsg1817
g1368
(g1369
(I0
tS'b'
tRp4828
(I1
(I1
tg1385
I00
S'\x00\x00\x00\x00\x00\x00\x00\x00'
tbsg1408
I01
sbsg8
Nsg1411
I01
sg1412
g1413
sg1414
Nsg1415
g1
(g1416
g3
NtRp4829
(dp4830
g1419
g1821
sg1423
Nsg1421
g1436
sg1424
Nsg1425
g1426
sg1427
Nsbsaa(lp4831
g1686
a(dp4832
g1403
Nsg1798
g1
(g1799
g3
NtRp4833
(dp4834
g1363
I0
sg1802
g1803
sg1804
g1805
sg1806
g1368
(g1369
(I0
tS'b'
tRp4835
(I1
(I1
tg1385
I00
S'\x00\x00\x00\x00\x00\x00\x10@'
tbsg1408
I01
sg1808
I0
sbsg21
g1686
sg1404
g1
(g1405
g3
NtRp4836
(dp4837
g1409
g1690
sg1811
g1368
(g1369
(I0
tS'b'
tRp4838
(I1
(I1
tg1385
I00
S'H\x07\xde\xf3\x8dis?'
tbsg1813
g1368
(g1369
(I0
tS'b'
tRp4839
(I1
(I1
tg1385
I00
S'\x00\x00\x00\x00\x00`j@'
tbsg1815
g1368
(g1369
(I0
tS'b'
tRp4840
(I1
(I1
tg1385
I00
S'\x00\x00\x00\x00\x00\x00\x00\x00'
tbsg1817
g1368
(g1369
(I0
tS'b'
tRp4841
(I1
(I1
tg1385
I00
S'\x00\x00\x00\x00\x00\x00\x00\x00'
tbsg1408
I01
sbsg8
Nsg1411
I01
sg1412
g1413
sg1414
Nsg1415
g1
(g1416
g3
NtRp4842
(dp4843
g1419
g1821
sg1423
Nsg1421
g1422
sg1424
Nsg1425
g1426
sg1427
Nsbsaa(lp4844
g1694
a(dp4845
g1403
Nsg1798
g1
(g1799
g3
NtRp4846
(dp4847
g1363
I0
sg1802
g1803
sg1804
g1805
sg1806
g1368
(g1369
(I0
tS'b'
tRp4848
(I1
(I1
tg1385
I00
S'\x00\x00\x00\x00\x00\x00\x00@'
tbsg1408
I01
sg1808
I0
sbsg21
g1694
sg1404
g1
(g1405
g3
NtRp4849
(dp4850
g1409
g1698
sg1811
g1368
(g1369
(I0
tS'b'
tRp4851
(I1
(I1
tg1385
I00
S'{\x14\xaeG\xe1z\x94?'
tbsg1813
g1368
(g1369
(I0
tS'b'
tRp4852
(I1
(I1
tg1385
I00
S'\x00\x00\x00\x00\x00\x00I@'
tbsg1815
g1368
(g1369
(I0
tS'b'
tRp4853
(I1
(I1
tg1385
I00
S'\x00\x00\x00\x00\x00\x00\x00\x00'
tbsg1817
g1368
(g1369
(I0
tS'b'
tRp4854
(I1
(I1
tg1385
I00
S'\x00\x00\x00\x00\x00\x00\x00\x00'
tbsg1408
I01
sbsg8
Nsg1411
I01
sg1412
g1413
sg1414
Nsg1415
g1
(g1416
g3
NtRp4855
(dp4856
g1419
g1821
sg1423
Nsg1421
g1422
sg1424
Nsg1425
g1426
sg1427
Nsbsaa(lp4857
g1702
a(dp4858
g1403
Nsg1798
g1
(g1799
g3
NtRp4859
(dp4860
g1363
I0
sg1802
g1803
sg1804
g1805
sg1806
g1368
(g1369
(I0
tS'b'
tRp4861
(I1
(I1
tg1385
I00
S'\x00\x00\x00\x00\x00\x00\x14@'
tbsg1408
I01
sg1808
I0
sbsg21
g1702
sg1404
g1
(g1405
g3
NtRp4862
(dp4863
g1409
g1706
sg1811
g1368
(g1369
(I0
tS'b'
tRp4864
(I1
(I1
tg1385
I00
S'\x96{\x1aa\xb9\xa7\xa1?'
tbsg1813
g1368
(g1369
(I0
tS'b'
tRp4865
(I1
(I1
tg1385
I00
S'\x00\x00\x00\x00\x00\x00=@'
tbsg1815
g1368
(g1369
(I0
tS'b'
tRp4866
(I1
(I1
tg1385
I00
S'\x00\x00\x00\x00\x00\x00\xf0?'
tbsg1817
g1368
(g1369
(I0
tS'b'
tRp4867
(I1
(I1
tg1385
I00
S'\x96{\x1aa\xb9\xa7\xa1\xbf'
tbsg1408
I01
sbsg8
Nsg1411
I01
sg1412
g1413
sg1414
Nsg1415
g1
(g1416
g3
NtRp4868
(dp4869
g1419
g1821
sg1423
Nsg1421
g1422
sg1424
Nsg1425
g1426
sg1427
Nsbsaa(lp4870
g1710
a(dp4871
g1403
Nsg21
g1710
sg1404
Nsg8
Nsg1411
I01
sg1412
g1413
sg1414
Nsg1415
g1
(g1712
g3
NtRp4872
(dp4873
g1425
Nsg1419
g1821
sg1424
g1
(g1715
g3
NtRp4874
(dp4875
g1475
g1718
sg1477
I01
sg1478
Nsg1480
Nsg1479
Nsg1481
g1719
sg1483
g1720
sg1490
F1
sg1891
I00
sg1485
g1721
sg1892
(dp4876
Vphilippines,bangladesh
p4877
g17
(g1373
S'\x18\x00\x00\x00'
tRp4878
sVindia,united states
p4879
g17
(g1373
S'\r\x00\x00\x00'
tRp4880
sVpakistan,united states
p4881
g17
(g1373
S'\x16\x00\x00\x00'
tRp4882
sVunited states,united arab emirates
p4883
g17
(g1373
S'!\x00\x00\x00'
tRp4884
sVbangladesh,australia
p4885
g17
(g1373
S'\x01\x00\x00\x00'
tRp4886
sVchina,india
p4887
g17
(g1373
S'\x07\x00\x00\x00'
tRp4888
sVunited states,united states
p4889
g17
(g1373
S'"\x00\x00\x00'
tRp4890
sVsri lanka,united kingdom
p4891
g17
(g1373
S'\x1d\x00\x00\x00'
tRp4892
sVbangladesh,bangladesh
p4893
g17
(g1373
S'\x02\x00\x00\x00'
tRp4894
sVphilippines,united states
p4895
g17
(g1373
S'\x1c\x00\x00\x00'
tRp4896
sVnetherlands,france
p4897
g17
(g1373
S'\x11\x00\x00\x00'
tRp4898
sVunited kingdom,australia
p4899
g17
(g1373
S'\x1f\x00\x00\x00'
tRp4900
sVbangladesh,united kingdom
p4901
g17
(g1373
S'\x04\x00\x00\x00'
tRp4902
sVphilippines,canada
p4903
g17
(g1373
S'\x19\x00\x00\x00'
tRp4904
sVnigeria,united states
p4905
g17
(g1373
S'\x12\x00\x00\x00'
tRp4906
sVbangladesh,sri lanka
p4907
g17
(g1373
S'\x03\x00\x00\x00'
tRp4908
sVphilippines,australia
p4909
g17
(g1373
S'\x17\x00\x00\x00'
tRp4910
sVindia,egypt
p4911
g17
(g1373
S'\n\x00\x00\x00'
tRp4912
sVindia,germany
p4913
g17
(g1373
S'\x0b\x00\x00\x00'
tRp4914
sVbangladesh,united states
p4915
g17
(g1373
S'\x05\x00\x00\x00'
tRp4916
sVindia,australia
p4917
g17
(g1373
S'\t\x00\x00\x00'
tRp4918
sVcanada,united states
p4919
g17
(g1373
S'\x06\x00\x00\x00'
tRp4920
sVpakistan,australia
p4921
g17
(g1373
S'\x13\x00\x00\x00'
tRp4922
sVpakistan,united kingdom
p4923
g17
(g1373
S'\x15\x00\x00\x00'
tRp4924
sVphilippines,new zealand
p4925
g17
(g1373
S'\x1a\x00\x00\x00'
tRp4926
sVnepal,united states
p4927
g17
(g1373
S'\x10\x00\x00\x00'
tRp4928
sVphilippines,sri lanka
p4929
g17
(g1373
S'\x1b\x00\x00\x00'
tRp4930
sVindia,united arab emirates
p4931
g17
(g1373
S'\x0c\x00\x00\x00'
tRp4932
sVmorocco,united states
p4933
g17
(g1373
S'\x0f\x00\x00\x00'
tRp4934
sVkenya,united states
p4935
g17
(g1373
S'\x0e\x00\x00\x00'
tRp4936
sVunited states,canada
p4937
g17
(g1373
S' \x00\x00\x00'
tRp4938
sVpakistan,croatia
p4939
g17
(g1373
S'\x14\x00\x00\x00'
tRp4940
sVukraine,united states
p4941
g17
(g1373
S'\x1e\x00\x00\x00'
tRp4942
sVargentina,portugal
p4943
g17
(g1373
S'\x00\x00\x00\x00'
tRp4944
sVchina,united states
p4945
g17
(g1373
S'\x08\x00\x00\x00'
tRp4946
ssg1487
I01
sg1488
g1722
sg1424
Nsg1491
I0
sg1492
Nsg1493
g1723
sg1504
g1505
sg2114
g2115
((ltRp4947
sg1506
Nsbsg1423
Nsg1427
Nsbsaa(lp4948
g1725
a(dp4949
g1403
Nsg1798
g1
(g1799
g3
NtRp4950
(dp4951
g1363
I0
sg1802
g1803
sg1804
g1805
sg1806
g1368
(g1369
(I0
tS'b'
tRp4952
(I1
(I1
tg1385
I00
S'\x00\x00\x00\x00\x00\x00\x14\xc0'
tbsg1408
I01
sg1808
I0
sbsg21
g1725
sg1404
Nsg8
Nsg1411
I01
sg1412
g1413
sg1414
Nsg1415
g4784
saa(lp4953
g1728
a(dp4954
g1403
Nsg1798
g1
(g1799
g3
NtRp4955
(dp4956
g1363
I0
sg1802
g1803
sg1804
g1805
sg1806
g1368
(g1369
(I0
tS'b'
tRp4957
(I1
(I1
tg1385
I00
S'\x00\x00\x00\x00\x00\x00\x14\xc0'
tbsg1408
I01
sg1808
I0
sbsg21
g1728
sg1404
Nsg8
Nsg1411
I01
sg1412
g1413
sg1414
Nsg1415
g4784
saa(lp4958
g1731
a(dp4959
g1403
Nsg1798
g1
(g1799
g3
NtRp4960
(dp4961
g1363
I0
sg1802
g1803
sg1804
g1805
sg1806
g1368
(g1369
(I0
tS'b'
tRp4962
(I1
(I1
tg1385
I00
S'\x00\x00\x00\x00\x00\x00 @'
tbsg1408
I01
sg1808
I0
sbsg21
g1731
sg1404
g1
(g1405
g3
NtRp4963
(dp4964
g1409
g1735
sg1811
g1368
(g1369
(I0
tS'b'
tRp4965
(I1
(I1
tg1385
I00
S'P\xabR\x00\xd4\xaa4?'
tbsg1813
g1368
(g1369
(I0
tS'b'
tRp4966
(I1
(I1
tg1385
I00
S'\x00\x00\x00\x00\x00\xc6\xa8@'
tbsg1815
g1368
(g1369
(I0
tS'b'
tRp4967
(I1
(I1
tg1385
I00
S'\x00\x00\x00\x00\x00\x00\x00\x00'
tbsg1817
g1368
(g1369
(I0
tS'b'
tRp4968
(I1
(I1
tg1385
I00
S'\x00\x00\x00\x00\x00\x00\x00\x00'
tbsg1408
I01
sbsg8
Nsg1411
I01
sg1412
g1413
sg1414
Nsg1415
g1
(g1416
g3
NtRp4969
(dp4970
g1419
g1821
sg1423
Nsg1421
g1422
sg1424
Nsg1425
g1426
sg1427
Nsbsaa(lp4971
g1739
a(dp4972
g1403
Nsg21
g1739
sg1404
g1
(g1405
g3
NtRp4973
(dp4974
g1408
I01
sg1409
g1743
sbsg8
Nsg1411
I01
sg1412
g1413
sg1414
Nsg1415
g1
(g1744
g3
NtRp4975
(dp4976
g1425
g1426
sg1419
g1821
sg1424
Nsg1423
Nsg1427
(dp4977
g1748
(dp4978
g1750
I0
sg1751
I1
sssbsaa(lp4979
g1113
a(dp4980
g1403
Nsg1798
g1
(g1799
g3
NtRp4981
(dp4982
g1363
I0
sg1802
g1803
sg1804
g1805
sg1806
g1368
(g1369
(I0
tS'b'
tRp4983
(I1
(I1
tg1385
I00
S'\x00\x00\x00K\xe4\x11\xa8A'
tbsg1408
I01
sg1808
I0
sbsg21
g1113
sg1404
g1
(g1405
g3
NtRp4984
(dp4985
g1409
g1756
sg1811
g1368
(g1369
(I0
tS'b'
tRp4986
(I1
(I1
tg1385
I00
S'\xa50\x06{\xfcb\xb6>'
tbsg1813
g1368
(g1369
(I0
tS'b'
tRp4987
(I1
(I1
tg1385
I00
S'\x00\x00\x00\x00\xea\xde&A'
tbsg1815
g1368
(g1369
(I0
tS'b'
tRp4988
(I1
(I1
tg1385
I00
S'\x00\x00\x00\xa8\x17\xfb\xa7A'
tbsg1817
g1368
(g1369
(I0
tS'b'
tRp4989
(I1
(I1
tg1385
I00
S'v\x91~q\xce\xc6p\xc0'
tbsg1408
I01
sbsg8
Nsg1411
I01
sg1412
g1413
sg1414
Nsg1415
g1
(g1416
g3
NtRp4990
(dp4991
g1419
g1821
sg1423
Nsg1421
g1422
sg1424
Nsg1425
g1426
sg1427
Nsbsaa(lp4992
g1760
a(dp4993
g1403
Nsg21
g1760
sg1404
g1
(g1405
g3
NtRp4994
(dp4995
g1408
I01
sg1409
g1764
sbsg8
F0.33000000000000002
sg1411
I01
sg1412
g1765
sg1414
Nsg1415
g1
(g1416
g3
NtRp4996
(dp4997
g1419
g1821
sg1423
Nsg1421
g1436
sg1424
g1
(g1768
g3
NtRp4998
(dp4999
g1771
I01
sS'feature_names_'
p5000
(lp5001
V3ds Max 7.0 Test
p5002
aV3ds Max 9 Test
p5003
aVASP.Net 3.5 using C# Test
p5004
aVAccounting Principles Test
p5005
aVAccounting Skills Test (Assets and Revenue)
p5006
aVAccounting Skills Test (Cash Flow)
p5007
aVAccounts Payable Test
p5008
aVAccounts Receivable Test
p5009
aVAdobe After Effects 7.0 Test
p5010
aVAdobe Flex 3.0 Test
p5011
aVAdobe Illustrator CS3 Test
p5012
aVAdobe Illustrator CS4 Test
p5013
aVAdobe Illustrator Test
p5014
aVAdobe Photoshop 6.0
p5015
aVAdobe Photoshop CS3 Test
p5016
aVAdobe Photoshop CS4 Test
p5017
aVAdobe Premiere Test
p5018
aVAdvanced PHP Test
p5019
aVAnalytical Skills Test
p5020
aVAutoCad 2007 Test
p5021
aVBook keeping Test
p5022
aVBusiness Mathematics Test
p5023
aVCSS 2.0 Test
p5024
aVCSS 3 Test
p5025
aVCall Center Skills Test
p5026
aVChrome Product Test
p5027
aVCocoa programming for Mac OS X 10.5 Test
p5028
aVContent Writing Skills Test
p5029
aVCreative Writing Test - Fiction (U.S. Version)
p5030
aVCreative Writing Test - Non-fiction (U.S. Version)
p5031
aVCustomer Service Test
p5032
aVDreamweaver 8 Test
p5033
aVDrupal 6.14 Test
p5034
aVEmail Etiquette Certification
p5035
aVEnglish Spelling Test (U.S. Version)
p5036
aVEnglish Spelling Test (UK Version)
p5037
aVEnglish To French Translation Skills Test
p5038
aVEnglish To Russian Translation Skills Test
p5039
aVEnglish To Tagalog (Filipino) Translation Skills Test
p5040
aVEnglish Vocabulary Test (U.S. Version)
p5041
aVEnglish Vocabulary Test (UK Version)
p5042
aVFacebook Connect Test
p5043
aVFrench Spelling Skills Test
p5044
aVFrench To English Translation Skills Test
p5045
aVGenerally Accepted Accounting Principles (GAAP) Test
p5046
aVGmail Product Test
p5047
aVGoogle AdWords Test
p5048
aVGoogle Android Programming Test
p5049
aVHTML 4.01 Test
p5050
aVHTML 5 Test
p5051
aVHelp Desk Certification
p5052
aVHospitality Terminology Test
p5053
aVInternet Marketing Test
p5054
aVJSON Test
p5055
aVJSP 2.0 Test
p5056
aVJava Test
p5057
aVJavaScript 1.3 Test
p5058
aVJavaScript 1.8 Test
p5059
aVJoomla 1.5 Test
p5060
aVKnowledge of Microsoft Silverlight Skills Test
p5061
aVKnowledge of Windows 7 Skills Test
p5062
aVKnowledge of jQuery 1.3.2 Skills Test
p5063
aVMS Excel 2003 Test
p5064
aVMS Excel 2007 Test
p5065
aVMS PowerPoint 2007 Test
p5066
aVMS Word 2003 Test
p5067
aVMS Word 2007 Test
p5068
aVMagento eCommerce Test
p5069
aVManagement Skills Test
p5070
aVMaya 7.0 Test
p5071
aVMedical Billing Certification
p5072
aVMicrosoft Excel 2010 Test
p5073
aVMySQL 5.0 Test
p5074
aVNetworking Concepts Test
p5075
aVObjective C Test
p5076
aVOffice Skills Test
p5077
aVOnline Article Writing and Blogging Test (U.S. Version)
p5078
aVOrganizational Behavior Test
p5079
aVOutbound Sales Skills Test
p5080
aVPC Graphics Test
p5081
aVPHP4 Test
p5082
aVPHP5 Test
p5083
aVPerl 5 Test
p5084
aVPrinciples of  Web Graphics Design Test
p5085
aVProgramming with C++ Test
p5086
aVPython 2.x Test
p5087
aVQuick Books Pro 2008 Test
p5088
aVReport Writing Test
p5089
aVResume Writing Skills Test
p5090
aVRuby on Rails  2.3 Test
p5091
aVRuby on Rails Test
p5092
aVSQL Test
p5093
aVSearch Engine Optimization Test
p5094
aVSlideshow Product Test
p5095
aVSocial Media Marketing Test
p5096
aVSoftware Testing Test
p5097
aVSpanish To English Translation Skills Test
p5098
aVTechnical Writing Skills Certification
p5099
aVTelephone Etiquette Certification
p5100
aVU.S. English Basic Skills Test
p5101
aVU.S. English Chicago Style Editing Skills Test (For Writing Professionals)
p5102
aVU.S. English Punctuation and Mechanics Test
p5103
aVU.S. English Sentence Structure Test (For Writing Professionals)
p5104
aVU.S. Word Usage Test
p5105
aVUK English Basic Skills Test
p5106
aVUK English Grammar Test (For Writing Professionals)
p5107
aVWindows XP Test
p5108
aVWordPress 2.8 Test
p5109
aVWordpress Test
p5110
aVXHTML 1.0 Test
p5111
aVXML 1.0 Test
p5112
aViPhone Programming OS 2.1 Test
p5113
aViPhone Programming OS 4.0 Test
p5114
aVoDesk Readiness Test for Affiliated Contractors
p5115
aVoDesk Readiness Test for Agency Contractors
p5116
aVoDesk Readiness Test for Independent Contractors and Company Managers
p5117
aVoDesk Readiness Test for Independent Contractors and Staffing Managers
p5118
asg1504
g1772
sg1892
(dp5119
g5074
I72
sg5035
I33
sg5115
I113
sg5039
I37
sg5117
I115
sg5091
I89
sg5047
I45
sg5068
I66
sg5043
I41
sg5051
I49
sg5103
I101
sg5052
I50
sg5020
I18
sg5110
I108
sg5092
I90
sg5112
I110
sg5037
I35
sg5087
I85
sg5108
I106
sg5111
I109
sg5019
I17
sg5050
I48
sg5070
I68
sg5024
I22
sg5076
I74
sg5080
I78
sg5102
I100
sg5085
I83
sg5003
I1
sg5015
I13
sg5096
I94
sg5007
I5
sg5062
I60
sg5072
I70
sg5081
I79
sg5040
I38
sg5049
I47
sg5073
I71
sg5077
I75
sg5101
I99
sg5116
I114
sg5118
I116
sg5093
I91
sg5046
I44
sg5008
I6
sg5042
I40
sg5094
I92
sg5018
I16
sg5114
I112
sg5022
I20
sg5089
I87
sg5098
I96
sg5088
I86
sg5038
I36
sg5014
I12
sg5053
I51
sg5058
I56
sg5057
I55
sg5095
I93
sg5071
I69
sg5083
I81
sg5109
I107
sg5107
I105
sg5097
I95
sg5009
I7
sg5086
I84
sg5063
I61
sg5006
I4
sg5069
I67
sg5002
I0
sg5021
I19
sg5106
I104
sg5105
I103
sg5012
I10
sg5017
I15
sg5078
I76
sg5044
I42
sg5023
I21
sg5113
I111
sg5005
I3
sg5016
I14
sg5065
I63
sg5048
I46
sg5027
I25
sg5025
I23
sg5031
I29
sg5030
I28
sg5075
I73
sg5029
I27
sg5033
I31
sg5066
I64
sg5026
I24
sg5036
I34
sg5104
I102
sg5045
I43
sg5059
I57
sg5056
I54
sg5090
I88
sg5028
I26
sg5099
I97
sg5061
I59
sg5034
I32
sg5004
I2
sg5067
I65
sg5100
I98
sg5011
I9
sg5032
I30
sg5064
I62
sg5060
I58
sg5084
I82
sg5055
I53
sg5010
I8
sg5041
I39
sg5054
I52
sg5079
I77
sg5082
I80
sg5013
I11
ssg1773
S'='
sg1774
I01
sbsg1425
g1426
sg1427
NsbsaatRp5120
ssb.