ccopy_reg
_reconstructor
p1
(ccloudml.trainer.store
TrainerStorage
p2
c__builtin__
object
p3
NtRp4
(dp5
S'visualization'
p6
(dp7
S'default'
p8
(dp9
S'weights'
p10
(dp11
I1
(dp12
S'positive'
p13
(lp14
(dp15
S'feature_weight'
p16
cnumpy.core.multiarray
scalar
p17
(cnumpy
dtype
p18
(S'f8'
I0
I1
tRp19
(I3
S'<'
NNNI-1
I-1
I0
tbS'\xed*\x0ch\x1b\xda\xb9?'
tRp20
sS'name'
p21
Vemployer->op_timezone
p22
sS'weight'
p23
g17
(g19
S'\x08\xa4=y\x86a\x91?'
tRp24
sa(dp25
g16
g17
(g19
S'\xed*\x0ch\x1b\xda\xb9?'
tRp26
sg21
Vemployer->op_country_tz
p27
sg23
g17
(g19
S'\x08\xa4=y\x86a\x91?'
tRp28
sa(dp29
g16
g17
(g19
S'\xfd8\xaa~\x88:\xc3?'
tRp30
sg21
Vcontractor->dev_year_exp
p31
sg23
g17
(g19
S'9\xa7\xe9\xf2\xcd\xd5\xe7?'
tRp32
sa(dp33
g16
g17
(g19
S'\x96T\xa7F\xcb\xc5\x99?'
tRp34
sg21
Vcontractor->dev_total_revenue
p35
sg23
g17
(g19
S'\x90\x81m\xe8H\n\xda?'
tRp36
sa(dp37
g16
g17
(g19
S'}\x07%\x0e\xadN\x9c?'
tRp38
sg21
Vcontractor->dev_total_hours_rounded
p39
sg23
g17
(g19
S'\xf2\xb4@\xdcn\xb0\xd0?'
tRp40
sa(dp41
g16
g17
(g19
S'_\xf8\x1br\xf3\xdb\xab?'
tRp42
sg21
Vcontractor->dev_total_hourly_jobs
p43
sg23
g17
(g19
S'\xea\xac\xf0\n\xdc\xfb\xd6?'
tRp44
sa(dp45
g16
g17
(g19
S'\xb2_\xd3CS\xd8\x89?'
tRp46
sg21
Vcontractor->dev_tot_feedback
p47
sg23
g17
(g19
S'L\r\xbem\xa3(\xc7?'
tRp48
sa(dp49
g16
g17
(g19
S'\xeaw]\xc8\x7fJ\xc9?'
tRp50
sg21
Vcontractor->dev_timezone
p51
sg23
g17
(g19
S'\xb8\x1aQ\xb6\x12\x92\xa1?'
tRp52
sa(dp53
g16
g17
(g19
S'J\x96\x92\xef\xf7\xc4k?'
tRp54
sg21
Vcontractor->dev_recent_hours
p55
sg23
g17
(g19
S's\xde\x06\xb7\xb0\xd6\xb7?'
tRp56
sa(dp57
g16
g17
(g19
S"\xe2'\x84\xe5\xb5\x89\x93?"
tRp58
sg21
Vcontractor->dev_recent_hourly_jobs
p59
sg23
g17
(g19
S'\n\xd8\xb1:c\xbc\xb9?'
tRp60
sa(dp61
g16
g17
(g19
S'@__B$_\xc4?'
tRp62
sg21
Vcontractor->dev_rank_percentile
p63
sg23
g17
(g19
S'\xdf\xb0\xb6\xa3\x0f\x92\xd7?'
tRp64
sa(dp65
g16
g17
(g19
S'\xe9\xabb\xc3\x04\x1by?'
tRp66
sg21
Vcontractor->dev_profile_title->writer
p67
sg23
g17
(g19
S'|\xa76>\x85%\xc1?'
tRp68
sa(dp69
g16
g17
(g19
S'\xc8Dap\xb9\xfdt?'
tRp70
sg21
Vcontractor->dev_profile_title->word
p71
sg23
g17
(g19
S'\xca\x9b[\xfd\xb7\xef\xd5?'
tRp72
sa(dp73
g16
g17
(g19
S'\xe1\xa5\r\x9d\x9e}j?'
tRp74
sg21
Vcontractor->dev_profile_title->with
p75
sg23
g17
(g19
S'\xd9\x9bA\x81\xbb\x1d\xc8?'
tRp76
sa(dp77
g16
g17
(g19
S'$l9\xc1\x13\nn?'
tRp78
sg21
Vcontractor->dev_profile_title->smm
p79
sg23
g17
(g19
S'\x1a8\xdf\x15\x9f\xf9\xce?'
tRp80
sa(dp81
g16
g17
(g19
S'\xd4|\xa2\xde\xf1\x07r?'
tRp82
sg21
Vcontractor->dev_profile_title->skills
p83
sg23
g17
(g19
S'\x8d\x80\x97\xe3\x05\xe0\xc9?'
tRp84
sa(dp85
g16
g17
(g19
S'\xcb\x00Bf\x97A\x81?'
tRp86
sg21
Vcontractor->dev_profile_title->service
p87
sg23
g17
(g19
S'Rc\x9a&\xaeP\xd2?'
tRp88
sa(dp89
g16
g17
(g19
S'@\x81P~q\x90\x94?'
tRp90
sg21
Vcontractor->dev_profile_title->seo
p91
sg23
g17
(g19
S'\xd4W\x0c\xdbxm\xe4?'
tRp92
sa(dp93
g16
g17
(g19
S'\x06\x90\xe2\x03\xba\x83j?'
tRp94
sg21
Vcontractor->dev_profile_title->sem
p95
sg23
g17
(g19
S'c\x03\x14k\x8e\xf7\xc9?'
tRp96
sa(dp97
g16
g17
(g19
S'\x18\xb4\xff\x9c\x8a\xc61?'
tRp98
sg21
Vcontractor->dev_profile_title->research
p99
sg23
g17
(g19
S'\x11Z\xe2\xf8\x8b\x18\x7f?'
tRp100
sa(dp101
g16
g17
(g19
S'\xed\xb3\x9b\\\xecA\x96?'
tRp102
sg21
Vcontractor->dev_profile_title->professional
p103
sg23
g17
(g19
S'A2&\xb6f\x84\xe0?'
tRp104
sa(dp105
g16
g17
(g19
S'|u\xaa\x8b\xfc\xabz?'
tRp106
sg21
Vcontractor->dev_profile_title->php
p107
sg23
g17
(g19
S'\x88\xb9\x96"i\xc2\xc0?'
tRp108
sa(dp109
g16
g17
(g19
S'y\x91z\x12!&\x7f?'
tRp110
sg21
Vcontractor->dev_profile_title->ms
p111
sg23
g17
(g19
S'N\xaf\xe2P\x18\x93\xd3?'
tRp112
sa(dp113
g16
g17
(g19
S'\xc4v\xb7\xeeUlp?'
tRp114
sg21
Vcontractor->dev_profile_title->jquery
p115
sg23
g17
(g19
S'\x17)a\xf3\xcd\xd4\xc8?'
tRp116
sa(dp117
g16
g17
(g19
S'\xbd\xd3\xc4\xee\xbc\xde\x80?'
tRp118
sg21
Vcontractor->dev_profile_title->in
p119
sg23
g17
(g19
S'\xef*\xc1\xa4\xdd\xc5\xdd?'
tRp120
sa(dp121
g16
g17
(g19
S'\xae<\x9ak\xc5I\x86?'
tRp122
sg21
Vcontractor->dev_profile_title->graphic
p123
sg23
g17
(g19
S'Ky\x88\xc2\x92\xac\xd5?'
tRp124
sa(dp125
g16
g17
(g19
S';\x0f\xdc\xe0\x1b\x08w?'
tRp126
sg21
Vcontractor->dev_profile_title->game
p127
sg23
g17
(g19
S'oD\x99}L5\xce?'
tRp128
sa(dp129
g16
g17
(g19
S'\xa4\xb5\xb2?\xeb\xc9\x8b?'
tRp130
sg21
Vcontractor->dev_profile_title->excel
p131
sg23
g17
(g19
S'\x82:\x009X/\xe1?'
tRp132
sa(dp133
g16
g17
(g19
S'%\x839\x08S\xde\x90?'
tRp134
sg21
Vcontractor->dev_profile_title->entry
p135
sg23
g17
(g19
S'\xf1>VC\x85<\xcc?'
tRp136
sa(dp137
g16
g17
(g19
S'\xe3Ll\xd9\x17;s?'
tRp138
sg21
Vcontractor->dev_profile_title->engineer
p139
sg23
g17
(g19
S'f\xa3^\xaf\\\xad\xc5?'
tRp140
sa(dp141
g16
g17
(g19
S'\x83\xd09G\x14K\x97?'
tRp142
sg21
Vcontractor->dev_profile_title->editor
p143
sg23
g17
(g19
S'\x94T6\x86\xbc\x92\xe7?'
tRp144
sa(dp145
g16
g17
(g19
S'\x98X{\xfe\\c\x7f?'
tRp146
sg21
Vcontractor->dev_profile_title->design
p147
sg23
g17
(g19
S'\xc0"\x87\xcaKD\xdb?'
tRp148
sa(dp149
g16
g17
(g19
S'\xfa\xb5/\xc5\x94k\x81?'
tRp150
sg21
Vcontractor->dev_profile_title->customer
p151
sg23
g17
(g19
S'1\xd7\x82\xc1\xf7\x8e\xdc?'
tRp152
sa(dp153
g16
g17
(g19
S'g\xf1C\x14\xb9ik?'
tRp154
sg21
Vcontractor->dev_profile_title->architect
p155
sg23
g17
(g19
S'\xdc\xb8Se\xb6H\xc2?'
tRp156
sa(dp157
g16
g17
(g19
S'km\xa0k\x97P~?'
tRp158
sg21
Vcontractor->dev_profile_title->analyst
p159
sg23
g17
(g19
S'\xec\xb2g\xfe\x82\xd5\xda?'
tRp160
sa(dp161
g16
g17
(g19
S'\xa3\x01\xeb\x15H\xea\x97?'
tRp162
sg21
Vcontractor->dev_profile_title->administrative
p163
sg23
g17
(g19
S'\x94\xab\xbe\x1f\xda^\xe8?'
tRp164
sa(dp165
g16
g17
(g19
S'&]/\x95\xae\x01\x98?'
tRp166
sg21
Vcontractor->dev_portfolio_items_count
p167
sg23
g17
(g19
S'\n\x90\x90\x06(\x81\xd0?'
tRp168
sa(dp169
g16
g17
(g19
S'\x89\xdc]\x1f\x8d\xa4\xcc?'
tRp170
sg21
Vcontractor->dev_is_looking_week
p171
sg23
g17
(g19
S' E\x08o[J\xd1?'
tRp172
sa(dp173
g16
g17
(g19
S'3U}-\xa8:\xdd?'
tRp174
sg21
Vcontractor->dev_is_looking
p175
sg23
g17
(g19
S'\xf5DD\xd4\xb3A\xe0?'
tRp176
sa(dp177
g16
g17
(g19
S'\x89\xedC\xd5E\r\xb8?'
tRp178
sg21
Vcontractor->dev_expose_full_name
p179
sg23
g17
(g19
S'\x9f\xb9\x0c\x12\xa9v\xc6?'
tRp180
sa(dp181
g16
g17
(g19
S'\xe8\xc8\x8a\x89\x07T\x83?'
tRp182
sg21
Vcontractor->dev_cur_assignments
p183
sg23
g17
(g19
S'\x96*\x8b\xbc\xe9\xb7\xb8?'
tRp184
sa(dp185
g16
g17
(g19
S"'\xdb\xe0\xac\xfb$T?"
tRp186
sg21
Vcontractor->dev_blurb->your
p187
sg23
g17
(g19
S'=\xa0\xf1\r\xad\xfe\xa5?'
tRp188
sa(dp189
g16
g17
(g19
S'b\x8bZPL9\x8a?'
tRp190
sg21
Vcontractor->dev_blurb->writing
p191
sg23
g17
(g19
S'\xe6|\xfd6\xb6N\xd5?'
tRp192
sa(dp193
g16
g17
(g19
S'\xf1\x80Z\xcc-\xd7\x83?'
tRp194
sg21
Vcontractor->dev_blurb->working
p195
sg23
g17
(g19
S'\xf5~\xbcD\xd56\xcf?'
tRp196
sa(dp197
g16
g17
(g19
S'\\_\xcc\x08?\xec\x7f?'
tRp198
sg21
Vcontractor->dev_blurb->word
p199
sg23
g17
(g19
S'<\x98MXi-\xd6?'
tRp200
sa(dp201
g16
g17
(g19
S'\xaf\xc8\xff=@OH?'
tRp202
sg21
Vcontractor->dev_blurb->where
p203
sg23
g17
(g19
S'\x0bY\xd4\xc8\xa7\x9e\xa5?'
tRp204
sa(dp205
g16
g17
(g19
S'P\x06[\xa6x\xaaO?'
tRp206
sg21
Vcontractor->dev_blurb->website
p207
sg23
g17
(g19
S'\xa6\x89!\xef\x966\xa4?'
tRp208
sa(dp209
g16
g17
(g19
S'\xa0\\B\xb0\x071h?'
tRp210
sg21
Vcontractor->dev_blurb->very
p211
sg23
g17
(g19
S'\x17\xfd\xd8\xf5\x0c\xb2\xb7?'
tRp212
sa(dp213
g16
g17
(g19
S'"\x17c\x89\xaan\x82?'
tRp214
sg21
Vcontractor->dev_blurb->using
p215
sg23
g17
(g19
S']\x95\xf1]\\t\xd2?'
tRp216
sa(dp217
g16
g17
(g19
S'\x92\xe30=\xafO|?'
tRp218
sg21
Vcontractor->dev_blurb->time
p219
sg23
g17
(g19
S'\xfdy\xa9\xf0\xe0~\xc9?'
tRp220
sa(dp221
g16
g17
(g19
S'\xe9\xe8\xda\xee,1\xa1?'
tRp222
sg21
Vcontractor->dev_blurb->the
p223
sg23
g17
(g19
S'\x9c\xd5\xbajU\xa0\xd1?'
tRp224
sa(dp225
g16
g17
(g19
S'*=xL\x17<\x9c?'
tRp226
sg21
Vcontractor->dev_blurb->that
p227
sg23
g17
(g19
S'\x99\x1b\x07]T\xd6\xda?'
tRp228
sa(dp229
g16
g17
(g19
S'\xea?4\r\x0eR:?'
tRp230
sg21
Vcontractor->dev_blurb->tasks
p231
sg23
g17
(g19
S'\xff(E:w\xf9\x92?'
tRp232
sa(dp233
g16
g17
(g19
S'V\xdd\xca\xf6!=~?'
tRp234
sg21
Vcontractor->dev_blurb->support
p235
sg23
g17
(g19
S'\xc6(\x97E\x12\xc4\xd4?'
tRp236
sa(dp237
g16
g17
(g19
S'\xb4\xfb\xdd/\xc0\x86\x84?'
tRp238
sg21
Vcontractor->dev_blurb->strong
p239
sg23
g17
(g19
S'*n\xa6\xd5(\xa7\xd8?'
tRp240
sa(dp241
g16
g17
(g19
S'\tL\xe8\xbbCK\x80?'
tRp242
sg21
Vcontractor->dev_blurb->solutions
p243
sg23
g17
(g19
S's\xb8\x10f%\x1f\xd9?'
tRp244
sa(dp245
g16
g17
(g19
S'\x17\xafy\xb7\xcbu\x9a?'
tRp246
sg21
Vcontractor->dev_blurb->skills
p247
sg23
g17
(g19
S'\xa9\x0f\xad]\x13f\xdd?'
tRp248
sa(dp249
g16
g17
(g19
S'\x83\x0c\xf9K\xcb+[?'
tRp250
sg21
Vcontractor->dev_blurb->seo
p251
sg23
g17
(g19
S'\xd9\x87@y\x80/\xb2?'
tRp252
sa(dp253
g16
g17
(g19
S'\xe7U^\xf3\xd2\xce|?'
tRp254
sg21
Vcontractor->dev_blurb->research
p255
sg23
g17
(g19
S'dk\xa3\x91\x88\x1d\xd1?'
tRp256
sa(dp257
g16
g17
(g19
S'\xa3\x8f\x08A\x10:t?'
tRp258
sg21
Vcontractor->dev_blurb->provide
p259
sg23
g17
(g19
S'c\x90\x10\x07\xe7\x89\xc6?'
tRp260
sa(dp261
g16
g17
(g19
S'\xd5Yg\xbc\x84\xdc\x85?'
tRp262
sg21
Vcontractor->dev_blurb->professional
p263
sg23
g17
(g19
S'\x80\xe0\x99\x14\x95\xc9\xd4?'
tRp264
sa(dp265
g16
g17
(g19
S'\x1bq\xd2g\xb5"b?'
tRp266
sg21
Vcontractor->dev_blurb->other
p267
sg23
g17
(g19
S'\x1c\xa9\xa9\xa4Q\x03\xbe?'
tRp268
sa(dp269
g16
g17
(g19
S'*u9?\xce@u?'
tRp270
sg21
Vcontractor->dev_blurb->or
p271
sg23
g17
(g19
S'\xf3x\x97\xdaCC\xca?'
tRp272
sa(dp273
g16
g17
(g19
S'\xbd;\x05Z\xdf\xf4\\?'
tRp274
sg21
Vcontractor->dev_blurb->one
p275
sg23
g17
(g19
S'\xb7\x0b\x9a\xe4\xd9\x9f\xc2?'
tRp276
sa(dp277
g16
g17
(g19
S'\x0b\xa0l:y\xc8Z?'
tRp278
sg21
Vcontractor->dev_blurb->new
p279
sg23
g17
(g19
S'\xc1c\xf6\x8b8\xde\xb7?'
tRp280
sa(dp281
g16
g17
(g19
S'\t\xbeh[8\xc5\xa5?'
tRp282
sg21
Vcontractor->dev_blurb->my
p283
sg23
g17
(g19
S'p\x1a<\x98\xa2\xa8\xd5?'
tRp284
sa(dp285
g16
g17
(g19
S'"!\xc8\xb6\xde\xb7\\?'
tRp286
sg21
Vcontractor->dev_blurb->marketing
p287
sg23
g17
(g19
S'\x9f\rP\xa6?\xd5\xb5?'
tRp288
sa(dp289
g16
g17
(g19
S'\x95\xea\xc3\x9c\x06\xb5G?'
tRp290
sg21
Vcontractor->dev_blurb->looking
p291
sg23
g17
(g19
S'\x02L\xac\x8d\xa4*\xa1?'
tRp292
sa(dp293
g16
g17
(g19
S'\x93v\x8a\xc4\xb9\xf0N?'
tRp294
sg21
Vcontractor->dev_blurb->knowledge
p295
sg23
g17
(g19
S'\xc1\xdf\x003\xe3=\xa0?'
tRp296
sa(dp297
g16
g17
(g19
S'\xc2\x13]eD\x08\x88?'
tRp298
sg21
Vcontractor->dev_blurb->it
p299
sg23
g17
(g19
S"'\xdb\x80f\x91\x99\xdd?"
tRp300
sa(dp301
g16
g17
(g19
S'\xd2\xbb\xbe\xb0\r\x97\x8b?'
tRp302
sg21
Vcontractor->dev_blurb->is
p303
sg23
g17
(g19
S'\xa7G\xf6\xd9\xd4\x1a\xcc?'
tRp304
sa(dp305
g16
g17
(g19
S'\x9ak-r\xd4\x0bF?'
tRp306
sg21
Vcontractor->dev_blurb->if
p307
sg23
g17
(g19
S'\xcd\xb7\x9a\x8b\xfa\x83\xa4?'
tRp308
sa(dp309
g16
g17
(g19
S'\x1fH\x03\xaa\x9b\x0e\x94?'
tRp310
sg21
Vcontractor->dev_blurb->good
p311
sg23
g17
(g19
S'\xd2u\x04\x19\xd4\xf8\xdb?'
tRp312
sa(dp313
g16
g17
(g19
S'J\xb5\x1e>T\x0eV?'
tRp314
sg21
Vcontractor->dev_blurb->goal
p315
sg23
g17
(g19
S'\x8b&\xfaNj\x17\xaf?'
tRp316
sa(dp317
g16
g17
(g19
S'\x80\xd6Z\xd5\xa6\x1e\x90?'
tRp318
sg21
Vcontractor->dev_blurb->for
p319
sg23
g17
(g19
S'\xc9\xf7\x0cM\x1cS\xc7?'
tRp320
sa(dp321
g16
g17
(g19
S'{j7\r\x87`\x8d?'
tRp322
sg21
Vcontractor->dev_blurb->excellent
p323
sg23
g17
(g19
S'\x9fUxob8\xe4?'
tRp324
sa(dp325
g16
g17
(g19
S'x\xa6SW\xdd\xb5y?'
tRp326
sg21
Vcontractor->dev_blurb->excel
p327
sg23
g17
(g19
S'\x1fm$\x0b\xa7\x85\xd2?'
tRp328
sa(dp329
g16
g17
(g19
S'\x94T\x11;\x7f\xdag?'
tRp330
sg21
Vcontractor->dev_blurb->designer
p331
sg23
g17
(g19
S'\xe6D\x19\x97F\xa9\xbf?'
tRp332
sa(dp333
g16
g17
(g19
S'O\xc4p\x14\xfe3"?'
tRp334
sg21
Vcontractor->dev_blurb->companies
p335
sg23
g17
(g19
S'\xaa\x83\xb7\x8f\x95\xb1\x82?'
tRp336
sa(dp337
g16
g17
(g19
S'5\xfc\x12jb/q?'
tRp338
sg21
Vcontractor->dev_blurb->clients
p339
sg23
g17
(g19
S'\xee\x92P\x9f{\xeb\xc1?'
tRp340
sa(dp341
g16
g17
(g19
S'\x18\x90i\xd7%\xb5t?'
tRp342
sg21
Vcontractor->dev_blurb->client
p343
sg23
g17
(g19
S'\xa8p\x87ra\xfa\xcf?'
tRp344
sa(dp345
g16
g17
(g19
S'Z=q\r\xb2&D?'
tRp346
sg21
Vcontractor->dev_blurb->can
p347
sg23
g17
(g19
S'?\xa2t\xcfG\x1d\x8e?'
tRp348
sa(dp349
g16
g17
(g19
S'\x7f\x80\xd5V\x80,`?'
tRp350
sg21
Vcontractor->dev_blurb->but
p351
sg23
g17
(g19
S'U\x8d\xda|\xec\xdc\xb6?'
tRp352
sa(dp353
g16
g17
(g19
S'\xba0\x93\x839]\x93?'
tRp354
sg21
Vcontractor->dev_blurb->business
p355
sg23
g17
(g19
S'\x80\x12\x86\xb0\xdbz\xdf?'
tRp356
sa(dp357
g16
g17
(g19
S'"\\h\xc6\x8f\xb5j?'
tRp358
sg21
Vcontractor->dev_blurb->best
p359
sg23
g17
(g19
S'\xd3\x06d &\x86\xc1?'
tRp360
sa(dp361
g16
g17
(g19
S'4\xb2}\xb9\x19\x88\x89?'
tRp362
sg21
Vcontractor->dev_blurb->been
p363
sg23
g17
(g19
S'=\x85\xc9N``\xe1?'
tRp364
sa(dp365
g16
g17
(g19
S'*\xf0z\xa1n\xf4|?'
tRp366
sg21
Vcontractor->dev_blurb->be
p367
sg23
g17
(g19
S'\xa8t\xf9\x87\xaa\xbb\xc2?'
tRp368
sa(dp369
g16
g17
(g19
S';\xb2\x81\xc4"\xc1\x91?'
tRp370
sg21
Vcontractor->dev_blurb->as
p371
sg23
g17
(g19
S'xhP3|\x04\xce?'
tRp372
sa(dp373
g16
g17
(g19
S'\xb4\xd2j}\xab\x8f\xc4?'
tRp374
sg21
Vcontractor->dev_blurb->and
p375
sg23
g17
(g19
S'@\xef\xe2_\xbfe\xe6?'
tRp376
sa(dp377
g16
g17
(g19
S'\xces\x17\xa2\xa1\xc3y?'
tRp378
sg21
Vcontractor->dev_blurb->an
p379
sg23
g17
(g19
S'\x8b\xc9\xe5\xe8\x92>\xc7?'
tRp380
sa(dp381
g16
g17
(g19
S'\xd9\xc4|\x18\x97tw?'
tRp382
sg21
Vcontractor->dev_blurb->am
p383
sg23
g17
(g19
S'\x1c\xb0l\xe9\xad~\xb5?'
tRp384
sa(dp385
g16
g17
(g19
S'L\xdc+\x9fh2|?'
tRp386
sg21
Vcontractor->dev_blurb->always
p387
sg23
g17
(g19
S'Y\x11D7\x1aH\xd6?'
tRp388
sa(dp389
g16
g17
(g19
S'i\x8c\xa8\xb9-Ev?'
tRp390
sg21
Vcontractor->dev_blurb->all
p391
sg23
g17
(g19
S'\x05\x85a)\xf4\xe5\xc3?'
tRp392
sa(dp393
g16
g17
(g19
S'Z\xfe\x15ZD\xd7\x90?'
tRp394
sg21
Vcontractor->dev_billed_assignments
p395
sg23
g17
(g19
S"\xaf|>'8`\xc9?"
tRp396
sa(dp397
g16
g17
(g19
S'\xfe\x00>\xe6\xc9\x9f\x90?'
tRp398
sg21
Vcontractor->dev_availability
p399
sg23
g17
(g19
S'\x1fAs\xd4\xd9w\x96?'
tRp400
sa(dp401
g16
g17
(g19
S'r7j\r\x8e\n\xd9?'
tRp402
sg21
Vcontractor->dev_adj_score
p403
sg23
g17
(g19
S'\x02\xf1-\xc8\xbai\xe3?'
tRp404
sasS'negative'
p405
(lp406
(dp407
g16
g17
(g19
S'\xa8<!4\xaa\xb7\xad?'
tRp408
sg21
Vcontractor->dev_active_interviews
p409
sg23
g17
(g19
S'\x93]\x17 \x86T\xde\xbf'
tRp410
sa(dp411
g16
g17
(g19
S'=\xba\xd6\xb3>~\xd6?'
tRp412
sg21
Vcontractor->dev_adj_score_recent
p413
sg23
g17
(g19
S'\xd8X9G\x86&\xe3\xbf'
tRp414
sa(dp415
g16
g17
(g19
S'"SA\xaa\xa2\x94\xa4?'
tRp416
sg21
Vcontractor->dev_bill_rate
p417
sg23
g17
(g19
S'\xf4\xfax\xc1mJ\xd1\xbf'
tRp418
sa(dp419
g16
g17
(g19
S'`\xf2\xa3f\xed\x8cb?'
tRp420
sg21
Vcontractor->dev_blurb->also
p421
sg23
g17
(g19
S'<\xa3PD\x07\x04\xb3\xbf'
tRp422
sa(dp423
g16
g17
(g19
S'\x042\xdbqrey?'
tRp424
sg21
Vcontractor->dev_blurb->are
p425
sg23
g17
(g19
S'>\xd6\xa3u\x0e\x9c\xc7\xbf'
tRp426
sa(dp427
g16
g17
(g19
S'#\xf4\xa7\x8a\xe3\x8bV?'
tRp428
sg21
Vcontractor->dev_blurb->at
p429
sg23
g17
(g19
S'\x80@\xafa\xbb\xf1\xa9\xbf'
tRp430
sa(dp431
g16
g17
(g19
S'\xc9\xe1n\xea\xa7\xb7v?'
tRp432
sg21
Vcontractor->dev_blurb->com
p433
sg23
g17
(g19
S'\xdfk\xa6\x80c\xec\xbc\xbf'
tRp434
sa(dp435
g16
g17
(g19
S'\xbe\x18\xfc\x1eY\xc6X?'
tRp436
sg21
Vcontractor->dev_blurb->company
p437
sg23
g17
(g19
S'\x90\t\x91\xcdN\xda\xb3\xbf'
tRp438
sa(dp439
g16
g17
(g19
S'99\xa77\xca`\x80?'
tRp440
sg21
Vcontractor->dev_blurb->complete
p441
sg23
g17
(g19
S'\xb3<\x8d\x9e\xcf\x8d\xd7\xbf'
tRp442
sa(dp443
g16
g17
(g19
S'[\xd6\xf6!\x83\x94z?'
tRp444
sg21
Vcontractor->dev_blurb->customer
p445
sg23
g17
(g19
S'a\x83\xe3=}\xc0\xcb\xbf'
tRp446
sa(dp447
g16
g17
(g19
S"ov\xf0'\xb8U]?"
tRp448
sg21
Vcontractor->dev_blurb->data
p449
sg23
g17
(g19
S'\xdcdh\xf4P\xb3\xa0\xbf'
tRp450
sa(dp451
g16
g17
(g19
S'-\x17\x81|!\xd2}?'
tRp452
sg21
Vcontractor->dev_blurb->design
p453
sg23
g17
(g19
S'\xaa\xe8n\t\x15>\xc7\xbf'
tRp454
sa(dp455
g16
g17
(g19
S'\x05\x8d7j})\xe9>'
tRp456
sg21
Vcontractor->dev_blurb->developed
p457
sg23
g17
(g19
S'\xa1.\xf2&\xc8\xbcC\xbf'
tRp458
sa(dp459
g16
g17
(g19
S'Z,\xa2\x98L\xb84?'
tRp460
sg21
Vcontractor->dev_blurb->development
p461
sg23
g17
(g19
S'\xfe\xdes\xfa\xb2\n\x84\xbf'
tRp462
sa(dp463
g16
g17
(g19
S'\xd9\xc4A\xa2\x8aZ\x87?'
tRp464
sg21
Vcontractor->dev_blurb->do
p465
sg23
g17
(g19
S'\x18\xd4k\xbe\x0c\xbf\xdb\xbf'
tRp466
sa(dp467
g16
g17
(g19
S'ow\xc9n\xfa\x96\x80?'
tRp468
sg21
Vcontractor->dev_blurb->entry
p469
sg23
g17
(g19
S'!\x8e\xbf\xc2w\x17\xc8\xbf'
tRp470
sa(dp471
g16
g17
(g19
S'Xx\xfe\xdcn\x04\xa0?'
tRp472
sg21
Vcontractor->dev_blurb->experience
p473
sg23
g17
(g19
S't-\x80\xc7\xe2)\xdc\xbf'
tRp474
sa(dp475
g16
g17
(g19
S'\x90\xf8\xc4\xad\xe4\x8bz?'
tRp476
sg21
Vcontractor->dev_blurb->expertise
p477
sg23
g17
(g19
S'=\x9cS\xb4\x7f\xf3\xd4\xbf'
tRp478
sa(dp479
g16
g17
(g19
S'j\x93\xc0\xc4\xe4Yk?'
tRp480
sg21
Vcontractor->dev_blurb->following
p481
sg23
g17
(g19
S"I\x986'\xe4\xcb\xcb\xbf"
tRp482
sa(dp483
g16
g17
(g19
S'\x86\x99/\xb2k\xe4b?'
tRp484
sg21
Vcontractor->dev_blurb->from
p485
sg23
g17
(g19
S'\xb4\xfb\xf8!?k\xba\xbf'
tRp486
sa(dp487
g16
g17
(g19
S'-\xdfu\x9c\x82\x9c\x85?'
tRp488
sg21
Vcontractor->dev_blurb->have
p489
sg23
g17
(g19
S':\x80\x88J\xe3t\xc1\xbf'
tRp490
sa(dp491
g16
g17
(g19
S'\xf5/\x8f@\xbc}\x8e?'
tRp492
sg21
Vcontractor->dev_blurb->html
p493
sg23
g17
(g19
S'z\x1bJt\xe2\xf7\xe1\xbf'
tRp494
sa(dp495
g16
g17
(g19
S'\x90d((I\xcd\x96?'
tRp496
sg21
Vcontractor->dev_blurb->in
p497
sg23
g17
(g19
S'+\xa4&\xad\xa0\x7f\xc4\xbf'
tRp498
sa(dp499
g16
g17
(g19
S'\x8cP\xb7\xde{\x8dt?'
tRp500
sg21
Vcontractor->dev_blurb->jobs
p501
sg23
g17
(g19
S'\xba\xb2\x05\xb7\x81p\xd1\xbf'
tRp502
sa(dp503
g16
g17
(g19
S'"\xa07\x90\x9a\xa2g?'
tRp504
sg21
Vcontractor->dev_blurb->last
p505
sg23
g17
(g19
S'\x04\x11\xe1\x1d\xa0\xb5\xc0\xbf'
tRp506
sa(dp507
g16
g17
(g19
S' \xea\x9c\x03r\xa0A?'
tRp508
sg21
Vcontractor->dev_blurb->like
p509
sg23
g17
(g19
S'\x96^\xa5\xa3\x8b\xa0\x99\xbf'
tRp510
sa(dp511
g16
g17
(g19
S'\x92\xd2\xd9\x01\x14\x88\x80?'
tRp512
sg21
Vcontractor->dev_blurb->management
p513
sg23
g17
(g19
S'\x1c\x12\xd2\x0f\xc5\x90\xd2\xbf'
tRp514
sa(dp515
g16
g17
(g19
S'\xb1\xc4&spFw?'
tRp516
sg21
Vcontractor->dev_blurb->many
p517
sg23
g17
(g19
S'u\x99\xa1\x95\xc1\xfa\xd1\xbf'
tRp518
sa(dp519
g16
g17
(g19
S'\xa6\xd4\xc2\xb0\x89l\x9a?'
tRp520
sg21
Vcontractor->dev_blurb->me
p521
sg23
g17
(g19
S' n\xf2"\xc34\xe6\xbf'
tRp522
sa(dp523
g16
g17
(g19
S'\xf0\xba\xb3.\x7f\xd1^?'
tRp524
sg21
Vcontractor->dev_blurb->more
p525
sg23
g17
(g19
S'\xaf_:2\xab9\xb2\xbf'
tRp526
sa(dp527
g16
g17
(g19
S'\xe8\xa2\xf5]d\xc2\x81?'
tRp528
sg21
Vcontractor->dev_blurb->mysql
p529
sg23
g17
(g19
S'\x87\xe4\xd4\xf2\xec8\xd6\xbf'
tRp530
sa(dp531
g16
g17
(g19
S'\x04_\x92\xf6\xd3m8?'
tRp532
sg21
Vcontractor->dev_blurb->not
p533
sg23
g17
(g19
S'?\x05\xab\xe4\xc8\xe6\x90\xbf'
tRp534
sa(dp535
g16
g17
(g19
S',\x04\xd8*\xc85k?'
tRp536
sg21
Vcontractor->dev_blurb->objective
p537
sg23
g17
(g19
S'mX\x86S_e\xc4\xbf'
tRp538
sa(dp539
g16
g17
(g19
S'\xe3\x16$!\xb3\xff\x8b?'
tRp540
sg21
Vcontractor->dev_blurb->of
p541
sg23
g17
(g19
S'2G\xe1\xf8\xd8[\xc0\xbf'
tRp542
sa(dp543
g16
g17
(g19
S'\xa3\xd3\x80\x04XO\x96?'
tRp544
sg21
Vcontractor->dev_blurb->on
p545
sg23
g17
(g19
S'\x8c\xa9\xb8\x1e\x97\x18\xdb\xbf'
tRp546
sa(dp547
g16
g17
(g19
S'#\xa5R\xa8\xd4=S?'
tRp548
sg21
Vcontractor->dev_blurb->oriented
p549
sg23
g17
(g19
S'R\x88|\xa7\xb7\xb9\xad\xbf'
tRp550
sa(dp551
g16
g17
(g19
S'\xabi~\xae\xc3\x90~?'
tRp552
sg21
Vcontractor->dev_blurb->over
p553
sg23
g17
(g19
S'UR\x0f\x89x\xf8\xc9\xbf'
tRp554
sa(dp555
g16
g17
(g19
S'\xb40\x94\xe6/\xb1\x83?'
tRp556
sg21
Vcontractor->dev_blurb->php
p557
sg23
g17
(g19
S'\x8e\xc2b\x80\x8e\x00\xd7\xbf'
tRp558
sa(dp559
g16
g17
(g19
S'\x93\xe7\x97\x0f\x90@@?'
tRp560
sg21
Vcontractor->dev_blurb->project
p561
sg23
g17
(g19
S'4\x9c|\x8c\xf4\xff\x97\xbf'
tRp562
sa(dp563
g16
g17
(g19
S'\x19\x87z\t\xb8F\x89?'
tRp564
sg21
Vcontractor->dev_blurb->quality
p565
sg23
g17
(g19
S'\x91\x98\xe5\xf18;\xd7\xbf'
tRp566
sa(dp567
g16
g17
(g19
S'\xc8Y1\x91n\xa2R?'
tRp568
sg21
Vcontractor->dev_blurb->satisfaction
p569
sg23
g17
(g19
S"\xa0n\xa8\x81'\x17\xac\xbf"
tRp570
sa(dp571
g16
g17
(g19
S'\xcf\x8f2\xb6\x05\x8cm?'
tRp572
sg21
Vcontractor->dev_blurb->service
p573
sg23
g17
(g19
S'`zl\xec5\x1e\xb5\xbf'
tRp574
sa(dp575
g16
g17
(g19
S'\xac\xd5\xc2]\x86\x01a?'
tRp576
sg21
Vcontractor->dev_blurb->some
p577
sg23
g17
(g19
S'\x07\xb3\xa3\x0f\x08\\\xc0\xbf'
tRp578
sa(dp579
g16
g17
(g19
S'\x12\xe1\xad/L\xd6;?'
tRp580
sg21
Vcontractor->dev_blurb->than
p581
sg23
g17
(g19
S'\xec\xdb\x90\xc2_\x03\x9c\xbf'
tRp582
sa(dp583
g16
g17
(g19
S'G\x0e\xc3\x04\xc9@\x90?'
tRp584
sg21
Vcontractor->dev_blurb->to
p585
sg23
g17
(g19
S'\xb3\x11!\xf1\xfb\xc1\xb7\xbf'
tRp586
sa(dp587
g16
g17
(g19
S'D\xbe6\x9cp\x0e\x8a?'
tRp588
sg21
Vcontractor->dev_blurb->use
p589
sg23
g17
(g19
S'\xa9;\xb3\xa9\xc5z\xde\xbf'
tRp590
sa(dp591
g16
g17
(g19
S'X\xe4\xb3\xffH\x08j?'
tRp592
sg21
Vcontractor->dev_blurb->web
p593
sg23
g17
(g19
S'W8<\xff&\x0f\xad\xbf'
tRp594
sa(dp595
g16
g17
(g19
S'\xa8\x84\xbc\xbcY\x9dO?'
tRp596
sg21
Vcontractor->dev_blurb->well
p597
sg23
g17
(g19
S'5\xbb\xaaE\x98k\xa5\xbf'
tRp598
sa(dp599
g16
g17
(g19
S'\xcf\xfe\xcc*\x8d\xb3s?'
tRp600
sg21
Vcontractor->dev_blurb->what
p601
sg23
g17
(g19
S'x\xe1}\xc9\x12\xb3\xd3\xbf'
tRp602
sa(dp603
g16
g17
(g19
S'\xf9\xee\xd8=\x97\xc7\x93?'
tRp604
sg21
Vcontractor->dev_blurb->will
p605
sg23
g17
(g19
S'\x9e\xc7&\xcf\xd5D\xdf\xbf'
tRp606
sa(dp607
g16
g17
(g19
S';\x11\xbe\xb4y#m?'
tRp608
sg21
Vcontractor->dev_blurb->with
p609
sg23
g17
(g19
S'L\xb1\x82\xbe\xf6\x96\xa5\xbf'
tRp610
sa(dp611
g16
g17
(g19
S'\xc3\xc2\r:O\xa8y?'
tRp612
sg21
Vcontractor->dev_blurb->wordpress
p613
sg23
g17
(g19
S';\xd2\xb1\x9b\r\x99\xd1\xbf'
tRp614
sa(dp615
g16
g17
(g19
S'\x96\x9b\xd7|\x12.\xa5?'
tRp616
sg21
Vcontractor->dev_blurb->work
p617
sg23
g17
(g19
S'L\x1b\x8bR\x82\xd2\xe2\xbf'
tRp618
sa(dp619
g16
g17
(g19
S'\x07e\x83\xf65\x99|?'
tRp620
sg21
Vcontractor->dev_blurb->would
p621
sg23
g17
(g19
S'\xe0\xb4\xd7;\x8b\xd2\xd8\xbf'
tRp622
sa(dp623
g16
g17
(g19
S'\x96\xf7\xaea\xe2\xe2\x80?'
tRp624
sg21
Vcontractor->dev_blurb->years
p625
sg23
g17
(g19
S'\x96\xcc\x04\x88\xcd#\xc3\xbf'
tRp626
sa(dp627
g16
g17
(g19
S'\x8d\x84\x90\xd8@/\x85?'
tRp628
sg21
Vcontractor->dev_blurb->you
p629
sg23
g17
(g19
S'1\xef\xc6\xfb\xc5J\xc8\xbf'
tRp630
sa(dp631
g16
g17
(g19
S'?\xa1\x85\xfa\xd3m\xdf?'
tRp632
sg21
Vcontractor->dev_eng_skill
p633
sg23
g17
(g19
S'\x90? \x98\x9a\x08\xe1\xbf'
tRp634
sa(dp635
g16
g17
(g19
S'z\x04\xe6\xf5>\xdb\xdf?'
tRp636
sg21
Vcontractor->dev_last_worked
p637
sg23
g17
(g19
S'rmt\x1f\xce\x04\xe5\xbf'
tRp638
sa(dp639
g16
g17
(g19
S'\x8b\xb02\x86CZ\x1b?'
tRp640
sg21
Vcontractor->dev_profile_title->and
p641
sg23
g17
(g19
S'PG\x08\xde\xa9\xc7_\xbf'
tRp642
sa(dp643
g16
g17
(g19
S'Q\xcc\x1a"c\n@?'
tRp644
sg21
Vcontractor->dev_profile_title->artist
p645
sg23
g17
(g19
S'@\xdc\xf7\xe9k]\x9a\xbf'
tRp646
sa(dp647
g16
g17
(g19
S'4~\x85|\xadk\x80?'
tRp648
sg21
Vcontractor->dev_profile_title->assistant
p649
sg23
g17
(g19
S'\xc8\x03s\xdd\x82a\xcc\xbf'
tRp650
sa(dp651
g16
g17
(g19
S'#\xce_\x89\xa3\xb6y?'
tRp652
sg21
Vcontractor->dev_profile_title->best
p653
sg23
g17
(g19
S'\x15\x88L\xc2\\\xa5\xce\xbf'
tRp654
sa(dp655
g16
g17
(g19
S'\x95\xbaF\x9b\xdfA\x91?'
tRp656
sg21
Vcontractor->dev_profile_title->css
p657
sg23
g17
(g19
S'9H-\xe9KK\xe1\xbf'
tRp658
sa(dp659
g16
g17
(g19
S'\x89n\xe8<\xbe\xad\x84?'
tRp660
sg21
Vcontractor->dev_profile_title->data
p661
sg23
g17
(g19
S'\x08\xa8:\x13\xe1j\xbe\xbf'
tRp662
sa(dp663
g16
g17
(g19
S'6&`\xe2\t\xff\x82?'
tRp664
sg21
Vcontractor->dev_profile_title->designer
p665
sg23
g17
(g19
S'\xee\xe8\xf5\xa3\x17\xbf\xc6\xbf'
tRp666
sa(dp667
g16
g17
(g19
S'-\x9a\xaa\x1f\x82p\x86?'
tRp668
sg21
Vcontractor->dev_profile_title->developer
p669
sg23
g17
(g19
S'\x01\xaaB!\xbc)\xc8\xbf'
tRp670
sa(dp671
g16
g17
(g19
S'\x82~j\x9a\xc2\x01\x88?'
tRp672
sg21
Vcontractor->dev_profile_title->experienced
p673
sg23
g17
(g19
S'\x1f\x80\xe7\x9b\xec\xe5\xda\xbf'
tRp674
sa(dp675
g16
g17
(g19
S'\xa0\x124N\xfb\x96\x94?'
tRp676
sg21
Vcontractor->dev_profile_title->expert
p677
sg23
g17
(g19
S'\xbf\xbc\xa9\xfd\x13\x7f\xda\xbf'
tRp678
sa(dp679
g16
g17
(g19
S'y\x92K\x92b\x8c\x7f?'
tRp680
sg21
Vcontractor->dev_profile_title->for
p681
sg23
g17
(g19
S'\xed\xd6\xb1\xe2\xab{\xda\xbf'
tRp682
sa(dp683
g16
g17
(g19
S'\xf9\xebc\xb5\xf4\x98\x7f?'
tRp684
sg21
Vcontractor->dev_profile_title->freelance
p685
sg23
g17
(g19
S'\xbflk\xdc\xc8\x15\xda\xbf'
tRp686
sa(dp687
g16
g17
(g19
S'\x88\xc8\xa6\x82\xd7>\x91?'
tRp688
sg21
Vcontractor->dev_profile_title->html
p689
sg23
g17
(g19
S'\x8a\xc2B\x05<\xf4\xe0\xbf'
tRp690
sa(dp691
g16
g17
(g19
S'~n\xab\x12\x0b#~?'
tRp692
sg21
Vcontractor->dev_profile_title->mysql
p693
sg23
g17
(g19
S'W\x17\x89\xcf\xf5\x8e\xdd\xbf'
tRp694
sa(dp695
g16
g17
(g19
S'\x8a\xfbO\x80\xa5\xfcs?'
tRp696
sg21
Vcontractor->dev_profile_title->of
p697
sg23
g17
(g19
S'\x00\xe5\xf5\xc8\xd6\xf9\xd1\xbf'
tRp698
sa(dp699
g16
g17
(g19
S'\x07\x97|w\x0bwP?'
tRp700
sg21
Vcontractor->dev_profile_title->photoshop
p701
sg23
g17
(g19
S'\x84\\],2e\xab\xbf'
tRp702
sa(dp703
g16
g17
(g19
S'\xa5\xc7\xf5\x7f\xf6l|?'
tRp704
sg21
Vcontractor->dev_profile_title->researcher
p705
sg23
g17
(g19
S'z#\xe4\xc25J\xc1\xbf'
tRp706
sa(dp707
g16
g17
(g19
S'\xbc\x03\x8b\xf3E[f?'
tRp708
sg21
Vcontractor->dev_profile_title->software
p709
sg23
g17
(g19
S'\xf8w\xf4I|\xd5\xb3\xbf'
tRp710
sa(dp711
g16
g17
(g19
S'\x8a\x8a\xb1\x07\x86\xc8q?'
tRp712
sg21
Vcontractor->dev_profile_title->specialist
p713
sg23
g17
(g19
S'\xd0\xe5\xae]\t\x15\xd0\xbf'
tRp714
sa(dp715
g16
g17
(g19
S'\xe8S\xe2\x91UWN?'
tRp716
sg21
Vcontractor->dev_profile_title->top
p717
sg23
g17
(g19
S'\xe4A\xaf\xb4\x97\xc7\xac\xbf'
tRp718
sa(dp719
g16
g17
(g19
S'4\x95q\xaa\x1f\xfc\xa2?'
tRp720
sg21
Vcontractor->dev_profile_title->virtual
p721
sg23
g17
(g19
S'y\xb6\x9bS#\xf7\xec\xbf'
tRp722
sa(dp723
g16
g17
(g19
S'\x9f\x85\xff9Fx\xaa?'
tRp724
sg21
Vcontractor->dev_profile_title->web
p725
sg23
g17
(g19
S'F\x19\xa3\xc8\xedf\xe7\xbf'
tRp726
sa(dp727
g16
g17
(g19
S'\xbb\xab\xe9\x02u\x00B?'
tRp728
sg21
Vcontractor->dev_profile_title->wordpress
p729
sg23
g17
(g19
S'\xa4th\xad\x7f.\x8f\xbf'
tRp730
sa(dp731
g16
g17
(g19
S'\xcd\x99\xe7\x8d\x8f0N?'
tRp732
sg21
Vcontractor->dev_profile_title->writing
p733
sg23
g17
(g19
S'\xc7\x06X\x9fZ\x0e\xa8\xbf'
tRp734
sa(dp735
g16
g17
(g19
S'\x94+!\xf9\x94\xd6Y?'
tRp736
sg21
Vcontractor->dev_recent_fp_jobs
p737
sg23
g17
(g19
S'\x9flIP)\xc6\x99\xbf'
tRp738
sa(dp739
g16
g17
(g19
S'\xce\xebG\x0b\x87\xd9\xca?'
tRp740
sg21
Vcontractor->dev_recent_rank_percentile
p741
sg23
g17
(g19
S'\xaf\x9f3N\x12\xa9\xe1\xbf'
tRp742
sa(dp743
g16
g17
(g19
S'\xc1\x1ab\xd6?\xf4\x87?'
tRp744
sg21
Vcontractor->dev_skill_test_passed_count
p745
sg23
g17
(g19
S'\xcd\xdb\xd5{_a\xaa\xbf'
tRp746
sa(dp747
g16
g17
(g19
S'\x98o\xde\xe1\xdc\xcf\x93?'
tRp748
sg21
Vcontractor->dev_test_passed_count
p749
sg23
g17
(g19
S'\x16\xc5\xa0\xa6\x84H\xb3\xbf'
tRp750
sa(dp751
g16
g17
(g19
S'\xa2|V6\xbf\t\x8f?'
tRp752
sg21
Vcontractor->dev_tot_feedback_recent
p753
sg23
g17
(g19
S'VE\xd7\xf4,H\xc3\xbf'
tRp754
sa(dp755
g16
g17
(g19
S'\xe2\xfa\x0eM?\xb6x?'
tRp756
sg21
Vemployer->op_tot_jobs_filled
p757
sg23
g17
(g19
S'1\x97\xfb\x90zT\xbb\xbf'
tRp758
sa(dp759
g16
g17
(g19
S'O\x15\xd0\x17~.\xc3?'
tRp760
sg21
Vopening_id
p761
sg23
g17
(g19
S"\x15+'\x85\x00\x90\xc4\xbf"
tRp762
sasssS'classifier_type'
p763
Vlogistic regression
p764
sssS'_classifier'
p765
(dp766
g8
g1
(csklearn.linear_model.logistic
LogisticRegression
p767
g3
NtRp768
(dp769
S'C'
F1
sS'max_iter'
p770
I100
sS'verbose'
p771
I0
sS'intercept_scaling'
p772
I1
sS'dual'
p773
I00
sS'fit_intercept'
p774
I01
sS'classes_'
p775
cnumpy.core.multiarray
_reconstruct
p776
(cnumpy
ndarray
p777
(I0
tS'b'
tRp778
(I1
(I2
tg18
(S'S1'
I0
I1
tRp779
(I3
S'|'
NNNI1
I1
I0
tbI00
S'01'
tbsS'solver'
p780
S'liblinear'
p781
sS'n_iter_'
p782
g17
(g18
(S'i4'
I0
I1
tRp783
(I3
S'<'
NNNI-1
I-1
I0
tbS'\x05\x00\x00\x00'
tRp784
sS'penalty'
p785
Vl2
p786
sS'multi_class'
p787
S'ovr'
p788
sS'random_state'
p789
NsS'tol'
p790
F0.0001
sS'coef_'
p791
g776
(g777
(I0
tS'b'
tRp792
(I1
(I1
I185
tg19
I01
S'\x08\xa4=y\x86a\x91?\x08\xa4=y\x86a\x91?1\x97\xfb\x90zT\xbb\xbf\xd8X9G\x86&\xe3\xbf\xf5DD\xd4\xb3A\xe0?\xaf\x9f3N\x12\xa9\xe1\xbf\x9flIP)\xc6\x99\xbfs\xde\x06\xb7\xb0\xd6\xb7?\x05\x85a)\xf4\xe5\xc3?<\xa3PD\x07\x04\xb3\xbfY\x11D7\x1aH\xd6?\x1c\xb0l\xe9\xad~\xb5?\x8b\xc9\xe5\xe8\x92>\xc7?@\xef\xe2_\xbfe\xe6?>\xd6\xa3u\x0e\x9c\xc7\xbfxhP3|\x04\xce?\x80@\xafa\xbb\xf1\xa9\xbf\xa8t\xf9\x87\xaa\xbb\xc2?=\x85\xc9N``\xe1?\xd3\x06d &\x86\xc1?\x80\x12\x86\xb0\xdbz\xdf?U\x8d\xda|\xec\xdc\xb6??\xa2t\xcfG\x1d\x8e?\xa8p\x87ra\xfa\xcf?\xee\x92P\x9f{\xeb\xc1?\xdfk\xa6\x80c\xec\xbc\xbf\xaa\x83\xb7\x8f\x95\xb1\x82?\x90\t\x91\xcdN\xda\xb3\xbf\xb3<\x8d\x9e\xcf\x8d\xd7\xbfa\x83\xe3=}\xc0\xcb\xbf\xdcdh\xf4P\xb3\xa0\xbf\xaa\xe8n\t\x15>\xc7\xbf\xe6D\x19\x97F\xa9\xbf?\xa1.\xf2&\xc8\xbcC\xbf\xfe\xdes\xfa\xb2\n\x84\xbf\x18\xd4k\xbe\x0c\xbf\xdb\xbf!\x8e\xbf\xc2w\x17\xc8\xbf\x1fm$\x0b\xa7\x85\xd2?\x9fUxob8\xe4?t-\x80\xc7\xe2)\xdc\xbf=\x9cS\xb4\x7f\xf3\xd4\xbfI\x986\'\xe4\xcb\xcb\xbf\xc9\xf7\x0cM\x1cS\xc7?\xb4\xfb\xf8!?k\xba\xbf\x8b&\xfaNj\x17\xaf?\xd2u\x04\x19\xd4\xf8\xdb?:\x80\x88J\xe3t\xc1\xbfz\x1bJt\xe2\xf7\xe1\xbf\xcd\xb7\x9a\x8b\xfa\x83\xa4?+\xa4&\xad\xa0\x7f\xc4\xbf\xa7G\xf6\xd9\xd4\x1a\xcc?\'\xdb\x80f\x91\x99\xdd?\xba\xb2\x05\xb7\x81p\xd1\xbf\xc1\xdf\x003\xe3=\xa0?\x04\x11\xe1\x1d\xa0\xb5\xc0\xbf\x96^\xa5\xa3\x8b\xa0\x99\xbf\x02L\xac\x8d\xa4*\xa1?\x1c\x12\xd2\x0f\xc5\x90\xd2\xbfu\x99\xa1\x95\xc1\xfa\xd1\xbf\x9f\rP\xa6?\xd5\xb5? n\xf2"\xc34\xe6\xbf\xaf_:2\xab9\xb2\xbfp\x1a<\x98\xa2\xa8\xd5?\x87\xe4\xd4\xf2\xec8\xd6\xbf\xc1c\xf6\x8b8\xde\xb7??\x05\xab\xe4\xc8\xe6\x90\xbfmX\x86S_e\xc4\xbf2G\xe1\xf8\xd8[\xc0\xbf\x8c\xa9\xb8\x1e\x97\x18\xdb\xbf\xb7\x0b\x9a\xe4\xd9\x9f\xc2?\xf3x\x97\xdaCC\xca?R\x88|\xa7\xb7\xb9\xad\xbf\x1c\xa9\xa9\xa4Q\x03\xbe?UR\x0f\x89x\xf8\xc9\xbf\x8e\xc2b\x80\x8e\x00\xd7\xbf\x80\xe0\x99\x14\x95\xc9\xd4?4\x9c|\x8c\xf4\xff\x97\xbfc\x90\x10\x07\xe7\x89\xc6?\x91\x98\xe5\xf18;\xd7\xbfdk\xa3\x91\x88\x1d\xd1?\xa0n\xa8\x81\'\x17\xac\xbf\xd9\x87@y\x80/\xb2?`zl\xec5\x1e\xb5\xbf\xa9\x0f\xad]\x13f\xdd?s\xb8\x10f%\x1f\xd9?\x07\xb3\xa3\x0f\x08\\\xc0\xbf*n\xa6\xd5(\xa7\xd8?\xc6(\x97E\x12\xc4\xd4?\xff(E:w\xf9\x92?\xec\xdb\x90\xc2_\x03\x9c\xbf\x99\x1b\x07]T\xd6\xda?\x9c\xd5\xbajU\xa0\xd1?\xfdy\xa9\xf0\xe0~\xc9?\xb3\x11!\xf1\xfb\xc1\xb7\xbf\xa9;\xb3\xa9\xc5z\xde\xbf]\x95\xf1]\\t\xd2?\x17\xfd\xd8\xf5\x0c\xb2\xb7?W8<\xff&\x0f\xad\xbf\xa6\x89!\xef\x966\xa4?5\xbb\xaaE\x98k\xa5\xbfx\xe1}\xc9\x12\xb3\xd3\xbf\x0bY\xd4\xc8\xa7\x9e\xa5?\x9e\xc7&\xcf\xd5D\xdf\xbfL\xb1\x82\xbe\xf6\x96\xa5\xbf<\x98MXi-\xd6?;\xd2\xb1\x9b\r\x99\xd1\xbfL\x1b\x8bR\x82\xd2\xe2\xbf\xf5~\xbcD\xd56\xcf?\xe0\xb4\xd7;\x8b\xd2\xd8\xbf\xe6|\xfd6\xb6N\xd5?\x96\xcc\x04\x88\xcd#\xc3\xbf1\xef\xc6\xfb\xc5J\xc8\xbf=\xa0\xf1\r\xad\xfe\xa5?\xcd\xdb\xd5{_a\xaa\xbf\xea\xac\xf0\n\xdc\xfb\xd6?VE\xd7\xf4,H\xc3\xbf\x02\xf1-\xc8\xbai\xe3?\xdf\xb0\xb6\xa3\x0f\x92\xd7?\xaf|>\'8`\xc9? E\x08o[J\xd1?\x1fAs\xd4\xd9w\x96?\x90\x81m\xe8H\n\xda?\n\xd8\xb1:c\xbc\xb9?\xf4\xfax\xc1mJ\xd1\xbf\x16\xc5\xa0\xa6\x84H\xb3\xbf\x9f\xb9\x0c\x12\xa9v\xc6?\xf2\xb4@\xdcn\xb0\xd0?9\xa7\xe9\xf2\xcd\xd5\xe7?\n\x90\x90\x06(\x81\xd0?\x90? \x98\x9a\x08\xe1\xbfL\r\xbem\xa3(\xc7?\xb8\x1aQ\xb6\x12\x92\xa1?\x94\xab\xbe\x1f\xda^\xe8?\xec\xb2g\xfe\x82\xd5\xda?PG\x08\xde\xa9\xc7_\xbf\xdc\xb8Se\xb6H\xc2?@\xdc\xf7\xe9k]\x9a\xbf\xc8\x03s\xdd\x82a\xcc\xbf\x15\x88L\xc2\\\xa5\xce\xbf9H-\xe9KK\xe1\xbf1\xd7\x82\xc1\xf7\x8e\xdc?\x08\xa8:\x13\xe1j\xbe\xbf\xc0"\x87\xcaKD\xdb?\xee\xe8\xf5\xa3\x17\xbf\xc6\xbf\x01\xaaB!\xbc)\xc8\xbf\x94T6\x86\xbc\x92\xe7?f\xa3^\xaf\\\xad\xc5?\xf1>VC\x85<\xcc?\x82:\x009X/\xe1?\x1f\x80\xe7\x9b\xec\xe5\xda\xbf\xbf\xbc\xa9\xfd\x13\x7f\xda\xbf\xed\xd6\xb1\xe2\xab{\xda\xbf\xbflk\xdc\xc8\x15\xda\xbfoD\x99}L5\xce?Ky\x88\xc2\x92\xac\xd5?\x8a\xc2B\x05<\xf4\xe0\xbf\xef*\xc1\xa4\xdd\xc5\xdd?\x17)a\xf3\xcd\xd4\xc8?N\xaf\xe2P\x18\x93\xd3?W\x17\x89\xcf\xf5\x8e\xdd\xbf\x00\xe5\xf5\xc8\xd6\xf9\xd1\xbf\x84\\],2e\xab\xbf\x88\xb9\x96"i\xc2\xc0?A2&\xb6f\x84\xe0?\x11Z\xe2\xf8\x8b\x18\x7f?z#\xe4\xc25J\xc1\xbfc\x03\x14k\x8e\xf7\xc9?\xd4W\x0c\xdbxm\xe4?Rc\x9a&\xaeP\xd2?\x8d\x80\x97\xe3\x05\xe0\xc9?\x1a8\xdf\x15\x9f\xf9\xce?\xf8w\xf4I|\xd5\xb3\xbf\xd0\xe5\xae]\t\x15\xd0\xbf\xe4A\xaf\xb4\x97\xc7\xac\xbfy\xb6\x9bS#\xf7\xec\xbfF\x19\xa3\xc8\xedf\xe7\xbf\xd9\x9bA\x81\xbb\x1d\xc8?\xca\x9b[\xfd\xb7\xef\xd5?\xa4th\xad\x7f.\x8f\xbf|\xa76>\x85%\xc1?\xc7\x06X\x9fZ\x0e\xa8\xbf\x93]\x17 \x86T\xde\xbf\x96*\x8b\xbc\xe9\xb7\xb8?\x15+\'\x85\x00\x90\xc4\xbfrmt\x1f\xce\x04\xe5\xbf'
tbsS'intercept_'
p793
g776
(g777
(I0
tS'b'
tRp794
(I1
(I1
tg19
I00
S'O\xff\x01\xdbqZ\xd6?'
tbsS'class_weight'
p795
NsbssS'version'
p796
S'0.0.2-SNAPSHOT'
p797
sS'_segments'
p798
(dp799
g8
I99
ssS'_feature_model'
p800
g1
(ccloudml.trainer.config
FeatureModel
p801
g3
NtRp802
(dp803
S'features'
p804
ccollections
OrderedDict
p805
((lp806
(lp807
Vhire_outcome
p808
a(dp809
S'input-format'
p810
S'plain'
p811
sS'transformer'
p812
Nsg21
g808
sS'transformer-type'
p813
Nsg8
NsS'scaler'
p814
g1
(csklearn.preprocessing.data
MinMaxScaler
p815
g3
NtRp816
(dp817
S'copy'
p818
I01
sS'feature_range'
p819
(I0
I1
tp820
sbsS'required'
p821
I01
sS'type'
p822
g1
(ccloudml.trainer.feature_types.ordinal
OrdinalFeatureTypeInstance
p823
g3
NtRp824
(dp825
S'default_scaler'
p826
S'MinMaxScaler'
p827
sS'_default_value'
p828
NsS'_default_params'
p829
(lp830
sS'preprocessor'
p831
NsS'_params'
p832
(dp833
Vmappings
p834
(dp835
Vclass2
p836
I0
sVclass1
p837
I1
sssbsaa(lp838
Vemployer.op_timezone
p839
a(dp840
g810
g811
sg812
Nsg21
g839
sg813
Nsg8
Nsg814
Nsg821
I01
sg822
g1
(ccloudml.trainer.feature_types.composite
CompositeFeatureTypeInstance
p841
g3
NtRp842
(dp843
g829
Nsg828
Nsg831
Nsg826
NsS'strategies'
p844
(lp845
g1
(ccloudml.trainer.feature_types.regex
RegexFeatureTypeInstance
p846
g3
NtRp847
(dp848
g826
g827
sg828
Nsg829
g830
sg831
Nsg832
(dp849
Vpattern
p850
VUTC([-\u005c+]+\u005cd\u005cd).*
p851
ssbag1
(ccloudml.trainer.feature_types.primitive_types
PrimitiveFeatureTypeInstance
p852
g3
NtRp853
(dp854
g829
g830
sS'python_type'
p855
S'int'
p856
sg828
Nsg831
Nsg826
g827
sg832
Nsbasg832
Nsbsaa(lp857
Vemployer.op_country_tz
p858
a(dp859
g810
g811
sg812
Nsg21
g858
sg813
Nsg8
Nsg814
Nsg821
I01
sg822
g842
saa(lp860
Vemployer.op_tot_jobs_filled
p861
a(dp862
g810
g811
sg812
Nsg21
g861
sg813
Nsg8
Nsg814
g1
(g815
g3
NtRp863
(dp864
g818
I01
sg819
(I0
I1
tp865
sbsg821
I01
sg822
g1
(g852
g3
NtRp866
(dp867
g829
g830
sg855
g856
sg828
Nsg831
Nsg826
g827
sg832
Nsbsaa(lp868
Vcontractor.dev_adj_score_recent
p869
a(dp870
g810
g811
sg812
Nsg21
g869
sg813
Nsg8
Nsg814
g1
(g815
g3
NtRp871
(dp872
g818
I01
sg819
(I0
I1
tp873
sbsg821
I01
sg822
g1
(g852
g3
NtRp874
(dp875
g829
g830
sg855
S'float'
p876
sg828
Nsg831
Nsg826
g827
sg832
Nsbsaa(lp877
Vcontractor.dev_is_looking
p878
a(dp879
g810
g811
sg812
Nsg21
g878
sg813
Nsg8
Nsg814
g1
(g815
g3
NtRp880
(dp881
g818
I01
sg819
(I0
I1
tp882
sbsg821
I01
sg822
g1
(g852
g3
NtRp883
(dp884
g829
g830
sg855
S'bool'
p885
sg828
Nsg831
Nsg826
g827
sg832
Nsbsaa(lp886
Vcontractor.dev_recent_rank_percentile
p887
a(dp888
g810
g811
sg812
Nsg21
g887
sg813
Nsg8
Nsg814
g1
(g815
g3
NtRp889
(dp890
g818
I01
sg819
(I0
I1
tp891
sbsg821
I01
sg822
g1
(g852
g3
NtRp892
(dp893
g829
g830
sg855
g876
sg828
Nsg831
Nsg826
g827
sg832
Nsbsaa(lp894
Vcontractor.dev_recent_fp_jobs
p895
a(dp896
g810
g811
sg812
Nsg21
g895
sg813
Nsg8
Nsg814
g1
(g815
g3
NtRp897
(dp898
g818
I01
sg819
(I0
I1
tp899
sbsg821
I01
sg822
g1
(g852
g3
NtRp900
(dp901
g829
g830
sg855
g856
sg828
Nsg831
Nsg826
g827
sg832
Nsbsaa(lp902
Vcontractor.dev_recent_hours
p903
a(dp904
g810
g811
sg812
Nsg21
g903
sg813
Nsg8
Nsg814
g1
(g815
g3
NtRp905
(dp906
g818
I01
sg819
(I0
I1
tp907
sbsg821
I01
sg822
g1
(g852
g3
NtRp908
(dp909
g829
g830
sg855
g856
sg828
Nsg831
Nsg826
g827
sg832
Nsbsaa(lp910
Vcontractor.dev_blurb
p911
a(dp912
g810
g811
sg812
g1
(csklearn.feature_extraction.text
TfidfVectorizer
p913
g3
NtRp914
(dp915
S'decode_error'
p916
Vstrict
p917
sS'lowercase'
p918
I01
sS'stop_words'
p919
NsS'vocabulary'
p920
NsS'tokenizer'
p921
NsS'encoding'
p922
Vutf-8
p923
sS'token_pattern'
p924
V(?u)\u005cb\u005cw\u005cw+\u005cb
p925
sS'max_df'
p926
F1
sS'analyzer'
p927
Vword
p928
sS'binary'
p929
I00
sS'ngram_range'
p930
(I1
I1
tp931
sg831
NsS'min_df'
p932
I10
sS'max_features'
p933
NsS'input'
p934
Vcontent
p935
sS'_tfidf'
p936
g1
(csklearn.feature_extraction.text
TfidfTransformer
p937
g3
NtRp938
(dp939
S'use_idf'
p940
I01
sS'smooth_idf'
p941
I01
sS'sublinear_tf'
p942
I00
sS'norm'
p943
Vl2
p944
sbsS'dtype'
p945
cnumpy
int64
p946
sS'strip_accents'
p947
Nsbsg21
g911
sg813
VTfidf
p948
sg8
Nsg814
g1
(g815
g3
NtRp949
(dp950
g818
I01
sg819
(I0
I1
tp951
sbsg821
I01
sg822
g1
(g852
g3
NtRp952
(dp953
g829
g830
sg855
S'str'
p954
sg828
Nsg831
Nsg826
g827
sg832
Nsbsaa(lp955
Vcontractor.dev_skill_test_passed_count
p956
a(dp957
g810
g811
sg812
Nsg21
g956
sg813
Nsg8
Nsg814
g1
(g815
g3
NtRp958
(dp959
g818
I01
sg819
(I0
I1
tp960
sbsg821
I01
sg822
g1
(g852
g3
NtRp961
(dp962
g829
g830
sg855
g856
sg828
Nsg831
Nsg826
g827
sg832
Nsbsaa(lp963
Vcontractor.dev_total_hourly_jobs
p964
a(dp965
g810
g811
sg812
Nsg21
g964
sg813
Nsg8
Nsg814
g1
(g815
g3
NtRp966
(dp967
g818
I01
sg819
(I0
I1
tp968
sbsg821
I01
sg822
g1
(g852
g3
NtRp969
(dp970
g829
g830
sg855
g856
sg828
Nsg831
Nsg826
g827
sg832
Nsbsaa(lp971
Vcontractor.dev_tot_feedback_recent
p972
a(dp973
g810
g811
sg812
Nsg21
g972
sg813
Nsg8
Nsg814
g1
(g815
g3
NtRp974
(dp975
g818
I01
sg819
(I0
I1
tp976
sbsg821
I01
sg822
g1
(g852
g3
NtRp977
(dp978
g829
g830
sg855
g856
sg828
Nsg831
Nsg826
g827
sg832
Nsbsaa(lp979
Vcontractor.dev_adj_score
p980
a(dp981
g810
g811
sg812
Nsg21
g980
sg813
Nsg8
Nsg814
g1
(g815
g3
NtRp982
(dp983
g818
I01
sg819
(I0
I1
tp984
sbsg821
I01
sg822
g1
(g852
g3
NtRp985
(dp986
g829
g830
sg855
g876
sg828
Nsg831
Nsg826
g827
sg832
Nsbsaa(lp987
Vcontractor.dev_rank_percentile
p988
a(dp989
g810
g811
sg812
Nsg21
g988
sg813
Nsg8
Nsg814
g1
(g815
g3
NtRp990
(dp991
g818
I01
sg819
(I0
I1
tp992
sbsg821
I01
sg822
g1
(g852
g3
NtRp993
(dp994
g829
g830
sg855
g876
sg828
Nsg831
Nsg826
g827
sg832
Nsbsaa(lp995
Vcontractor.dev_billed_assignments
p996
a(dp997
g810
g811
sg812
Nsg21
g996
sg813
Nsg8
Nsg814
g1
(g815
g3
NtRp998
(dp999
g818
I01
sg819
(I0
I1
tp1000
sbsg821
I01
sg822
g1
(g852
g3
NtRp1001
(dp1002
g829
g830
sg855
g856
sg828
Nsg831
Nsg826
g827
sg832
Nsbsaa(lp1003
Vcontractor.dev_is_looking_week
p1004
a(dp1005
g810
g811
sg812
Nsg21
g1004
sg813
Nsg8
Nsg814
g1
(g815
g3
NtRp1006
(dp1007
g818
I01
sg819
(I0
I1
tp1008
sbsg821
I01
sg822
g1
(g852
g3
NtRp1009
(dp1010
g829
g830
sg855
g885
sg828
Nsg831
Nsg826
g827
sg832
Nsbsaa(lp1011
Vcontractor.dev_availability
p1012
a(dp1013
g810
g811
sg812
Nsg21
g1012
sg813
Nsg8
Nsg814
g1
(g815
g3
NtRp1014
(dp1015
g818
I01
sg819
(I0
I1
tp1016
sbsg821
I01
sg822
g1
(g852
g3
NtRp1017
(dp1018
g829
g830
sg855
g856
sg828
Nsg831
Nsg826
g827
sg832
Nsbsaa(lp1019
Vcontractor.dev_total_revenue
p1020
a(dp1021
g810
g811
sg812
Nsg21
g1020
sg813
Nsg8
Nsg814
g1
(g815
g3
NtRp1022
(dp1023
g818
I01
sg819
(I0
I1
tp1024
sbsg821
I01
sg822
g1
(g852
g3
NtRp1025
(dp1026
g829
g830
sg855
g876
sg828
Nsg831
Nsg826
g827
sg832
Nsbsaa(lp1027
Vcontractor.dev_recent_hourly_jobs
p1028
a(dp1029
g810
g811
sg812
Nsg21
g1028
sg813
Nsg8
Nsg814
g1
(g815
g3
NtRp1030
(dp1031
g818
I01
sg819
(I0
I1
tp1032
sbsg821
I01
sg822
g1
(g852
g3
NtRp1033
(dp1034
g829
g830
sg855
g856
sg828
Nsg831
Nsg826
g827
sg832
Nsbsaa(lp1035
Vcontractor.dev_bill_rate
p1036
a(dp1037
g810
g811
sg812
Nsg21
g1036
sg813
Nsg8
Nsg814
g1
(g815
g3
NtRp1038
(dp1039
g818
I01
sg819
(I0
I1
tp1040
sbsg821
I01
sg822
g1
(g852
g3
NtRp1041
(dp1042
g829
g830
sg855
g876
sg828
Nsg831
Nsg826
g827
sg832
Nsbsaa(lp1043
Vcontractor.dev_test_passed_count
p1044
a(dp1045
g810
g811
sg812
Nsg21
g1044
sg813
Nsg8
Nsg814
g1
(g815
g3
NtRp1046
(dp1047
g818
I01
sg819
(I0
I1
tp1048
sbsg821
I01
sg822
g1
(g852
g3
NtRp1049
(dp1050
g829
g830
sg855
g856
sg828
Nsg831
Nsg826
g827
sg832
Nsbsaa(lp1051
Vcontractor.dev_expose_full_name
p1052
a(dp1053
g810
g811
sg812
Nsg21
g1052
sg813
Nsg8
Nsg814
g1
(g815
g3
NtRp1054
(dp1055
g818
I01
sg819
(I0
I1
tp1056
sbsg821
I01
sg822
g1
(g852
g3
NtRp1057
(dp1058
g829
g830
sg855
g876
sg828
Nsg831
Nsg826
g827
sg832
Nsbsaa(lp1059
Vcontractor.dev_total_hours_rounded
p1060
a(dp1061
g810
g811
sg812
Nsg21
g1060
sg813
Nsg8
Nsg814
g1
(g815
g3
NtRp1062
(dp1063
g818
I01
sg819
(I0
I1
tp1064
sbsg821
I01
sg822
g1
(g852
g3
NtRp1065
(dp1066
g829
g830
sg855
g856
sg828
Nsg831
Nsg826
g827
sg832
Nsbsaa(lp1067
Vcontractor.dev_year_exp
p1068
a(dp1069
g810
g811
sg812
Nsg21
g1068
sg813
Nsg8
Nsg814
g1
(g815
g3
NtRp1070
(dp1071
g818
I01
sg819
(I0
I1
tp1072
sbsg821
I01
sg822
g1
(g852
g3
NtRp1073
(dp1074
g829
g830
sg855
g856
sg828
Nsg831
Nsg826
g827
sg832
Nsbsaa(lp1075
Vcontractor.dev_portfolio_items_count
p1076
a(dp1077
g810
g811
sg812
Nsg21
g1076
sg813
Nsg8
Nsg814
g1
(g815
g3
NtRp1078
(dp1079
g818
I01
sg819
(I0
I1
tp1080
sbsg821
I01
sg822
g1
(g852
g3
NtRp1081
(dp1082
g829
g830
sg855
g856
sg828
Nsg831
Nsg826
g827
sg832
Nsbsaa(lp1083
Vcontractor.dev_eng_skill
p1084
a(dp1085
g810
g811
sg812
Nsg21
g1084
sg813
Nsg8
Nsg814
g1
(g815
g3
NtRp1086
(dp1087
g818
I01
sg819
(I0
I1
tp1088
sbsg821
I01
sg822
g1
(g852
g3
NtRp1089
(dp1090
g829
g830
sg855
g856
sg828
Nsg831
Nsg826
g827
sg832
Nsbsaa(lp1091
Vcontractor.dev_tot_feedback
p1092
a(dp1093
g810
g811
sg812
Nsg21
g1092
sg813
Nsg8
Nsg814
g1
(g815
g3
NtRp1094
(dp1095
g818
I01
sg819
(I0
I1
tp1096
sbsg821
I01
sg822
g1
(g852
g3
NtRp1097
(dp1098
g829
g830
sg855
g856
sg828
Nsg831
Nsg826
g827
sg832
Nsbsaa(lp1099
Vcontractor.dev_timezone
p1100
a(dp1101
g810
g811
sg812
Nsg21
g1100
sg813
Nsg8
Nsg814
Nsg821
I01
sg822
g842
saa(lp1102
Vcontractor.dev_profile_title
p1103
a(dp1104
g810
g811
sg812
g1
(g913
g3
NtRp1105
(dp1106
g916
g917
sg918
I01
sg919
Nsg920
Nsg921
Nsg922
g923
sg924
g925
sg926
F1
sg927
g928
sg929
I00
sg930
(I1
I1
tp1107
sg831
Nsg932
I3
sg933
Nsg934
g935
sg936
g1
(g937
g3
NtRp1108
(dp1109
g940
I01
sg941
I01
sg942
I00
sg943
g944
sbsg945
g946
sg947
Nsbsg21
g1103
sg813
VTfidf
p1110
sg8
Nsg814
g1
(g815
g3
NtRp1111
(dp1112
g818
I01
sg819
(I0
I1
tp1113
sbsg821
I01
sg822
g1
(g852
g3
NtRp1114
(dp1115
g829
g830
sg855
g954
sg828
Nsg831
Nsg826
g827
sg832
Nsbsaa(lp1116
Vcontractor.dev_active_interviews
p1117
a(dp1118
g810
g811
sg812
Nsg21
g1117
sg813
Nsg8
Nsg814
g1
(g815
g3
NtRp1119
(dp1120
g818
I01
sg819
(I0
I1
tp1121
sbsg821
I01
sg822
g1
(g852
g3
NtRp1122
(dp1123
g829
g830
sg855
g856
sg828
Nsg831
Nsg826
g827
sg832
Nsbsaa(lp1124
Vcontractor.dev_cur_assignments
p1125
a(dp1126
g810
g811
sg812
Nsg21
g1125
sg813
Nsg8
Nsg814
g1
(g815
g3
NtRp1127
(dp1128
g818
I01
sg819
(I0
I1
tp1129
sbsg821
I01
sg822
g1
(g852
g3
NtRp1130
(dp1131
g829
g830
sg855
g856
sg828
Nsg831
Nsg826
g827
sg832
Nsbsaa(lp1132
g761
a(dp1133
g810
g811
sg812
Nsg21
g761
sg813
Nsg8
Nsg814
g1
(g815
g3
NtRp1134
(dp1135
g818
I01
sg819
(I0
I1
tp1136
sbsg821
I01
sg822
g1
(g852
g3
NtRp1137
(dp1138
g829
g830
sg855
g856
sg828
Nsg831
Nsg826
g827
sg832
Nsbsaa(lp1139
Vcontractor.dev_last_worked
p1140
a(dp1141
g810
g811
sg812
Nsg21
g1140
sg813
Nsg8
I946684800
sg814
g1
(g815
g3
NtRp1142
(dp1143
g818
I01
sg819
(I0
I1
tp1144
sbsg821
I01
sg822
g1
(ccloudml.trainer.feature_types.date
DateFeatureTypeInstance
p1145
g3
NtRp1146
(dp1147
g826
g827
sg828
I946684800
sg829
g830
sg831
Nsg832
(dp1148
Vpattern
p1149
V%B %d, %Y
p1150
ssbsaatRp1151
sS'required_feature_names'
p1152
(lp1153
g808
ag839
ag858
ag861
ag869
ag878
ag887
ag895
ag903
ag911
ag956
ag964
ag972
ag980
ag988
ag996
ag1004
ag1012
ag1020
ag1028
ag1036
ag1044
ag1052
ag1060
ag1068
ag1076
ag1084
ag1092
ag1100
ag1103
ag1117
ag1125
ag761
ag1140
asS'group_by'
p1154
(lp1155
sS'target_variable'
p1156
g808
sS'schema_name'
p1157
Vbestmatch
p1158
sS'_named_feature_types'
p1159
(dp1160
Vstr_to_timezone
p1161
g842
ssS'classifier_cls'
p1162
g767
sS'classifier'
p1163
(dp1164
g785
g786
ssg763
g764
sbsS'_features'
p1165
(dp1166
g8
g805
((lp1167
(lp1168
g808
a(dp1169
g812
Nsg21
g808
sg814
g1
(g815
g3
NtRp1170
(dp1171
g818
I01
sg819
g820
sbsg8
Nsg821
I01
sg810
g811
sg813
Nsg822
g1
(g823
g3
NtRp1172
(dp1173
g826
g827
sg829
(lp1174
sg831
Nsg828
Nsg832
(dp1175
g834
(dp1176
g836
I0
sg837
I1
sssbsaa(lp1177
g839
a(dp1178
g812
Nsg21
g839
sg814
Nsg8
Nsg821
I01
sg810
g811
sg813
Nsg822
g1
(g841
g3
NtRp1179
(dp1180
g829
Nsg831
Nsg828
Nsg826
Nsg844
(lp1181
g1
(g846
g3
NtRp1182
(dp1183
g826
g827
sg829
g1174
sg831
Nsg828
Nsg832
(dp1184
g850
g851
ssbag1
(g852
g3
NtRp1185
(dp1186
g829
g1174
sg828
Nsg855
g856
sg826
g827
sg832
Nsg831
Nsbasg832
Nsbsaa(lp1187
g858
a(dp1188
g812
Nsg21
g858
sg814
Nsg8
Nsg821
I01
sg810
g811
sg813
Nsg822
g1179
saa(lp1189
g861
a(dp1190
g812
Nsg21
g861
sg814
g1
(g815
g3
NtRp1191
(dp1192
g819
g865
sS'scale_'
p1193
g776
(g777
(I0
tS'b'
tRp1194
(I1
(I1
tg19
I00
S'P\xabR\x00\xd4\xaa4?'
tbsS'data_range'
p1195
g776
(g777
(I0
tS'b'
tRp1196
(I1
(I1
tg19
I00
S'\x00\x00\x00\x00\x00\xc6\xa8@'
tbsS'data_min'
p1197
g776
(g777
(I0
tS'b'
tRp1198
(I1
(I1
tg19
I00
S'\x00\x00\x00\x00\x00\x00\x00\x00'
tbsS'min_'
p1199
g776
(g777
(I0
tS'b'
tRp1200
(I1
(I1
tg19
I00
S'\x00\x00\x00\x00\x00\x00\x00\x00'
tbsg818
I01
sbsg8
Nsg821
I01
sg810
g811
sg813
Nsg822
g1
(g852
g3
NtRp1201
(dp1202
g829
g1174
sg828
Nsg855
g856
sg826
g827
sg832
Nsg831
Nsbsaa(lp1203
g869
a(dp1204
g812
Nsg21
g869
sg814
g1
(g815
g3
NtRp1205
(dp1206
g819
g873
sg1193
g776
(g777
(I0
tS'b'
tRp1207
(I1
(I1
tg19
I00
S'\x9a\x99\x99\x99\x99\x99\xc9?'
tbsg1195
g776
(g777
(I0
tS'b'
tRp1208
(I1
(I1
tg19
I00
S'\x00\x00\x00\x00\x00\x00\x14@'
tbsg1197
g776
(g777
(I0
tS'b'
tRp1209
(I1
(I1
tg19
I00
S'\x00\x00\x00\x00\x00\x00\x00\x00'
tbsg1199
g776
(g777
(I0
tS'b'
tRp1210
(I1
(I1
tg19
I00
S'\x00\x00\x00\x00\x00\x00\x00\x00'
tbsg818
I01
sbsg8
Nsg821
I01
sg810
g811
sg813
Nsg822
g1
(g852
g3
NtRp1211
(dp1212
g829
g1174
sg828
Nsg855
g876
sg826
g827
sg832
Nsg831
Nsbsaa(lp1213
g878
a(dp1214
g812
Nsg21
g878
sg814
g1
(g815
g3
NtRp1215
(dp1216
g819
g882
sg1193
g776
(g777
(I0
tS'b'
tRp1217
(I1
(I1
tg19
I00
S'\x00\x00\x00\x00\x00\x00\xf0?'
tbsg1195
g776
(g777
(I0
tS'b'
tRp1218
(I1
(I1
tg19
I00
S'\x00\x00\x00\x00\x00\x00\xf0?'
tbsg1197
g776
(g777
(I0
tS'b'
tRp1219
(I1
(I1
tg19
I00
S'\x00\x00\x00\x00\x00\x00\x00\x00'
tbsg1199
g776
(g777
(I0
tS'b'
tRp1220
(I1
(I1
tg19
I00
S'\x00\x00\x00\x00\x00\x00\x00\x00'
tbsg818
I01
sbsg8
Nsg821
I01
sg810
g811
sg813
Nsg822
g1
(g852
g3
NtRp1221
(dp1222
g829
g1174
sg828
Nsg855
g885
sg826
g827
sg832
Nsg831
Nsbsaa(lp1223
g887
a(dp1224
g812
Nsg21
g887
sg814
g1
(g815
g3
NtRp1225
(dp1226
g819
g891
sg1193
g776
(g777
(I0
tS'b'
tRp1227
(I1
(I1
tg19
I00
S'\x1a\xa4A\x1a\xa4A\x8a?'
tbsg1195
g776
(g777
(I0
tS'b'
tRp1228
(I1
(I1
tg19
I00
S'\x00\x00\x00\x00\x00\x80S@'
tbsg1197
g776
(g777
(I0
tS'b'
tRp1229
(I1
(I1
tg19
I00
S'\x00\x00\x00\x00\x00\x00\x00\x00'
tbsg1199
g776
(g777
(I0
tS'b'
tRp1230
(I1
(I1
tg19
I00
S'\x00\x00\x00\x00\x00\x00\x00\x00'
tbsg818
I01
sbsg8
Nsg821
I01
sg810
g811
sg813
Nsg822
g1
(g852
g3
NtRp1231
(dp1232
g829
g1174
sg828
Nsg855
g876
sg826
g827
sg832
Nsg831
Nsbsaa(lp1233
g895
a(dp1234
g812
Nsg21
g895
sg814
g1
(g815
g3
NtRp1235
(dp1236
g819
g899
sg1193
g776
(g777
(I0
tS'b'
tRp1237
(I1
(I1
tg19
I00
S'\xdb\x81\xb9v`\xae\x8d?'
tbsg1195
g776
(g777
(I0
tS'b'
tRp1238
(I1
(I1
tg19
I00
S'\x00\x00\x00\x00\x00@Q@'
tbsg1197
g776
(g777
(I0
tS'b'
tRp1239
(I1
(I1
tg19
I00
S'\x00\x00\x00\x00\x00\x00\x00\x00'
tbsg1199
g776
(g777
(I0
tS'b'
tRp1240
(I1
(I1
tg19
I00
S'\x00\x00\x00\x00\x00\x00\x00\x00'
tbsg818
I01
sbsg8
Nsg821
I01
sg810
g811
sg813
Nsg822
g1
(g852
g3
NtRp1241
(dp1242
g829
g1174
sg828
Nsg855
g856
sg826
g827
sg832
Nsg831
Nsbsaa(lp1243
g903
a(dp1244
g812
Nsg21
g903
sg814
g1
(g815
g3
NtRp1245
(dp1246
g819
g907
sg1193
g776
(g777
(I0
tS'b'
tRp1247
(I1
(I1
tg19
I00
S'@+\x01\xad\x04\xb4R?'
tbsg1195
g776
(g777
(I0
tS'b'
tRp1248
(I1
(I1
tg19
I00
S'\x00\x00\x00\x00\x00`\x8b@'
tbsg1197
g776
(g777
(I0
tS'b'
tRp1249
(I1
(I1
tg19
I00
S'\x00\x00\x00\x00\x00\x00\x00\x00'
tbsg1199
g776
(g777
(I0
tS'b'
tRp1250
(I1
(I1
tg19
I00
S'\x00\x00\x00\x00\x00\x00\x00\x00'
tbsg818
I01
sbsg8
Nsg821
I01
sg810
g811
sg813
Nsg822
g1
(g852
g3
NtRp1251
(dp1252
g829
g1174
sg828
Nsg855
g856
sg826
g827
sg832
Nsg831
Nsbsaa(lp1253
g911
a(dp1254
g812
g1
(g913
g3
NtRp1255
(dp1256
g916
g917
sg920
Nsg922
g923
sg924
g925
sg927
g928
sg930
g931
sg831
Nsg926
F1
sg932
I10
sg933
NsS'fixed_vocabulary_'
p1257
I00
sS'stop_words_'
p1258
c__builtin__
set
p1259
((lp1260
Vaided
p1261
aVraphaeljs
p1262
aVdynamic
p1263
aVyellow
p1264
aVrapid
p1265
aVintegrity
p1266
aVrelationships
p1267
aVwhose
p1268
aVpatches
p1269
aVjavaee
p1270
aVunder
p1271
aVstationery
p1272
aVteaching
p1273
aVpride
p1274
aVspec
p1275
aVicecast
p1276
aVevery
p1277
aVvoip
p1278
aVunity3d
p1279
aVschool
p1280
aVadministrating
p1281
aVsolution
p1282
aVsolutios
p1283
aVsamurai
p1284
aVvector
p1285
aVenhance
p1286
aVcms
p1287
aVenjoy
p1288
aVaeronautics
p1289
aVpragmatic
p1290
aVconsistent
p1291
aVdirect
p1292
aVdisciplined
p1293
aVsecond
p1294
aVsubordinate
p1295
aVimplemented
p1296
aVgetacoder
p1297
aVeven
p1298
aVestablished
p1299
aVhp
p1300
aVdecoding
p1301
aVabove
p1302
aVdesigning
p1303
aVsupplier
p1304
aVnet
p1305
aVever
p1306
aVseeks
p1307
aVspecialist
p1308
aVcentric
p1309
aVsimultaneously
p1310
aVpayroll
p1311
aVnever
p1312
aVhere
p1313
aVmet
p1314
aVstudio
p1315
aVactive
p1316
aVpath
p1317
aV100
p1318
aVpractices
p1319
aVkids
p1320
aVforum
p1321
aVventures
p1322
aVstudy
p1323
aVreports
p1324
aVcredit
p1325
aVchanges
p1326
aVastute
p1327
aVsecure
p1328
aVhighly
p1329
aVpatience
p1330
aVplesk
p1331
aVchartboost
p1332
aVcatchy
p1333
aVtyps
p1334
aVplayed
p1335
aVleaks
p1336
aVcall
p1337
aVasset
p1338
aVtype
p1339
aVuntil
p1340
aVposting
p1341
aVsuccessful
p1342
aVyahoo
p1343
aVaward
p1344
aVphone
p1345
aVhole
p1346
aV95
p1347
aVsquad
p1348
aVmust
p1349
aV1991
p1350
aVroom
p1351
aV1996
p1352
aVpursue
p1353
aVsetup
p1354
aVworth
p1355
aVms
p1356
aVmr
p1357
aVroot
p1358
aVgoood
p1359
aVgive
p1360
aVturnmill
p1361
aVindia
p1362
aVhoned
p1363
aVinvolve
p1364
aVcaptcha
p1365
aVwant
p1366
aVscheduling
p1367
aVguarantee
p1368
aVend
p1369
aVthing
p1370
aVreturning
p1371
aVrhinoceros
p1372
aVhow
p1373
aVwriters
p1374
aVactionscript
p1375
aVplace
p1376
aVordinary
p1377
aVvf3
p1378
aVcadence
p1379
aVgaming
p1380
aVdescription
p1381
aVmanuals
p1382
aVafter
p1383
aVreassess
p1384
aVpresident
p1385
aVlaw
p1386
aVtypes
p1387
aVpurchase
p1388
aVeffective
p1389
aVappreciate
p1390
aVorder
p1391
aV16mar2011
p1392
aVfeedback
p1393
aVoffice
p1394
aVdevote
p1395
aVdreamed
p1396
aVzen
p1397
aVsatisfied
p1398
aVpartnered
p1399
aVkeyboard
p1400
aVresponsive
p1401
aVfit
p1402
aVmypics
p1403
aVpersonal
p1404
aVexpectations
p1405
aVclc
p1406
aVbetter
p1407
aVproduction
p1408
aV400
p1409
aVfotocommunity
p1410
aVthen
p1411
aVthem
p1412
aVenrich
p1413
aVtrevisd
p1414
aVeffects
p1415
aVthey
p1416
aVlifelong
p1417
aVrepresents
p1418
aVeach
p1419
aVwent
p1420
aVside
p1421
aVmean
p1422
aVadobe
p1423
aVindependent
p1424
aVseries
p1425
aVmagneto
p1426
aVaide
p1427
aVlaboratory
p1428
aVchannal
p1429
aVnetwork
p1430
aVcontent
p1431
aVre
p1432
aVsmm
p1433
aVbranch
p1434
aVoscommerce
p1435
aVgot
p1436
aVfoundation
p1437
aVlinear
p1438
aVresume
p1439
aVlittle
p1440
aVfree
p1441
aVstandard
p1442
aVputty
p1443
aV45wpm
p1444
aVboosting
p1445
aVwanted
p1446
aVacrobat
p1447
aVcertified
p1448
aVcreated
p1449
aVsatisfication
p1450
aVdays
p1451
aVpriorities
p1452
aVmvc
p1453
aVuser
p1454
aValready
p1455
aVfeatures
p1456
aVresearcher
p1457
aVcoding
p1458
aVrank
p1459
aVcustomization
p1460
aVelectronic
p1461
aVresearched
p1462
aVillustrate
p1463
aVtoy
p1464
aVguinness
p1465
aVtop
p1466
aVneeded
p1467
aVrates
p1468
aVtoo
p1469
aVupshot
p1470
aVcycle
p1471
aVenhancing
p1472
aVoverhead
p1473
aVserve
p1474
aVtook
p1475
aVcollaterals
p1476
aVmaintaining
p1477
aVpakistani
p1478
aVtarget
p1479
aVroles
p1480
aVzero
p1481
aVebay
p1482
aVpreparation
p1483
aVmatter
p1484
aVcoregraphics
p1485
aVhacking
p1486
aVperspective
p1487
aVrewrite
p1488
aVmodern
p1489
aVmind
p1490
aVmanner
p1491
aVseek
p1492
aVdozen
p1493
aVdbms
p1494
aVzoho
p1495
aVresponsible
p1496
aVeagerly
p1497
aVupholding
p1498
aVcontact
p1499
aVexplanation
p1500
aVdavidson
p1501
aVcommitting
p1502
aVthough
p1503
aVobject
p1504
aVtranslator
p1505
aVchangeworkssystem
p1506
aVoptimized
p1507
aVinvolving
p1508
aVodesk
p1509
aVscripts
p1510
aVdoj
p1511
aVassisting
p1512
aVdon
p1513
aVmedical
p1514
aVfineartprint
p1515
aVcrowd
p1516
aVconsumer
p1517
aVmeetings
p1518
aVperconal
p1519
aVearth
p1520
aVsolusvm
p1521
aVnortheast
p1522
aVimplementation
p1523
aVhelpdesk
p1524
aVsummarizing
p1525
aVmatters
p1526
aVpursuing
p1527
aV10
p1528
aVde
p1529
aVdb
p1530
aVscalable
p1531
aVpreferred
p1532
aVgeek
p1533
aVamazon
p1534
aVreport
p1535
aVtoolbox
p1536
aVdr
p1537
aVcomply
p1538
aVfields
p1539
aVarchitecture
p1540
aVrelease
p1541
aVtrevis
p1542
aVthumbs
p1543
aVfair
p1544
aVbranding
p1545
aVtesting
p1546
aVresult
p1547
aVtechniques
p1548
aVsaid
p1549
aVaway
p1550
aVupgraded
p1551
aVnarrates
p1552
aVbookmarking
p1553
aVapproach
p1554
aVhandwritten
p1555
aVwe
p1556
aVterms
p1557
aVextend
p1558
aVhowever
p1559
aVhtml5
p1560
aVdedication
p1561
aVnews
p1562
aVmotto
p1563
aVpackages
p1564
aVimprove
p1565
aVreceived
p1566
aVgames
p1567
aVexceeds
p1568
aVchina
p1569
aVlogin
p1570
aVskill
p1571
aVhardworking
p1572
aVvexel
p1573
aVkohana
p1574
aVspeak
p1575
aVcustomisation
p1576
aVproceeded
p1577
aVengines
p1578
aVbasis
p1579
aVunion
p1580
aVthree
p1581
aVfrm
p1582
aVquickly
p1583
aVconfident
p1584
aVmuch
p1585
aVinterest
p1586
aVbasic
p1587
aVflexible
p1588
aVpro
p1589
aVlife
p1590
aVworker
p1591
aVcatering
p1592
aVcraft
p1593
aVpersonally
p1594
aVworked
p1595
aVspin
p1596
aVcommerce
p1597
aVwfl
p1598
aVsubmissions
p1599
aVprofessionally
p1600
aVemploy
p1601
aVadwirl
p1602
aVemployees
p1603
aVnodejs
p1604
aVip
p1605
aVplayer
p1606
aVid
p1607
aVtrusted
p1608
aVhone
p1609
aVspecialization
p1610
aVperform
p1611
aVthings
p1612
aVmake
p1613
aVclearly
p1614
aVcraigslist
p1615
aVcomplex
p1616
aVseveral
p1617
aVevolve
p1618
aVsocial
p1619
aVqualifications
p1620
aVworkforce
p1621
aVhand
p1622
aVportal
p1623
aVbitkeeper
p1624
aVpotentials
p1625
aVopportunity
p1626
aVnit
p1627
aVkid
p1628
aVpracticed
p1629
aVlucas
p1630
aVthy
p1631
aVprograms
p1632
aVuploading
p1633
aVezinearticles
p1634
aVmaterials
p1635
aVgreatest
p1636
aVqualities
p1637
aVclaims
p1638
aVcorporate
p1639
aVyours
p1640
aVleft
p1641
aVseasonal
p1642
aVetiquette
p1643
aVisourceph
p1644
aVjust
p1645
aVversed
p1646
aVphoto
p1647
aVgrades
p1648
aVthanks
p1649
aVhuman
p1650
aVyet
p1651
aVprevious
p1652
aVsuccessfactors
p1653
aVhad
p1654
aVadvancement
p1655
aVrequestor
p1656
aVanimation
p1657
aVbrainstorming
p1658
aVeasy
p1659
aVhas
p1660
aVhat
p1661
aVpossible
p1662
aVbackground
p1663
aVclustered
p1664
aVunique
p1665
aV328
p1666
aVadvanced
p1667
aVdesire
p1668
aVgifs
p1669
aVperforming
p1670
aVmanual
p1671
aV50
p1672
aVbpo
p1673
aVspecific
p1674
aVmajored
p1675
aVofficer
p1676
aVdimention
p1677
aVsecurity
p1678
aVwww
p1679
aVright
p1680
aVhonored
p1681
aVcentos
p1682
aVpeople
p1683
aVsuccessfully
p1684
aVborn
p1685
aVdear
p1686
aVcarts
p1687
aVcordoba
p1688
aVfox
p1689
aVcreative
p1690
aVeverything
p1691
aVtracker
p1692
aVbooking
p1693
aVcore
p1694
aVexprience
p1695
aVplz
p1696
aVauthkey
p1697
aVanimtor
p1698
aVarchitectural
p1699
aVgraduated
p1700
aVeye
p1701
aVplm
p1702
aVmanufacturing
p1703
aVpostgresql
p1704
aVmonths
p1705
aVjoomla
p1706
aVplus
p1707
aVconsulting
p1708
aVtarpaulin
p1709
aVcivic
p1710
aVsugarcrm
p1711
aVprofession
p1712
aVsergij
p1713
aVparsing
p1714
aVdown
p1715
aVlies
p1716
aVold
p1717
aVoften
p1718
aVgit
p1719
aVfabric
p1720
aVclass
p1721
aVstuck
p1722
aVeditor
p1723
aVway
p1724
aVmusic
p1725
aVwas
p1726
aVhead
p1727
aVmedium
p1728
aVamateur
p1729
aVoffer
p1730
aVbecoming
p1731
aVanalyse
p1732
aVlanding
p1733
aVencoder
p1734
aVfreelancer
p1735
aVtalents
p1736
aVresponding
p1737
aVsophienczuk
p1738
aVwebs
p1739
aVdevices
p1740
aVtell
p1741
aVproud
p1742
aVzend
p1743
aVcovers
p1744
aVdrive
p1745
aVaccounting
p1746
aVmold
p1747
aVcheck
p1748
aVspecially
p1749
aVnl
p1750
aVno
p1751
aVnc
p1752
aVwhen
p1753
aVnx
p1754
aVinterested
p1755
aVrole
p1756
aVholding
p1757
aVpapers
p1758
aVtest
p1759
aVjenkins
p1760
aVdevelopers
p1761
aVmodels
p1762
aVwelcome
p1763
aVnotepad
p1764
aVconcurrent
p1765
aVsql
p1766
aVyounger
p1767
aVhappening
p1768
aVglass
p1769
aVserious
p1770
aVbanners
p1771
aVpaced
p1772
aVanimator
p1773
aVconcept
p1774
aVmanaged
p1775
aVremarkable
p1776
aVswitched
p1777
aVfocus
p1778
aVmanager
p1779
aVllc
p1780
aVror
p1781
aVvarnish
p1782
aVdepend
p1783
aVgraph
p1784
aVfreelance
p1785
aVflash
p1786
aVgigs
p1787
aVenvironment
p1788
aVpeachtree
p1789
aVfoursquare
p1790
aVjvm
p1791
aVtext
p1792
aVadvantage
p1793
aVunfamiliar
p1794
aVchoice
p1795
aV21dec2011
p1796
aVartwork
p1797
aVexact
p1798
aVimpressive
p1799
aVsolver
p1800
aVphilippines
p1801
aVwowza
p1802
aVstandards
p1803
aVleave
p1804
aVexcellence
p1805
aVteam
p1806
aVquick
p1807
aVsays
p1808
aVdealing
p1809
aVhtm
p1810
aVdiscover
p1811
aVprofessionalism
p1812
aVcost
p1813
aVpmb
p1814
aVcurrent
p1815
aVremembered
p1816
aVhungry
p1817
aVgoes
p1818
aVrelational
p1819
aVenthusiast
p1820
aVheavily
p1821
aVassertive
p1822
aVfrench
p1823
aVunderstanding
p1824
aVmarkkiessling
p1825
aVaddress
p1826
aVapache
p1827
aValong
p1828
aVchange
p1829
aVwait
p1830
aVbox
p1831
aVweb2
p1832
aVthirty
p1833
aVhealthy
p1834
aV6500
p1835
aVexams
p1836
aVlove
p1837
aVconfidentiality
p1838
aVapd62ohyvblhm0u
p1839
aVlogical
p1840
aVsincerely
p1841
aVxero
p1842
aV1st
p1843
aVforefront
p1844
aVshould
p1845
aVpost
p1846
aVmarket
p1847
aVhandled
p1848
aVprove
p1849
aVby
p1850
aVlive
p1851
aViphone
p1852
aVhttps
p1853
aVmemory
p1854
aVtoday
p1855
aVafford
p1856
aVorganized
p1857
aVacceptable
p1858
aVenvelope
p1859
aVdistribution
p1860
aVvisual
p1861
aVeverywhere
p1862
aVoop
p1863
aVcases
p1864
aVeffort
p1865
aVeasiest
p1866
aVorganizations
p1867
aVgraphic
p1868
aVdhtml
p1869
aVtitanium
p1870
aVpretend
p1871
aVreviews
p1872
aVvalues
p1873
aVhope
p1874
aVcam
p1875
aVgrowing
p1876
aVmaking
p1877
aVcae
p1878
aVcad
p1879
aVdedicated
p1880
aVnursing
p1881
aVfigure
p1882
aVnexus
p1883
aVnewsletters
p1884
aVagent
p1885
aVcritic
p1886
aVcouncil
p1887
aVproductive
p1888
aVmonitoring
p1889
aVexceptional
p1890
aVmagazine
p1891
aVwrite
p1892
aVtill
p1893
aVxhtml
p1894
aVspeaks
p1895
aVeconomy
p1896
aVmap
p1897
aVproduct
p1898
aV140
p1899
aVinformation
p1900
aVmay
p1901
aVmax
p1902
aVbrazen
p1903
aVapplications
p1904
aVmac
p1905
aVproduce
p1906
aVdesigned
p1907
aVimproving
p1908
aVsuch
p1909
aVsuck
p1910
aVgrow
p1911
aVman
p1912
aVsucceeded
p1913
aVconscious
p1914
aVcorona
p1915
aVfluent
p1916
aVcapistrano
p1917
aVso
p1918
aVrepresentation
p1919
aVse
p1920
aVssh
p1921
aVspreadsheets
p1922
aVhiring
p1923
aVcold
p1924
aVmachine
p1925
aVgroup
p1926
aVthank
p1927
aVrossica
p1928
aVencompasses
p1929
aVforms
p1930
aVplatform
p1931
aVlisting
p1932
aVmail
p1933
aVmain
p1934
aVnon
p1935
aVviews
p1936
aVsooner
p1937
aVscaling
p1938
aVrecords
p1939
aVqualified
p1940
aVcourse
p1941
aV1950
p1942
aVhalf
p1943
aVispconfig
p1944
aVnor
p1945
aVpossess
p1946
aVterm
p1947
aVname
p1948
aVadmob
p1949
aVoffshore
p1950
aVshowcasing
p1951
aVtopsolid
p1952
aVdomain
p1953
aVsquare
p1954
aVmysql5
p1955
aVchallenges
p1956
aVyear
p1957
aVcalling
p1958
aVcanada
p1959
aVliving
p1960
aVcanvas
p1961
aVaccomplish
p1962
aVgamers
p1963
aV3rd
p1964
aVprofit
p1965
aVmultiplayer
p1966
aVincrease
p1967
aVinternet
p1968
aVassurance
p1969
aVsuperiors
p1970
aVcart
p1971
aVquite
p1972
aVajax
p1973
aVmimi
p1974
aVorg
p1975
aVcare
p1976
aVtraining
p1977
aVjournalist
p1978
aVlanguage
p1979
aVselections
p1980
aVlistings
p1981
aVprogramming
p1982
aVhonest
p1983
aVmotion
p1984
aVturn
p1985
aVyum
p1986
aVpromotion
p1987
aVthink
p1988
aVprograming
p1989
aVfirst
p1990
aVenhances
p1991
aVclause
p1992
aVfast
p1993
aVdirectly
p1994
aVcarry
p1995
aVopen
p1996
aVgeorge
p1997
aVengineer
p1998
aVcity
p1999
aVsurveys
p2000
aVnecessarily
p2001
aViad
p2002
aVcaught
p2003
aVyii
p2004
aVanyone
p2005
aVrenderings
p2006
aVreturns
p2007
aVtyping
p2008
aVwhite
p2009
aVspeaking
p2010
aVmining
p2011
aVreleases
p2012
aVcontinuous
p2013
aVcerebro
p2014
aVspecialists
p2015
aVcopy
p2016
aVintrinsically
p2017
aVprofessionals
p2018
aV13
p2019
aV12
p2020
aV15
p2021
aV18
p2022
aVrequire
p2023
aVtypography
p2024
aVventure
p2025
aVcards
p2026
aVpre
p2027
aVregister
p2028
aVtopics
p2029
aVlocations
p2030
aVant
p2031
aVsay
p2032
aVworksheets
p2033
aVsap
p2034
aVany
p2035
aVcassandra
p2036
aVconversion
p2037
aVefficient
p2038
aVtranscription
p2039
aVediting
p2040
aVanswering
p2041
aVideas
p2042
aVnote
p2043
aVacumen
p2044
aVpotential
p2045
aVtranscribed
p2046
aVtake
p2047
aVonline
p2048
aVcreatively
p2049
aVperformance
p2050
aVstrengths
p2051
aVhanding
p2052
aVsure
p2053
aVmultiple
p2054
aVukrainian
p2055
aVtrack
p2056
aVprice
p2057
aVvisitors
p2058
aVprinted
p2059
aVremarks
p2060
aVpages
p2061
aVlater
p2062
aVsale
p2063
aVsenior
p2064
aVshop
p2065
aVnextag
p2066
aVshot
p2067
aVoutsourcing
p2068
aVdrawings
p2069
aVinjection
p2070
aVground
p2071
aVxml
p2072
aVratio
p2073
aVoutside
p2074
aVonly
p2075
aVgoing
p2076
aVblack
p2077
aVequipped
p2078
aVget
p2079
aVassistant
p2080
aVtrustworty
p2081
aVoverdeliver
p2082
aVemployers
p2083
aVaim
p2084
aVnearly
p2085
aVhonours
p2086
aVsecondary
p2087
aVresource
p2088
aVintuitive
p2089
aVartist
p2090
aVexplore
p2091
aVrounder
p2092
aVsummary
p2093
aVadvertisor
p2094
aVsource
p2095
aVhonesty
p2096
aVinnovative
p2097
aVcollege
p2098
aVpebble
p2099
aVenhacement
p2100
aVsatisfying
p2101
aVmorocco
p2102
aVmanaging
p2103
aVrajeev
p2104
aVsites
p2105
aVcuello022206
p2106
aVwojczyszyn
p2107
aVbehind
p2108
aVbetween
p2109
aVinfrastructure
p2110
aVscreen
p2111
aVflow
p2112
aVjs
p2113
aVjd
p2114
aVarticle
p2115
aVcome
p2116
aVassess
p2117
aVconcentrated
p2118
aVfliers
p2119
aVsolidworks
p2120
aVaccording
p2121
aVenabling
p2122
aVcolumnist
p2123
aVworkplace
p2124
aVcomes
p2125
aVsymfony
p2126
aVamong
p2127
aV60
p2128
aVmaintained
p2129
aVcoredata
p2130
aVlearning
p2131
aVmoreover
p2132
aVendeavor
p2133
aVconsidering
p2134
aVarts
p2135
aVtuning
p2136
aVcapable
p2137
aVmark
p2138
aVdelcam
p2139
aVglassfish
p2140
aVdependable
p2141
aVtheam
p2142
aV500
p2143
aVengine
p2144
aVenable
p2145
aVshopping
p2146
aVoffered
p2147
aVcreo
p2148
aVproven
p2149
aVebusiness
p2150
aVattentive
p2151
aVruby
p2152
aVformer
p2153
aVprotocols
p2154
aVsound
p2155
aVmyself
p2156
aVdeveloping
p2157
aVthese
p2158
aVadmin
p2159
aVpromising
p2160
aVnewspaper
p2161
aVsituation
p2162
aVcoolest
p2163
aVtelephone
p2164
aVsudden
p2165
aVconverts
p2166
aVsomebody
p2167
aVtechnology
p2168
aVdifferent
p2169
aVdevelop
p2170
aVetc
p2171
aVpay
p2172
aVsame
p2173
aVtranscribing
p2174
aVauthentication
p2175
aVgeodatix
p2176
aVlite
p2177
aVdocument
p2178
aVweek
p2179
aVextended
p2180
aVassist
p2181
aVdriven
p2182
aVwpm
p2183
aVchanging
p2184
aVcck
p2185
aVmodel
p2186
aVdimension
p2187
aVresearchers
p2188
aVedwards
p2189
aVnosql
p2190
aVpakistan
p2191
aVbeing
p2192
aVknowledgeable
p2193
aVvaluable
p2194
aVreputable
p2195
aVgreetings
p2196
aVcocos2d
p2197
aVsummed
p2198
aVtouch
p2199
aVspeed
p2200
aVweekly
p2201
aVautocad
p2202
aVhsphere
p2203
aVdesktop
p2204
aVblog
p2205
aVcomplements
p2206
aVextensive
p2207
aVreal
p2208
aVaspects
p2209
aVaround
p2210
aVdelhi
p2211
aVpsd
p2212
aVbreedlove
p2213
aVtraffic
p2214
aVmom
p2215
aVworld
p2216
aVweb2py
p2217
aVdisappointed
p2218
aVmod
p2219
aVfortune
p2220
aVidentifying
p2221
aVserver
p2222
aVbenefit
p2223
aVeither
p2224
aVoutput
p2225
aVpassionate
p2226
aVsatisfactory
p2227
aVverbal
p2228
aVcompetition
p2229
aVspecified
p2230
aVimages
p2231
aVorganizing
p2232
aVthinks
p2233
aVprovided
p2234
aVhighest
p2235
aVredis
p2236
aVredir
p2237
aVlegal
p2238
aVpioneer
p2239
aVcritical
p2240
aVprovider
p2241
aVdirector
p2242
aVspecializing
p2243
aVkvm
p2244
aVscientific
p2245
aVpower
p2246
aVconvincing
p2247
aVliveshare
p2248
aVflyers
p2249
aVknowleadge
p2250
aVcentral
p2251
aVindustry
p2252
aVhiatus
p2253
aVhardcopies
p2254
aVstand
p2255
aVbackup
p2256
aVprocessor
p2257
aVpsh2html
p2258
aVcommunication
p2259
aVimage
p2260
aVskilled
p2261
aVreferences
p2262
aVfinancial
p2263
aVtechnically
p2264
aVbuds
p2265
aVprepare
p2266
aVarea
p2267
aVremoving
p2268
aVthere
p2269
aVdeadlines
p2270
aVbangladeshi
p2271
aVstart
p2272
aVlow
p2273
aVlot
p2274
aVago
p2275
aVshoutcast
p2276
aVapis
p2277
aVtechnologies
p2278
aVtrying
p2279
aVhire
p2280
aVcacti
p2281
aVillustrator
p2282
aVagree
p2283
aVdetailed
p2284
aVad
p2285
aVvideos
p2286
aVtaste
p2287
aVdescribe
p2288
aVsales
p2289
aVdeep
p2290
aVnagios
p2291
aVreliability
p2292
aVfile
p2293
aVlogo
p2294
aVquickbooks
p2295
aVagain
p2296
aVdrafts
p2297
aV1562408
p2298
aVpersonnel
p2299
aVgraduate
p2300
aVproductively
p2301
aVfield
p2302
aV28078
p2303
aVmathematics
p2304
aV2007
p2305
aVoneself
p2306
aVobsessed
p2307
aVtranslated
p2308
aVpear
p2309
aVincludes
p2310
aVimportant
p2311
aVnapier
p2312
aVsuited
p2313
aVmechanical
p2314
aVbuilding
p2315
aVremote
p2316
aVcalls
p2317
aVwife
p2318
aVcpa
p2319
aVtricks
p2320
aVwebsites
p2321
aVhello
p2322
aVdirectory
p2323
aVoral
p2324
aVoriginal
p2325
aVmigrated
p2326
aValm
p2327
aVb43b054378357819
p2328
aVfounder
p2329
aVmonth
p2330
aVpostponing
p2331
aVdeadline
p2332
aVfollow
p2333
aVdecisions
p2334
aVsmo
p2335
aVhunting
p2336
aVicons
p2337
aVtv
p2338
aVopportunities
p2339
aVprogram
p2340
aVopensource
p2341
aVpresentation
p2342
aVfax
p2343
aVreturned
p2344
aVsitting
p2345
aVminded
p2346
aVdifference
p2347
aVcondition
p2348
aVorganizationally
p2349
aVlist
p2350
aVapplicable
p2351
aVlarge
p2352
aVscrapping
p2353
aVsmall
p2354
aVten
p2355
aVpast
p2356
aVrate
p2357
aVenhancement
p2358
aVfurther
p2359
aVfunctioning
p2360
aVpinterest
p2361
aVsun
p2362
aVsection
p2363
aVassociate
p2364
aVlearner
p2365
aVversion
p2366
aVlearned
p2367
aVmemcached
p2368
aVpublic
p2369
aV5002
p2370
aVfull
p2371
aVtags
p2372
aV21st
p2373
aVhours
p2374
aVoperating
p2375
aVdirections
p2376
aVmanagerial
p2377
aVobserving
p2378
aVpersonable
p2379
aVhass
p2380
aVsearch
p2381
aVahead
p2382
aVinspired
p2383
aVcompliance
p2384
aVprior
p2385
aVadvertising
p2386
aVpublished
p2387
aVaction
p2388
aVformation
p2389
aVvia
p2390
aVfamily
p2391
aVtoyo
p2392
aVglitch
p2393
aVanalyzing
p2394
aVtrained
p2395
aVestablish
p2396
aVselect
p2397
aVintensive
p2398
aVflaws
p2399
aVtakes
p2400
aVobjectives
p2401
aVfaint
p2402
aVtwo
p2403
aVsaasu
p2404
aVmarkets
p2405
aVachieving
p2406
aVdiamond
p2407
aVdoor
p2408
aVknows
p2409
aVopenvz
p2410
aVbasically
p2411
aVparticular
p2412
aVproducing
p2413
aVwebmaster
p2414
aVglad
p2415
aVkeeping
p2416
aVsalesforce
p2417
aVscience
p2418
aVequation
p2419
aVspecializes
p2420
aVfronted
p2421
aVatari
p2422
aVlearn
p2423
aVstrategies
p2424
aVchallenging
p2425
aVstated
p2426
aVshare
p2427
aVvirtuemart
p2428
aVminimum
p2429
aVmagento
p2430
aVaxis
p2431
aVhuge
p2432
aVneeds
p2433
aVrather
p2434
aVutilize
p2435
aVmaps
p2436
aVbuenos
p2437
aVjustin
p2438
aVtibay
p2439
aVreflect
p2440
aVcatalog
p2441
aVdisable
p2442
aVlighting
p2443
aVcairngorm
p2444
aVresponse
p2445
aVshort
p2446
aVpostfix
p2447
aVmeticulous
p2448
aVdocumentation
p2449
aVbugs
p2450
aVdjango
p2451
aVresponsibility
p2452
aVmedia
p2453
aVcs5
p2454
aVdream
p2455
aVplaying
p2456
aVcs3
p2457
aVreplied
p2458
aVphotoshop
p2459
aVhelp
p2460
aVmission
p2461
aVlicensure
p2462
aVheld
p2463
aVattitude
p2464
aVpaper
p2465
aVthrough
p2466
aVcommitted
p2467
aVits
p2468
aVdeveloper
p2469
aV24
p2470
aV25
p2471
aVstyle
p2472
aV20
p2473
aV22
p2474
aV23
p2475
aVsolving
p2476
aV29
p2477
aVparts
p2478
aVsystems
p2479
aVbox2d
p2480
aVsomeone
p2481
aVmotivated
p2482
aVseeking
p2483
aVfood
p2484
aVscheglov
p2485
aVframework
p2486
aVfoot
p2487
aVformulating
p2488
aVyr
p2489
aVbigger
p2490
aVinstructions
p2491
aVeasily
p2492
aVlevel
p2493
aV2d
p2494
aVuploads
p2495
aVgnucash
p2496
aVeveryone
p2497
aVgeneration
p2498
aVhard
p2499
aVnumeric
p2500
aVclockwork
p2501
aVexpect
p2502
aVoperation
p2503
aVscribe
p2504
aVinsurance
p2505
aVreally
p2506
aVftp
p2507
aVcatia
p2508
aVconceptualizing
p2509
aVsencha
p2510
aVsince
p2511
aVhealth
p2512
aVprint
p2513
aVoffline
p2514
aVasp
p2515
aVupon
p2516
aVreason
p2517
aVbase
p2518
aVmembers
p2519
aVcss
p2520
aVput
p2521
aVteach
p2522
aVash
p2523
aVrevolutionary
p2524
aVcheers
p2525
aVdrupal
p2526
aVdashcommerce
p2527
aVneeding
p2528
aVamerican
p2529
aVexpecting
p2530
aVthrows
p2531
aVmajor
p2532
aVv6
p2533
aVencoding
p2534
aVfeel
p2535
aVnumber
p2536
aVzurb
p2537
aVdone
p2538
aVdefects
p2539
aVmiss
p2540
aVecommerce
p2541
aVleast
p2542
aVshelves
p2543
aV1077457
p2544
aVpassed
p2545
aVweblogic
p2546
aVstore
p2547
aVgps
p2548
aVhim
p2549
aVrelationship
p2550
aVhotel
p2551
aVpart
p2552
aVtranslation
p2553
aVbelieve
p2554
aVonetieva
p2555
aVjquery
p2556
aVkind
p2557
aVdetermines
p2558
aVkindly
p2559
aValphanumeric
p2560
aVglusterfs
p2561
aVaims
p2562
aVrecording
p2563
aVveportal
p2564
aVpolishing
p2565
aVhurco
p2566
aVinteractive
p2567
aVmotivation
p2568
aVoutstanding
p2569
aVchipmunk
p2570
aVmootools
p2571
aVw4m
p2572
aVself
p2573
aVdianwei
p2574
aVbuild
p2575
aVplay
p2576
aVcompetencies
p2577
aVcomponents
p2578
aVsets
p2579
aVchart
p2580
aVmost
p2581
aVexperiences
p2582
aVaires
p2583
aVservices
p2584
aVextremely
p2585
aVachievement
p2586
aVwindows
p2587
aVpopularity
p2588
aVtieva
p2589
aVgiving
p2590
aVartistic
p2591
aVclean
p2592
aVnotch
p2593
aVphysics
p2594
aVmicrosoft
p2595
aVjoining
p2596
aVperseverance
p2597
aVrelation
p2598
aVheadlines
p2599
aVfind
p2600
aVmorisiki
p2601
aVaccess
p2602
aVdepended
p2603
aVwriter
p2604
aVdistributed
p2605
aVfailed
p2606
aVpretty
p2607
aVmoney
p2608
aVdarwin
p2609
aVaccurate
p2610
aVhis
p2611
aVprowess
p2612
aVexpress
p2613
aVrest
p2614
aVinternational
p2615
aVduring
p2616
aVbanner
p2617
aVblogging
p2618
aVexhibiting
p2619
aVadapts
p2620
aVsleeve
p2621
aVrfx
p2622
aVweaver
p2623
aVcrm
p2624
aVbars
p2625
aVset
p2626
aVart
p2627
aV6days
p2628
aVcreator
p2629
aV317
p2630
aVsee
p2631
aVindividual
p2632
aVsem
p2633
aVbudypress
p2634
aVthreats
p2635
aVexpert
p2636
aVmovie
p2637
aVcurrently
p2638
aVkeepalived
p2639
aVrepresentatives
p2640
aVvarious
p2641
aVwide
p2642
aVavailable
p2643
aVprofiling
p2644
aVrecently
p2645
aVcreating
p2646
aVjavascript
p2647
aVmaintainability
p2648
aV1521986
p2649
aVcoffee
p2650
aVscriptlance
p2651
aVfluently
p2652
aVvasilisbankov
p2653
aVleague
p2654
aVrestaurant
p2655
aVannual
p2656
aVevent
p2657
aVthinking
p2658
aVpdm
p2659
aVimproves
p2660
aVhesitand
p2661
aVpdf
p2662
aVlancing
p2663
aVload
p2664
aVpoint
p2665
aVsimple
p2666
aVcomposting
p2667
aVwhatever
p2668
aVdimensional
p2669
aVheader
p2670
aVsimply
p2671
aVlikes
p2672
aVlinux
p2673
aVthroughout
p2674
aVexpensive
p2675
aVpr
p2676
aVjava
p2677
aVpublishing
p2678
aVcreate
p2679
aVcreativity
p2680
aVdue
p2681
aVstrategy
p2682
aVpc
p2683
aVmaintenance
p2684
aVmeeting
p2685
aVfirm
p2686
aVflight
p2687
aVfreelancing
p2688
aVraj
p2689
aVproprietary
p2690
aVprecision
p2691
aVadaptable
p2692
aVdetermination
p2693
aVrepresentative
p2694
aVdemand
p2695
aVinstructor
p2696
aVresid
p2697
aVhandling
p2698
aVlook
p2699
aVsolid
p2700
aVreliable
p2701
aVbudget
p2702
aVtechnical
p2703
aVwhile
p2704
aVoptimization
p2705
aVkick
p2706
aVbehavior
p2707
aVfun
p2708
aVanimated
p2709
aVstudied
p2710
aVcentury
p2711
aVitself
p2712
aVskype
p2713
aVready
p2714
aVria
p2715
aVclerical
p2716
aVshirt
p2717
aVmint
p2718
aVmailing
p2719
aVorders
p2720
aVorientated
p2721
aVcopying
p2722
aVpeoples
p2723
aVcomposition
p2724
aVused
p2725
aVinterpersonal
p2726
aVflurry
p2727
aV000
p2728
aVpurpose
p2729
aVstack
p2730
aVlower
p2731
aVtask
p2732
aVdatabase
p2733
aVpersuasive
p2734
aVspent
p2735
aVanalysis
p2736
aVnoisymusic
p2737
aVperson
p2738
aVsavvy
p2739
aVparametric
p2740
aVspend
p2741
aVwhmcs
p2742
aVabilities
p2743
aVendeavour
p2744
aVlistening
p2745
aVphotoworks
p2746
aVcompetitive
p2747
aVopenstack
p2748
aVgems
p2749
aVcut
p2750
aVnvq
p2751
aVadvertisements
p2752
aVcontractor
p2753
aVeager
p2754
aVdixon
p2755
aVinput
p2756
aVcum
p2757
aVadministrative
p2758
aVcustomers
p2759
aVdemands
p2760
aVbig
p2761
aVunlimited
p2762
aVnginx
p2763
aVgame
p2764
aVfalcon
p2765
aVbit
p2766
aVprojects
p2767
aVoutright
p2768
aVsorting
p2769
aVsuccess
p2770
aVsubmission
p2771
aVconfront
p2772
aVfacets
p2773
aVcommunications
p2774
aVcontinue
p2775
aVpopular
p2776
aVgoogle
p2777
aVmethods
p2778
aVspring
p2779
aVcreation
p2780
aVback
p2781
aVstreaming
p2782
aVtrends
p2783
aVtowards
p2784
aVkeyword
p2785
aVpreparing
p2786
aVdepartmental
p2787
aVshall
p2788
aVintegration
p2789
aVper
p2790
aVscalr
p2791
aVprod
p2792
aVminimal
p2793
aVinclination
p2794
aVpatient
p2795
aV300
p2796
aVopencart
p2797
aVprocessing
p2798
aVrus
p2799
aVwsdl
p2800
aVreadability
p2801
aVhamra
p2802
aVtensionmanagementinstitute
p2803
aVanything
p2804
aVwelll
p2805
aVgraduation
p2806
aVsimulation
p2807
aVrange
p2808
aVjsp
p2809
aVplan
p2810
aVhometown
p2811
aVinto
p2812
aVwithin
p2813
aVnonsense
p2814
aVservers
p2815
aVperl
p2816
aVcalming
p2817
aVstatistics
p2818
aVinnate
p2819
aVspecifically
p2820
aVcustom
p2821
aVheritage
p2822
aVforward
p2823
aVcarnaudmetalbox
p2824
aVpromotions
p2825
aVsolanghansen
p2826
aVposter
p2827
aVspecialty
p2828
aV987
p2829
aVlink
p2830
aVpytalhost
p2831
aVrussian
p2832
aVline
p2833
aVdirected
p2834
aVconsist
p2835
aVmunin
p2836
aVup
p2837
aVus
p2838
aVmobile
p2839
aVthose
p2840
aVceridian
p2841
aVgnvq
p2842
aVindividuality
p2843
aVvekperevoda
p2844
aVwilled
p2845
aVbeckoning
p2846
aVdoesn
p2847
aVconsulted
p2848
aVassociates
p2849
aVchat
p2850
aVorganizational
p2851
aVhuron
p2852
aVmssql
p2853
aVstreamlining
p2854
aVpeace
p2855
aVgooglemap
p2856
aVrewriting
p2857
aVapplication
p2858
aVincome
p2859
aVdepartment
p2860
aVnice
p2861
aVusers
p2862
aVfavourite
p2863
aVmongodb
p2864
aVproblems
p2865
aVrestoration
p2866
aVposters
p2867
aVsvn
p2868
aVhappier
p2869
aVsvg
p2870
aVrequired
p2871
aVdepartments
p2872
aVmonit
p2873
aV2003
p2874
aVdepth
p2875
aV2006
p2876
aVpresenting
p2877
aV2005
p2878
aVoracle
p2879
aV2008
p2880
aV2009
p2881
aVhaving
p2882
aVcode
p2883
aVbroaden
p2884
aVresults
p2885
aVexisting
p2886
aVvsftp
p2887
aVgo
p2888
aVsend
p2889
aVsuits
p2890
aVliterary
p2891
aVhelps
p2892
aVsuite
p2893
aVinclude
p2894
aVfriendly
p2895
aVresources
p2896
aVuploaded
p2897
aVlogos
p2898
aVlisted
p2899
aVmastering
p2900
aVfacebook
p2901
aVstackoverflow
p2902
aVmixing
p2903
aVcategories
p2904
aVtimely
p2905
aVmercurial
p2906
aVtry
p2907
aVassignments
p2908
aVsearchability
p2909
aVbusinesses
p2910
aVhardening
p2911
aVrecruitment
p2912
aVlayouts
p2913
aVvideo
p2914
aVdynamics
p2915
aVclick
p2916
aVvmware
p2917
aVuniversities
p2918
aVhourly
p2919
aVchicago
p2920
aVphonegap
p2921
aVassisted
p2922
aVmultimedia
p2923
aVnetworks
p2924
aVjboss
p2925
aVconsistently
p2926
aVturnaround
p2927
aVtapjoy
p2928
aVfirms
p2929
aVmarketer
p2930
aVexercise
p2931
aV3d
p2932
aVdegree
p2933
aVdelivering
p2934
aVbachelor
p2935
aVbusy
p2936
aVlet
p2937
aVothers
p2938
aVmaven
p2939
aVgreat
p2940
aVengage
p2941
aVtalent
p2942
aVreceive
p2943
aVinvolved
p2944
aV30
p2945
aVkiessling
p2946
aVproducts
p2947
aVbookkeeping
p2948
aVmakes
p2949
aVhonor
p2950
aVinvolves
p2951
aVapp
p2952
aVmanage
p2953
aVportals
p2954
aVunderpromise
p2955
aVapi
p2956
aVlodging
p2957
aVapply
p2958
aVtools
p2959
aVcloud
p2960
aVconfidence
p2961
aVhears
p2962
aVusa
p2963
aVguideline
p2964
aVfew
p2965
aVdoubt
p2966
aVthemselves
p2967
aVgained
p2968
aVjournalists
p2969
aVstarted
p2970
aVarranging
p2971
aVstarter
p2972
aVsubscription
p2973
aVaccount
p2974
aVpracticing
p2975
aVphing
p2976
aVlanguages
p2977
aVthis
p2978
aVchallenge
p2979
aVmeet
p2980
aVcontrol
p2981
aVsqlite
p2982
aVperfecting
p2983
aVreserved
p2984
aVprocess
p2985
aVtax
p2986
aVhigh
p2987
aVsomething
p2988
aVtab
p2989
aVeducational
p2990
aVsit
p2991
aVpoetry
p2992
aVarrangement
p2993
aVlamp
p2994
aVrevision
p2995
aVprofile
p2996
aVadministrator
p2997
aVwatch
p2998
aVfits
p2999
aVcommunicator
p3000
aVmarrow
p3001
aVefficiently
p3002
aVos
p3003
aVzenoss
p3004
aVzbrush
p3005
aVtexturing
p3006
aVelement
p3007
aVencyclopedia
p3008
aVallow
p3009
aVtenure
p3010
aVquotations
p3011
aVfastest
p3012
aVresearching
p3013
aVwhilst
p3014
aVincluding
p3015
aVlooks
p3016
aVconverting
p3017
aVhbase
p3018
aVchosen
p3019
aVll
p3020
aVemails
p3021
aVwilling
p3022
aVfirmly
p3023
aVchoose
p3024
aVhobby
p3025
aV2011
p3026
aV2012
p3027
aVflex
p3028
aVdesigns
p3029
aVcrash
p3030
aVpython
p3031
aVpractice
p3032
aVindexing
p3033
aVskydrive
p3034
aVeffectatious
p3035
aVsmarty
p3036
aVhands
p3037
aVfront
p3038
aVcakephp
p3039
aVday
p3040
aVstrive
p3041
aVarticles
p3042
aVmasters
p3043
aVkronos
p3044
aVedit
p3045
aVuniversity
p3046
aV3ds
p3047
aVaccounts
p3048
aVluster
p3049
aVexperienced
p3050
aV709
p3051
aVdoing
p3052
aVrelated
p3053
aVsociety
p3054
aVmeta
p3055
aVstatic
p3056
aVcpanel
p3057
aVmxml
p3058
aVour
p3059
aVprogrammer
p3060
aVspecial
p3061
aVout
p3062
aVproofreader
p3063
aVchaos
p3064
aVricky
p3065
aVmate
p3066
aVimpart
p3067
aVred
p3068
aVproficient
p3069
aVipod
p3070
aVloyola
p3071
aVanalytical
p3072
aVcompletely
p3073
aVsurely
p3074
aVtenant
p3075
aVorganic
p3076
aVcould
p3077
aVopengl
p3078
aVask
p3079
aVtimes
p3080
aVkeen
p3081
aVpasting
p3082
aVretail
p3083
aVstimulate
p3084
aVplastics
p3085
aVindesign
p3086
aVblogger
p3087
aVpowerful
p3088
aVstrategic
p3089
aVimprovements
p3090
aVpuppet
p3091
aVhonestly
p3092
aVowner
p3093
aVlong
p3094
aVstrict
p3095
aVdetailing
p3096
aVsystem
p3097
aVpriority
p3098
aVtheir
p3099
aVgcse
p3100
aVmechnisam
p3101
aVperfectly
p3102
aVfinal
p3103
aVaodrgsiggnrjrzs
p3104
aVcompleted
p3105
aVrsa
p3106
aVregards
p3107
aVmanipulation
p3108
aVdistinction
p3109
aVhaven
p3110
aVupdating
p3111
aVrss
p3112
aVipad
p3113
aVbother
p3114
aVsubmitted
p3115
aVdmu50
p3116
aVproviding
p3117
aVcollecting
p3118
aVvericut
p3119
aVneed
p3120
aVlinked
p3121
aVcompetency
p3122
aVdocuments
p3123
aVstudying
p3124
aVable
p3125
aVstegloff
p3126
aVconcerns
p3127
aVwhich
p3128
aVlinda
p3129
aVsingh
p3130
aVsubject
p3131
aVsoap
p3132
aVaccuracy
p3133
aVworldwide
p3134
aVunless
p3135
aVcentre
p3136
aVwho
p3137
aVaws
p3138
aVdelve
p3139
aVsegment
p3140
aVwhy
p3141
aVvolume
p3142
aVurl
p3143
aVarchiving
p3144
aVhi
p3145
aVdatabases
p3146
aVgain
p3147
aVselection
p3148
aVdba
p3149
aVplease
p3150
aVretouching
p3151
aVplanning
p3152
aVmanchester
p3153
aVportfolio
p3154
aVdebate
p3155
aVlitigation
p3156
aVha
p3157
aVbased
p3158
aVearned
p3159
aVcache
p3160
aVemployer
p3161
aVemployee
p3162
aVemployed
p3163
aVlocal
p3164
aVachieve
p3165
aVmeans
p3166
aVfamiliar
p3167
aVones
p3168
aVwords
p3169
aVdb2
p3170
aVprocedures
p3171
aVareas
p3172
aVnetsuite
p3173
aVtaxes
p3174
aVteams
p3175
aVqc
p3176
aVstuff
p3177
aVshe
p3178
aVqueries
p3179
aVgrab
p3180
aVconversions
p3181
aVeurope
p3182
aVrightscale
p3183
aVacquired
p3184
aVtravis
p3185
aVcomputer
p3186
aVwritten
p3187
aVcopywriting
p3188
aVprogress
p3189
aVemail
p3190
aVattention
p3191
aVability
p3192
aVopening
p3193
aVimportance
p3194
aVdeliver
p3195
aVimplementing
p3196
aVjob
p3197
aVkey
p3198
aVconfiguration
p3199
aVswift
p3200
aVker
p3201
aVdiligent
p3202
aVcareer
p3203
aVtaking
p3204
aVpresentations
p3205
aVassure
p3206
aVwaiters
p3207
aVmentoring
p3208
aVmodeling
p3209
aVaddition
p3210
aVjson
p3211
aVseasoned
p3212
aVpoet
p3213
aVutilizing
p3214
aVwaste
p3215
aVmike
p3216
aVboth
p3217
aVsufficient
p3218
aVal
p3219
aVcontroller
p3220
aVgraphics
p3221
aVgeneral
p3222
aVpresent
p3223
aVhmc
p3224
aVmulti
p3225
aVvalue
p3226
aVframeworks
p3227
aVstunning
p3228
aVscanned
p3229
aVve
p3230
aValmost
p3231
aVsite
p3232
aVlinkedin
p3233
aVhelped
p3234
aVarabic
p3235
aVregression
p3236
aVbegan
p3237
aVadministration
p3238
aVmember
p3239
aVunity
p3240
aVbecame
p3241
aVparty
p3242
aVandroid
p3243
aVresiding
p3244
aVhttp
p3245
aVreporting
p3246
aVios
p3247
aVautomation
p3248
aVproficiency
p3249
aVv5
p3250
aVstudent
p3251
aVuni
p3252
aVtransaction
p3253
aVoff
p3254
aVcenter
p3255
aVcontest
p3256
aVthought
p3257
aVpatterns
p3258
aVcommand
p3259
aVoops
p3260
aVenglish
p3261
aVposition
p3262
aVaudio
p3263
aVdrawing
p3264
aVlatest
p3265
aVrestore
p3266
aVless
p3267
aVxen
p3268
aVexecutive
p3269
aVobtain
p3270
aVdose
p3271
aVsourcer
p3272
aVprotecting
p3273
aVpaul
p3274
aVnow
p3275
aVads
p3276
aVadp
p3277
aVcomunications
p3278
aVjeff
p3279
aVcapabilities
p3280
aVdevelopments
p3281
aVusage
p3282
aV280
p3283
aVsuit
p3284
aVsmart
p3285
aVcss3
p3286
aVcss2
p3287
aVcaptivating
p3288
aVample
p3289
aVmolding
p3290
aVmillturn
p3291
aVexecute
p3292
aVfive
p3293
aVknow
p3294
aVdeployment
p3295
aVpress
p3296
aVloader
p3297
aVprominent
p3298
aVnecessary
p3299
aVhelpful
p3300
aVexcluding
p3301
aVefficiency
p3302
aVdictionaries
p3303
aVcandy
p3304
aVpayments
p3305
aVbecome
p3306
aVworks
p3307
aVpage
p3308
aVexceed
p3309
aVbecause
p3310
aVpropel
p3311
aVactuarial
p3312
aVtwitter
p3313
aVsearching
p3314
aVplatforms
p3315
aVgrowth
p3316
aV110
p3317
aVconvey
p3318
aVproper
p3319
aVhome
p3320
aVprojection
p3321
aVlead
p3322
aVsketching
p3323
aVpassion
p3324
aVcapability
p3325
aVleader
p3326
aVschedule
p3327
aVstellar
p3328
aVpressure
p3329
aValthough
p3330
aVtestflight
p3331
aVshopify
p3332
aVhaproxy
p3333
aVabout
p3334
aVcodeigniter
p3335
aVgetting
p3336
aVcolumn
p3337
aValtb6kgfpg9btvc
p3338
aVpowerpoint
p3339
aVsoftware
p3340
aVown
p3341
aVpolished
p3342
aVcauselle
p3343
aVh2
p3344
aVh1
p3345
aVfunctional
p3346
aVarticulate
p3347
aVcocoa
p3348
aVvirtualbox
p3349
aV1987
p3350
aVnetworking
p3351
aVadditional
p3352
aVtransfer
p3353
aVapps
p3354
aVawarded
p3355
aV704
p3356
aVaccountant
p3357
aVliceanse
p3358
aVblackprojectstudios
p3359
aVbiggest
p3360
aVyrs
p3361
aVelastix
p3362
aVnaturally
p3363
aVcertificate
p3364
aVdreamweaver
p3365
aVpeechtree
p3366
aVhr
p3367
aVbrand
p3368
aVdelivery
p3369
aVconstruction
p3370
aVmailed
p3371
aVgoals
p3372
aVoverflow
p3373
aVsqueeze
p3374
aVbug
p3375
aVversatile
p3376
aVcount
p3377
aVmade
p3378
aVdmg
p3379
aVsmooth
p3380
aVcurrentaly
p3381
aVrecord
p3382
aVbelow
p3383
aVbooks
p3384
aVlimit
p3385
aVproblem
p3386
aVpiece
p3387
aVpim
p3388
aVrecognize
p3389
aVbrochures
p3390
aVcontribute
p3391
aVmyi
p3392
aVinn
p3393
aVperiods
p3394
aVeducation
p3395
aVmyd
p3396
aVinc
p3397
aVfunctions
p3398
aVvariety
p3399
aVdetail
p3400
aVvirtual
p3401
aVpeoplesoft
p3402
aVbook
p3403
aVdetails
p3404
aVboon
p3405
aVphp5
p3406
aVasterisk
p3407
aVlearnings
p3408
aVrepeat
p3409
aVchance
p3410
aVadditionally
p3411
aVmultinationals
p3412
aVextjs
p3413
aVlaude
p3414
aVexposure
p3415
aVfocused
p3416
aVsphinx
p3417
aVblogs
p3418
aVcompete
p3419
aVquestionnaires
p3420
aVunderstand
p3421
aVstrategical
p3422
atRp3423
sg929
I00
sg918
I01
sg919
Nsg921
NsS'vocabulary_'
p3424
(dp3425
Vskills
p3426
g17
(g783
S'K\x00\x00\x00'
tRp3427
sVcompanies
p3428
g17
(g783
S'\x12\x00\x00\x00'
tRp3429
sVnew
p3430
g17
(g783
S'8\x00\x00\x00'
tRp3431
sVwould
p3432
g17
(g783
S'd\x00\x00\x00'
tRp3433
sVexcellent
p3434
g17
(g783
S'\x1e\x00\x00\x00'
tRp3435
sVme
p3436
g17
(g783
S'4\x00\x00\x00'
tRp3437
sVword
p3438
g17
(g783
S'`\x00\x00\x00'
tRp3439
sVwork
p3440
g17
(g783
S'b\x00\x00\x00'
tRp3441
sVprovide
p3442
g17
(g783
S'E\x00\x00\x00'
tRp3443
sVover
p3444
g17
(g783
S'A\x00\x00\x00'
tRp3445
sVwriting
p3446
g17
(g783
S'e\x00\x00\x00'
tRp3447
sVgood
p3448
g17
(g783
S'%\x00\x00\x00'
tRp3449
sVservice
p3450
g17
(g783
S'J\x00\x00\x00'
tRp3451
sVproject
p3452
g17
(g783
S'D\x00\x00\x00'
tRp3453
sVoriented
p3454
g17
(g783
S'?\x00\x00\x00'
tRp3455
sVclient
p3456
g17
(g783
S'\x0f\x00\x00\x00'
tRp3457
sVsolutions
p3458
g17
(g783
S'L\x00\x00\x00'
tRp3459
sVdo
p3460
g17
(g783
S'\x1b\x00\x00\x00'
tRp3461
sVbest
p3462
g17
(g783
S'\x0b\x00\x00\x00'
tRp3463
sVcom
p3464
g17
(g783
S'\x11\x00\x00\x00'
tRp3465
sVand
p3466
g17
(g783
S'\x05\x00\x00\x00'
tRp3467
sVbeen
p3468
g17
(g783
S'\n\x00\x00\x00'
tRp3469
sVwebsite
p3470
g17
(g783
S'Z\x00\x00\x00'
tRp3471
sVis
p3472
g17
(g783
S'*\x00\x00\x00'
tRp3473
sVit
p3474
g17
(g783
S'+\x00\x00\x00'
tRp3475
sVin
p3476
g17
(g783
S')\x00\x00\x00'
tRp3477
sVif
p3478
g17
(g783
S'(\x00\x00\x00'
tRp3479
sVthe
p3480
g17
(g783
S'S\x00\x00\x00'
tRp3481
sVfor
p3482
g17
(g783
S'"\x00\x00\x00'
tRp3483
sVmarketing
p3484
g17
(g783
S'3\x00\x00\x00'
tRp3485
sVsupport
p3486
g17
(g783
S'O\x00\x00\x00'
tRp3487
sVwordpress
p3488
g17
(g783
S'a\x00\x00\x00'
tRp3489
sVexpertise
p3490
g17
(g783
S' \x00\x00\x00'
tRp3491
sVexcel
p3492
g17
(g783
S'\x1d\x00\x00\x00'
tRp3493
sVtime
p3494
g17
(g783
S'T\x00\x00\x00'
tRp3495
sVmy
p3496
g17
(g783
S'6\x00\x00\x00'
tRp3497
sVtasks
p3498
g17
(g783
S'P\x00\x00\x00'
tRp3499
sVworking
p3500
g17
(g783
S'c\x00\x00\x00'
tRp3501
sVcan
p3502
g17
(g783
S'\x0e\x00\x00\x00'
tRp3503
sVfollowing
p3504
g17
(g783
S'!\x00\x00\x00'
tRp3505
sVdesigner
p3506
g17
(g783
S'\x18\x00\x00\x00'
tRp3507
sVdata
p3508
g17
(g783
S'\x16\x00\x00\x00'
tRp3509
sVyears
p3510
g17
(g783
S'f\x00\x00\x00'
tRp3511
sVnot
p3512
g17
(g783
S'9\x00\x00\x00'
tRp3513
sVone
p3514
g17
(g783
S'=\x00\x00\x00'
tRp3515
sVthat
p3516
g17
(g783
S'R\x00\x00\x00'
tRp3517
sVthan
p3518
g17
(g783
S'Q\x00\x00\x00'
tRp3519
sVobjective
p3520
g17
(g783
S':\x00\x00\x00'
tRp3521
sVprofessional
p3522
g17
(g783
S'C\x00\x00\x00'
tRp3523
sVwhere
p3524
g17
(g783
S']\x00\x00\x00'
tRp3525
sVjobs
p3526
g17
(g783
S',\x00\x00\x00'
tRp3527
sVmany
p3528
g17
(g783
S'2\x00\x00\x00'
tRp3529
sVsatisfaction
p3530
g17
(g783
S'H\x00\x00\x00'
tRp3531
sVhtml
p3532
g17
(g783
S"'\x00\x00\x00"
tRp3533
sVbusiness
p3534
g17
(g783
S'\x0c\x00\x00\x00'
tRp3535
sVon
p3536
g17
(g783
S'<\x00\x00\x00'
tRp3537
sVof
p3538
g17
(g783
S';\x00\x00\x00'
tRp3539
sVor
p3540
g17
(g783
S'>\x00\x00\x00'
tRp3541
sVyour
p3542
g17
(g783
S'h\x00\x00\x00'
tRp3543
sVcomplete
p3544
g17
(g783
S'\x14\x00\x00\x00'
tRp3545
sVwith
p3546
g17
(g783
S'_\x00\x00\x00'
tRp3547
sVam
p3548
g17
(g783
S'\x03\x00\x00\x00'
tRp3549
sVas
p3550
g17
(g783
S'\x07\x00\x00\x00'
tRp3551
sVat
p3552
g17
(g783
S'\x08\x00\x00\x00'
tRp3553
sVyou
p3554
g17
(g783
S'g\x00\x00\x00'
tRp3555
sVall
p3556
g17
(g783
S'\x00\x00\x00\x00'
tRp3557
sVto
p3558
g17
(g783
S'U\x00\x00\x00'
tRp3559
sVvery
p3560
g17
(g783
S'X\x00\x00\x00'
tRp3561
sVdesign
p3562
g17
(g783
S'\x17\x00\x00\x00'
tRp3563
sVwhat
p3564
g17
(g783
S'\\\x00\x00\x00'
tRp3565
sVstrong
p3566
g17
(g783
S'N\x00\x00\x00'
tRp3567
sVexperience
p3568
g17
(g783
S'\x1f\x00\x00\x00'
tRp3569
sVmore
p3570
g17
(g783
S'5\x00\x00\x00'
tRp3571
sVcompany
p3572
g17
(g783
S'\x13\x00\x00\x00'
tRp3573
sVgoal
p3574
g17
(g783
S'$\x00\x00\x00'
tRp3575
sVdeveloped
p3576
g17
(g783
S'\x19\x00\x00\x00'
tRp3577
sValways
p3578
g17
(g783
S'\x02\x00\x00\x00'
tRp3579
sVresearch
p3580
g17
(g783
S'G\x00\x00\x00'
tRp3581
sValso
p3582
g17
(g783
S'\x01\x00\x00\x00'
tRp3583
sVare
p3584
g17
(g783
S'\x06\x00\x00\x00'
tRp3585
sVseo
p3586
g17
(g783
S'I\x00\x00\x00'
tRp3587
sVlast
p3588
g17
(g783
S'.\x00\x00\x00'
tRp3589
sVdevelopment
p3590
g17
(g783
S'\x1a\x00\x00\x00'
tRp3591
sVentry
p3592
g17
(g783
S'\x1c\x00\x00\x00'
tRp3593
sVmysql
p3594
g17
(g783
S'7\x00\x00\x00'
tRp3595
sVlike
p3596
g17
(g783
S'/\x00\x00\x00'
tRp3597
sVsome
p3598
g17
(g783
S'M\x00\x00\x00'
tRp3599
sVbe
p3600
g17
(g783
S'\t\x00\x00\x00'
tRp3601
sVuse
p3602
g17
(g783
S'V\x00\x00\x00'
tRp3603
sVmanagement
p3604
g17
(g783
S'1\x00\x00\x00'
tRp3605
sVfrom
p3606
g17
(g783
S'#\x00\x00\x00'
tRp3607
sVcustomer
p3608
g17
(g783
S'\x15\x00\x00\x00'
tRp3609
sVclients
p3610
g17
(g783
S'\x10\x00\x00\x00'
tRp3611
sVlooking
p3612
g17
(g783
S'0\x00\x00\x00'
tRp3613
sVquality
p3614
g17
(g783
S'F\x00\x00\x00'
tRp3615
sVhave
p3616
g17
(g783
S'&\x00\x00\x00'
tRp3617
sVknowledge
p3618
g17
(g783
S'-\x00\x00\x00'
tRp3619
sVan
p3620
g17
(g783
S'\x04\x00\x00\x00'
tRp3621
sVwill
p3622
g17
(g783
S'^\x00\x00\x00'
tRp3623
sVphp
p3624
g17
(g783
S'B\x00\x00\x00'
tRp3625
sVwell
p3626
g17
(g783
S'[\x00\x00\x00'
tRp3627
sVweb
p3628
g17
(g783
S'Y\x00\x00\x00'
tRp3629
sVother
p3630
g17
(g783
S'@\x00\x00\x00'
tRp3631
sVbut
p3632
g17
(g783
S'\r\x00\x00\x00'
tRp3633
sVusing
p3634
g17
(g783
S'W\x00\x00\x00'
tRp3635
ssg945
g946
sg934
g935
sg936
g1
(g937
g3
NtRp3636
(dp3637
g940
I01
sg941
I01
sg942
I00
sg943
g944
sS'_idf_diag'
p3638
g1
(cscipy.sparse.dia
dia_matrix
p3639
g3
NtRp3640
(dp3641
S'data'
p3642
g776
(g777
(I0
tS'b'
tRp3643
(I1
(I1
I105
tg19
I00
S'\xfe\xf6eq-I\x05@z\xfb\xfa\xe24|\x04@\x84\xee\x92`\x99\xba\x07@4|\xab\xc2\xe6\x80\xfd?^\x8fz\x8c\xce\xc6\x02@\xf2U6\x10q\xfd\xf0?^\x8fz\x8c\xce\xc6\x02@<ppx \xa9\xfe?\xfe\xf6eq-I\x05@;\xf6\x98y\xe5\xc1\x03@\x84\xee\x92`\x99\xba\x07@\x0cb\x1d>M-\x07@^\x8fz\x8c\xce\xc6\x02@\x84\xee\x92`\x99\xba\x07@\x08`\xd4\xa0\x08/\x02@\xe0r\xeb\xbf\x7f\xa8\t@<ppx \xa9\x06@\xda\x1d9L_R\x08@\xae\x0b\x97\xbaL\xf6\x08@\xe0r\xeb\xbf\x7f\xa8\t@\x0cb\x1d>M-\x07@\xda\x1d9L_R\x08@\x08`\xd4\xa0\x08/\x02@\xa4\x18\xff<\xe8\xb7\x05@\xae\x0b\x97\xbaL\xf6\x08@\xe0r\xeb\xbf\x7f\xa8\t@\xfe\xf6eq-I\x05@\xb2*p\xb5\xf7,\x06@\x9a\xc6\xf6\xfb \xe0\x04@\xae\x0b\x97\xbaL\xf6\x08@\xe0r\xeb\xbf\x7f\xa8\t@\xd0\xab\xdc\x80\xbc"\xfd?\xe0r\xeb\xbf\x7f\xa8\t@\xda\x1d9L_R\x08@>.Q\xff\xe5\xdb\xf9?\xb2*p\xb5\xf7,\x06@\x84\xee\x92`\x99\xba\x07@\x0cb\x1d>M-\x07@\x18\xa3+\xc2\xefF\xf9?\x84\xee\x92`\x99\xba\x07@\xae\x0b\x97\xbaL\xf6\x08@\x8a\x8e\x16\xc8\x84\xc5\xf3?\xaa8\xc5\x1d\xd4\x10\xff?\x0cb\x1d>M-\x07@\xae\x0b\x97\xbaL\xf6\x08@<ppx \xa9\x06@\xda\x1d9L_R\x08@\x84\xee\x92`\x99\xba\x07@\xae\x0b\x97\xbaL\xf6\x08@<ppx \xa9\x06@\xe0r\xeb\xbf\x7f\xa8\t@\xe0r\xeb\xbf\x7f\xa8\t@\xf8\x1c}\x7f!\x17\x03@\xa4\x18\xff<\xe8\xb7\x05@k\xe9\x84x\xe0\xef\xf5?\xda\x1d9L_R\x08@\xda\x1d9L_R\x08@\xda\x1d9L_R\x08@\x84\xee\x92`\x99\xba\x07@\xbc\xc5\xac\x85\xf3\xa5\xf6?f\xb6Z$\tf\x00@\xe0r\xeb\xbf\x7f\xa8\t@\xb2*p\xb5\xf7,\x06@\xda\x1d9L_R\x08@\x84\xee\x92`\x99\xba\x07@z\xfb\xfa\xe24|\x04@\xae\x0b\x97\xbaL\xf6\x08@\x9a\xc6\xf6\xfb \xe0\x04@\xae\x0b\x97\xbaL\xf6\x08@\xfe\xf6eq-I\x05@\x9a\xc6\xf6\xfb \xe0\x04@\x0cb\x1d>M-\x07@\xe0r\xeb\xbf\x7f\xa8\t@\xe0r\xeb\xbf\x7f\xa8\t@^\x8fz\x8c\xce\xc6\x02@\x06\xd1Nc9{\xff?\xae\x0b\x97\xbaL\xf6\x08@\xda\x1d9L_R\x08@\xe0r\xeb\xbf\x7f\xa8\t@\xda\x1d9L_R\x08@\xe0r\xeb\xbf\x7f\xa8\t@\x84\xee\x92`\x99\xba\x07@6\x9c\xb1\xf5f\xa1\x00@k\xe9\x84x\xe0\xef\xf5?^\x8fz\x8c\xce\xc6\x02@DS\xf3\xf8\xfe\x91\xf3?\x84\xee\x92`\x99\xba\x07@\x0cb\x1d>M-\x07@<ppx \xa9\x06@\x0c\xac\x9c\xab*\xe7\x01@\xda\x1d9L_R\x08@<ppx \xa9\x06@\xe0r\xeb\xbf\x7f\xa8\t@\xae\x0b\x97\xbaL\xf6\x08@\xfe\xf6eq-I\x05@ ;\xbc\xd73\xb7\xf8?\xae\x0b\x97\xbaL\xf6\x08@\xe0r\xeb\xbf\x7f\xa8\t@\x0e\xc1\x8d\x01\xb0\xc6\xfc?2}\xd8\xfa\xbbj\x03@\xae\x0b\x97\xbaL\xf6\x08@\xb2*p\xb5\xf7,\x06@\xear\xb3\x8f\x92\x14\xfc?^\x8fz\x8c\xce\xc6\x02@\xfe\xf6eq-I\x05@'
tbsS'maxprint'
p3644
I50
sS'_shape'
p3645
(I105
I105
tp3646
sS'offsets'
p3647
g776
(g777
(I0
tS'b'
tRp3648
(I1
(I1
tg783
I00
S'\x00\x00\x00\x00'
tbsS'format'
p3649
S'dia'
p3650
sbsbsg947
Nsbsg21
g911
sg814
g1
(g815
g3
NtRp3651
(dp3652
g818
I01
sg819
g951
sbsg8
Nsg821
I01
sg810
g811
sg813
g948
sg822
g1
(g852
g3
NtRp3653
(dp3654
g829
g1174
sg828
Nsg855
g954
sg826
g827
sg832
Nsg831
Nsbsaa(lp3655
g956
a(dp3656
g812
Nsg21
g956
sg814
g1
(g815
g3
NtRp3657
(dp3658
g819
g960
sg1193
g776
(g777
(I0
tS'b'
tRp3659
(I1
(I1
tg19
I00
S'(\xaf\xa1\xbc\x86\xf2\xaa?'
tbsg1195
g776
(g777
(I0
tS'b'
tRp3660
(I1
(I1
tg19
I00
S'\x00\x00\x00\x00\x00\x003@'
tbsg1197
g776
(g777
(I0
tS'b'
tRp3661
(I1
(I1
tg19
I00
S'\x00\x00\x00\x00\x00\x00\x00\x00'
tbsg1199
g776
(g777
(I0
tS'b'
tRp3662
(I1
(I1
tg19
I00
S'\x00\x00\x00\x00\x00\x00\x00\x00'
tbsg818
I01
sbsg8
Nsg821
I01
sg810
g811
sg813
Nsg822
g1
(g852
g3
NtRp3663
(dp3664
g829
g1174
sg828
Nsg855
g856
sg826
g827
sg832
Nsg831
Nsbsaa(lp3665
g964
a(dp3666
g812
Nsg21
g964
sg814
g1
(g815
g3
NtRp3667
(dp3668
g819
g968
sg1193
g776
(g777
(I0
tS'b'
tRp3669
(I1
(I1
tg19
I00
S'{\x14\xaeG\xe1z\x94?'
tbsg1195
g776
(g777
(I0
tS'b'
tRp3670
(I1
(I1
tg19
I00
S'\x00\x00\x00\x00\x00\x00I@'
tbsg1197
g776
(g777
(I0
tS'b'
tRp3671
(I1
(I1
tg19
I00
S'\x00\x00\x00\x00\x00\x00\x00\x00'
tbsg1199
g776
(g777
(I0
tS'b'
tRp3672
(I1
(I1
tg19
I00
S'\x00\x00\x00\x00\x00\x00\x00\x00'
tbsg818
I01
sbsg8
Nsg821
I01
sg810
g811
sg813
Nsg822
g1
(g852
g3
NtRp3673
(dp3674
g829
g1174
sg828
Nsg855
g856
sg826
g827
sg832
Nsg831
Nsbsaa(lp3675
g972
a(dp3676
g812
Nsg21
g972
sg814
g1
(g815
g3
NtRp3677
(dp3678
g819
g976
sg1193
g776
(g777
(I0
tS'b'
tRp3679
(I1
(I1
tg19
I00
S'{\x14\xaeG\xe1z\x94?'
tbsg1195
g776
(g777
(I0
tS'b'
tRp3680
(I1
(I1
tg19
I00
S'\x00\x00\x00\x00\x00\x00I@'
tbsg1197
g776
(g777
(I0
tS'b'
tRp3681
(I1
(I1
tg19
I00
S'\x00\x00\x00\x00\x00\x00\x00\x00'
tbsg1199
g776
(g777
(I0
tS'b'
tRp3682
(I1
(I1
tg19
I00
S'\x00\x00\x00\x00\x00\x00\x00\x00'
tbsg818
I01
sbsg8
Nsg821
I01
sg810
g811
sg813
Nsg822
g1
(g852
g3
NtRp3683
(dp3684
g829
g1174
sg828
Nsg855
g856
sg826
g827
sg832
Nsg831
Nsbsaa(lp3685
g980
a(dp3686
g812
Nsg21
g980
sg814
g1
(g815
g3
NtRp3687
(dp3688
g819
g984
sg1193
g776
(g777
(I0
tS'b'
tRp3689
(I1
(I1
tg19
I00
S'\x9a\x99\x99\x99\x99\x99\xc9?'
tbsg1195
g776
(g777
(I0
tS'b'
tRp3690
(I1
(I1
tg19
I00
S'\x00\x00\x00\x00\x00\x00\x14@'
tbsg1197
g776
(g777
(I0
tS'b'
tRp3691
(I1
(I1
tg19
I00
S'\x00\x00\x00\x00\x00\x00\x00\x00'
tbsg1199
g776
(g777
(I0
tS'b'
tRp3692
(I1
(I1
tg19
I00
S'\x00\x00\x00\x00\x00\x00\x00\x00'
tbsg818
I01
sbsg8
Nsg821
I01
sg810
g811
sg813
Nsg822
g1
(g852
g3
NtRp3693
(dp3694
g829
g1174
sg828
Nsg855
g876
sg826
g827
sg832
Nsg831
Nsbsaa(lp3695
g988
a(dp3696
g812
Nsg21
g988
sg814
g1
(g815
g3
NtRp3697
(dp3698
g819
g992
sg1193
g776
(g777
(I0
tS'b'
tRp3699
(I1
(I1
tg19
I00
S'\x1a\xa4A\x1a\xa4A\x8a?'
tbsg1195
g776
(g777
(I0
tS'b'
tRp3700
(I1
(I1
tg19
I00
S'\x00\x00\x00\x00\x00\x80S@'
tbsg1197
g776
(g777
(I0
tS'b'
tRp3701
(I1
(I1
tg19
I00
S'\x00\x00\x00\x00\x00\x00\x00\x00'
tbsg1199
g776
(g777
(I0
tS'b'
tRp3702
(I1
(I1
tg19
I00
S'\x00\x00\x00\x00\x00\x00\x00\x00'
tbsg818
I01
sbsg8
Nsg821
I01
sg810
g811
sg813
Nsg822
g1
(g852
g3
NtRp3703
(dp3704
g829
g1174
sg828
Nsg855
g876
sg826
g827
sg832
Nsg831
Nsbsaa(lp3705
g996
a(dp3706
g812
Nsg21
g996
sg814
g1
(g815
g3
NtRp3707
(dp3708
g819
g1000
sg1193
g776
(g777
(I0
tS'b'
tRp3709
(I1
(I1
tg19
I00
S'ysB\x89\x06nq?'
tbsg1195
g776
(g777
(I0
tS'b'
tRp3710
(I1
(I1
tg19
I00
S'\x00\x00\x00\x00\x00`m@'
tbsg1197
g776
(g777
(I0
tS'b'
tRp3711
(I1
(I1
tg19
I00
S'\x00\x00\x00\x00\x00\x00\x00\x00'
tbsg1199
g776
(g777
(I0
tS'b'
tRp3712
(I1
(I1
tg19
I00
S'\x00\x00\x00\x00\x00\x00\x00\x00'
tbsg818
I01
sbsg8
Nsg821
I01
sg810
g811
sg813
Nsg822
g1
(g852
g3
NtRp3713
(dp3714
g829
g1174
sg828
Nsg855
g856
sg826
g827
sg832
Nsg831
Nsbsaa(lp3715
g1004
a(dp3716
g812
Nsg21
g1004
sg814
g1
(g815
g3
NtRp3717
(dp3718
g819
g1008
sg1193
g776
(g777
(I0
tS'b'
tRp3719
(I1
(I1
tg19
I00
S'\x00\x00\x00\x00\x00\x00\xf0?'
tbsg1195
g776
(g777
(I0
tS'b'
tRp3720
(I1
(I1
tg19
I00
S'\x00\x00\x00\x00\x00\x00\xf0?'
tbsg1197
g776
(g777
(I0
tS'b'
tRp3721
(I1
(I1
tg19
I00
S'\x00\x00\x00\x00\x00\x00\x00\x00'
tbsg1199
g776
(g777
(I0
tS'b'
tRp3722
(I1
(I1
tg19
I00
S'\x00\x00\x00\x00\x00\x00\x00\x00'
tbsg818
I01
sbsg8
Nsg821
I01
sg810
g811
sg813
Nsg822
g1
(g852
g3
NtRp3723
(dp3724
g829
g1174
sg828
Nsg855
g885
sg826
g827
sg832
Nsg831
Nsbsaa(lp3725
g1012
a(dp3726
g812
Nsg21
g1012
sg814
g1
(g815
g3
NtRp3727
(dp3728
g819
g1016
sg1193
g776
(g777
(I0
tS'b'
tRp3729
(I1
(I1
tg19
I00
S'\x9a\x99\x99\x99\x99\x99\x99?'
tbsg1195
g776
(g777
(I0
tS'b'
tRp3730
(I1
(I1
tg19
I00
S'\x00\x00\x00\x00\x00\x00D@'
tbsg1197
g776
(g777
(I0
tS'b'
tRp3731
(I1
(I1
tg19
I00
S'\x00\x00\x00\x00\x00\x00\x00\x00'
tbsg1199
g776
(g777
(I0
tS'b'
tRp3732
(I1
(I1
tg19
I00
S'\x00\x00\x00\x00\x00\x00\x00\x00'
tbsg818
I01
sbsg8
Nsg821
I01
sg810
g811
sg813
Nsg822
g1
(g852
g3
NtRp3733
(dp3734
g829
g1174
sg828
Nsg855
g856
sg826
g827
sg832
Nsg831
Nsbsaa(lp3735
g1020
a(dp3736
g812
Nsg21
g1020
sg814
g1
(g815
g3
NtRp3737
(dp3738
g819
g1024
sg1193
g776
(g777
(I0
tS'b'
tRp3739
(I1
(I1
tg19
I00
S'\xbdl@1\xb2\xe4\xf0>'
tbsg1195
g776
(g777
(I0
tS'b'
tRp3740
(I1
(I1
tg19
I00
S'\x02:m\xa0\xcbN\xee@'
tbsg1197
g776
(g777
(I0
tS'b'
tRp3741
(I1
(I1
tg19
I00
S'\x00\x00\x00\x00\x00\x00\x00\x00'
tbsg1199
g776
(g777
(I0
tS'b'
tRp3742
(I1
(I1
tg19
I00
S'\x00\x00\x00\x00\x00\x00\x00\x00'
tbsg818
I01
sbsg8
Nsg821
I01
sg810
g811
sg813
Nsg822
g1
(g852
g3
NtRp3743
(dp3744
g829
g1174
sg828
Nsg855
g876
sg826
g827
sg832
Nsg831
Nsbsaa(lp3745
g1028
a(dp3746
g812
Nsg21
g1028
sg814
g1
(g815
g3
NtRp3747
(dp3748
g819
g1032
sg1193
g776
(g777
(I0
tS'b'
tRp3749
(I1
(I1
tg19
I00
S'(\xaf\xa1\xbc\x86\xf2\xaa?'
tbsg1195
g776
(g777
(I0
tS'b'
tRp3750
(I1
(I1
tg19
I00
S'\x00\x00\x00\x00\x00\x003@'
tbsg1197
g776
(g777
(I0
tS'b'
tRp3751
(I1
(I1
tg19
I00
S'\x00\x00\x00\x00\x00\x00\x00\x00'
tbsg1199
g776
(g777
(I0
tS'b'
tRp3752
(I1
(I1
tg19
I00
S'\x00\x00\x00\x00\x00\x00\x00\x00'
tbsg818
I01
sbsg8
Nsg821
I01
sg810
g811
sg813
Nsg822
g1
(g852
g3
NtRp3753
(dp3754
g829
g1174
sg828
Nsg855
g856
sg826
g827
sg832
Nsg831
Nsbsaa(lp3755
g1036
a(dp3756
g812
Nsg21
g1036
sg814
g1
(g815
g3
NtRp3757
(dp3758
g819
g1040
sg1193
g776
(g777
(I0
tS'b'
tRp3759
(I1
(I1
tg19
I00
S'\xba0\x01C\xed\xb7\x8e?'
tbsg1195
g776
(g777
(I0
tS'b'
tRp3760
(I1
(I1
tg19
I00
S'{\x14\xaeG\xe1\xaaP@'
tbsg1197
g776
(g777
(I0
tS'b'
tRp3761
(I1
(I1
tg19
I00
S'\x00\x00\x00\x00\x00\x00\x00\x00'
tbsg1199
g776
(g777
(I0
tS'b'
tRp3762
(I1
(I1
tg19
I00
S'\x00\x00\x00\x00\x00\x00\x00\x00'
tbsg818
I01
sbsg8
Nsg821
I01
sg810
g811
sg813
Nsg822
g1
(g852
g3
NtRp3763
(dp3764
g829
g1174
sg828
Nsg855
g876
sg826
g827
sg832
Nsg831
Nsbsaa(lp3765
g1044
a(dp3766
g812
Nsg21
g1044
sg814
g1
(g815
g3
NtRp3767
(dp3768
g819
g1048
sg1193
g776
(g777
(I0
tS'b'
tRp3769
(I1
(I1
tg19
I00
S'\x18\x86a\x18\x86a\xa8?'
tbsg1195
g776
(g777
(I0
tS'b'
tRp3770
(I1
(I1
tg19
I00
S'\x00\x00\x00\x00\x00\x005@'
tbsg1197
g776
(g777
(I0
tS'b'
tRp3771
(I1
(I1
tg19
I00
S'\x00\x00\x00\x00\x00\x00\x00\x00'
tbsg1199
g776
(g777
(I0
tS'b'
tRp3772
(I1
(I1
tg19
I00
S'\x00\x00\x00\x00\x00\x00\x00\x00'
tbsg818
I01
sbsg8
Nsg821
I01
sg810
g811
sg813
Nsg822
g1
(g852
g3
NtRp3773
(dp3774
g829
g1174
sg828
Nsg855
g856
sg826
g827
sg832
Nsg831
Nsbsaa(lp3775
g1052
a(dp3776
g812
Nsg21
g1052
sg814
g1
(g815
g3
NtRp3777
(dp3778
g819
g1056
sg1193
g776
(g777
(I0
tS'b'
tRp3779
(I1
(I1
tg19
I00
S'\x00\x00\x00\x00\x00\x00\xf0?'
tbsg1195
g776
(g777
(I0
tS'b'
tRp3780
(I1
(I1
tg19
I00
S'\x00\x00\x00\x00\x00\x00\xf0?'
tbsg1197
g776
(g777
(I0
tS'b'
tRp3781
(I1
(I1
tg19
I00
S'\x00\x00\x00\x00\x00\x00\x00\x00'
tbsg1199
g776
(g777
(I0
tS'b'
tRp3782
(I1
(I1
tg19
I00
S'\x00\x00\x00\x00\x00\x00\x00\x00'
tbsg818
I01
sbsg8
Nsg821
I01
sg810
g811
sg813
Nsg822
g1
(g852
g3
NtRp3783
(dp3784
g829
g1174
sg828
Nsg855
g876
sg826
g827
sg832
Nsg831
Nsbsaa(lp3785
g1060
a(dp3786
g812
Nsg21
g1060
sg814
g1
(g815
g3
NtRp3787
(dp3788
g819
g1064
sg1193
g776
(g777
(I0
tS'b'
tRp3789
(I1
(I1
tg19
I00
S'\xdd\xcd \xb9\xba8+?'
tbsg1195
g776
(g777
(I0
tS'b'
tRp3790
(I1
(I1
tg19
I00
S'\x00\x00\x00\x00\x00\xcf\xb2@'
tbsg1197
g776
(g777
(I0
tS'b'
tRp3791
(I1
(I1
tg19
I00
S'\x00\x00\x00\x00\x00\x00\x00\x00'
tbsg1199
g776
(g777
(I0
tS'b'
tRp3792
(I1
(I1
tg19
I00
S'\x00\x00\x00\x00\x00\x00\x00\x00'
tbsg818
I01
sbsg8
Nsg821
I01
sg810
g811
sg813
Nsg822
g1
(g852
g3
NtRp3793
(dp3794
g829
g1174
sg828
Nsg855
g856
sg826
g827
sg832
Nsg831
Nsbsaa(lp3795
g1068
a(dp3796
g812
Nsg21
g1068
sg814
g1
(g815
g3
NtRp3797
(dp3798
g819
g1072
sg1193
g776
(g777
(I0
tS'b'
tRp3799
(I1
(I1
tg19
I00
S'\x11\x11\x11\x11\x11\x11\xa1?'
tbsg1195
g776
(g777
(I0
tS'b'
tRp3800
(I1
(I1
tg19
I00
S'\x00\x00\x00\x00\x00\x00>@'
tbsg1197
g776
(g777
(I0
tS'b'
tRp3801
(I1
(I1
tg19
I00
S'\x00\x00\x00\x00\x00\x00\x00\x00'
tbsg1199
g776
(g777
(I0
tS'b'
tRp3802
(I1
(I1
tg19
I00
S'\x00\x00\x00\x00\x00\x00\x00\x00'
tbsg818
I01
sbsg8
Nsg821
I01
sg810
g811
sg813
Nsg822
g1
(g852
g3
NtRp3803
(dp3804
g829
g1174
sg828
Nsg855
g856
sg826
g827
sg832
Nsg831
Nsbsaa(lp3805
g1076
a(dp3806
g812
Nsg21
g1076
sg814
g1
(g815
g3
NtRp3807
(dp3808
g819
g1080
sg1193
g776
(g777
(I0
tS'b'
tRp3809
(I1
(I1
tg19
I00
S'd!\x0bY\xc8B\x86?'
tbsg1195
g776
(g777
(I0
tS'b'
tRp3810
(I1
(I1
tg19
I00
S'\x00\x00\x00\x00\x00\x00W@'
tbsg1197
g776
(g777
(I0
tS'b'
tRp3811
(I1
(I1
tg19
I00
S'\x00\x00\x00\x00\x00\x00\x00\x00'
tbsg1199
g776
(g777
(I0
tS'b'
tRp3812
(I1
(I1
tg19
I00
S'\x00\x00\x00\x00\x00\x00\x00\x00'
tbsg818
I01
sbsg8
Nsg821
I01
sg810
g811
sg813
Nsg822
g1
(g852
g3
NtRp3813
(dp3814
g829
g1174
sg828
Nsg855
g856
sg826
g827
sg832
Nsg831
Nsbsaa(lp3815
g1084
a(dp3816
g812
Nsg21
g1084
sg814
g1
(g815
g3
NtRp3817
(dp3818
g819
g1088
sg1193
g776
(g777
(I0
tS'b'
tRp3819
(I1
(I1
tg19
I00
S'UUUUUU\xd5?'
tbsg1195
g776
(g777
(I0
tS'b'
tRp3820
(I1
(I1
tg19
I00
S'\x00\x00\x00\x00\x00\x00\x08@'
tbsg1197
g776
(g777
(I0
tS'b'
tRp3821
(I1
(I1
tg19
I00
S'\x00\x00\x00\x00\x00\x00\x00@'
tbsg1199
g776
(g777
(I0
tS'b'
tRp3822
(I1
(I1
tg19
I00
S'UUUUUU\xe5\xbf'
tbsg818
I01
sbsg8
Nsg821
I01
sg810
g811
sg813
Nsg822
g1
(g852
g3
NtRp3823
(dp3824
g829
g1174
sg828
Nsg855
g856
sg826
g827
sg832
Nsg831
Nsbsaa(lp3825
g1092
a(dp3826
g812
Nsg21
g1092
sg814
g1
(g815
g3
NtRp3827
(dp3828
g819
g1096
sg1193
g776
(g777
(I0
tS'b'
tRp3829
(I1
(I1
tg19
I00
S'H\x07\xde\xf3\x8dis?'
tbsg1195
g776
(g777
(I0
tS'b'
tRp3830
(I1
(I1
tg19
I00
S'\x00\x00\x00\x00\x00`j@'
tbsg1197
g776
(g777
(I0
tS'b'
tRp3831
(I1
(I1
tg19
I00
S'\x00\x00\x00\x00\x00\x00\x00\x00'
tbsg1199
g776
(g777
(I0
tS'b'
tRp3832
(I1
(I1
tg19
I00
S'\x00\x00\x00\x00\x00\x00\x00\x00'
tbsg818
I01
sbsg8
Nsg821
I01
sg810
g811
sg813
Nsg822
g1
(g852
g3
NtRp3833
(dp3834
g829
g1174
sg828
Nsg855
g856
sg826
g827
sg832
Nsg831
Nsbsaa(lp3835
g1100
a(dp3836
g812
Nsg21
g1100
sg814
Nsg8
Nsg821
I01
sg810
g811
sg813
Nsg822
g1179
saa(lp3837
g1103
a(dp3838
g812
g1
(g913
g3
NtRp3839
(dp3840
g916
g917
sg920
Nsg922
g923
sg924
g925
sg927
g928
sg930
g1107
sg831
Nsg926
F1
sg932
I3
sg933
Nsg1257
I00
sg1258
g1259
((lp3841
Vproducer
p3842
aVcowgirl
p3843
aVphoto
p3844
aVexcellent
p3845
aVyears
p3846
aVmanager
p3847
aVlailani
p3848
aVmanchester
p3849
aVhuman
p3850
aVror
p3851
aVstaff
p3852
aV25
p3853
aVautocad
p3854
aVoffice
p3855
aVfield
p3856
aVflash
p3857
aVjavaee
p3858
aVgigs
p3859
aVto
p3860
aVonly
p3861
aVpro
p3862
aVsugarcrm
p3863
aVresources
p3864
aV2012
p3865
aVcss3
p3866
aVdo
p3867
aVdesigns
p3868
aVgood
p3869
aV10
p3870
aVvery
p3871
aVdesigning
p3872
aVsilverlight
p3873
aVspecailist
p3874
aVqualified
p3875
aVeffects
p3876
aVandriod
p3877
aVpress
p3878
aVbanner
p3879
aVvoip
p3880
aVoutright
p3881
aViphone5
p3882
aVemail
p3883
aVqa
p3884
aVteam
p3885
aVtopsolid
p3886
aVapplication
p3887
aVadobe
p3888
aVwab
p3889
aVcreator
p3890
aVgeneration
p3891
aVecomm
p3892
aVlogo
p3893
aVprogrammer
p3894
aVproofreader
p3895
aVproject
p3896
aVwhat
p3897
aVcatia
p3898
aVnetwork
p3899
aVlead
p3900
aVassistance
p3901
aVminer
p3902
aVcreative
p3903
aVlooking
p3904
aVwide
p3905
aVinternet
p3906
aVprint
p3907
aVprof
p3908
aVnet
p3909
aVcontent
p3910
aVpublic
p3911
aV3d
p3912
aVasp
p3913
aVvedio
p3914
aVvisualization
p3915
aVzend
p3916
aVmarketing
p3917
aVjavascript
p3918
aVdrupal
p3919
aVjob
p3920
aVflyer
p3921
aVhtml5
p3922
aVcompetent
p3923
aVmodeling
p3924
aVteacher
p3925
aVcertified
p3926
aVtranslator
p3927
aVconvert
p3928
aVconnoisseur
p3929
aVtalented
p3930
aVenglish
p3931
aVcareer
p3932
aVsolidworks
p3933
aVcopywriter
p3934
aVprovider
p3935
aVexperience
p3936
aVbookkeeper
p3937
aVjoomla
p3938
aVcolumnist
p3939
aVproducts
p3940
aVadvertising
p3941
aVpublished
p3942
aVmixed
p3943
aVpdf
p3944
aVcad
p3945
aVpowerpoint
p3946
aVtypist
p3947
aVppc
p3948
aVdepalog
p3949
aVindustrial
p3950
aVblogger
p3951
aVapp
p3952
aVmba
p3953
aVrank
p3954
aVone
p3955
aVxero
p3956
aVarticle
p3957
aVapply
p3958
aVrep
p3959
aVquality
p3960
aVadmin
p3961
aVcloud
p3962
aVspecializing
p3963
aVmanagement
p3964
aVfrom
p3965
aVher
p3966
aVrecruiter
p3967
aVsupport
p3968
aVsystem
p3969
aVknockout
p3970
aVaccountant
p3971
aVpa
p3972
aVmusic
p3973
aViphone
p3974
aVdreamweaver
p3975
aVtyping
p3976
aVyrs
p3977
aVespecialist
p3978
aVlow
p3979
aVwebsite
p3980
aVposting
p3981
aVtester
p3982
aVposter
p3983
aVnobody
p3984
aVworker
p3985
aVaca
p3986
aVelse
p3987
aVnirvana
p3988
aVfreelancer
p3989
aVvisual
p3990
aVrepresentative
p3991
aVgraphics
p3992
aVkai
p3993
aVme
p3994
aVcommerce
p3995
aVaccount
p3996
aVillustrator
p3997
aVdhtml
p3998
aV4500hrsworked
p3999
aVup
p4000
aVwill
p4001
aVtechnical
p4002
aVcan
p4003
aVcam
p4004
aVmy
p4005
aVonlinecoupons
p4006
aVva
p4007
aVdedicated
p4008
aVprocessing
p4009
aVflex
p4010
aVsaasu
p4011
aVnavigate
p4012
aVis
p4013
aVam
p4014
aVit
p4015
aVlinkedin
p4016
aVan
p4017
aVhigh
p4018
aVmagento
p4019
aVat
p4020
aVchat
p4021
aVmvc
p4022
aVhonest
p4023
aVmint
p4024
aVhire
p4025
aVbrowser
p4026
aVrespective
p4027
aVquickbooks
p4028
aVauthor
p4029
aVmedia
p4030
aVveteran
p4031
aVseeking
p4032
aVwhen
p4033
aVcross
p4034
aVw4m
p4035
aVcraigslist
p4036
aVlamp
p4037
aVcomplex
p4038
aVbuild
p4039
aVonline
p4040
aVleader
p4041
aVxhtml
p4042
aVadministrator
p4043
aVprice
p4044
aVsocial
p4045
aVasterisk
p4046
aVtranscriber
p4047
aVcollection
p4048
aVsys
p4049
aVzohocrm
p4050
aVfb
p4051
aVodesk
p4052
aVstudent
p4053
aVwpf
p4054
aVencoder
p4055
aVsenior
p4056
aVbsc
p4057
aVdatabase
p4058
aVmobile
p4059
aVcpa
p4060
aVvariety
p4061
aVuploading
p4062
aVsale
p4063
aVhaving
p4064
aVevaluator
p4065
aVmarketer
p4066
aVclient
p4067
aVexp
p4068
aVmother
p4069
aVcs5
p4070
aVthe
p4071
aVnotch
p4072
aVphysics
p4073
aVmodeler
p4074
aVanimator
p4075
atRp4076
sg929
I00
sg918
I01
sg919
Nsg921
Nsg3424
(dp4077
Vresearch
p4078
g17
(g783
S' \x00\x00\x00'
tRp4079
sVfreelance
p4080
g17
(g783
S'\x14\x00\x00\x00'
tRp4081
sVwriter
p4082
g17
(g783
S'/\x00\x00\x00'
tRp4083
sVcustomer
p4084
g17
(g783
S'\x08\x00\x00\x00'
tRp4085
sVassistant
p4086
g17
(g783
S'\x05\x00\x00\x00'
tRp4087
sVartist
p4088
g17
(g783
S'\x04\x00\x00\x00'
tRp4089
sVskills
p4090
g17
(g783
S'%\x00\x00\x00'
tRp4091
sVexcel
p4092
g17
(g783
S'\x10\x00\x00\x00'
tRp4093
sVdesign
p4094
g17
(g783
S'\n\x00\x00\x00'
tRp4095
sVseo
p4096
g17
(g783
S'#\x00\x00\x00'
tRp4097
sVsem
p4098
g17
(g783
S'"\x00\x00\x00'
tRp4099
sVbest
p4100
g17
(g783
S'\x06\x00\x00\x00'
tRp4101
sVexpert
p4102
g17
(g783
S'\x12\x00\x00\x00'
tRp4103
sVspecialist
p4104
g17
(g783
S'(\x00\x00\x00'
tRp4105
sVms
p4106
g17
(g783
S'\x1a\x00\x00\x00'
tRp4107
sVgraphic
p4108
g17
(g783
S'\x16\x00\x00\x00'
tRp4109
sVword
p4110
g17
(g783
S'-\x00\x00\x00'
tRp4111
sVin
p4112
g17
(g783
S'\x18\x00\x00\x00'
tRp4113
sVhtml
p4114
g17
(g783
S'\x17\x00\x00\x00'
tRp4115
sVcss
p4116
g17
(g783
S'\x07\x00\x00\x00'
tRp4117
sVdesigner
p4118
g17
(g783
S'\x0b\x00\x00\x00'
tRp4119
sVphp
p4120
g17
(g783
S'\x1e\x00\x00\x00'
tRp4121
sVdata
p4122
g17
(g783
S'\t\x00\x00\x00'
tRp4123
sVentry
p4124
g17
(g783
S'\x0f\x00\x00\x00'
tRp4125
sVphotoshop
p4126
g17
(g783
S'\x1d\x00\x00\x00'
tRp4127
sVtop
p4128
g17
(g783
S')\x00\x00\x00'
tRp4129
sVmysql
p4130
g17
(g783
S'\x1b\x00\x00\x00'
tRp4131
sVdeveloper
p4132
g17
(g783
S'\x0c\x00\x00\x00'
tRp4133
sVweb
p4134
g17
(g783
S'+\x00\x00\x00'
tRp4135
sVwriting
p4136
g17
(g783
S'0\x00\x00\x00'
tRp4137
sVadministrative
p4138
g17
(g783
S'\x00\x00\x00\x00'
tRp4139
sVgame
p4140
g17
(g783
S'\x15\x00\x00\x00'
tRp4141
sVsmm
p4142
g17
(g783
S'&\x00\x00\x00'
tRp4143
sVof
p4144
g17
(g783
S'\x1c\x00\x00\x00'
tRp4145
sVsoftware
p4146
g17
(g783
S"'\x00\x00\x00"
tRp4147
sVresearcher
p4148
g17
(g783
S'!\x00\x00\x00'
tRp4149
sVengineer
p4150
g17
(g783
S'\x0e\x00\x00\x00'
tRp4151
sVservice
p4152
g17
(g783
S'$\x00\x00\x00'
tRp4153
sVwordpress
p4154
g17
(g783
S'.\x00\x00\x00'
tRp4155
sVeditor
p4156
g17
(g783
S'\r\x00\x00\x00'
tRp4157
sVwith
p4158
g17
(g783
S',\x00\x00\x00'
tRp4159
sVanalyst
p4160
g17
(g783
S'\x01\x00\x00\x00'
tRp4161
sVjquery
p4162
g17
(g783
S'\x19\x00\x00\x00'
tRp4163
sVarchitect
p4164
g17
(g783
S'\x03\x00\x00\x00'
tRp4165
sVand
p4166
g17
(g783
S'\x02\x00\x00\x00'
tRp4167
sVvirtual
p4168
g17
(g783
S'*\x00\x00\x00'
tRp4169
sVexperienced
p4170
g17
(g783
S'\x11\x00\x00\x00'
tRp4171
sVfor
p4172
g17
(g783
S'\x13\x00\x00\x00'
tRp4173
sVprofessional
p4174
g17
(g783
S'\x1f\x00\x00\x00'
tRp4175
ssg945
g946
sg934
g935
sg936
g1
(g937
g3
NtRp4176
(dp4177
g940
I01
sg941
I01
sg942
I00
sg943
g944
sg3638
g1
(g3639
g3
NtRp4178
(dp4179
g3642
g776
(g777
(I0
tS'b'
tRp4180
(I1
(I1
I49
tg19
I00
S'\x91\xe3s{B\xf7\x0f@\x9a\xc6\xf6\xfb \xe0\x10@\xe0r\xeb\xbf\x7f\xa8\t@\x9a\xc6\xf6\xfb \xe0\x10@\x9a\xc6\xf6\xfb \xe0\x10@\xb8\xfe.8\xb14\x0c@\x9a\xc6\xf6\xfb \xe0\x10@\xb8\xfe.8\xb14\x0c@\x9a\xc6\xf6\xfb \xe0\x10@\x9a\xc6\xf6\xfb \xe0\x04@\x9a\xc6\xf6\xfb \xe0\x10@\x16U\xb5\xbb\xb1k\n@\xda\x1d9L_R\x08@*\x9aUz\xdd\x81\x0e@\x91\xe3s{B\xf7\x0f@\xa4\x18\xff<\xe8\xb7\x05@\x91\xe3s{B\xf7\x0f@*\x9aUz\xdd\x81\x0e@\xe0r\xeb\xbf\x7f\xa8\t@\x9a\xc6\xf6\xfb \xe0\x10@\x9a\xc6\xf6\xfb \xe0\x10@\x9a\xc6\xf6\xfb \xe0\x10@\xff|Q *F\r@\xb8\xfe.8\xb14\x0c@\x9a\xc6\xf6\xfb \xe0\x10@\x9a\xc6\xf6\xfb \xe0\x10@*\x9aUz\xdd\x81\x0e@\x9a\xc6\xf6\xfb \xe0\x10@\x9a\xc6\xf6\xfb \xe0\x10@\x9a\xc6\xf6\xfb \xe0\x10@\xe0r\xeb\xbf\x7f\xa8\t@ \xa7\xbd\xfcxC\x0b@\xb8\xfe.8\xb14\x0c@\xe0r\xeb\xbf\x7f\xa8\t@\x9a\xc6\xf6\xfb \xe0\x10@\xb8\xfe.8\xb14\x0c@*\x9aUz\xdd\x81\x0e@\x9a\xc6\xf6\xfb \xe0\x10@\x9a\xc6\xf6\xfb \xe0\x10@*\x9aUz\xdd\x81\x0e@\x9a\xc6\xf6\xfb \xe0\x10@\x9a\xc6\xf6\xfb \xe0\x10@\xb8\xfe.8\xb14\x0c@\xa4\x18\xff<\xe8\xb7\x05@\x9a\xc6\xf6\xfb \xe0\x10@\x9a\xc6\xf6\xfb \xe0\x10@\xff|Q *F\r@\x16U\xb5\xbb\xb1k\n@\x9a\xc6\xf6\xfb \xe0\x10@'
tbsg3644
I50
sg3645
(I49
I49
tp4181
sg3647
g776
(g777
(I0
tS'b'
tRp4182
(I1
(I1
tg783
I00
S'\x00\x00\x00\x00'
tbsg3649
S'dia'
p4183
sbsbsg947
Nsbsg21
g1103
sg814
g1
(g815
g3
NtRp4184
(dp4185
g818
I01
sg819
g1113
sbsg8
Nsg821
I01
sg810
g811
sg813
g1110
sg822
g1
(g852
g3
NtRp4186
(dp4187
g829
g1174
sg828
Nsg855
g954
sg826
g827
sg832
Nsg831
Nsbsaa(lp4188
g1117
a(dp4189
g812
Nsg21
g1117
sg814
g1
(g815
g3
NtRp4190
(dp4191
g819
g1121
sg1193
g776
(g777
(I0
tS'b'
tRp4192
(I1
(I1
tg19
I00
S'\x00\x00\x00\x00\x00\x00\xc0?'
tbsg1195
g776
(g777
(I0
tS'b'
tRp4193
(I1
(I1
tg19
I00
S'\x00\x00\x00\x00\x00\x00 @'
tbsg1197
g776
(g777
(I0
tS'b'
tRp4194
(I1
(I1
tg19
I00
S'\x00\x00\x00\x00\x00\x00\x00\x00'
tbsg1199
g776
(g777
(I0
tS'b'
tRp4195
(I1
(I1
tg19
I00
S'\x00\x00\x00\x00\x00\x00\x00\x00'
tbsg818
I01
sbsg8
Nsg821
I01
sg810
g811
sg813
Nsg822
g1
(g852
g3
NtRp4196
(dp4197
g829
g1174
sg828
Nsg855
g856
sg826
g827
sg832
Nsg831
Nsbsaa(lp4198
g1125
a(dp4199
g812
Nsg21
g1125
sg814
g1
(g815
g3
NtRp4200
(dp4201
g819
g1129
sg1193
g776
(g777
(I0
tS'b'
tRp4202
(I1
(I1
tg19
I00
S'\x1e\x1e\x1e\x1e\x1e\x1e\x9e?'
tbsg1195
g776
(g777
(I0
tS'b'
tRp4203
(I1
(I1
tg19
I00
S'\x00\x00\x00\x00\x00\x00A@'
tbsg1197
g776
(g777
(I0
tS'b'
tRp4204
(I1
(I1
tg19
I00
S'\x00\x00\x00\x00\x00\x00\x00\x00'
tbsg1199
g776
(g777
(I0
tS'b'
tRp4205
(I1
(I1
tg19
I00
S'\x00\x00\x00\x00\x00\x00\x00\x00'
tbsg818
I01
sbsg8
Nsg821
I01
sg810
g811
sg813
Nsg822
g1
(g852
g3
NtRp4206
(dp4207
g829
g1174
sg828
Nsg855
g856
sg826
g827
sg832
Nsg831
Nsbsaa(lp4208
g761
a(dp4209
g812
Nsg21
g761
sg814
g1
(g815
g3
NtRp4210
(dp4211
g819
g1136
sg1193
g776
(g777
(I0
tS'b'
tRp4212
(I1
(I1
tg19
I00
S'\xa50\x06{\xfcb\xb6>'
tbsg1195
g776
(g777
(I0
tS'b'
tRp4213
(I1
(I1
tg19
I00
S'\x00\x00\x00\x00\xea\xde&A'
tbsg1197
g776
(g777
(I0
tS'b'
tRp4214
(I1
(I1
tg19
I00
S'\x00\x00\x00\xa8\x17\xfb\xa7A'
tbsg1199
g776
(g777
(I0
tS'b'
tRp4215
(I1
(I1
tg19
I00
S'v\x91~q\xce\xc6p\xc0'
tbsg818
I01
sbsg8
Nsg821
I01
sg810
g811
sg813
Nsg822
g1
(g852
g3
NtRp4216
(dp4217
g829
g1174
sg828
Nsg855
g856
sg826
g827
sg832
Nsg831
Nsbsaa(lp4218
g1140
a(dp4219
g812
Nsg21
g1140
sg814
g1
(g815
g3
NtRp4220
(dp4221
g819
g1144
sg1193
g776
(g777
(I0
tS'b'
tRp4222
(I1
(I1
tg19
I00
S'\xb8\xf3\xdaoq\x11%>'
tbsg1195
g776
(g777
(I0
tS'b'
tRp4223
(I1
(I1
tg19
I00
S'\x00\x00\x00\x80VM\xb8A'
tbsg1197
g776
(g777
(I0
tS'b'
tRp4224
(I1
(I1
tg19
I00
S'\x00\x00\x00\xc0\xa16\xccA'
tbsg1199
g776
(g777
(I0
tS'b'
tRp4225
(I1
(I1
tg19
I00
S'!\xbaw/;\x93\x02\xc0'
tbsg818
I01
sbsg8
I946684800
sg821
I01
sg810
g811
sg813
Nsg822
g1
(g1145
g3
NtRp4226
(dp4227
g826
g827
sg829
g1174
sg831
Nsg828
I946684800
sg832
(dp4228
g1149
g1150
ssbsaatRp4229
ssb.