ccopy_reg
_reconstructor
p1
(ccloudml.trainer.store
TrainerStorage
p2
c__builtin__
object
p3
NtRp4
(dp5
S'visualization'
p6
(dp7
S'True'
p8
(dp9
S'weights'
p10
(dp11
I1
(dp12
S'positive'
p13
(lp14
(dp15
S'feature_weight'
p16
cnumpy.core.multiarray
scalar
p17
(cnumpy
dtype
p18
(S'f8'
I0
I1
tRp19
(I3
S'<'
NNNI-1
I-1
I0
tbS'c\xa9\xfa\xcf\xc3\xa0\xc0?'
tRp20
sS'name'
p21
Vtsexams->oDesk Readiness Test for Independent Contractors and Company Managers
p22
sS'weight'
p23
g17
(g19
S'\xa3\xa1&d\x11\xdf\xe3?'
tRp24
sa(dp25
g16
g17
(g19
S'_\x82\x96\xb8w\x0f\x82?'
tRp26
sg21
Vtsexams->XML 1.0 Test
p27
sg23
g17
(g19
S'r\xe4\x92f\xf5\xe4\xb4?'
tRp28
sa(dp29
g16
g17
(g19
S'+\\{\xa2A\xb1\x8e?'
tRp30
sg21
Vtsexams->XHTML 1.0 Test
p31
sg23
g17
(g19
S'\xe7\xcb\xf0GU\xa2\xd3?'
tRp32
sa(dp33
g16
g17
(g19
S'\x10o\x1fM\xa5I\xab?'
tRp34
sg21
Vtsexams->Wordpress Test
p35
sg23
g17
(g19
S'm\xfc7u\xca`\xda?'
tRp36
sa(dp37
g16
g17
(g19
S'>\x050\x9c\x15\xd1\xd0?'
tRp38
sg21
Vtsexams->Windows XP Test
p39
sg23
g17
(g19
S'\xa8P\xad\xe0\xb1/\xe7?'
tRp40
sa(dp41
g16
g17
(g19
S'\x1e@\xaef\xd3\xc9{?'
tRp42
sg21
Vtsexams->UK English Grammar Test (For Writing Professionals)
p43
sg23
g17
(g19
S'\xc6\xc7EK(_\xc3?'
tRp44
sa(dp45
g16
g17
(g19
S'\xb2\xc0395\xca\xb6?'
tRp46
sg21
Vtsexams->UK English Basic Skills Test
p47
sg23
g17
(g19
S'-\x15\xc6\xa6"S\xd3?'
tRp48
sa(dp49
g16
g17
(g19
S'P(\x8a\xd6\xb1\x1eu?'
tRp50
sg21
Vtsexams->U.S. English Chicago Style Editing Skills Test (For Writing Professionals)
p51
sg23
g17
(g19
S'\xa6y~4^\xe3\xc0?'
tRp52
sa(dp53
g16
g17
(g19
S'\x8dh\xb8\x0e\xe3\xe3\xbe?'
tRp54
sg21
Vtsexams->Telephone Etiquette Certification
p55
sg23
g17
(g19
S'\xba\x05\xef\x85\xcd\x1a\xcf?'
tRp56
sa(dp57
g16
g17
(g19
S"\x14\xf3\xc5'\xfd\n\xa8?"
tRp58
sg21
Vtsexams->Technical Writing Skills Certification
p59
sg23
g17
(g19
S'\x86\xe1Rm\xe3\xe0\xd2?'
tRp60
sa(dp61
g16
g17
(g19
S'\xf9F\xb4!\x1bzH?'
tRp62
sg21
Vtsexams->Software Testing Test
p63
sg23
g17
(g19
S'\xc8\xdf\xf50\xe8\x8e\x86?'
tRp64
sa(dp65
g16
g17
(g19
S'A\x15/E\xa5p\x9a?'
tRp66
sg21
Vtsexams->Social Media Marketing Test
p67
sg23
g17
(g19
S'\x9b\x00\x80\xf6\x98x\xc8?'
tRp68
sa(dp69
g16
g17
(g19
S'\x06\xa1v\xc1\x8eT\xc8?'
tRp70
sg21
Vtsexams->Search Engine Optimization Test
p71
sg23
g17
(g19
S'a&^\x18,\x8e\xe5?'
tRp72
sa(dp73
g16
g17
(g19
S'\xe8\xa7\xb6\x18)\xea\x87?'
tRp74
sg21
Vtsexams->Report Writing Test
p75
sg23
g17
(g19
S'\x93\xff\xfeG\xc7\x01\xd9?'
tRp76
sa(dp77
g16
g17
(g19
S'\xa7D\xc6\x0f\x9dI\x85?'
tRp78
sg21
Vtsexams->Quick Books Pro 2008 Test
p79
sg23
g17
(g19
S'<x\xf5\xa3\xaf\x0b\xd5?'
tRp80
sa(dp81
g16
g17
(g19
S'\xb2p:\xba\x07\xd1\xab?'
tRp82
sg21
Vtsexams->PHP4 Test
p83
sg23
g17
(g19
S'\\\xe96\x836\x17\xe0?'
tRp84
sa(dp85
g16
g17
(g19
S'O\xb1v\xf6\xcfe|?'
tRp86
sg21
Vtsexams->Outbound Sales Skills Test
p87
sg23
g17
(g19
S'\xb0\x90[wD\xbc\xc9?'
tRp88
sa(dp89
g16
g17
(g19
S'd\xf1\xab\x8a\xe8\x19\xb3?'
tRp90
sg21
Vtsexams->Online Article Writing and Blogging Test (U.S. Version)
p91
sg23
g17
(g19
S'\xecsk\x03B\x8c\xce?'
tRp92
sa(dp93
g16
g17
(g19
S'b+\xe7\x92\xcc<\xb5?'
tRp94
sg21
Vtsexams->Objective C Test
p95
sg23
g17
(g19
S'\xb6O\xd3\x92+\x85\xd9?'
tRp96
sa(dp97
g16
g17
(g19
S'G\x7f\xd1\t\r\xaci?'
tRp98
sg21
Vtsexams->Networking Concepts Test
p99
sg23
g17
(g19
S'\xcc\xb6\xd5:\x94\xeb\xa0?'
tRp100
sa(dp101
g16
g17
(g19
S'v\xc7n"~\xff\x7f?'
tRp102
sg21
Vtsexams->Medical Billing Certification
p103
sg23
g17
(g19
S'\xa8o\x1f\xc9\x1ff\xd1?'
tRp104
sa(dp105
g16
g17
(g19
S'h1\xfd\xe3j\xdcV?'
tRp106
sg21
Vtsexams->Management Skills Test
p107
sg23
g17
(g19
S'\xc5w8@\xbf?\x95?'
tRp108
sa(dp109
g16
g17
(g19
S'\xf4$\x8bd\xc2M\xa3?'
tRp110
sg21
Vtsexams->Magento eCommerce Test
p111
sg23
g17
(g19
S'\xc9QW\xcd)\xfe\xd4?'
tRp112
sa(dp113
g16
g17
(g19
S'\x8f\x92F\xfbqGl?'
tRp114
sg21
Vtsexams->MS Word 2007 Test
p115
sg23
g17
(g19
S'X4\xdc\x9e\x1d\x17\x92?'
tRp116
sa(dp117
g16
g17
(g19
S'\xbd\xe6\x87\x80W]\xa8?'
tRp118
sg21
Vtsexams->MS Excel 2007 Test
p119
sg23
g17
(g19
S'\x01HN\xc6\\]\xca?'
tRp120
sa(dp121
g16
g17
(g19
S'\xc8F\x19\xb3>\t\x98?'
tRp122
sg21
Vtsexams->Knowledge of jQuery 1.3.2 Skills Test
p123
sg23
g17
(g19
S'\x958\x93E\xa1\x15\xd1?'
tRp124
sa(dp125
g16
g17
(g19
S'u\x12\xf8\x83\xabw\x99?'
tRp126
sg21
Vtsexams->Knowledge of Windows 7 Skills Test
p127
sg23
g17
(g19
S'\xa4\xd5\xf4\xd2B\xf8\xe2?'
tRp128
sa(dp129
g16
g17
(g19
S'\xf2t8\x8eP\r\x8b?'
tRp130
sg21
Vtsexams->Knowledge of Microsoft Silverlight Skills Test
p131
sg23
g17
(g19
S'_\xff\xbd\xc5J\xa1\xd6?'
tRp132
sa(dp133
g16
g17
(g19
S'\x0e\xcau\r\xa1\xc1|?'
tRp134
sg21
Vtsexams->Internet Marketing Test
p135
sg23
g17
(g19
S'\x1d\xbf2\xf4y\x0f\xca?'
tRp136
sa(dp137
g16
g17
(g19
S'\xbf\x17\xf9\xb9[@\x97?'
tRp138
sg21
Vtsexams->Hospitality Terminology Test
p139
sg23
g17
(g19
S'\xb1\xfc\x0c\xd6n\x18\xdc?'
tRp140
sa(dp141
g16
g17
(g19
S'\xad2\xc17\xd0)x?'
tRp142
sg21
Vtsexams->Help Desk Certification
p143
sg23
g17
(g19
S'0/\xd9\x1f\x85\xe3\xc7?'
tRp144
sa(dp145
g16
g17
(g19
S'9\xe7\xdaQ\xe8E\xb1?'
tRp146
sg21
Vtsexams->Google Android Programming Test
p147
sg23
g17
(g19
S'\x15$$\x8cO9\xdb?'
tRp148
sa(dp149
g16
g17
(g19
S'Z%5\xcb\xa5\x83\x8b?'
tRp150
sg21
Vtsexams->Google AdWords Test
p151
sg23
g17
(g19
S'\x97*\xb4\x15p\x06\xd2?'
tRp152
sa(dp153
g16
g17
(g19
S'\x9c\x9f\x8cA-\x80\x9c?'
tRp154
sg21
Vtsexams->Generally Accepted Accounting Principles (GAAP) Test
p155
sg23
g17
(g19
S'\x19K\x9aW\x1b8\xe1?'
tRp156
sa(dp157
g16
g17
(g19
S'\x98h\x02\x8d\x9a\xd8\x97?'
tRp158
sg21
Vtsexams->French Spelling Skills Test
p159
sg23
g17
(g19
S'\xe71\xdb*\n0\xdc?'
tRp160
sa(dp161
g16
g17
(g19
S'!\x93N\xf4\xbb\xd0x?'
tRp162
sg21
Vtsexams->Facebook Connect Test
p163
sg23
g17
(g19
S'\xc8\xf1\xdeq8\xfc\xbd?'
tRp164
sa(dp165
g16
g17
(g19
S'\x903\x8571M\x93?'
tRp166
sg21
Vtsexams->English Vocabulary Test (UK Version)
p167
sg23
g17
(g19
S'\x12iJ\x07\x1b\x99\xd9?'
tRp168
sa(dp169
g16
g17
(g19
S"*\x90Z\xe9_'\xcf?"
tRp170
sg21
Vtsexams->English Vocabulary Test (U.S. Version)
p171
sg23
g17
(g19
S'\xe7\xf3\x08D\x1bh\xd0?'
tRp172
sa(dp173
g16
g17
(g19
S'\x9b[vc\xfb5\xa6?'
tRp174
sg21
Vtsexams->English To Russian Translation Skills Test
p175
sg23
g17
(g19
S'[O\x93\x12\xc7\x07\xd9?'
tRp176
sa(dp177
g16
g17
(g19
S'\xcc\xec\\;\xeb\xa8\x85?'
tRp178
sg21
Vtsexams->English To French Translation Skills Test
p179
sg23
g17
(g19
S'\x10\x1c\xb5\xb8\xfb\xfe\xd2?'
tRp180
sa(dp181
g16
g17
(g19
S'\xf83\x9e\\"B\xe1?'
tRp182
sg21
Vtsexams->English Spelling Test (U.S. Version)
p183
sg23
g17
(g19
S'\x9b\xb1%\x87\xf0\xb5\xca?'
tRp184
sa(dp185
g16
g17
(g19
S'~]\xf7\\\x94z\xa6?'
tRp186
sg21
Vtsexams->Customer Service Test
p187
sg23
g17
(g19
S'>L\x01]\xce\x1f\xbb?'
tRp188
sa(dp189
g16
g17
(g19
S'\xc7\xb3\x9f\xb0\xa9\x9fQ?'
tRp190
sg21
Vtsexams->Creative Writing Test - Non-fiction (U.S. Version)
p191
sg23
g17
(g19
S'\x03&\x9fGF\x8c\x96?'
tRp192
sa(dp193
g16
g17
(g19
S'\xc4\nR\xbd\xa4\x86T?'
tRp194
sg21
Vtsexams->Content Writing Skills Test
p195
sg23
g17
(g19
S'i\\\x1d\xac;\xc3\x9d?'
tRp196
sa(dp197
g16
g17
(g19
S'7\xd9:\xc2p\x9a\x83?'
tRp198
sg21
Vtsexams->Chrome Product Test
p199
sg23
g17
(g19
S'\x06\x999\xd3\x8dQ\xd5?'
tRp200
sa(dp201
g16
g17
(g19
S'\x8e\xba\x16\x1eZ\xe3\x8a?'
tRp202
sg21
Vtsexams->CSS 3 Test
p203
sg23
g17
(g19
S'\x89\x08\xb9(\x18\xef\xb6?'
tRp204
sa(dp205
g16
g17
(g19
S'/9\xb7\xcc\xd8\n\x80?'
tRp206
sg21
Vtsexams->CSS 2.0 Test
p207
sg23
g17
(g19
S'\x1f\x00\xb7z;+\xb4?'
tRp208
sa(dp209
g16
g17
(g19
S'g5\x96O\xce\xe1\x9a?'
tRp210
sg21
Vtsexams->Analytical Skills Test
p211
sg23
g17
(g19
S'Q\x80\xe6,O}\xe3?'
tRp212
sa(dp213
g16
g17
(g19
S'+\\{\xa2A\xb1\x8e?'
tRp214
sg21
Vtsexams->Advanced PHP Test
p215
sg23
g17
(g19
S'\xe7\xcb\xf0GU\xa2\xd3?'
tRp216
sa(dp217
g16
g17
(g19
S'v\x0c\xa1\x83\xd4\x00\x96?'
tRp218
sg21
Vtsexams->Adobe Illustrator Test
p219
sg23
g17
(g19
S'\xae\x19\xad\x81\x80\x17\xe1?'
tRp220
sa(dp221
g16
g17
(g19
S'7\xd9:\xc2p\x9a\x83?'
tRp222
sg21
Vtsexams->Adobe Illustrator CS4 Test
p223
sg23
g17
(g19
S'\x06\x999\xd3\x8dQ\xd5?'
tRp224
sa(dp225
g16
g17
(g19
S'xu\n-\x98\xfex?'
tRp226
sg21
Vtsexams->Accounts Receivable Test
p227
sg23
g17
(g19
S'\x99L\xfc\xf3\xc6\xbe\xb5?'
tRp228
sa(dp229
g16
g17
(g19
S'YC\x19i\x95\x0f\x97?'
tRp230
sg21
Vtsexams->Accounting Principles Test
p231
sg23
g17
(g19
S'\xc7\xd8\xcf!\xffe\xce?'
tRp232
sa(dp233
g16
g17
(g19
S'\xc5\x9c8\x8e3P\x81?'
tRp234
sg21
Vtsexams->ASP.Net 3.5 using C# Test
p235
sg23
g17
(g19
S'\xb32\xcb7\xa2\x1a\xd2?'
tRp236
sa(dp237
g16
g17
(g19
S'Y\x85\xae\xa1\x89\xc8U?'
tRp238
sg21
Vtsexams->3ds Max 9 Test
p239
sg23
g17
(g19
S'\xce\xe7\xfd\r.k\xa1?'
tRp240
sa(dp241
g16
g17
(g19
S'\xb8jj\xc1U.\xa7?'
tRp242
sg21
Vopening_id
p243
sg23
g17
(g19
S'-\xba\xf1\xa6\xa6s\xa8?'
tRp244
sa(dp245
g16
g17
(g19
S'w4\xb4\xaf=\xcf\x9f?'
tRp246
sg21
Vcountry_pair->united states,united states
p247
sg23
g17
(g19
S'\xa9{l\xed\xdb\x9e\xd5?'
tRp248
sa(dp249
g16
g17
(g19
S'\xea\x1d4\xc0\xaehJ?'
tRp250
sg21
Vcountry_pair->united states,ukraine
p251
sg23
g17
(g19
S'Ul\xa3\xc6&\xf3\xb1?'
tRp252
sa(dp253
g16
g17
(g19
S'\xa7\x99\xc12\xcc\t\xb9?'
tRp254
sg21
Vcountry_pair->united states,philippines
p255
sg23
g17
(g19
S'[\x87\xff\x0b\ns\xd3?'
tRp256
sa(dp257
g16
g17
(g19
S'\x8b\x85\x0c\x7f\x9d1P?'
tRp258
sg21
Vcountry_pair->united states,pakistan
p259
sg23
g17
(g19
S'\x89\x05\xb5\x18r\x03\xa6?'
tRp260
sa(dp261
g16
g17
(g19
S'\xb9\x95\x0e\xdc\xb1Ha?'
tRp262
sg21
Vcountry_pair->united states,nigeria
p263
sg23
g17
(g19
S'\x88\xd3#\xc7\xd1~\xc7?'
tRp264
sa(dp265
g16
g17
(g19
S'\xb8\xcbH\xadn\x96^?'
tRp266
sg21
Vcountry_pair->united states,nepal
p267
sg23
g17
(g19
S'wz\xc79?\xca\xc4?'
tRp268
sa(dp269
g16
g17
(g19
S'\xf2`DE\xd3,p?'
tRp270
sg21
Vcountry_pair->united states,china
p271
sg23
g17
(g19
S'\xc9\xf3(2\xef\xfc\xb5?'
tRp272
sa(dp273
g16
g17
(g19
S'&\x11\xfd#d&\x1e?'
tRp274
sg21
Vcountry_pair->united states,canada
p275
sg23
g17
(g19
S'\xa8\x01v\x10\x18~\x84?'
tRp276
sa(dp277
g16
g17
(g19
S'\x93\xc6\xfc\x9e\x0f0K?'
tRp278
sg21
Vcountry_pair->united states,bangladesh
p279
sg23
g17
(g19
S'\xf8\xce\x0f\x9e\xaaz\xb2?'
tRp280
sa(dp281
g16
g17
(g19
S'\x8f\xc0\x96\xd9\x89\x1a!?'
tRp282
sg21
Vcountry_pair->united kingdom,pakistan
p283
sg23
g17
(g19
S'\xc3\xed\xc8c\x13@\x87?'
tRp284
sa(dp285
g16
g17
(g19
S'\n\t"\xbcNwI?'
tRp286
sg21
Vcountry_pair->united kingdom,bangladesh
p287
sg23
g17
(g19
S'%"\xdf\x83\x17O\xb1?'
tRp288
sa(dp289
g16
g17
(g19
S';{\xf0]\x1cFr?'
tRp290
sg21
Vcountry_pair->united arab emirates,india
p291
sg23
g17
(g19
S'\x84\xe7\xb2\x8fN\xd7\xc8?'
tRp292
sa(dp293
g16
g17
(g19
S'~\x0f3c\xe1\x84V?'
tRp294
sg21
Vcountry_pair->new zealand,philippines
p295
sg23
g17
(g19
S'\x10i\xd9b\xa2\x9c\xbe?'
tRp296
sa(dp297
g16
g17
(g19
S'\x1e\x83\xd5\xedy}s?'
tRp298
sg21
Vcountry_pair->egypt,india
p299
sg23
g17
(g19
S'=>N\xbf\x91~\xda?'
tRp300
sa(dp301
g16
g17
(g19
S'\xfe&\xbf\xc2\xf9hO?'
tRp302
sg21
Vcountry_pair->bangladesh,bangladesh
p303
sg23
g17
(g19
S'\x81\xec]\xc2YY\xb5?'
tRp304
sa(dp305
g16
g17
(g19
S'\x99\xd86\x92\x9a\x17Y?'
tRp306
sg21
Vcountry_pair->australia,united kingdom
p307
sg23
g17
(g19
S'8Ga\x0f\x0b\x0e\xc1?'
tRp308
sa(dp309
g16
g17
(g19
S'\x89\x84\\\x11\x19_R?'
tRp310
sg21
Vcountry_pair->australia,philippines
p311
sg23
g17
(g19
S'+\xc4\x99\x13F\xf9\xb8?'
tRp312
sa(dp313
g16
g17
(g19
S'\xf4\xeaAgF\x80I?'
tRp314
sg21
Vcountry_pair->australia,pakistan
p315
sg23
g17
(g19
S'\xb2\xcd.\xda/U\xa1?'
tRp316
sa(dp317
g16
g17
(g19
S"U\xf1M'\x15*\x95?"
tRp318
sg21
Vcontractor->dev_year_exp
p319
sg23
g17
(g19
S'\xcf#\x8f\x83\x13s\xb8?'
tRp320
sa(dp321
g16
g17
(g19
S'\x16\xc0G\x1d\x17ug?'
tRp322
sg21
Vcontractor->dev_total_hours_rounded
p323
sg23
g17
(g19
S'\xb5\x1f~\xb6\xec\x01\x9b?'
tRp324
sa(dp325
g16
g17
(g19
S'\xb0G\xb0,yg\x80?'
tRp326
sg21
Vcontractor->dev_tot_feedback_recent
p327
sg23
g17
(g19
S'\xe37P\xdf\xc1\xfb\xb1?'
tRp328
sa(dp329
g16
g17
(g19
S',\xc5\xd7\x13\x93\xaa\x88?'
tRp330
sg21
Vcontractor->dev_test_passed_count
p331
sg23
g17
(g19
S'\xeb\x80\xa5\xaf-\xe5\xa8?'
tRp332
sa(dp333
g16
g17
(g19
S'*\x11\xf9\x8f\xa3y\x88?'
tRp334
sg21
Vcontractor->dev_skill_test_passed_count
p335
sg23
g17
(g19
S'\xb0\x99\xca?p2\xa8?'
tRp336
sa(dp337
g16
g17
(g19
S'\xba\xbd\x1d\xbb?\xde\xaf?'
tRp338
sg21
Vcontractor->dev_recent_rank_percentile
p339
sg23
g17
(g19
S'm\xb5\x04\xb36F\xc3?'
tRp340
sa(dp341
g16
g17
(g19
S'\x9b\xda\x88\x96\xf7\x0bR?'
tRp342
sg21
Vcontractor->dev_recent_hours
p343
sg23
g17
(g19
S'l:\xd9g\x8f:\x9b?'
tRp344
sa(dp345
g16
g17
(g19
S'N\xb9z\xeb\xda\xbfE?'
tRp346
sg21
Vcontractor->dev_recent_fp_jobs
p347
sg23
g17
(g19
S'\xb8\xba\x1fX?\x1c\x83?'
tRp348
sa(dp349
g16
g17
(g19
S'\xd9\x94v\xb1U\x19F?'
tRp350
sg21
Vcontractor->dev_profile_title->writing
p351
sg23
g17
(g19
S'\xa4,e\x1e(S\x9c?'
tRp352
sa(dp353
g16
g17
(g19
S"'\xb7}\x11\xf2\x80[?"
tRp354
sg21
Vcontractor->dev_profile_title->writer
p355
sg23
g17
(g19
S'?\xab\x96\xaa\xd3\x9a\xa0?'
tRp356
sa(dp357
g16
g17
(g19
S'\xb6\xad\x00\xc0,{w?'
tRp358
sg21
Vcontractor->dev_profile_title->wordpress
p359
sg23
g17
(g19
S'C\xc2#/\xa3\x80\xc4?'
tRp360
sa(dp361
g16
g17
(g19
S'\xa8\xf0s\x8b\xf9\xb2F?'
tRp362
sg21
Vcontractor->dev_profile_title->specialist
p363
sg23
g17
(g19
S'?V\xc6\xa1\xfa\t\xa2?'
tRp364
sa(dp365
g16
g17
(g19
S'\xf6\xd3\r\xb8\x9a\x91c?'
tRp366
sg21
Vcontractor->dev_profile_title->software
p367
sg23
g17
(g19
S'f\xfd9\xd8\xba\xff\xb0?'
tRp368
sa(dp369
g16
g17
(g19
S'e\x1f\xcc\xd3\x17\xf17?'
tRp370
sg21
Vcontractor->dev_profile_title->smm
p371
sg23
g17
(g19
S'\xfd\x02\xc6\x05C\xb5\x95?'
tRp372
sa(dp373
g16
g17
(g19
S'3tkN\x9f\xa5j?'
tRp374
sg21
Vcontractor->dev_profile_title->sem
p375
sg23
g17
(g19
S'\xe9J\x9b\x92"\xec\xc6?'
tRp376
sa(dp377
g16
g17
(g19
S'\xa1\x1c\xe9\x08i0\x81?'
tRp378
sg21
Vcontractor->dev_profile_title->researcher
p379
sg23
g17
(g19
S'j\x9cD\xda/\x97\xc2?'
tRp380
sa(dp381
g16
g17
(g19
S'rJ\xdd\xa7\xcb\xf9e?'
tRp382
sg21
Vcontractor->dev_profile_title->php
p383
sg23
g17
(g19
S'\xd1\xf02\xd7s\xea\xab?'
tRp384
sa(dp385
g16
g17
(g19
S'yc\xcb\x0bb\xcfo?'
tRp386
sg21
Vcontractor->dev_profile_title->jquery
p387
sg23
g17
(g19
S'\x8a\xf3\x9f*\xf4\x8a\xc5?'
tRp388
sa(dp389
g16
g17
(g19
S"\xc4\xa4\x90\xd3\x9e'x?"
tRp390
sg21
Vcontractor->dev_profile_title->html
p391
sg23
g17
(g19
S'\x8de\xf3\rf\x1a\xc8?'
tRp392
sa(dp393
g16
g17
(g19
S'a\xa5\xf3g\xc4\x14\x81?'
tRp394
sg21
Vcontractor->dev_profile_title->graphic
p395
sg23
g17
(g19
S'\xfc[\xac\xd0Q\x91\xcc?'
tRp396
sa(dp397
g16
g17
(g19
S'\xa5\xe1\x00\xa3\xe5\x82\x88?'
tRp398
sg21
Vcontractor->dev_profile_title->experienced
p399
sg23
g17
(g19
S'\x17\\\xfabu)\xd6?'
tRp400
sa(dp401
g16
g17
(g19
S'\xdd;\x83_\x10ox?'
tRp402
sg21
Vcontractor->dev_profile_title->editor
p403
sg23
g17
(g19
S'\x84\xb9\xb3\xa1\x15\xbe\xc5?'
tRp404
sa(dp405
g16
g17
(g19
S'\xa9 hz\xe3\x9dz?'
tRp406
sg21
Vcontractor->dev_profile_title->developer
p407
sg23
g17
(g19
S'\x0c\x01\xc4W)2\xb9?'
tRp408
sa(dp409
g16
g17
(g19
S'\x98\xa0\x18z\x9c\xe9\x87?'
tRp410
sg21
Vcontractor->dev_profile_title->designer
p411
sg23
g17
(g19
S'\xd1@\xc4\xcf\xf8\xc1\xc9?'
tRp412
sa(dp413
g16
g17
(g19
S'\xc8\x9f\x80\x18\xd5\xfdl?'
tRp414
sg21
Vcontractor->dev_profile_title->design
p415
sg23
g17
(g19
S'r\x03\x02\x01\x0c \xc6?'
tRp416
sa(dp417
g16
g17
(g19
S'a\xad\x06\xf8\xd5\xf4\x7f?'
tRp418
sg21
Vcontractor->dev_profile_title->css
p419
sg23
g17
(g19
S'\\;$ \x84\xd2\xcb?'
tRp420
sa(dp421
g16
g17
(g19
S'\xed\xf5\x86%\x9aQr?'
tRp422
sg21
Vcontractor->dev_profile_title->assistant
p423
sg23
g17
(g19
S'd%\xd7\x07V)\xbc?'
tRp424
sa(dp425
g16
g17
(g19
S'\xcf\xc3\x8d \xff\xcb)?'
tRp426
sg21
Vcontractor->dev_profile_title->and
p427
sg23
g17
(g19
S'o^E\x021\xdei?'
tRp428
sa(dp429
g16
g17
(g19
S'\x81\xaaIw\xf7\xafu?'
tRp430
sg21
Vcontractor->dev_profile_title->analyst
p431
sg23
g17
(g19
S'du\xa9w^\xdd\xd0?'
tRp432
sa(dp433
g16
g17
(g19
S'B\xb2\xaascP\x88?'
tRp434
sg21
Vcontractor->dev_profile_title->administrative
p435
sg23
g17
(g19
S'\xa3\xff]\xb1\xae\xc2\xd5?'
tRp436
sa(dp437
g16
g17
(g19
S'\xa8*\xaa{\xec\xbb\xd6?'
tRp438
sg21
Vcontractor->dev_is_looking_week
p439
sg23
g17
(g19
S'\x97A|\xc6*\xb9\xd8?'
tRp440
sa(dp441
g16
g17
(g19
S']\x93\xa7\x11\x81\xc9\xa3?'
tRp442
sg21
Vcontractor->dev_expose_full_name
p443
sg23
g17
(g19
S'O\xf7p\xc7g\x04\xa4?'
tRp444
sa(dp445
g16
g17
(g19
S'O\x7f\x98\xd8\xbf\xd2\xb6?'
tRp446
sg21
Vcontractor->dev_eng_skill
p447
sg23
g17
(g19
S'E\xdc\xab\x13QP\xb8?'
tRp448
sa(dp449
g16
g17
(g19
S'@\x00?\x1c\x0bGL?'
tRp450
sg21
Vcontractor->dev_blurb->your
p451
sg23
g17
(g19
S'E\x99\xa61:t\x9c?'
tRp452
sa(dp453
g16
g17
(g19
S'^\xc7G\xfc\xdf\xbfd?'
tRp454
sg21
Vcontractor->dev_blurb->writing
p455
sg23
g17
(g19
S'\xa6~\xda\x0b\x8eM\xac?'
tRp456
sa(dp457
g16
g17
(g19
S'^:\x96\xa2cMy?'
tRp458
sg21
Vcontractor->dev_blurb->working
p459
sg23
g17
(g19
S'\xf0DY{\xa3\x82\xc3?'
tRp460
sa(dp461
g16
g17
(g19
S'0\x1e\x1f\x81\xc2rh?'
tRp462
sg21
Vcontractor->dev_blurb->work
p463
sg23
g17
(g19
S'#\xbf\x86D\x93\xc5\xa4?'
tRp464
sa(dp465
g16
g17
(g19
S'\x95\\6\x85\xa1\x7f\r?'
tRp466
sg21
Vcontractor->dev_blurb->word
p467
sg23
g17
(g19
S'|P\x188\xdd\x9eb?'
tRp468
sa(dp469
g16
g17
(g19
S'\xe5\xab\xbcp\x05\xfe[?'
tRp470
sg21
Vcontractor->dev_blurb->with
p471
sg23
g17
(g19
S'\x8a?r\x9fL\x93\x93?'
tRp472
sa(dp473
g16
g17
(g19
S'\x06\x98(\xcc@\x8c\\?'
tRp474
sg21
Vcontractor->dev_blurb->website
p475
sg23
g17
(g19
S'\xca\xa4\x10\x96|*\xb1?'
tRp476
sa(dp477
g16
g17
(g19
S'`/\x13\xcb\x81\xffw?'
tRp478
sg21
Vcontractor->dev_blurb->very
p479
sg23
g17
(g19
S'\xb7H\xe0\xff\x95\xe5\xc6?'
tRp480
sa(dp481
g16
g17
(g19
S'\xfb_ \xa6&\x85S?'
tRp482
sg21
Vcontractor->dev_blurb->use
p483
sg23
g17
(g19
S'$\xcc\xbb\x89\xc0\xc5\xa5?'
tRp484
sa(dp485
g16
g17
(g19
S'\xeeW\xc5r\xe3wf?'
tRp486
sg21
Vcontractor->dev_blurb->time
p487
sg23
g17
(g19
S'\xaf\x0f\xa9pM\x1f\xb5?'
tRp488
sa(dp489
g16
g17
(g19
S'\x0b@\xffPd\xdeg?'
tRp490
sg21
Vcontractor->dev_blurb->support
p491
sg23
g17
(g19
S'+Ak\x8dcn\xc0?'
tRp492
sa(dp493
g16
g17
(g19
S'\xfc\xd2\x1cU\x87OT?'
tRp494
sg21
Vcontractor->dev_blurb->service
p495
sg23
g17
(g19
S'3}\xff\xdcB\xea\x9a?'
tRp496
sa(dp497
g16
g17
(g19
S'\xea8\\\xb5\n\x9f\xec>'
tRp498
sg21
Vcontractor->dev_blurb->seo
p499
sg23
g17
(g19
S'\x99S\xa0\xf8}\xce@?'
tRp500
sa(dp501
g16
g17
(g19
S'a\xd1\x86\x8eW\x87\x03?'
tRp502
sg21
Vcontractor->dev_blurb->research
p503
sg23
g17
(g19
S'\x92;\x86t\x95\x9eT?'
tRp504
sa(dp505
g16
g17
(g19
S'\\\xd1\xad]\x91\xc3B?'
tRp506
sg21
Vcontractor->dev_blurb->professional
p507
sg23
g17
(g19
S']:\xb4Hl\xf5\x8f?'
tRp508
sa(dp509
g16
g17
(g19
S'\rK\x04\x16~\xa7M?'
tRp510
sg21
Vcontractor->dev_blurb->php
p511
sg23
g17
(g19
S'?<-6#S\xa4?'
tRp512
sa(dp513
g16
g17
(g19
S'\xfdLC\xf5_\x9f`?'
tRp514
sg21
Vcontractor->dev_blurb->other
p515
sg23
g17
(g19
S'\xe9EI\xf7&\xf2\xb9?'
tRp516
sa(dp517
g16
g17
(g19
S'\x05]\x8d\xc6]\xb7G?'
tRp518
sg21
Vcontractor->dev_blurb->or
p519
sg23
g17
(g19
S'\x1d\xeay\xbc\x19+\x9c?'
tRp520
sa(dp521
g16
g17
(g19
S'[\x07\xc9\xea\xba\x9e\x89?'
tRp522
sg21
Vcontractor->dev_blurb->of
p523
sg23
g17
(g19
S'e\xe5\xa9\xc9\xad\x96\xbc?'
tRp524
sa(dp525
g16
g17
(g19
S'y0"sfjA?'
tRp526
sg21
Vcontractor->dev_blurb->new
p527
sg23
g17
(g19
S'\xec\xd2\x0f\x89[|\x9b?'
tRp528
sa(dp529
g16
g17
(g19
S'\x07,\xde+\xfc\x8a??'
tRp530
sg21
Vcontractor->dev_blurb->mysql
p531
sg23
g17
(g19
S'\xc7\x80g\x0c\x08r\x93?'
tRp532
sa(dp533
g16
g17
(g19
S'\xb9ll\x13\xfd@b?'
tRp534
sg21
Vcontractor->dev_blurb->like
p535
sg23
g17
(g19
S'c\x1b\xbe%\x9f\xbf\xb8?'
tRp536
sa(dp537
g16
g17
(g19
S'4\xc0\x92\xeafWq?'
tRp538
sg21
Vcontractor->dev_blurb->html
p539
sg23
g17
(g19
S'\x0bO\x89T\xbc\x18\xc3?'
tRp540
sa(dp541
g16
g17
(g19
S'\xc9\xa2/\xdf\x10\x04\x83?'
tRp542
sg21
Vcontractor->dev_blurb->experience
p543
sg23
g17
(g19
S'lM\xdc\x8e\xcf\x8d\xbf?'
tRp544
sa(dp545
g16
g17
(g19
S'\xf0)6QB\x84S?'
tRp546
sg21
Vcontractor->dev_blurb->excel
p547
sg23
g17
(g19
S'\x13\x84}\xa0cv\xa8?'
tRp548
sa(dp549
g16
g17
(g19
S'\xbc\xb4\xcb]\x0bv~?'
tRp550
sg21
Vcontractor->dev_blurb->entry
p551
sg23
g17
(g19
S'Ix\x99\x18?\xa1\xc3?'
tRp552
sa(dp553
g16
g17
(g19
S'!+\xf8\x10\xf4]\x18?'
tRp554
sg21
Vcontractor->dev_blurb->do
p555
sg23
g17
(g19
S'\x95\xb1)?\xd5\x9aj?'
tRp556
sa(dp557
g16
g17
(g19
S' \xce\xd2\xc30Qp?'
tRp558
sg21
Vcontractor->dev_blurb->designer
p559
sg23
g17
(g19
S'\xe1\xc3\x8f\t\xfef\xc5?'
tRp560
sa(dp561
g16
g17
(g19
S'\x99\xc5\xe8\xd7\xce\xc2\x8f?'
tRp562
sg21
Vcontractor->dev_blurb->design
p563
sg23
g17
(g19
S'`\x1c\xddOp\xd2\xd7?'
tRp564
sa(dp565
g16
g17
(g19
S'\x0f\xb7\x0e\xdf\xe6\xb6u?'
tRp566
sg21
Vcontractor->dev_blurb->data
p567
sg23
g17
(g19
S'0E:=d\x16\xb6?'
tRp568
sa(dp569
g16
g17
(g19
S'\xf6\x1e\xe4AP\xb9p?'
tRp570
sg21
Vcontractor->dev_blurb->customer
p571
sg23
g17
(g19
S'T\xfe\x9b\xfb=\xa8\xbe?'
tRp572
sa(dp573
g16
g17
(g19
S'\x85\xcd\xd9\x08/\x87&?'
tRp574
sg21
Vcontractor->dev_blurb->complete
p575
sg23
g17
(g19
S'\xac\x83\x01x0\xf2\x81?'
tRp576
sa(dp577
g16
g17
(g19
S'\x13\xc99\x17\xfec ?'
tRp578
sg21
Vcontractor->dev_blurb->companies
p579
sg23
g17
(g19
S'\x1eR\x85\xab\x05I~?'
tRp580
sa(dp581
g16
g17
(g19
S'\xdf\xff[\xff\xd5+x?'
tRp582
sg21
Vcontractor->dev_blurb->com
p583
sg23
g17
(g19
S'&\xa1\xa5\x836\xb8\xba?'
tRp584
sa(dp585
g16
g17
(g19
S'\xdb\x97\xb9\xc4R\x99%?'
tRp586
sg21
Vcontractor->dev_blurb->but
p587
sg23
g17
(g19
S'\xbcQv-\x1b\t{?'
tRp588
sa(dp589
g16
g17
(g19
S'V\xb2(\x1e\xba\xc4p?'
tRp590
sg21
Vcontractor->dev_blurb->as
p591
sg23
g17
(g19
S'\xfa\x80\x06P\x88\xfb\xa9?'
tRp592
sa(dp593
g16
g17
(g19
S'\x99nj\x06\x9e?h?'
tRp594
sg21
Vcontractor->dev_blurb->an
p595
sg23
g17
(g19
S'YA\xbelD\xc7\xb4?'
tRp596
sa(dp597
g16
g17
(g19
S'W\x85"u\xb7[I?'
tRp598
sg21
Vcontractor->dev_blurb->am
p599
sg23
g17
(g19
S'\xcaZ\x19T\xe7\x12\x87?'
tRp600
sa(dp601
g16
g17
(g19
S's$dw1\xa6\xdf?'
tRp602
sg21
Vcontractor->dev_availability
p603
sg23
g17
(g19
S'\xfaQS\xd1\xd1b\xe6?'
tRp604
sa(dp605
g16
g17
(g19
S'JA\x02\x18\xe29\xb1?'
tRp606
sg21
Vcontractor->dev_active_interviews
p607
sg23
g17
(g19
S'\xc4\xd6\x97\x18\x83\xe6\xde?'
tRp608
sasS'negative'
p609
(lp610
(dp611
g16
g17
(g19
S'\x00\x00\x00\x00\x00\x00\x00\x00'
tRp612
sg21
Vcontractor->dev_adj_score
p613
sg23
g17
(g19
S'\x00\x00\x00\x00\x00\x00\x00\x00'
tRp614
sa(dp615
g16
g17
(g19
S':\xf0{a\x0et\xd0?'
tRp616
sg21
Vcontractor->dev_adj_score_recent
p617
sg23
g17
(g19
S'\xd7#\xd4\xe4\xf2~\xd9\xbf'
tRp618
sa(dp619
g16
g17
(g19
S'\xb0y\xda\x8e9}\xa3?'
tRp620
sg21
Vcontractor->dev_bill_rate
p621
sg23
g17
(g19
S'\xd3\xb81l\xa2\xc5\xd1\xbf'
tRp622
sa(dp623
g16
g17
(g19
S'\x9d\xd3e72g\x89?'
tRp624
sg21
Vcontractor->dev_billed_assignments
p625
sg23
g17
(g19
S'\xa6\x87\x94\tP\x13\xc1\xbf'
tRp626
sa(dp627
g16
g17
(g19
S'\xbd\xa5wz\x11&A?'
tRp628
sg21
Vcontractor->dev_blurb->all
p629
sg23
g17
(g19
S'9\xda\x7f\xad{\xde\x8c\xbf'
tRp630
sa(dp631
g16
g17
(g19
S'uw\xdd\xd46\x80Y?'
tRp632
sg21
Vcontractor->dev_blurb->also
p633
sg23
g17
(g19
S'\x14\xd1\xd5\xb5\xb8\xdf\xa9\xbf'
tRp634
sa(dp635
g16
g17
(g19
S'\xc7\xf6f\x1b\xa14&?'
tRp636
sg21
Vcontractor->dev_blurb->always
p637
sg23
g17
(g19
S'\xa4\xbaDR\xe0C\x80\xbf'
tRp638
sa(dp639
g16
g17
(g19
S'\xa9\x1aI\x14\xc6f\x82?'
tRp640
sg21
Vcontractor->dev_blurb->and
p641
sg23
g17
(g19
S'\xd2\xbd=\xf3\t&\xa3\xbf'
tRp642
sa(dp643
g16
g17
(g19
S'>i\xad\x82\xdb\xdaC?'
tRp644
sg21
Vcontractor->dev_blurb->are
p645
sg23
g17
(g19
S'\xe5\xe1\xe9\xfc\xc88\x92\xbf'
tRp646
sa(dp647
g16
g17
(g19
S'r\x1c|\xb9\x19Yg?'
tRp648
sg21
Vcontractor->dev_blurb->at
p649
sg23
g17
(g19
S'\x12E\xfe\x8d8s\xba\xbf'
tRp650
sa(dp651
g16
g17
(g19
S'3\x1b?]\x01\x80\x8c?'
tRp652
sg21
Vcontractor->dev_blurb->be
p653
sg23
g17
(g19
S'\xc6Y\xf2\x97;\x02\xd2\xbf'
tRp654
sa(dp655
g16
g17
(g19
S'\xe3\xeep\xe1S\nl?'
tRp656
sg21
Vcontractor->dev_blurb->been
p657
sg23
g17
(g19
S':\xe6+\x9e\xf4\xf3\xc0\xbf'
tRp658
sa(dp659
g16
g17
(g19
S'\xe5\x17q\xddn\x8eq?'
tRp660
sg21
Vcontractor->dev_blurb->best
p661
sg23
g17
(g19
S'\xea\x7f\x8f\xdc\xac\xaa\xc3\xbf'
tRp662
sa(dp663
g16
g17
(g19
S'\xf1\x1f\x0c}\xea\xb4o?'
tRp664
sg21
Vcontractor->dev_blurb->business
p665
sg23
g17
(g19
S'8\xf1\xf5\x00J\x90\xbb\xbf'
tRp666
sa(dp667
g16
g17
(g19
S'\x99\x904$\x82z\x81?'
tRp668
sg21
Vcontractor->dev_blurb->can
p669
sg23
g17
(g19
S'Sj\xe9\x94\xf5\xce\xc8\xbf'
tRp670
sa(dp671
g16
g17
(g19
S'\xbe*6\x00\xfbL\x82?'
tRp672
sg21
Vcontractor->dev_blurb->clients
p673
sg23
g17
(g19
S'\x98\x9d~!z\xbd\xd0\xbf'
tRp674
sa(dp675
g16
g17
(g19
S'?\x0f\xa9B\xbc.y?'
tRp676
sg21
Vcontractor->dev_blurb->development
p677
sg23
g17
(g19
S'\x91\x95\xea\x00\xf2D\xc6\xbf'
tRp678
sa(dp679
g16
g17
(g19
S'\x03\xca\\J\xc6mM?'
tRp680
sg21
Vcontractor->dev_blurb->following
p681
sg23
g17
(g19
S'0n\xd9_\xfc/\xae\xbf'
tRp682
sa(dp683
g16
g17
(g19
S'\n\xc7\xfbb\x14\x9b\x95?'
tRp684
sg21
Vcontractor->dev_blurb->for
p685
sg23
g17
(g19
S"U\x19\x12\x9c&'\xcf\xbf"
tRp686
sa(dp687
g16
g17
(g19
S'B\xdf\xa5X\xa6\xe3Y?'
tRp688
sg21
Vcontractor->dev_blurb->from
p689
sg23
g17
(g19
S'\xb7\xae\x82\x96\x845\xb2\xbf'
tRp690
sa(dp691
g16
g17
(g19
S'/\x981\xc5|$e?'
tRp692
sg21
Vcontractor->dev_blurb->goal
p693
sg23
g17
(g19
S"\x02\xdb6\x19'I\xb9\xbf"
tRp694
sa(dp695
g16
g17
(g19
S'\x0b0\x04\xffM\xffP?'
tRp696
sg21
Vcontractor->dev_blurb->good
p697
sg23
g17
(g19
S'6\xc0\xa6\xd9\xdf\x98\x99\xbf'
tRp698
sa(dp699
g16
g17
(g19
S'\xa3\xb4\x88+\xff@m?'
tRp700
sg21
Vcontractor->dev_blurb->have
p701
sg23
g17
(g19
S'\x03\xa5,\xbc\xe1j\xa7\xbf'
tRp702
sa(dp703
g16
g17
(g19
S'\xb8\xee\x8b\xa2\xfb\xd3&?'
tRp704
sg21
Vcontractor->dev_blurb->if
p705
sg23
g17
(g19
S'\x1f\xb2\x87[\xdb\xeb\x82\xbf'
tRp706
sa(dp707
g16
g17
(g19
S'\xb1\x9d37\xb7\x11i?'
tRp708
sg21
Vcontractor->dev_blurb->in
p709
sg23
g17
(g19
S'\xb3\rg\xd5\xa4M\x96\xbf'
tRp710
sa(dp711
g16
g17
(g19
S'\xceD\xeb\xbcn\x1c\x88?'
tRp712
sg21
Vcontractor->dev_blurb->is
p713
sg23
g17
(g19
S'\xfak\x05\x99\xdbA\xc7\xbf'
tRp714
sa(dp715
g16
g17
(g19
S'\xa1Up\xa7F@G?'
tRp716
sg21
Vcontractor->dev_blurb->it
p717
sg23
g17
(g19
S'\x0cB1\xf3S\x90\xa0\xbf'
tRp718
sa(dp719
g16
g17
(g19
S'>\xd3\xd3 L\xaac?'
tRp720
sg21
Vcontractor->dev_blurb->jobs
p721
sg23
g17
(g19
S'a\x9f6\x13Q\x00\xbf\xbf'
tRp722
sa(dp723
g16
g17
(g19
S'Fq$3!\xdan?'
tRp724
sg21
Vcontractor->dev_blurb->knowledge
p725
sg23
g17
(g19
S'\x8az\xab[\x90Q\xbc\xbf'
tRp726
sa(dp727
g16
g17
(g19
S'X\xae\xc1\xeb\x9a\x1dR?'
tRp728
sg21
Vcontractor->dev_blurb->last
p729
sg23
g17
(g19
S'l\xa1\xdbdF2\xa9\xbf'
tRp730
sa(dp731
g16
g17
(g19
S'\xab\nPC\x8b\x9c`?'
tRp732
sg21
Vcontractor->dev_blurb->management
p733
sg23
g17
(g19
S'\x8a\x02\xc4w\xa8\x1d\xb0\xbf'
tRp734
sa(dp735
g16
g17
(g19
S'\xa2\x0c\xd2\x1a\xfb\x80g?'
tRp736
sg21
Vcontractor->dev_blurb->marketing
p737
sg23
g17
(g19
S'\xf4Z\xa2\xd2\x91x\xbf\xbf'
tRp738
sa(dp739
g16
g17
(g19
S'q7t\xd6\x9dfY?'
tRp740
sg21
Vcontractor->dev_blurb->me
p741
sg23
g17
(g19
S'\x82C\xa9\xb1Su\xa4\xbf'
tRp742
sa(dp743
g16
g17
(g19
S'\xb3\x07=\xd2\xb0pC?'
tRp744
sg21
Vcontractor->dev_blurb->more
p745
sg23
g17
(g19
S'\xf7\xc6.\x1b\xb7Z\x94\xbf'
tRp746
sa(dp747
g16
g17
(g19
S'\x02\xba\xbd\xc0Uv\xa3?'
tRp748
sg21
Vcontractor->dev_blurb->my
p749
sg23
g17
(g19
S'\x85v\x07\xaf\x83\xbb\xd1\xbf'
tRp750
sa(dp751
g16
g17
(g19
S'\x0c\x0c\x87\xb0\x91\xb7s?'
tRp752
sg21
Vcontractor->dev_blurb->not
p753
sg23
g17
(g19
S'\xde\xc8D* \xcd\xc7\xbf'
tRp754
sa(dp755
g16
g17
(g19
S'\x93\xfa\xc0YB\xfc`?'
tRp756
sg21
Vcontractor->dev_blurb->objective
p757
sg23
g17
(g19
S'hA\x906\x01\xea\xb7\xbf'
tRp758
sa(dp759
g16
g17
(g19
S'\xfe\x06\x0cP\xedz\x88?'
tRp760
sg21
Vcontractor->dev_blurb->on
p761
sg23
g17
(g19
S'\xfa\x1d\xe9\xf0D>\xd0\xbf'
tRp762
sa(dp763
g16
g17
(g19
S'>\xdc\xcb\x0fU\xdbH?'
tRp764
sg21
Vcontractor->dev_blurb->oriented
p765
sg23
g17
(g19
S'\x02\xb5\xbd\xb2\xbb\xbb\xa1\xbf'
tRp766
sa(dp767
g16
g17
(g19
S'\xed\x8724H\xa3v?'
tRp768
sg21
Vcontractor->dev_blurb->over
p769
sg23
g17
(g19
S'O/\x9e)5\xd8\xc3\xbf'
tRp770
sa(dp771
g16
g17
(g19
S'Y\xc3\x11\x8e\xdbQ[?'
tRp772
sg21
Vcontractor->dev_blurb->provide
p773
sg23
g17
(g19
S'\x88/*\xf2Z\xd8\xac\xbf'
tRp774
sa(dp775
g16
g17
(g19
S'\x16\xa7)J\xd1tE?'
tRp776
sg21
Vcontractor->dev_blurb->quality
p777
sg23
g17
(g19
S'3\xfc\x9a\x9d\x86\x0b\x94\xbf'
tRp778
sa(dp779
g16
g17
(g19
S' j\x16\x10\xe6X@?'
tRp780
sg21
Vcontractor->dev_blurb->skills
p781
sg23
g17
(g19
S'\x99s_=\x02 \x81\xbf'
tRp782
sa(dp783
g16
g17
(g19
S'!\xd13a\xaeM1?'
tRp784
sg21
Vcontractor->dev_blurb->than
p785
sg23
g17
(g19
S'\xbb\xc7\xf5\x86\x0e\x08\x8f\xbf'
tRp786
sa(dp787
g16
g17
(g19
S'\xf1\xf0e\xa8\xa5\x99h?'
tRp788
sg21
Vcontractor->dev_blurb->that
p789
sg23
g17
(g19
S'\xa3}\xa0\xa72\x8c\xa5\xbf'
tRp790
sa(dp791
g16
g17
(g19
S'\xa2\xe4\x96|\xa5\xed\xa4?'
tRp792
sg21
Vcontractor->dev_blurb->the
p793
sg23
g17
(g19
S'=\xe7\xf7\x04Kg\xd4\xbf'
tRp794
sa(dp795
g16
g17
(g19
S'\xf2\x91\x89\xfeW\x7f\x8d?'
tRp796
sg21
Vcontractor->dev_blurb->to
p797
sg23
g17
(g19
S"'*AO\x03L\xb4\xbf"
tRp798
sa(dp799
g16
g17
(g19
S'\xbc\xaacV\x82`o?'
tRp800
sg21
Vcontractor->dev_blurb->using
p801
sg23
g17
(g19
S'DOx\x92rZ\xc0\xbf'
tRp802
sa(dp803
g16
g17
(g19
S'\xabz\xf2 %0T?'
tRp804
sg21
Vcontractor->dev_blurb->web
p805
sg23
g17
(g19
S'\xb5\t?\xf7*\x8f\x94\xbf'
tRp806
sa(dp807
g16
g17
(g19
S'o\x02)\x04\xce\xd2\x19?'
tRp808
sg21
Vcontractor->dev_blurb->well
p809
sg23
g17
(g19
S'\x03Iu\xb8b\xa2o\xbf'
tRp810
sa(dp811
g16
g17
(g19
S'\x0b\xf4\x06\xe9\xfa\xbb\x82?'
tRp812
sg21
Vcontractor->dev_blurb->will
p813
sg23
g17
(g19
S'\t_5\x1dlm\xce\xbf'
tRp814
sa(dp815
g16
g17
(g19
S'\x1f\xff\x19\x0e\xf6\xbfP?'
tRp816
sg21
Vcontractor->dev_blurb->wordpress
p817
sg23
g17
(g19
S'\xc4\xdcS\x99X\xeb\xa3\xbf'
tRp818
sa(dp819
g16
g17
(g19
S'\xa3\xb2\xe3V\x8c?D?'
tRp820
sg21
Vcontractor->dev_blurb->would
p821
sg23
g17
(g19
S'\x1a\xbe\xc5\xcfV2\x9e\xbf'
tRp822
sa(dp823
g16
g17
(g19
S'n\xd0\xf4\x81\x84\xd9\x81?'
tRp824
sg21
Vcontractor->dev_blurb->years
p825
sg23
g17
(g19
S'[\xa4\xbe\xb7\xe0\xeb\xc3\xbf'
tRp826
sa(dp827
g16
g17
(g19
S'\x9cY\xfbu$\xbdu?'
tRp828
sg21
Vcontractor->dev_blurb->you
p829
sg23
g17
(g19
S'\\\\T\x11\xf8M\xb9\xbf'
tRp830
sa(dp831
g16
g17
(g19
S'\xa9\xd2\xaa\xd6\xdf\xbc\x92?'
tRp832
sg21
Vcontractor->dev_cur_assignments
p833
sg23
g17
(g19
S'\x91\xa4\x06\xa9\x17\xdb\xc5\xbf'
tRp834
sa(dp835
g16
g17
(g19
S')\xe6\xabfv\xee\xe3?'
tRp836
sg21
Vcontractor->dev_last_worked
p837
sg23
g17
(g19
S'\xedU6\xe6\xa5U\xe8\xbf'
tRp838
sa(dp839
g16
g17
(g19
S'm\xb7\xd7\x8d\xcc\xa3\xa0?'
tRp840
sg21
Vcontractor->dev_pay_rate
p841
sg23
g17
(g19
S'\xa7\xf4N\xc8\xe3\xf9\xcf\xbf'
tRp842
sa(dp843
g16
g17
(g19
S'G\xa5\xabd3r\x9c?'
tRp844
sg21
Vcontractor->dev_portfolio_items_count
p845
sg23
g17
(g19
S"k'\xedrdJ\xd1\xbf"
tRp846
sa(dp847
g16
g17
(g19
S'\xcbA\xda\xd0;\xa9\x87?'
tRp848
sg21
Vcontractor->dev_profile_title->artist
p849
sg23
g17
(g19
S'\xfd\xcc\xf6\xe6R0\xe1\xbf'
tRp850
sa(dp851
g16
g17
(g19
S'\xac7\xe8\x8aV.t?'
tRp852
sg21
Vcontractor->dev_profile_title->customer
p853
sg23
g17
(g19
S'\x05\x12iE,\x1b\xcd\xbf'
tRp854
sa(dp855
g16
g17
(g19
S'0\xbe\xa41\x8a\x86\xa7?'
tRp856
sg21
Vcontractor->dev_profile_title->data
p857
sg23
g17
(g19
S'J\xe0\x13\x7fd\xf4\xe0\xbf'
tRp858
sa(dp859
g16
g17
(g19
S'@r\xf3.k\x19|?'
tRp860
sg21
Vcontractor->dev_profile_title->engineer
p861
sg23
g17
(g19
S'\xf6]\x81\x81\xda\xcd\xd2\xbf'
tRp862
sa(dp863
g16
g17
(g19
S'\x17~v\xbdS%\xa7?'
tRp864
sg21
Vcontractor->dev_profile_title->entry
p865
sg23
g17
(g19
S'\xe8\n\x84\xc3\xd7\t\xe2\xbf'
tRp866
sa(dp867
g16
g17
(g19
S'\xcc\x95\xfd6\xe7\xe4w?'
tRp868
sg21
Vcontractor->dev_profile_title->excel
p869
sg23
g17
(g19
S'\x8e?B\xa4L\xff\xc9\xbf'
tRp870
sa(dp871
g16
g17
(g19
S'\xcd\xb0\xcfy\x00\xfb~?'
tRp872
sg21
Vcontractor->dev_profile_title->expert
p873
sg23
g17
(g19
S'f\r\x1e\x95\x8cD\xc2\xbf'
tRp874
sa(dp875
g16
g17
(g19
S':\xf0\xc5\r\x9a\x95W?'
tRp876
sg21
Vcontractor->dev_profile_title->freelance
p877
sg23
g17
(g19
S'Z\xd4\xf7gg8\xb0\xbf'
tRp878
sa(dp879
g16
g17
(g19
S'\x91&\xe7\x91\x13H\x84?'
tRp880
sg21
Vcontractor->dev_profile_title->ms
p881
sg23
g17
(g19
S'f\xc3\xed\x99\xae\r\xd5\xbf'
tRp882
sa(dp883
g16
g17
(g19
S'Yo\xd6\x90\x03\x16[?'
tRp884
sg21
Vcontractor->dev_profile_title->photoshop
p885
sg23
g17
(g19
S'H\xa9\x07\xb0\x91\xfe\xb3\xbf'
tRp886
sa(dp887
g16
g17
(g19
S'jv2%\xd1\xe0^?'
tRp888
sg21
Vcontractor->dev_profile_title->professional
p889
sg23
g17
(g19
S':\xaf\xc4\x12sj\xa3\xbf'
tRp890
sa(dp891
g16
g17
(g19
S'\xbf\xb4P\x0c\xc8\t\x84?'
tRp892
sg21
Vcontractor->dev_profile_title->research
p893
sg23
g17
(g19
S'fR8\x99\xd9f\xcd\xbf'
tRp894
sa(dp895
g16
g17
(g19
S'\xb4\xfe\x8bsq\x98t?'
tRp896
sg21
Vcontractor->dev_profile_title->seo
p897
sg23
g17
(g19
S'T\x93\xd6\x12\xa9\x1f\xc2\xbf'
tRp898
sa(dp899
g16
g17
(g19
S'4,\x93#\xbd\x97\x87?'
tRp900
sg21
Vcontractor->dev_profile_title->service
p901
sg23
g17
(g19
S'o\xe7\xcb\x99\x14\x0c\xd3\xbf'
tRp902
sa(dp903
g16
g17
(g19
S'\x06c\xf2\x00*\x04Z?'
tRp904
sg21
Vcontractor->dev_profile_title->top
p905
sg23
g17
(g19
S'q\xdf\xf0@\xb0k\xb4\xbf'
tRp906
sa(dp907
g16
g17
(g19
S'\xd4uig\x07=w?'
tRp908
sg21
Vcontractor->dev_profile_title->virtual
p909
sg23
g17
(g19
S'3p.J\xe3*\xc4\xbf'
tRp910
sa(dp911
g16
g17
(g19
S'\xd3\xd6D\xf8\x9c(\xa2?'
tRp912
sg21
Vcontractor->dev_profile_title->web
p913
sg23
g17
(g19
S'\xfc\x00q\xbb\xbe:\xe0\xbf'
tRp914
sa(dp915
g16
g17
(g19
S'\x81\xcd>7U\xffD?'
tRp916
sg21
Vcontractor->dev_profile_title->word
p917
sg23
g17
(g19
S'\xd6up\xc5~a\xa3\xbf'
tRp918
sa(dp919
g16
g17
(g19
S'\x93\xff\xd5\x7f\x8aJ\xaa?'
tRp920
sg21
Vcontractor->dev_rank_percentile
p921
sg23
g17
(g19
S'\x06*UU23\xbd\xbf'
tRp922
sa(dp923
g16
g17
(g19
S'\x00\x00\x00\x00\x00\x00\x00\x00'
tRp924
sg21
Vcontractor->dev_recent_hourly_jobs
p925
sg23
g17
(g19
S'\x00\x00\x00\x00\x00\x00\x00\x00'
tRp926
sa(dp927
g16
g17
(g19
S'CPDa\xb5\xf0\xca?'
tRp928
sg21
Vcontractor->dev_timezone
p929
sg23
g17
(g19
S'\xef\\\xd0Y\xe2\x97\xa0\xbf'
tRp930
sa(dp931
g16
g17
(g19
S'a\x89\xc1\x07\xc1:\x80?'
tRp932
sg21
Vcontractor->dev_tot_feedback
p933
sg23
g17
(g19
S'x\xd3\x12\t\xcb\xce\xb9\xbf'
tRp934
sa(dp935
g16
g17
(g19
S'\xe7\x83V\xf35F\xa5?'
tRp936
sg21
Vcontractor->dev_total_hourly_jobs
p937
sg23
g17
(g19
S'\xe0\xc5\x01\xedP\xe9\xcf\xbf'
tRp938
sa(dp939
g16
g17
(g19
S'c\xbb8\xff\x14\xfcp?'
tRp940
sg21
Vcontractor->dev_total_revenue
p941
sg23
g17
(g19
S'#\x85.?\xd1\xad\xb0\xbf'
tRp942
sa(dp943
g16
g17
(g19
S'\xcb\x8d\x10\x96\xb6\x1dN?'
tRp944
sg21
Vcountry_pair->australia,bangladesh
p945
sg23
g17
(g19
S'\x80\x00\xffw\xedJ\x9b\xbf'
tRp946
sa(dp947
g16
g17
(g19
S'@B<\xe9\x87\xccV?'
tRp948
sg21
Vcountry_pair->australia,india
p949
sg23
g17
(g19
S'\x0f\xea\r\xc1\x08\xfe\xbe\xbf'
tRp950
sa(dp951
g16
g17
(g19
S'\xaaQ(\xb6\xaf\x0bW?'
tRp952
sg21
Vcountry_pair->bangladesh,philippines
p953
sg23
g17
(g19
S'\x03\xcf\x9e\xdb\xe2S\xbf\xbf'
tRp954
sa(dp955
g16
g17
(g19
S'\x07N\x87\x9ds\xbb\x81?'
tRp956
sg21
Vcountry_pair->canada,philippines
p957
sg23
g17
(g19
S'\xb6\x9e\xc2\xc6\xe0\x11\xc0\xbf'
tRp958
sa(dp959
g16
g17
(g19
S'\x93\x8c%\xf9n\x99g?'
tRp960
sg21
Vcountry_pair->canada,united states
p961
sg23
g17
(g19
S'\x8c\x85WmI\n\xc0\xbf'
tRp962
sa(dp963
g16
g17
(g19
S'\xd7\x96s\x98\t\x0cH?'
tRp964
sg21
Vcountry_pair->croatia,pakistan
p965
sg23
g17
(g19
S'\x86\x90\x9e\x85.X\xb0\xbf'
tRp966
sa(dp967
g16
g17
(g19
S'\xdbH\x07DP\x84C?'
tRp968
sg21
Vcountry_pair->france,netherlands
p969
sg23
g17
(g19
S'\n\xe7y\x1c\xdd\x87\xaa\xbf'
tRp970
sa(dp971
g16
g17
(g19
S'v\xad\x18\xfd"\x97=?'
tRp972
sg21
Vcountry_pair->germany,india
p973
sg23
g17
(g19
S'\xe6\xc5\x06\xc8\xb9\x1c\xa4\xbf'
tRp974
sa(dp975
g16
g17
(g19
S'\x03\x08\x97\xb4?WN?'
tRp976
sg21
Vcountry_pair->india,china
p977
sg23
g17
(g19
S'r\xa7\xbeLM\x9f\xb4\xbf'
tRp978
sa(dp979
g16
g17
(g19
S'n\xa8/\x9a\xf9F_?'
tRp980
sg21
Vcountry_pair->sri lanka,bangladesh
p981
sg23
g17
(g19
S'{d\xcc\xa6=B\xc5\xbf'
tRp982
sa(dp983
g16
g17
(g19
S'y^\xf5\xf8_\xfbf?'
tRp984
sg21
Vcountry_pair->sri lanka,philippines
p985
sg23
g17
(g19
S'm\x8cmv\xb6=\xcf\xbf'
tRp986
sa(dp987
g16
g17
(g19
S'k\x87\xed\xb5\n\xfal?'
tRp988
sg21
Vcountry_pair->united arab emirates,united states
p989
sg23
g17
(g19
S'\x0br\xa7G\xf3\xb1\xd3\xbf'
tRp990
sa(dp991
g16
g17
(g19
S'\x04\xe0\xae^)\x96c?'
tRp992
sg21
Vcountry_pair->united kingdom,sri lanka
p993
sg23
g17
(g19
S'\x85\xb8\xb5< \xa0\xca\xbf'
tRp994
sa(dp995
g16
g17
(g19
S'\xf6\x9f\x9e\x9b.\xd9\x97?'
tRp996
sg21
Vcountry_pair->united states,india
p997
sg23
g17
(g19
S'\x8f\xe7\xa2\xafb\xef\xd9\xbf'
tRp998
sa(dp999
g16
g17
(g19
S'\xb5\x81\xbc\xe8\xad\xedo?'
tRp1000
sg21
Vcountry_pair->united states,kenya
p1001
sg23
g17
(g19
S') 04\x8c\xb3\xd5\xbf'
tRp1002
sa(dp1003
g16
g17
(g19
S'\xf9;\x05\x1f\x82PN?'
tRp1004
sg21
Vcountry_pair->united states,morocco
p1005
sg23
g17
(g19
S'\xc3\x8e\x15q\xb8\x9a\xa4\xbf'
tRp1006
sa(dp1007
g16
g17
(g19
S'x\x94\xeah9\xc2\xd1?'
tRp1008
sg21
Vemployer->op_country_tz
p1009
sg23
g17
(g19
S'\xfb\x87|wj%\xa7\xbf'
tRp1010
sa(dp1011
g16
g17
(g19
S'x\x94\xeah9\xc2\xd1?'
tRp1012
sg21
Vemployer->op_timezone
p1013
sg23
g17
(g19
S'\xfb\x87|wj%\xa7\xbf'
tRp1014
sa(dp1015
g16
g17
(g19
S'&O/\xb6/\x91y?'
tRp1016
sg21
Vemployer->op_tot_jobs_filled
p1017
sg23
g17
(g19
S'\xe2\x16\xa6&\x83`\xc5\xbf'
tRp1018
sa(dp1019
g16
g17
(g19
S'\x1cU\xbb\xe0\xdd\xec\x85?'
tRp1020
sg21
Vtsexams->3ds Max 7.0 Test
p1021
sg23
g17
(g19
S'\x84\xf4\xd89`8\xc0\xbf'
tRp1022
sa(dp1023
g16
g17
(g19
S'\xb8v\xf2\xfe\xf2\xa8\x80?'
tRp1024
sg21
Vtsexams->Accounting Skills Test (Assets and Revenue)
p1025
sg23
g17
(g19
S'\xb4\xdb%\xa5\x94\x84\xb9\xbf'
tRp1026
sa(dp1027
g16
g17
(g19
S'/\xe1E\xa6\xe7\xe2\x88?'
tRp1028
sg21
Vtsexams->Accounting Skills Test (Cash Flow)
p1029
sg23
g17
(g19
S'T64\xddRI\xc2\xbf'
tRp1030
sa(dp1031
g16
g17
(g19
S"7g\xf8'\x93\xcf\x9e?"
tRp1032
sg21
Vtsexams->Accounts Payable Test
p1033
sg23
g17
(g19
S'Y\x89*\xd1.(\xcc\xbf'
tRp1034
sa(dp1035
g16
g17
(g19
S'\x11-\x19L\xfd\xc5\x81?'
tRp1036
sg21
Vtsexams->Adobe After Effects 7.0 Test
p1037
sg23
g17
(g19
S'Wn\xd5\xcf\xa3\x1e\xba\xbf'
tRp1038
sa(dp1039
g16
g17
(g19
S'\x92p\xdf\x88>\xb5\x96?'
tRp1040
sg21
Vtsexams->Adobe Flex 3.0 Test
p1041
sg23
g17
(g19
S'\x03\x98;#\x9av\xe0\xbf'
tRp1042
sa(dp1043
g16
g17
(g19
S'e\x80\x10\xa5p\x9c\x88?'
tRp1044
sg21
Vtsexams->Adobe Illustrator CS3 Test
p1045
sg23
g17
(g19
S'\xa2\xcb\xfd\x11%\x96\xd2\xbf'
tRp1046
sa(dp1047
g16
g17
(g19
S'j\x9e\xd4\xfc\x81\xf7x?'
tRp1048
sg21
Vtsexams->Adobe Photoshop 6.0
p1049
sg23
g17
(g19
S'\x03\x84\x06\xa8A\xce\xa4\xbf'
tRp1050
sa(dp1051
g16
g17
(g19
S'S$\x11\x88A\x18\xc2?'
tRp1052
sg21
Vtsexams->Adobe Photoshop CS3 Test
p1053
sg23
g17
(g19
S'i\x0c\x90\xab\xab\xd0\xd6\xbf'
tRp1054
sa(dp1055
g16
g17
(g19
S'$\xa3I\xac\x04\xfb\xa9?'
tRp1056
sg21
Vtsexams->Adobe Photoshop CS4 Test
p1057
sg23
g17
(g19
S'\xf8h\x95\xfb\x8d\xe8\xda\xbf'
tRp1058
sa(dp1059
g16
g17
(g19
S'1\x12\x83\xd4\xf2Xg?'
tRp1060
sg21
Vtsexams->Adobe Premiere Test
p1061
sg23
g17
(g19
S'Q\xc25\x84t\x82\xb7\xbf'
tRp1062
sa(dp1063
g16
g17
(g19
S'Xj\x18\x94\xa3\x9b\x91?'
tRp1064
sg21
Vtsexams->AutoCad 2007 Test
p1065
sg23
g17
(g19
S'\xd6\xed\xc8m\xe8(\xdc\xbf'
tRp1066
sa(dp1067
g16
g17
(g19
S'\x0c9\x02\x80#h\x9d?'
tRp1068
sg21
Vtsexams->Book keeping Test
p1069
sg23
g17
(g19
S'V\n\xdaLc\x85\xc6\xbf'
tRp1070
sa(dp1071
g16
g17
(g19
S'@\xe2\xd9:\x08z\x81?'
tRp1072
sg21
Vtsexams->Business Mathematics Test
p1073
sg23
g17
(g19
S'\x15\xea\xaa\xea.\xad\xcf\xbf'
tRp1074
sa(dp1075
g16
g17
(g19
S'\x00\x8ds\xef\x10,\xbb?'
tRp1076
sg21
Vtsexams->Call Center Skills Test
p1077
sg23
g17
(g19
S'B=\x94\xcb\x1e\x04\xd0\xbf'
tRp1078
sa(dp1079
g16
g17
(g19
S'\xd0W\xbe\xa9\xfa\x86v?'
tRp1080
sg21
Vtsexams->Cocoa programming for Mac OS X 10.5 Test
p1081
sg23
g17
(g19
S'\x86\xb7\xbc\xea\xba\x86\xab\xbf'
tRp1082
sa(dp1083
g16
g17
(g19
S'\x88\xbeP\x05\xe0}\x8d?'
tRp1084
sg21
Vtsexams->Creative Writing Test - Fiction (U.S. Version)
p1085
sg23
g17
(g19
S'\r38s\x83\x8b\xbe\xbf'
tRp1086
sa(dp1087
g16
g17
(g19
S'\xd6aKj\xbd~n?'
tRp1088
sg21
Vtsexams->Dreamweaver 8 Test
p1089
sg23
g17
(g19
S'f0\xcc1\xea\x94\xc0\xbf'
tRp1090
sa(dp1091
g16
g17
(g19
S'9\xb0\xcbQ{\xc2]?'
tRp1092
sg21
Vtsexams->Drupal 6.14 Test
p1093
sg23
g17
(g19
S'h#\xbb\\\x17\x83\xa0\xbf'
tRp1094
sa(dp1095
g16
g17
(g19
S'\x9f\xf3\xa3!\xa8\x8d\x94?'
tRp1096
sg21
Vtsexams->Email Etiquette Certification
p1097
sg23
g17
(g19
S'\xfc\xa1\xff\x9a\xdeB\x9f\xbf'
tRp1098
sa(dp1099
g16
g17
(g19
S'\x05\xaa\xef\xcb?h\xc7?'
tRp1100
sg21
Vtsexams->English Spelling Test (UK Version)
p1101
sg23
g17
(g19
S'\xda\xb0\xc3\xde\x83I\xe1\xbf'
tRp1102
sa(dp1103
g16
g17
(g19
S'\xc7\xb9P?\x97\x96\x87?'
tRp1104
sg21
Vtsexams->English To Tagalog (Filipino) Translation Skills Test
p1105
sg23
g17
(g19
S'P\x85S%\xac(\xa0\xbf'
tRp1106
sa(dp1107
g16
g17
(g19
S'\xa3\x1a\x01O\xa5r\x86?'
tRp1108
sg21
Vtsexams->French To English Translation Skills Test
p1109
sg23
g17
(g19
S'>\x1e\xa5/4\xf3\xd1\xbf'
tRp1110
sa(dp1111
g16
g17
(g19
S'\xd7M\x1a\x7fg\xc9\x92?'
tRp1112
sg21
Vtsexams->Gmail Product Test
p1113
sg23
g17
(g19
S"\xa74\x06':n\xd4\xbf"
tRp1114
sa(dp1115
g16
g17
(g19
S'\xb3\x96\xf3\x83\xe2\x8a\xb3?'
tRp1116
sg21
Vtsexams->HTML 4.01 Test
p1117
sg23
g17
(g19
S'\x1b\x1ayU\x8b\xa1\xd5\xbf'
tRp1118
sa(dp1119
g16
g17
(g19
S'9\xb0\xcbQ{\xc2]?'
tRp1120
sg21
Vtsexams->HTML 5 Test
p1121
sg23
g17
(g19
S'h#\xbb\\\x17\x83\xa0\xbf'
tRp1122
sa(dp1123
g16
g17
(g19
S'\xefb\xa5\xfa\x9c\xfc^?'
tRp1124
sg21
Vtsexams->JSON Test
p1125
sg23
g17
(g19
S'e\x87\xe3\xc1[\xd9\xa0\xbf'
tRp1126
sa(dp1127
g16
g17
(g19
S'\x94\xe8Hb!/\x7f?'
tRp1128
sg21
Vtsexams->JSP 2.0 Test
p1129
sg23
g17
(g19
S'\x0bZ$L/<\xcd\xbf'
tRp1130
sa(dp1131
g16
g17
(g19
S'\x05\xcb\x10\x9d\xe3\xd5T?'
tRp1132
sg21
Vtsexams->Java Test
p1133
sg23
g17
(g19
S'\x02\x07\xf0f\xe8\xa1\x9b\xbf'
tRp1134
sa(dp1135
g16
g17
(g19
S'\xd3\n\x97\xef):Z?'
tRp1136
sg21
Vtsexams->JavaScript 1.3 Test
p1137
sg23
g17
(g19
S'\xe3\xee\x83Z\x94\x00\x9f\xbf'
tRp1138
sa(dp1139
g16
g17
(g19
S'qnW\xda\\\x8c\x96?'
tRp1140
sg21
Vtsexams->JavaScript 1.8 Test
p1141
sg23
g17
(g19
S'\x9f\x88\x17\xe4!\x16\xca\xbf'
tRp1142
sa(dp1143
g16
g17
(g19
S'\x99\x96\xb4\x99\x12y\xa4?'
tRp1144
sg21
Vtsexams->Joomla 1.5 Test
p1145
sg23
g17
(g19
S'j:\xcd\xa5v\x9a\xc6\xbf'
tRp1146
sa(dp1147
g16
g17
(g19
S'N\xa7`\xee\x8b\x89\xa2?'
tRp1148
sg21
Vtsexams->MS Excel 2003 Test
p1149
sg23
g17
(g19
S'\xda\x9cz/\xf3`\xc1\xbf'
tRp1150
sa(dp1151
g16
g17
(g19
S'\x04\xe0\xae^)\x96\x83?'
tRp1152
sg21
Vtsexams->MS PowerPoint 2007 Test
p1153
sg23
g17
(g19
S'\x85\xb8\xb5< \xa0\xda\xbf'
tRp1154
sa(dp1155
g16
g17
(g19
S'\x85w\xfdMR\xcc\xa3?'
tRp1156
sg21
Vtsexams->MS Word 2003 Test
p1157
sg23
g17
(g19
S'k]\x0e\xce@\x89\xc8\xbf'
tRp1158
sa(dp1159
g16
g17
(g19
S'\xb1\xbe\n\xdd\xc8\x9ds?'
tRp1160
sg21
Vtsexams->Maya 7.0 Test
p1161
sg23
g17
(g19
S'\xf7\xd5\xf9{\xb3y\xbe\xbf'
tRp1162
sa(dp1163
g16
g17
(g19
S')\xacN\xc5p\xcd\x8e?'
tRp1164
sg21
Vtsexams->Microsoft Excel 2010 Test
p1165
sg23
g17
(g19
S'\x05L\xcf2.\xea\xdb\xbf'
tRp1166
sa(dp1167
g16
g17
(g19
S'\xf1\xca\x0c YN\xae?'
tRp1168
sg21
Vtsexams->MySQL 5.0 Test
p1169
sg23
g17
(g19
S'\xb5\xd3y\xe8%\xf8\xd7\xbf'
tRp1170
sa(dp1171
g16
g17
(g19
S'\xfd{\xbfW\xdbg\xc7?'
tRp1172
sg21
Vtsexams->Office Skills Test
p1173
sg23
g17
(g19
S'7ye\x15\x86T\xd1\xbf'
tRp1174
sa(dp1175
g16
g17
(g19
S'w\xa3[v?:|?'
tRp1176
sg21
Vtsexams->Organizational Behavior Test
p1177
sg23
g17
(g19
S'\x1f\xbf|h1\xd5\xb2\xbf'
tRp1178
sa(dp1179
g16
g17
(g19
S';\xbb\x02\xc0\x96q\x9c?'
tRp1180
sg21
Vtsexams->PC Graphics Test
p1181
sg23
g17
(g19
S'o\xb4\xd3I\to\xd7\xbf'
tRp1182
sa(dp1183
g16
g17
(g19
S'\xce\x00x"\x04\xcf\xbf?'
tRp1184
sg21
Vtsexams->PHP5 Test
p1185
sg23
g17
(g19
S'\xa6\xb7\x95\x10:`\xdf\xbf'
tRp1186
sa(dp1187
g16
g17
(g19
S'\xfa\xd0\xca\xad3\xdaR?'
tRp1188
sg21
Vtsexams->Perl 5 Test
p1189
sg23
g17
(g19
S'\x0ewN\xd2\xd6H\x9a\xbf'
tRp1190
sa(dp1191
g16
g17
(g19
S'cW\xe9\xfc\xc3\x86\x86?'
tRp1192
sg21
Vtsexams->Programming with C++ Test
p1193
sg23
g17
(g19
S'\xb0\xff\x13\xc9&\x8e\xd7\xbf'
tRp1194
sa(dp1195
g16
g17
(g19
S'\xdf[\xed\xac%\xed\x89?'
tRp1196
sg21
Vtsexams->Python 2.x Test
p1197
sg23
g17
(g19
S'B\x1b\xb7$\xea~\xd7\xbf'
tRp1198
sa(dp1199
g16
g17
(g19
S'\x87\xfe+\xb0\x05U\x9f?'
tRp1200
sg21
Vtsexams->Resume Writing Skills Test
p1201
sg23
g17
(g19
S'\x8a\xcd$\xc2\xe45\xda\xbf'
tRp1202
sa(dp1203
g16
g17
(g19
S'p\xc4\xbbX\xdf\xd4S?'
tRp1204
sg21
Vtsexams->Ruby on Rails Test
p1205
sg23
g17
(g19
S'\x08?\x9f\x9c_\xf5\x9a\xbf'
tRp1206
sa(dp1207
g16
g17
(g19
S'\xd7M\x1a\x7fg\xc9\x92?'
tRp1208
sg21
Vtsexams->Slideshow Product Test
p1209
sg23
g17
(g19
S"\xa74\x06':n\xd4\xbf"
tRp1210
sa(dp1211
g16
g17
(g19
S'\x85q\xf4\xdb\xacN\x8b?'
tRp1212
sg21
Vtsexams->Spanish To English Translation Skills Test
p1213
sg23
g17
(g19
S'M\xd2\xaaR=\xcc\xd3\xbf'
tRp1214
sa(dp1215
g16
g17
(g19
S'\xf8\xf8N\xdbov\xd0?'
tRp1216
sg21
Vtsexams->U.S. English Basic Skills Test
p1217
sg23
g17
(g19
S'\xa3\x99q\xe4L\xa7\xc3\xbf'
tRp1218
sa(dp1219
g16
g17
(g19
S'\x99{\xff\xb5\xa7\x8a\xa1?'
tRp1220
sg21
Vtsexams->U.S. English Punctuation and Mechanics Test
p1221
sg23
g17
(g19
S'\x1aE\xd2\xfb\x87\xad\xe5\xbf'
tRp1222
sa(dp1223
g16
g17
(g19
S'\x9f4c\xb0\x9d\x19\xab?'
tRp1224
sg21
Vtsexams->U.S. English Sentence Structure Test (For Writing Professionals)
p1225
sg23
g17
(g19
S'N4\x96}\n\r\xe5\xbf'
tRp1226
sa(dp1227
g16
g17
(g19
S'\xce\xcbx\xf9\xabc\x80?'
tRp1228
sg21
Vtsexams->U.S. Word Usage Test
p1229
sg23
g17
(g19
S'l\xaa\x92J\x12m\xa3\xbf'
tRp1230
sa(dp1231
g16
g17
(g19
S'J\xe4\xde\x8a\xdar\x95?'
tRp1232
sg21
Vtsexams->WordPress 2.8 Test
p1233
sg23
g17
(g19
S'\x9c~P\x91\x1bL\xc8\xbf'
tRp1234
sa(dp1235
g16
g17
(g19
S'\x08\x05b\x01w\x8d\xa0?'
tRp1236
sg21
Vtsexams->iPhone Programming OS 4.0 Test
p1237
sg23
g17
(g19
S'cI\xdd\xab\xca\xb4\xc0\xbf'
tRp1238
sa(dp1239
g16
g17
(g19
S'\xdd\xfbv\xd7/}\xc0?'
tRp1240
sg21
Vtsexams->oDesk Readiness Test for Agency Contractors
p1241
sg23
g17
(g19
S'3\xf7r\x0fU~\xc4\xbf'
tRp1242
sa(dp1243
g16
g17
(g19
S'\xfa}\x90\xbd\x1e\xc1\xbb?'
tRp1244
sg21
Vtsexams->oDesk Readiness Test for Independent Contractors and Staffing Managers
p1245
sg23
g17
(g19
S'\xa9\x15\xbd\x13\xf7\xaf\x97\xbf'
tRp1246
sasssS'classifier_type'
p1247
Vlogistic regression
p1248
ssS'False'
p1249
(dp1250
g10
(dp1251
I1
(dp1252
g13
(lp1253
(dp1254
g16
g17
(g19
S'sRr\xd7\x82\x85\xb6?'
tRp1255
sg21
Vtsexams->oDesk Readiness Test for Agency Contractors
p1256
sg23
g17
(g19
S'\xce\xe3\xe6\xc1\xf5D\xc4?'
tRp1257
sa(dp1258
g16
g17
(g19
S'Q\x13\xde\xeb\xa6i\xd0?'
tRp1259
sg21
Vtsexams->U.S. English Basic Skills Test
p1260
sg23
g17
(g19
S'..2\xbe\x91\x03\xe2?'
tRp1261
sa(dp1262
g16
g17
(g19
S'\x06\x8b\x84\x9d\xc3\xeb\xc7?'
tRp1263
sg21
Vtsexams->Principles of  Web Graphics Design Test
p1264
sg23
g17
(g19
S'\xc0\xb2<8i\xc1\xde?'
tRp1265
sa(dp1266
g16
g17
(g19
S'\xbf\xc7$G\xb1N\x89?'
tRp1267
sg21
Vtsexams->PHP5 Test
p1268
sg23
g17
(g19
S'\xb0\xf9\xed\x98]\xa2\xbf?'
tRp1269
sa(dp1270
g16
g17
(g19
S'\xc2\xf2w\x96uI\xae?'
tRp1271
sg21
Vtsexams->English Spelling Test (UK Version)
p1272
sg23
g17
(g19
S'\x84\xd9({\xf2\x9e\xc0?'
tRp1273
sa(dp1274
g16
g17
(g19
S'\xdd\xa5\xb4\xd4\xd3s\xd7?'
tRp1275
sg21
Vtsexams->English Spelling Test (U.S. Version)
p1276
sg23
g17
(g19
S'\xc6hS\x8a]\x1f\xd8?'
tRp1277
sa(dp1278
g16
g17
(g19
S'HO[\xefe4\xd3?'
tRp1279
sg21
Vemployer->op_timezone
p1280
sg23
g17
(g19
S'\xbf\xa8\xeed\x188\xac?'
tRp1281
sa(dp1282
g16
g17
(g19
S'HO[\xefe4\xd3?'
tRp1283
sg21
Vemployer->op_country_tz
p1284
sg23
g17
(g19
S'\xbf\xa8\xeed\x188\xac?'
tRp1285
sa(dp1286
g16
g17
(g19
S'\xda!_\xad\xda\xd3l?'
tRp1287
sg21
Vcountry_pair->united states,philippines
p1288
sg23
g17
(g19
S'\x0b\x83\x85\x01+7\xa0?'
tRp1289
sa(dp1290
g16
g17
(g19
S'(\xdaI\xc3b>\x8f?'
tRp1291
sg21
Vcountry_pair->portugal,argentina
p1292
sg23
g17
(g19
S'\xb7\x8a\xd9\x8d\x17\x93\xc1?'
tRp1293
sa(dp1294
g16
g17
(g19
S'Dd(\x0e\xed\xe3\xa6?'
tRp1295
sg21
Vcontractor->dev_test_passed_count
p1296
sg23
g17
(g19
S'Y\\\x0f\xc90n\xbd?'
tRp1297
sa(dp1298
g16
g17
(g19
S'/B\xd0"u\x84\xaf?'
tRp1299
sg21
Vcontractor->dev_skill_test_passed_count
p1300
sg23
g17
(g19
S'/B\xd0"u\x84\xbf?'
tRp1301
sa(dp1302
g16
g17
(g19
S'\xeb\xf4\xaa\xf0A\x01\x87?'
tRp1303
sg21
Vcontractor->dev_portfolio_items_count
p1304
sg23
g17
(g19
S'\x0c1Mk\x7f\x0e\xaf?'
tRp1305
sa(dp1306
g16
g17
(g19
S'\xca]\xcc\x8c\xf7Ta?'
tRp1307
sg21
Vcontractor->dev_pay_rate
p1308
sg23
g17
(g19
S'\xb4\xf3oC\xd8uz?'
tRp1309
sasg609
(lp1310
(dp1311
g16
g17
(g19
S'\x00\x00\x00\x00\x00\x00\x00\x00'
tRp1312
sg21
Vcontractor->dev_active_interviews
p1313
sg23
g17
(g19
S'\x00\x00\x00\x00\x00\x00\x00\x00'
tRp1314
sa(dp1315
g16
g17
(g19
S'\x00\x00\x00\x00\x00\x00\x00\x00'
tRp1316
sg21
Vcontractor->dev_adj_score
p1317
sg23
g17
(g19
S'\x00\x00\x00\x00\x00\x00\x00\x00'
tRp1318
sa(dp1319
g16
g17
(g19
S'\xc00\x826\x0eE\x90?'
tRp1320
sg21
Vcontractor->dev_adj_score_recent
p1321
sg23
g17
(g19
S'\x95\xd4\xbam\xddV\xb2\xbf'
tRp1322
sa(dp1323
g16
g17
(g19
S'\xca\x83E\x00(\x8f\xb4?'
tRp1324
sg21
Vcontractor->dev_availability
p1325
sg23
g17
(g19
S'D4N\x00\r!\xb7\xbf'
tRp1326
sa(dp1327
g16
g17
(g19
S'\xf6\xab\xc4\xf6\xb0\xa6i?'
tRp1328
sg21
Vcontractor->dev_bill_rate
p1329
sg23
g17
(g19
S'\x1byT\xd7\xb6\xf6\x81\xbf'
tRp1330
sa(dp1331
g16
g17
(g19
S'\xa2\rub\x84\xfe\x8f?'
tRp1332
sg21
Vcontractor->dev_billed_assignments
p1333
sg23
g17
(g19
S'\x7f\xed\x19\x01\x90"\xb0\xbf'
tRp1334
sa(dp1335
g16
g17
(g19
S'\x8f8*y\xcb\xe6\x83?'
tRp1336
sg21
Vcontractor->dev_cur_assignments
p1337
sg23
g17
(g19
S'\xa1\x7fO\xe8\xa4c\xa6\xbf'
tRp1338
sa(dp1339
g16
g17
(g19
S'\x83\x1c-dsH\xbb?'
tRp1340
sg21
Vcontractor->dev_eng_skill
p1341
sg23
g17
(g19
S'\xe7\xb6\x8a\t\x01\x8a\xc1\xbf'
tRp1342
sa(dp1343
g16
g17
(g19
S'9~\xb8\xb6_\x82\xba?'
tRp1344
sg21
Vcontractor->dev_expose_full_name
p1345
sg23
g17
(g19
S'\x93,\x9b>\xab\n\xc1\xbf'
tRp1346
sa(dp1347
g16
g17
(g19
S'\x00\x00\x00\x00\x00\x00\x00\x00'
tRp1348
sg21
Vcontractor->dev_is_looking_week
p1349
sg23
g17
(g19
S'\x00\x00\x00\x00\x00\x00\x00\x00'
tRp1350
sa(dp1351
g16
g17
(g19
S'L\\\xacG\xd6q\x9e?'
tRp1352
sg21
Vcontractor->dev_last_worked
p1353
sg23
g17
(g19
S'\r\x92\x94o\x1c%\xb2\xbf'
tRp1354
sa(dp1355
g16
g17
(g19
S'\x03\xde\xb5\xe0\xdd5\xa1?'
tRp1356
sg21
Vcontractor->dev_rank_percentile
p1357
sg23
g17
(g19
S'\xf9R\x80\xde\xe5k\xb5\xbf'
tRp1358
sa(dp1359
g16
g17
(g19
S'V`\xe6\x82\xcf\x1al?'
tRp1360
sg21
Vcontractor->dev_recent_fp_jobs
p1361
sg23
g17
(g19
S'a,Cs)\x9e\x9f\xbf'
tRp1362
sa(dp1363
g16
g17
(g19
S'\x00\x00\x00\x00\x00\x00\x00\x00'
tRp1364
sg21
Vcontractor->dev_recent_hourly_jobs
p1365
sg23
g17
(g19
S'\x00\x00\x00\x00\x00\x00\x00\x00'
tRp1366
sa(dp1367
g16
g17
(g19
S'\x00\x00\x00\x00\x00\x00\x00\x00'
tRp1368
sg21
Vcontractor->dev_recent_hours
p1369
sg23
g17
(g19
S'\x00\x00\x00\x00\x00\x00\x00\x00'
tRp1370
sa(dp1371
g16
g17
(g19
S'\t%\x04\xeb\xcbO\x87?'
tRp1372
sg21
Vcontractor->dev_recent_rank_percentile
p1373
sg23
g17
(g19
S'h\x98E}\x86x\xaf\xbf'
tRp1374
sa(dp1375
g16
g17
(g19
S'%\xa1oc\x04@\xee?'
tRp1376
sg21
Vcontractor->dev_timezone
p1377
sg23
g17
(g19
S'\x11:\xd8l\x96+\xc7\xbf'
tRp1378
sa(dp1379
g16
g17
(g19
S'\x13\xbb\x9a,\xcc\x9e\x85?'
tRp1380
sg21
Vcontractor->dev_tot_feedback
p1381
sg23
g17
(g19
S'\x87\xf0\xc6\x14+\xcc\xab\xbf'
tRp1382
sa(dp1383
g16
g17
(g19
S'V`\xe6\x82\xcf\x1al?'
tRp1384
sg21
Vcontractor->dev_tot_feedback_recent
p1385
sg23
g17
(g19
S'a,Cs)\x9e\x9f\xbf'
tRp1386
sa(dp1387
g16
g17
(g19
S'\xaa\x86\xdet\x94\xb3\x88?'
tRp1388
sg21
Vcontractor->dev_total_hourly_jobs
p1389
sg23
g17
(g19
S'\xd7\xfet\xa7\x96\xe6\xac\xbf'
tRp1390
sa(dp1391
g16
g17
(g19
S'y\xady\\Q\x08x?'
tRp1392
sg21
Vcontractor->dev_total_hours_rounded
p1393
sg23
g17
(g19
S'\x1a\xf9\xeb\x11\x18:\xa7\xbf'
tRp1394
sa(dp1395
g16
g17
(g19
S's\xd7&\xa9\x08\xd3t?'
tRp1396
sg21
Vcontractor->dev_total_revenue
p1397
sg23
g17
(g19
S'\x01\xabE\xc2\x1c\xeb\xa5\xbf'
tRp1398
sa(dp1399
g16
g17
(g19
S'\xa9.\xea<o*\xac?'
tRp1400
sg21
Vcontractor->dev_year_exp
p1401
sg23
g17
(g19
S'4\x15A\x92\xa4\x94\xb7\xbf'
tRp1402
sa(dp1403
g16
g17
(g19
S'\xbas\x1f)\x9a\xedm?'
tRp1404
sg21
Vcountry_pair->australia,philippines
p1405
sg23
g17
(g19
S'\x19\xb1!\xb7\xa6\xd5\xa0\xbf'
tRp1406
sa(dp1407
g16
g17
(g19
S']\xf0\x1b\xc8\xae\xab\x98?'
tRp1408
sg21
Vcountry_pair->united arab emirates,united states
p1409
sg23
g17
(g19
S'in\x1f\xa1$\xc1\xbb\xbf'
tRp1410
sa(dp1411
g16
g17
(g19
S'V`\xe6\x82\xcf\x1al?'
tRp1412
sg21
Vcountry_pair->united states,india
p1413
sg23
g17
(g19
S'a,Cs)\x9e\x9f\xbf'
tRp1414
sa(dp1415
g16
g17
(g19
S'\xe5\xda\x1c\xba\x93\x94\x91?'
tRp1416
sg21
Vcountry_pair->united states,ukraine
p1417
sg23
g17
(g19
S'Bv`1&\xc7\xb3\xbf'
tRp1418
sa(dp1419
g16
g17
(g19
S'q\xfc\xcc\xc4\xb0\x8dr?'
tRp1420
sg21
Vcountry_pair->united states,united states
p1421
sg23
g17
(g19
S'\x00\x9cf\xddf\xdf\xa4\xbf'
tRp1422
sa(dp1423
g16
g17
(g19
S'\xc2\xe13F\x8dX\x9b?'
tRp1424
sg21
Vemployer->op_tot_jobs_filled
p1425
sg23
g17
(g19
S'\xda\xf0\xed\xad\xc4\x1b\xbc\xbf'
tRp1426
sa(dp1427
g16
g17
(g19
S"C'EW\x1b\xb6\xb2?"
tRp1428
sg21
g243
sg23
g17
(g19
S'\xa3!\xb3Pm\x9f\xb8\xbf'
tRp1429
sa(dp1430
g16
g17
(g19
S';\xe8\n`\xc0\xd7\xb8?'
tRp1431
sg21
Vtsexams->Google Android Programming Test
p1432
sg23
g17
(g19
S'\xae\x81r\x8c\x96\xd0\xc6\xbf'
tRp1433
sa(dp1434
g16
g17
(g19
S'a,Cs)\x9e\x9f?'
tRp1435
sg21
Vtsexams->Ruby on Rails  2.3 Test
p1436
sg23
g17
(g19
S'Iar\x16\x9f\xb6\xb7\xbf'
tRp1437
sa(dp1438
g16
g17
(g19
S'\x8d\xe2Y\xad\xf6h\xac?'
tRp1439
sg21
Vtsexams->SQL Test
p1440
sg23
g17
(g19
S'\x80\xc8\xb9\x01zC\xc2\xbf'
tRp1441
sa(dp1442
g16
g17
(g19
S'\x88\x9e\xd0\xe3\x9ed\xb1?'
tRp1443
sg21
Vtsexams->iPhone Programming OS 2.1 Test
p1444
sg23
g17
(g19
S'\xd5\\U\xce\x05\x17\xc3\xbf'
tRp1445
sa(dp1446
g16
g17
(g19
S'IszDR\x12\xbd?'
tRp1447
sg21
Vtsexams->oDesk Readiness Test for Affiliated Contractors
p1448
sg23
g17
(g19
S'[\x01;\xd7\x16*\xca\xbf'
tRp1449
sa(dp1450
g16
g17
(g19
S'D\xfbC\x1e\xf2\xf4\xb5?'
tRp1451
sg21
Vtsexams->oDesk Readiness Test for Independent Contractors and Company Managers
p1452
sg23
g17
(g19
S'\xbd\xfb\t\xe8\xd9\xc2\xc3\xbf'
tRp1453
sa(dp1454
g16
g17
(g19
S'\x87i\x0e\xfe\xacR\xf1?'
tRp1455
sg21
Vtsexams->oDesk Readiness Test for Independent Contractors and Staffing Managers
p1456
sg23
g17
(g19
S'&\xf1\x19\x96j.\xdf\xbf'
tRp1457
sasssg1247
g1248
sssS'_classifier'
p1458
(dp1459
S'default'
p1460
g1
(csklearn.linear_model.logistic
LogisticRegression
p1461
g3
NtRp1462
(dp1463
S'C'
F1
sS'max_iter'
p1464
I100
sS'verbose'
p1465
I0
sS'intercept_scaling'
p1466
I1
sS'dual'
p1467
I00
sS'fit_intercept'
p1468
I01
sS'solver'
p1469
S'liblinear'
p1470
sS'penalty'
p1471
Vl2
p1472
sS'multi_class'
p1473
S'ovr'
p1474
sS'random_state'
p1475
NsS'tol'
p1476
F0.0001
sS'class_weight'
p1477
Nsbsg8
g1
(g1461
g3
NtRp1478
(dp1479
S'intercept_'
p1480
cnumpy.core.multiarray
_reconstruct
p1481
(cnumpy
ndarray
p1482
(I0
tS'b'
tRp1483
(I1
(I1
tg19
I00
S'\xe5@\xc8\xc6\xd67\xa6\xbf'
tbsS'C'
F1
sg1466
I1
sg1465
I0
sg1468
I01
sS'classes_'
p1484
g1481
(g1482
(I0
tS'b'
tRp1485
(I1
(I2
tg18
(S'S1'
I0
I1
tRp1486
(I3
S'|'
NNNI1
I1
I0
tbI00
S'01'
tbsg1464
I100
sS'n_iter_'
p1487
g17
(g18
(S'i4'
I0
I1
tRp1488
(I3
S'<'
NNNI-1
I-1
I0
tbS'\x06\x00\x00\x00'
tRp1489
sg1471
g1472
sg1473
g1474
sg1475
Nsg1467
I00
sg1476
F0.0001
sS'coef_'
p1490
g1481
(g1482
(I0
tS'b'
tRp1491
(I1
(I1
I306
tg19
I01
S'\x80\x00\xffw\xedJ\x9b\xbf\x0f\xea\r\xc1\x08\xfe\xbe\xbf\xb2\xcd.\xda/U\xa1?+\xc4\x99\x13F\xf9\xb8?8Ga\x0f\x0b\x0e\xc1?\x81\xec]\xc2YY\xb5?\x03\xcf\x9e\xdb\xe2S\xbf\xbf\xb6\x9e\xc2\xc6\xe0\x11\xc0\xbf\x8c\x85WmI\n\xc0\xbf\x86\x90\x9e\x85.X\xb0\xbf=>N\xbf\x91~\xda?\n\xe7y\x1c\xdd\x87\xaa\xbf\xe6\xc5\x06\xc8\xb9\x1c\xa4\xbfr\xa7\xbeLM\x9f\xb4\xbf\x10i\xd9b\xa2\x9c\xbe?{d\xcc\xa6=B\xc5\xbfm\x8cmv\xb6=\xcf\xbf\x84\xe7\xb2\x8fN\xd7\xc8?\x0br\xa7G\xf3\xb1\xd3\xbf%"\xdf\x83\x17O\xb1?\xc3\xed\xc8c\x13@\x87?\x85\xb8\xb5< \xa0\xca\xbf\xf8\xce\x0f\x9e\xaaz\xb2?\xa8\x01v\x10\x18~\x84?\xc9\xf3(2\xef\xfc\xb5?\x8f\xe7\xa2\xafb\xef\xd9\xbf) 04\x8c\xb3\xd5\xbf\xc3\x8e\x15q\xb8\x9a\xa4\xbfwz\xc79?\xca\xc4?\x88\xd3#\xc7\xd1~\xc7?\x89\x05\xb5\x18r\x03\xa6?[\x87\xff\x0b\ns\xd3?Ul\xa3\xc6&\xf3\xb1?\xa9{l\xed\xdb\x9e\xd5?\x84\xf4\xd89`8\xc0\xbf\xce\xe7\xfd\r.k\xa1?\xb32\xcb7\xa2\x1a\xd2?\xc7\xd8\xcf!\xffe\xce?\xb4\xdb%\xa5\x94\x84\xb9\xbfT64\xddRI\xc2\xbfY\x89*\xd1.(\xcc\xbf\x99L\xfc\xf3\xc6\xbe\xb5?Wn\xd5\xcf\xa3\x1e\xba\xbf\x03\x98;#\x9av\xe0\xbf\xa2\xcb\xfd\x11%\x96\xd2\xbf\x06\x999\xd3\x8dQ\xd5?\xae\x19\xad\x81\x80\x17\xe1?\x03\x84\x06\xa8A\xce\xa4\xbfi\x0c\x90\xab\xab\xd0\xd6\xbf\xf8h\x95\xfb\x8d\xe8\xda\xbfQ\xc25\x84t\x82\xb7\xbf\xe7\xcb\xf0GU\xa2\xd3?Q\x80\xe6,O}\xe3?\xd6\xed\xc8m\xe8(\xdc\xbfV\n\xdaLc\x85\xc6\xbf\x15\xea\xaa\xea.\xad\xcf\xbf\x1f\x00\xb7z;+\xb4?\x89\x08\xb9(\x18\xef\xb6?B=\x94\xcb\x1e\x04\xd0\xbf\x06\x999\xd3\x8dQ\xd5?\x86\xb7\xbc\xea\xba\x86\xab\xbfi\\\x1d\xac;\xc3\x9d?\r38s\x83\x8b\xbe\xbf\x03&\x9fGF\x8c\x96?>L\x01]\xce\x1f\xbb?f0\xcc1\xea\x94\xc0\xbfh#\xbb\\\x17\x83\xa0\xbf\xfc\xa1\xff\x9a\xdeB\x9f\xbf\x9b\xb1%\x87\xf0\xb5\xca?\xda\xb0\xc3\xde\x83I\xe1\xbf\x10\x1c\xb5\xb8\xfb\xfe\xd2?[O\x93\x12\xc7\x07\xd9?P\x85S%\xac(\xa0\xbf\xe7\xf3\x08D\x1bh\xd0?\x12iJ\x07\x1b\x99\xd9?\xc8\xf1\xdeq8\xfc\xbd?\xe71\xdb*\n0\xdc?>\x1e\xa5/4\xf3\xd1\xbf\x19K\x9aW\x1b8\xe1?\xa74\x06\':n\xd4\xbf\x97*\xb4\x15p\x06\xd2?\x15$$\x8cO9\xdb?\x1b\x1ayU\x8b\xa1\xd5\xbfh#\xbb\\\x17\x83\xa0\xbf0/\xd9\x1f\x85\xe3\xc7?\xb1\xfc\x0c\xd6n\x18\xdc?\x1d\xbf2\xf4y\x0f\xca?e\x87\xe3\xc1[\xd9\xa0\xbf\x0bZ$L/<\xcd\xbf\x02\x07\xf0f\xe8\xa1\x9b\xbf\xe3\xee\x83Z\x94\x00\x9f\xbf\x9f\x88\x17\xe4!\x16\xca\xbfj:\xcd\xa5v\x9a\xc6\xbf_\xff\xbd\xc5J\xa1\xd6?\xa4\xd5\xf4\xd2B\xf8\xe2?\x958\x93E\xa1\x15\xd1?\xda\x9cz/\xf3`\xc1\xbf\x01HN\xc6\\]\xca?\x85\xb8\xb5< \xa0\xda\xbfk]\x0e\xce@\x89\xc8\xbfX4\xdc\x9e\x1d\x17\x92?\xc9QW\xcd)\xfe\xd4?\xc5w8@\xbf?\x95?\xf7\xd5\xf9{\xb3y\xbe\xbf\xa8o\x1f\xc9\x1ff\xd1?\x05L\xcf2.\xea\xdb\xbf\xb5\xd3y\xe8%\xf8\xd7\xbf\xcc\xb6\xd5:\x94\xeb\xa0?\xb6O\xd3\x92+\x85\xd9?7ye\x15\x86T\xd1\xbf\xecsk\x03B\x8c\xce?\x1f\xbf|h1\xd5\xb2\xbf\xb0\x90[wD\xbc\xc9?o\xb4\xd3I\to\xd7\xbf\\\xe96\x836\x17\xe0?\xa6\xb7\x95\x10:`\xdf\xbf\x0ewN\xd2\xd6H\x9a\xbf\xb0\xff\x13\xc9&\x8e\xd7\xbfB\x1b\xb7$\xea~\xd7\xbf<x\xf5\xa3\xaf\x0b\xd5?\x93\xff\xfeG\xc7\x01\xd9?\x8a\xcd$\xc2\xe45\xda\xbf\x08?\x9f\x9c_\xf5\x9a\xbfa&^\x18,\x8e\xe5?\xa74\x06\':n\xd4\xbf\x9b\x00\x80\xf6\x98x\xc8?\xc8\xdf\xf50\xe8\x8e\x86?M\xd2\xaaR=\xcc\xd3\xbf\x86\xe1Rm\xe3\xe0\xd2?\xba\x05\xef\x85\xcd\x1a\xcf?\xa3\x99q\xe4L\xa7\xc3\xbf\xa6y~4^\xe3\xc0?\x1aE\xd2\xfb\x87\xad\xe5\xbfN4\x96}\n\r\xe5\xbfl\xaa\x92J\x12m\xa3\xbf-\x15\xc6\xa6"S\xd3?\xc6\xc7EK(_\xc3?\xa8P\xad\xe0\xb1/\xe7?\x9c~P\x91\x1bL\xc8\xbfm\xfc7u\xca`\xda?\xe7\xcb\xf0GU\xa2\xd3?r\xe4\x92f\xf5\xe4\xb4?cI\xdd\xab\xca\xb4\xc0\xbf3\xf7r\x0fU~\xc4\xbf\xa3\xa1&d\x11\xdf\xe3?\xa9\x15\xbd\x13\xf7\xaf\x97\xbf\xfb\x87|wj%\xa7\xbf\xfb\x87|wj%\xa7\xbf\xe2\x16\xa6&\x83`\xc5\xbf\xd7#\xd4\xe4\xf2~\xd9\xbfm\xb5\x04\xb36F\xc3?\xb8\xba\x1fX?\x1c\x83?l:\xd9g\x8f:\x9b?9\xda\x7f\xad{\xde\x8c\xbf\x14\xd1\xd5\xb5\xb8\xdf\xa9\xbf\xa4\xbaDR\xe0C\x80\xbf\xcaZ\x19T\xe7\x12\x87?YA\xbelD\xc7\xb4?\xd2\xbd=\xf3\t&\xa3\xbf\xe5\xe1\xe9\xfc\xc88\x92\xbf\xfa\x80\x06P\x88\xfb\xa9?\x12E\xfe\x8d8s\xba\xbf\xc6Y\xf2\x97;\x02\xd2\xbf:\xe6+\x9e\xf4\xf3\xc0\xbf\xea\x7f\x8f\xdc\xac\xaa\xc3\xbf8\xf1\xf5\x00J\x90\xbb\xbf\xbcQv-\x1b\t{?Sj\xe9\x94\xf5\xce\xc8\xbf\x98\x9d~!z\xbd\xd0\xbf&\xa1\xa5\x836\xb8\xba?\x1eR\x85\xab\x05I~?\xac\x83\x01x0\xf2\x81?T\xfe\x9b\xfb=\xa8\xbe?0E:=d\x16\xb6?`\x1c\xddOp\xd2\xd7?\xe1\xc3\x8f\t\xfef\xc5?\x91\x95\xea\x00\xf2D\xc6\xbf\x95\xb1)?\xd5\x9aj?Ix\x99\x18?\xa1\xc3?\x13\x84}\xa0cv\xa8?lM\xdc\x8e\xcf\x8d\xbf?0n\xd9_\xfc/\xae\xbfU\x19\x12\x9c&\'\xcf\xbf\xb7\xae\x82\x96\x845\xb2\xbf\x02\xdb6\x19\'I\xb9\xbf6\xc0\xa6\xd9\xdf\x98\x99\xbf\x03\xa5,\xbc\xe1j\xa7\xbf\x0bO\x89T\xbc\x18\xc3?\x1f\xb2\x87[\xdb\xeb\x82\xbf\xb3\rg\xd5\xa4M\x96\xbf\xfak\x05\x99\xdbA\xc7\xbf\x0cB1\xf3S\x90\xa0\xbfa\x9f6\x13Q\x00\xbf\xbf\x8az\xab[\x90Q\xbc\xbfl\xa1\xdbdF2\xa9\xbfc\x1b\xbe%\x9f\xbf\xb8?\x8a\x02\xc4w\xa8\x1d\xb0\xbf\xf4Z\xa2\xd2\x91x\xbf\xbf\x82C\xa9\xb1Su\xa4\xbf\xf7\xc6.\x1b\xb7Z\x94\xbf\x85v\x07\xaf\x83\xbb\xd1\xbf\xc7\x80g\x0c\x08r\x93?\xec\xd2\x0f\x89[|\x9b?\xde\xc8D* \xcd\xc7\xbfhA\x906\x01\xea\xb7\xbfe\xe5\xa9\xc9\xad\x96\xbc?\xfa\x1d\xe9\xf0D>\xd0\xbf\x1d\xeay\xbc\x19+\x9c?\x02\xb5\xbd\xb2\xbb\xbb\xa1\xbf\xe9EI\xf7&\xf2\xb9?O/\x9e)5\xd8\xc3\xbf?<-6#S\xa4?]:\xb4Hl\xf5\x8f?\x88/*\xf2Z\xd8\xac\xbf3\xfc\x9a\x9d\x86\x0b\x94\xbf\x92;\x86t\x95\x9eT?\x99S\xa0\xf8}\xce@?3}\xff\xdcB\xea\x9a?\x99s_=\x02 \x81\xbf+Ak\x8dcn\xc0?\xbb\xc7\xf5\x86\x0e\x08\x8f\xbf\xa3}\xa0\xa72\x8c\xa5\xbf=\xe7\xf7\x04Kg\xd4\xbf\xaf\x0f\xa9pM\x1f\xb5?\'*AO\x03L\xb4\xbf$\xcc\xbb\x89\xc0\xc5\xa5?DOx\x92rZ\xc0\xbf\xb7H\xe0\xff\x95\xe5\xc6?\xb5\t?\xf7*\x8f\x94\xbf\xca\xa4\x10\x96|*\xb1?\x03Iu\xb8b\xa2o\xbf\t_5\x1dlm\xce\xbf\x8a?r\x9fL\x93\x93?|P\x188\xdd\x9eb?\xc4\xdcS\x99X\xeb\xa3\xbf#\xbf\x86D\x93\xc5\xa4?\xf0DY{\xa3\x82\xc3?\x1a\xbe\xc5\xcfV2\x9e\xbf\xa6~\xda\x0b\x8eM\xac?[\xa4\xbe\xb7\xe0\xeb\xc3\xbf\\\\T\x11\xf8M\xb9\xbfE\x99\xa61:t\x9c?\xb0\x99\xca?p2\xa8?\xe0\xc5\x01\xedP\xe9\xcf\xbf\xe37P\xdf\xc1\xfb\xb1?\x00\x00\x00\x00\x00\x00\x00\x00\x06*UU23\xbd\xbf\xa6\x87\x94\tP\x13\xc1\xbf\x97A|\xc6*\xb9\xd8?\xfaQS\xd1\xd1b\xe6?#\x85.?\xd1\xad\xb0\xbf\x00\x00\x00\x00\x00\x00\x00\x00\xd3\xb81l\xa2\xc5\xd1\xbf\xeb\x80\xa5\xaf-\xe5\xa8?O\xf7p\xc7g\x04\xa4?\xb5\x1f~\xb6\xec\x01\x9b?\xcf#\x8f\x83\x13s\xb8?k\'\xedrdJ\xd1\xbfE\xdc\xab\x13QP\xb8?x\xd3\x12\t\xcb\xce\xb9\xbf\xef\\\xd0Y\xe2\x97\xa0\xbf\xa3\xff]\xb1\xae\xc2\xd5?du\xa9w^\xdd\xd0?o^E\x021\xdei?\xfd\xcc\xf6\xe6R0\xe1\xbfd%\xd7\x07V)\xbc?\\;$ \x84\xd2\xcb?\x05\x12iE,\x1b\xcd\xbfJ\xe0\x13\x7fd\xf4\xe0\xbfr\x03\x02\x01\x0c \xc6?\xd1@\xc4\xcf\xf8\xc1\xc9?\x0c\x01\xc4W)2\xb9?\x84\xb9\xb3\xa1\x15\xbe\xc5?\xf6]\x81\x81\xda\xcd\xd2\xbf\xe8\n\x84\xc3\xd7\t\xe2\xbf\x8e?B\xa4L\xff\xc9\xbf\x17\\\xfabu)\xd6?f\r\x1e\x95\x8cD\xc2\xbfZ\xd4\xf7gg8\xb0\xbf\xfc[\xac\xd0Q\x91\xcc?\x8de\xf3\rf\x1a\xc8?\x8a\xf3\x9f*\xf4\x8a\xc5?f\xc3\xed\x99\xae\r\xd5\xbfH\xa9\x07\xb0\x91\xfe\xb3\xbf\xd1\xf02\xd7s\xea\xab?:\xaf\xc4\x12sj\xa3\xbffR8\x99\xd9f\xcd\xbfj\x9cD\xda/\x97\xc2?\xe9J\x9b\x92"\xec\xc6?T\x93\xd6\x12\xa9\x1f\xc2\xbfo\xe7\xcb\x99\x14\x0c\xd3\xbf\xfd\x02\xc6\x05C\xb5\x95?f\xfd9\xd8\xba\xff\xb0??V\xc6\xa1\xfa\t\xa2?q\xdf\xf0@\xb0k\xb4\xbf3p.J\xe3*\xc4\xbf\xfc\x00q\xbb\xbe:\xe0\xbf\xd6up\xc5~a\xa3\xbfC\xc2#/\xa3\x80\xc4??\xab\x96\xaa\xd3\x9a\xa0?\xa4,e\x1e(S\x9c?\xc4\xd6\x97\x18\x83\xe6\xde?\x91\xa4\x06\xa9\x17\xdb\xc5\xbf\xa7\xf4N\xc8\xe3\xf9\xcf\xbf-\xba\xf1\xa6\xa6s\xa8?\xedU6\xe6\xa5U\xe8\xbf'
tbsg1469
g1470
sg1477
Nsbsg1249
g1
(g1461
g3
NtRp1492
(dp1493
g1480
g1481
(g1482
(I0
tS'b'
tRp1494
(I1
(I1
tg19
I00
S'\\\xff\x1e]\x97\x08\xbf\xbf'
tbsS'C'
F1
sg1466
I1
sg1465
I0
sg1468
I01
sg1484
g1481
(g1482
(I0
tS'b'
tRp1495
(I1
(I2
tg18
(S'S1'
I0
I1
tRp1496
(I3
S'|'
NNNI1
I1
I0
tbI00
S'01'
tbsg1464
I100
sg1487
g17
(g1488
S'\x05\x00\x00\x00'
tRp1497
sg1471
g1472
sg1473
g1474
sg1475
Nsg1467
I00
sg1476
F0.0001
sg1490
g1481
(g1482
(I0
tS'b'
tRp1498
(I1
(I1
I51
tg19
I01
S'\x19\xb1!\xb7\xa6\xd5\xa0\xbf\xb7\x8a\xd9\x8d\x17\x93\xc1?in\x1f\xa1$\xc1\xbb\xbfa,Cs)\x9e\x9f\xbf\x0b\x83\x85\x01+7\xa0?Bv`1&\xc7\xb3\xbf\x00\x9cf\xddf\xdf\xa4\xbf\xc6hS\x8a]\x1f\xd8?\x84\xd9({\xf2\x9e\xc0?\xae\x81r\x8c\x96\xd0\xc6\xbf\xb0\xf9\xed\x98]\xa2\xbf?\xc0\xb2<8i\xc1\xde?Iar\x16\x9f\xb6\xb7\xbf\x80\xc8\xb9\x01zC\xc2\xbf..2\xbe\x91\x03\xe2?\xd5\\U\xce\x05\x17\xc3\xbf[\x01;\xd7\x16*\xca\xbf\xce\xe3\xe6\xc1\xf5D\xc4?\xbd\xfb\t\xe8\xd9\xc2\xc3\xbf&\xf1\x19\x96j.\xdf\xbf\xbf\xa8\xeed\x188\xac?\xbf\xa8\xeed\x188\xac?\xda\xf0\xed\xad\xc4\x1b\xbc\xbf\x95\xd4\xbam\xddV\xb2\xbfh\x98E}\x86x\xaf\xbfa,Cs)\x9e\x9f\xbf\x00\x00\x00\x00\x00\x00\x00\x00/B\xd0"u\x84\xbf?\xd7\xfet\xa7\x96\xe6\xac\xbfa,Cs)\x9e\x9f\xbf\x00\x00\x00\x00\x00\x00\x00\x00\xf9R\x80\xde\xe5k\xb5\xbf\x7f\xed\x19\x01\x90"\xb0\xbf\x00\x00\x00\x00\x00\x00\x00\x00D4N\x00\r!\xb7\xbf\x01\xabE\xc2\x1c\xeb\xa5\xbf\x00\x00\x00\x00\x00\x00\x00\x00\x1byT\xd7\xb6\xf6\x81\xbfY\\\x0f\xc90n\xbd?\x93,\x9b>\xab\n\xc1\xbf\x1a\xf9\xeb\x11\x18:\xa7\xbf4\x15A\x92\xa4\x94\xb7\xbf\x0c1Mk\x7f\x0e\xaf?\xe7\xb6\x8a\t\x01\x8a\xc1\xbf\x87\xf0\xc6\x14+\xcc\xab\xbf\x11:\xd8l\x96+\xc7\xbf\x00\x00\x00\x00\x00\x00\x00\x00\xa1\x7fO\xe8\xa4c\xa6\xbf\xb4\xf3oC\xd8uz?\xa3!\xb3Pm\x9f\xb8\xbf\r\x92\x94o\x1c%\xb2\xbf'
tbsg1469
g1470
sg1477
NsbssS'version'
p1499
S'0.3.1'
p1500
sS'_segments'
p1501
(dp1502
g1249
I9
sg8
I87
ssS'_feature_model'
p1503
g1
(ccloudml.trainer.config
FeatureModel
p1504
g3
NtRp1505
(dp1506
S'features'
p1507
ccollections
OrderedDict
p1508
((lp1509
(lp1510
Vhire_outcome
p1511
a(dp1512
S'input-format'
p1513
S'plain'
p1514
sS'transformer'
p1515
Nsg21
g1511
sS'transformer-type'
p1516
Nsg1460
NsS'scaler'
p1517
g1
(csklearn.preprocessing.data
MinMaxScaler
p1518
g3
NtRp1519
(dp1520
S'copy'
p1521
I01
sS'feature_range'
p1522
(I0
I1
tp1523
sbsS'required'
p1524
I01
sS'type'
p1525
g1
(ccloudml.trainer.feature_types.ordinal
OrdinalFeatureTypeInstance
p1526
g3
NtRp1527
(dp1528
S'default_scaler'
p1529
S'MinMaxScaler'
p1530
sS'_default_value'
p1531
NsS'_default_params'
p1532
(lp1533
sS'preprocessor'
p1534
NsS'_params'
p1535
(dp1536
Vmappings
p1537
(dp1538
Vclass2
p1539
I0
sVclass1
p1540
I1
sssbsaa(lp1541
Vcountry_pair
p1542
a(dp1543
g1513
g1514
sg1515
Nsg21
g1542
sg1516
Nsg1460
Nsg1517
Nsg1524
I01
sg1525
g1
(ccloudml.trainer.feature_types.categorical
CategoricalFeatureTypeInstance
p1544
g3
NtRp1545
(dp1546
g1529
Nsg1531
Nsg1532
g1533
sg1534
g1
(csklearn.feature_extraction.text
CountVectorizer
p1547
g3
NtRp1548
(dp1549
S'decode_error'
p1550
Vstrict
p1551
sS'lowercase'
p1552
I01
sS'stop_words'
p1553
NsS'vocabulary'
p1554
NsS'tokenizer'
p1555
NsS'encoding'
p1556
Vutf-8
p1557
sS'token_pattern'
p1558
S'.+'
p1559
sS'max_df'
p1560
F1
sS'analyzer'
p1561
Vword
p1562
sS'binary'
p1563
I01
sS'ngram_range'
p1564
(I1
I1
tp1565
sg1534
NsS'min_df'
p1566
I0
sS'max_features'
p1567
NsS'input'
p1568
Vcontent
p1569
sS'dtype'
p1570
cnumpy
int64
p1571
sS'strip_accents'
p1572
Nsbsg1535
Nsbsaa(lp1573
Vtsexams
p1574
a(dp1575
g1513
Vdict
p1576
sg1515
Nsg21
g1574
sg1516
Nsg1460
F0.33000000000000002
sg1517
g1
(g1518
g3
NtRp1577
(dp1578
g1521
I01
sg1522
(I0
I1
tp1579
sbsg1524
I00
sg1525
g1
(ccloudml.trainer.feature_types.primitive_types
PrimitiveFeatureTypeInstance
p1580
g3
NtRp1581
(dp1582
g1532
g1533
sS'python_type'
p1583
S'float'
p1584
sg1531
Nsg1460
F0
sg1534
g1
(csklearn.feature_extraction.dict_vectorizer
DictVectorizer
p1585
g3
NtRp1586
(dp1587
S'sort'
p1588
I01
sg1570
cnumpy
float64
p1589
sS'separator'
p1590
S'='
sS'sparse'
p1591
I01
sbsg1529
g1530
sg1535
Nsbsaa(lp1592
Vemployer.op_timezone
p1593
a(dp1594
g1513
g1514
sg1515
Nsg21
g1593
sg1516
Nsg1460
Nsg1517
Nsg1524
I01
sg1525
g1
(ccloudml.trainer.feature_types.composite
CompositeFeatureTypeInstance
p1595
g3
NtRp1596
(dp1597
g1532
Nsg1531
Nsg1534
Nsg1529
NsS'strategies'
p1598
(lp1599
g1
(ccloudml.trainer.feature_types.regex
RegexFeatureTypeInstance
p1600
g3
NtRp1601
(dp1602
g1529
g1530
sg1531
Nsg1532
g1533
sg1534
Nsg1535
(dp1603
Vpattern
p1604
VUTC([-\u005c+]+\u005cd\u005cd).*
p1605
ssbag1
(g1580
g3
NtRp1606
(dp1607
g1532
g1533
sg1583
S'int'
p1608
sg1531
Nsg1460
I0
sg1534
Nsg1529
g1530
sg1535
Nsbasg1535
Nsbsaa(lp1609
Vemployer.op_country_tz
p1610
a(dp1611
g1513
g1514
sg1515
Nsg21
g1610
sg1516
Nsg1460
Nsg1517
Nsg1524
I01
sg1525
g1596
saa(lp1612
Vemployer.op_tot_jobs_filled
p1613
a(dp1614
g1513
g1514
sg1515
Nsg21
g1613
sg1516
Nsg1460
Nsg1517
g1
(g1518
g3
NtRp1615
(dp1616
g1521
I01
sg1522
(I0
I1
tp1617
sbsg1524
I01
sg1525
g1
(g1580
g3
NtRp1618
(dp1619
g1532
g1533
sg1583
g1608
sg1531
Nsg1460
I0
sg1534
Nsg1529
g1530
sg1535
Nsbsaa(lp1620
Vcontractor.dev_adj_score_recent
p1621
a(dp1622
g1513
g1514
sg1515
Nsg21
g1621
sg1516
Nsg1460
Nsg1517
g1
(g1518
g3
NtRp1623
(dp1624
g1521
I01
sg1522
(I0
I1
tp1625
sbsg1524
I01
sg1525
g1
(g1580
g3
NtRp1626
(dp1627
g1532
g1533
sg1583
g1584
sg1531
Nsg1460
F0
sg1534
Nsg1529
g1530
sg1535
Nsbsaa(lp1628
Vcontractor.dev_is_looking
p1629
a(dp1630
g1513
g1514
sg1515
Nsg21
g1629
sg1516
Nsg1460
Nsg1517
g1
(g1518
g3
NtRp1631
(dp1632
g1521
I01
sg1522
(I0
I1
tp1633
sbsg1524
I01
sg1525
g1
(g1580
g3
NtRp1634
(dp1635
g1532
g1533
sg1583
S'bool'
p1636
sg1531
Nsg1460
I00
sg1534
Nsg1529
g1530
sg1535
Nsbsaa(lp1637
Vcontractor.dev_recent_rank_percentile
p1638
a(dp1639
g1513
g1514
sg1515
Nsg21
g1638
sg1516
Nsg1460
Nsg1517
g1
(g1518
g3
NtRp1640
(dp1641
g1521
I01
sg1522
(I0
I1
tp1642
sbsg1524
I01
sg1525
g1
(g1580
g3
NtRp1643
(dp1644
g1532
g1533
sg1583
g1584
sg1531
Nsg1460
F0
sg1534
Nsg1529
g1530
sg1535
Nsbsaa(lp1645
Vcontractor.dev_recent_fp_jobs
p1646
a(dp1647
g1513
g1514
sg1515
Nsg21
g1646
sg1516
Nsg1460
Nsg1517
g1
(g1518
g3
NtRp1648
(dp1649
g1521
I01
sg1522
(I0
I1
tp1650
sbsg1524
I01
sg1525
g1
(g1580
g3
NtRp1651
(dp1652
g1532
g1533
sg1583
g1608
sg1531
Nsg1460
I0
sg1534
Nsg1529
g1530
sg1535
Nsbsaa(lp1653
Vcontractor.dev_recent_hours
p1654
a(dp1655
g1513
g1514
sg1515
Nsg21
g1654
sg1516
Nsg1460
Nsg1517
g1
(g1518
g3
NtRp1656
(dp1657
g1521
I01
sg1522
(I0
I1
tp1658
sbsg1524
I01
sg1525
g1
(g1580
g3
NtRp1659
(dp1660
g1532
g1533
sg1583
g1608
sg1531
Nsg1460
I0
sg1534
Nsg1529
g1530
sg1535
Nsbsaa(lp1661
Vcontractor.dev_blurb
p1662
a(dp1663
g1513
g1514
sg1515
g1
(csklearn.feature_extraction.text
TfidfVectorizer
p1664
g3
NtRp1665
(dp1666
g1550
Vstrict
p1667
sg1552
I01
sg1553
Nsg1554
Nsg1555
Nsg1556
Vutf-8
p1668
sg1558
V(?u)\u005cb\u005cw\u005cw+\u005cb
p1669
sg1560
F1
sg1561
Vword
p1670
sg1563
I00
sg1564
(I1
I1
tp1671
sg1534
Nsg1566
I10
sg1567
Nsg1568
Vcontent
p1672
sS'_tfidf'
p1673
g1
(csklearn.feature_extraction.text
TfidfTransformer
p1674
g3
NtRp1675
(dp1676
S'use_idf'
p1677
I01
sS'smooth_idf'
p1678
I01
sS'sublinear_tf'
p1679
I00
sS'norm'
p1680
Vl2
p1681
sbsg1570
g1571
sg1572
Nsbsg21
g1662
sg1516
VTfidf
p1682
sg1460
Nsg1517
g1
(g1518
g3
NtRp1683
(dp1684
g1521
I01
sg1522
(I0
I1
tp1685
sbsg1524
I01
sg1525
g1
(g1580
g3
NtRp1686
(dp1687
g1532
g1533
sg1583
S'str'
p1688
sg1531
Nsg1460
S''
sg1534
Nsg1529
g1530
sg1535
Nsbsaa(lp1689
Vcontractor.dev_skill_test_passed_count
p1690
a(dp1691
g1513
g1514
sg1515
Nsg21
g1690
sg1516
Nsg1460
Nsg1517
g1
(g1518
g3
NtRp1692
(dp1693
g1521
I01
sg1522
(I0
I1
tp1694
sbsg1524
I01
sg1525
g1
(g1580
g3
NtRp1695
(dp1696
g1532
g1533
sg1583
g1608
sg1531
Nsg1460
I0
sg1534
Nsg1529
g1530
sg1535
Nsbsaa(lp1697
Vcontractor.dev_total_hourly_jobs
p1698
a(dp1699
g1513
g1514
sg1515
Nsg21
g1698
sg1516
Nsg1460
Nsg1517
g1
(g1518
g3
NtRp1700
(dp1701
g1521
I01
sg1522
(I0
I1
tp1702
sbsg1524
I01
sg1525
g1
(g1580
g3
NtRp1703
(dp1704
g1532
g1533
sg1583
g1608
sg1531
Nsg1460
I0
sg1534
Nsg1529
g1530
sg1535
Nsbsaa(lp1705
Vcontractor.dev_tot_feedback_recent
p1706
a(dp1707
g1513
g1514
sg1515
Nsg21
g1706
sg1516
Nsg1460
Nsg1517
g1
(g1518
g3
NtRp1708
(dp1709
g1521
I01
sg1522
(I0
I1
tp1710
sbsg1524
I01
sg1525
g1
(g1580
g3
NtRp1711
(dp1712
g1532
g1533
sg1583
g1608
sg1531
Nsg1460
I0
sg1534
Nsg1529
g1530
sg1535
Nsbsaa(lp1713
Vcontractor.dev_adj_score
p1714
a(dp1715
g1513
g1514
sg1515
Nsg21
g1714
sg1516
Nsg1460
Nsg1517
g1
(g1518
g3
NtRp1716
(dp1717
g1521
I01
sg1522
(I0
I1
tp1718
sbsg1524
I01
sg1525
g1
(g1580
g3
NtRp1719
(dp1720
g1532
g1533
sg1583
g1584
sg1531
Nsg1460
F0
sg1534
Nsg1529
g1530
sg1535
Nsbsaa(lp1721
Vcontractor.dev_rank_percentile
p1722
a(dp1723
g1513
g1514
sg1515
Nsg21
g1722
sg1516
Nsg1460
Nsg1517
g1
(g1518
g3
NtRp1724
(dp1725
g1521
I01
sg1522
(I0
I1
tp1726
sbsg1524
I01
sg1525
g1
(g1580
g3
NtRp1727
(dp1728
g1532
g1533
sg1583
g1584
sg1531
Nsg1460
F0
sg1534
Nsg1529
g1530
sg1535
Nsbsaa(lp1729
Vcontractor.dev_billed_assignments
p1730
a(dp1731
g1513
g1514
sg1515
Nsg21
g1730
sg1516
Nsg1460
Nsg1517
g1
(g1518
g3
NtRp1732
(dp1733
g1521
I01
sg1522
(I0
I1
tp1734
sbsg1524
I01
sg1525
g1
(g1580
g3
NtRp1735
(dp1736
g1532
g1533
sg1583
g1608
sg1531
Nsg1460
I0
sg1534
Nsg1529
g1530
sg1535
Nsbsaa(lp1737
Vcontractor.dev_is_looking_week
p1738
a(dp1739
g1513
g1514
sg1515
Nsg21
g1738
sg1516
Nsg1460
Nsg1517
g1
(g1518
g3
NtRp1740
(dp1741
g1521
I01
sg1522
(I0
I1
tp1742
sbsg1524
I01
sg1525
g1
(g1580
g3
NtRp1743
(dp1744
g1532
g1533
sg1583
g1636
sg1531
Nsg1460
I00
sg1534
Nsg1529
g1530
sg1535
Nsbsaa(lp1745
Vcontractor.dev_availability
p1746
a(dp1747
g1513
g1514
sg1515
Nsg21
g1746
sg1516
Nsg1460
Nsg1517
g1
(g1518
g3
NtRp1748
(dp1749
g1521
I01
sg1522
(I0
I1
tp1750
sbsg1524
I01
sg1525
g1
(g1580
g3
NtRp1751
(dp1752
g1532
g1533
sg1583
g1608
sg1531
Nsg1460
I0
sg1534
Nsg1529
g1530
sg1535
Nsbsaa(lp1753
Vcontractor.dev_total_revenue
p1754
a(dp1755
g1513
g1514
sg1515
Nsg21
g1754
sg1516
Nsg1460
Nsg1517
g1
(g1518
g3
NtRp1756
(dp1757
g1521
I01
sg1522
(I0
I1
tp1758
sbsg1524
I01
sg1525
g1
(g1580
g3
NtRp1759
(dp1760
g1532
g1533
sg1583
g1584
sg1531
Nsg1460
F0
sg1534
Nsg1529
g1530
sg1535
Nsbsaa(lp1761
Vcontractor.dev_recent_hourly_jobs
p1762
a(dp1763
g1513
g1514
sg1515
Nsg21
g1762
sg1516
Nsg1460
Nsg1517
g1
(g1518
g3
NtRp1764
(dp1765
g1521
I01
sg1522
(I0
I1
tp1766
sbsg1524
I00
sg1525
g1
(g1580
g3
NtRp1767
(dp1768
g1532
g1533
sg1583
g1608
sg1531
Nsg1460
I0
sg1534
Nsg1529
g1530
sg1535
Nsbsaa(lp1769
Vcontractor.dev_bill_rate
p1770
a(dp1771
g1513
g1514
sg1515
Nsg21
g1770
sg1516
Nsg1460
Nsg1517
g1
(g1518
g3
NtRp1772
(dp1773
g1521
I01
sg1522
(I0
I1
tp1774
sbsg1524
I01
sg1525
g1
(g1580
g3
NtRp1775
(dp1776
g1532
g1533
sg1583
g1584
sg1531
Nsg1460
F0
sg1534
Nsg1529
g1530
sg1535
Nsbsaa(lp1777
Vcontractor.dev_test_passed_count
p1778
a(dp1779
g1513
g1514
sg1515
Nsg21
g1778
sg1516
Nsg1460
Nsg1517
g1
(g1518
g3
NtRp1780
(dp1781
g1521
I01
sg1522
(I0
I1
tp1782
sbsg1524
I01
sg1525
g1
(g1580
g3
NtRp1783
(dp1784
g1532
g1533
sg1583
g1608
sg1531
Nsg1460
I0
sg1534
Nsg1529
g1530
sg1535
Nsbsaa(lp1785
Vcontractor.dev_expose_full_name
p1786
a(dp1787
g1513
g1514
sg1515
Nsg21
g1786
sg1516
Nsg1460
Nsg1517
g1
(g1518
g3
NtRp1788
(dp1789
g1521
I01
sg1522
(I0
I1
tp1790
sbsg1524
I00
sg1525
g1
(g1580
g3
NtRp1791
(dp1792
g1532
g1533
sg1583
g1584
sg1531
Nsg1460
F0
sg1534
Nsg1529
g1530
sg1535
Nsbsaa(lp1793
Vcontractor.dev_total_hours_rounded
p1794
a(dp1795
g1513
g1514
sg1515
Nsg21
g1794
sg1516
Nsg1460
Nsg1517
g1
(g1518
g3
NtRp1796
(dp1797
g1521
I01
sg1522
(I0
I1
tp1798
sbsg1524
I01
sg1525
g1
(g1580
g3
NtRp1799
(dp1800
g1532
g1533
sg1583
g1608
sg1531
Nsg1460
I0
sg1534
Nsg1529
g1530
sg1535
Nsbsaa(lp1801
Vcontractor.dev_year_exp
p1802
a(dp1803
g1513
g1514
sg1515
Nsg21
g1802
sg1516
Nsg1460
Nsg1517
g1
(g1518
g3
NtRp1804
(dp1805
g1521
I01
sg1522
(I0
I1
tp1806
sbsg1524
I00
sg1525
g1
(g1580
g3
NtRp1807
(dp1808
g1532
g1533
sg1583
g1608
sg1531
Nsg1460
I0
sg1534
Nsg1529
g1530
sg1535
Nsbsaa(lp1809
Vcontractor.dev_portfolio_items_count
p1810
a(dp1811
g1513
g1514
sg1515
Nsg21
g1810
sg1516
Nsg1460
Nsg1517
g1
(g1518
g3
NtRp1812
(dp1813
g1521
I01
sg1522
(I0
I1
tp1814
sbsg1524
I01
sg1525
g1
(g1580
g3
NtRp1815
(dp1816
g1532
g1533
sg1583
g1608
sg1531
Nsg1460
I0
sg1534
Nsg1529
g1530
sg1535
Nsbsaa(lp1817
Vcontractor.dev_eng_skill
p1818
a(dp1819
g1513
g1514
sg1515
Nsg21
g1818
sg1516
Nsg1460
Nsg1517
g1
(g1518
g3
NtRp1820
(dp1821
g1521
I01
sg1522
(I0
I1
tp1822
sbsg1524
I01
sg1525
g1
(g1580
g3
NtRp1823
(dp1824
g1532
g1533
sg1583
g1608
sg1531
Nsg1460
I0
sg1534
Nsg1529
g1530
sg1535
Nsbsaa(lp1825
Vcontractor.dev_tot_feedback
p1826
a(dp1827
g1513
g1514
sg1515
Nsg21
g1826
sg1516
Nsg1460
Nsg1517
g1
(g1518
g3
NtRp1828
(dp1829
g1521
I01
sg1522
(I0
I1
tp1830
sbsg1524
I01
sg1525
g1
(g1580
g3
NtRp1831
(dp1832
g1532
g1533
sg1583
g1608
sg1531
Nsg1460
I0
sg1534
Nsg1529
g1530
sg1535
Nsbsaa(lp1833
Vcontractor.dev_timezone
p1834
a(dp1835
g1513
g1514
sg1515
Nsg21
g1834
sg1516
Nsg1460
Nsg1517
Nsg1524
I01
sg1525
g1596
saa(lp1836
Vcontractor.dev_profile_title
p1837
a(dp1838
g1513
g1514
sg1515
g1
(g1664
g3
NtRp1839
(dp1840
g1550
g1667
sg1552
I01
sg1553
Nsg1554
Nsg1555
Nsg1556
g1668
sg1558
g1669
sg1560
F1
sg1561
g1670
sg1563
I00
sg1564
(I1
I1
tp1841
sg1534
Nsg1566
I3
sg1567
Nsg1568
g1672
sg1673
g1
(g1674
g3
NtRp1842
(dp1843
g1677
I01
sg1678
I01
sg1679
I00
sg1680
g1681
sbsg1570
g1571
sg1572
Nsbsg21
g1837
sg1516
VTfidf
p1844
sg1460
Nsg1517
g1
(g1518
g3
NtRp1845
(dp1846
g1521
I01
sg1522
(I0
I1
tp1847
sbsg1524
I01
sg1525
g1
(g1580
g3
NtRp1848
(dp1849
g1532
g1533
sg1583
g1688
sg1531
Nsg1460
S''
sg1534
Nsg1529
g1530
sg1535
Nsbsaa(lp1850
Vcontractor.dev_active_interviews
p1851
a(dp1852
g1513
g1514
sg1515
Nsg21
g1851
sg1516
Nsg1460
Nsg1517
g1
(g1518
g3
NtRp1853
(dp1854
g1521
I01
sg1522
(I0
I1
tp1855
sbsg1524
I01
sg1525
g1
(g1580
g3
NtRp1856
(dp1857
g1532
g1533
sg1583
g1608
sg1531
Nsg1460
I0
sg1534
Nsg1529
g1530
sg1535
Nsbsaa(lp1858
Vcontractor.dev_cur_assignments
p1859
a(dp1860
g1513
g1514
sg1515
Nsg21
g1859
sg1516
Nsg1460
Nsg1517
g1
(g1518
g3
NtRp1861
(dp1862
g1521
I01
sg1522
(I0
I1
tp1863
sbsg1524
I01
sg1525
g1
(g1580
g3
NtRp1864
(dp1865
g1532
g1533
sg1583
g1608
sg1531
Nsg1460
I0
sg1534
Nsg1529
g1530
sg1535
Nsbsaa(lp1866
Vcontractor.dev_pay_rate
p1867
a(dp1868
g1513
g1514
sg1515
Nsg21
g1867
sg1516
Nsg1460
F0
sg1517
g1
(g1518
g3
NtRp1869
(dp1870
g1521
I01
sg1522
(I0
I1
tp1871
sbsg1524
I01
sg1525
g1
(g1580
g3
NtRp1872
(dp1873
g1532
g1533
sg1583
g1584
sg1531
Nsg1460
F0
sg1534
Nsg1529
g1530
sg1535
Nsbsaa(lp1874
g243
a(dp1875
g1513
g1514
sg1515
Nsg21
g243
sg1516
Nsg1460
Nsg1517
g1
(g1518
g3
NtRp1876
(dp1877
g1521
I01
sg1522
(I0
I1
tp1878
sbsg1524
I01
sg1525
g1
(g1580
g3
NtRp1879
(dp1880
g1532
g1533
sg1583
g1608
sg1531
Nsg1460
I0
sg1534
Nsg1529
g1530
sg1535
Nsbsaa(lp1881
Vcontractor.dev_last_worked
p1882
a(dp1883
g1513
g1514
sg1515
Nsg21
g1882
sg1516
Nsg1460
I946684800
sg1517
g1
(g1518
g3
NtRp1884
(dp1885
g1521
I01
sg1522
(I0
I1
tp1886
sbsg1524
I01
sg1525
g1
(ccloudml.trainer.feature_types.date
DateFeatureTypeInstance
p1887
g3
NtRp1888
(dp1889
g1529
g1530
sg1531
I946684800
sg1532
g1533
sg1534
Nsg1535
(dp1890
Vpattern
p1891
V%B %d, %Y
p1892
ssbsaatRp1893
sS'required_feature_names'
p1894
(lp1895
g1511
ag1542
ag1593
ag1610
ag1613
ag1621
ag1629
ag1638
ag1646
ag1654
ag1662
ag1690
ag1698
ag1706
ag1714
ag1722
ag1730
ag1738
ag1746
ag1754
ag1770
ag1778
ag1794
ag1810
ag1818
ag1826
ag1834
ag1837
ag1851
ag1859
ag1867
ag243
ag1882
asS'feature_names'
p1896
(lp1897
g1511
ag1542
ag1574
ag1593
ag1610
ag1613
ag1621
ag1629
ag1638
ag1646
ag1654
ag1662
ag1690
ag1698
ag1706
ag1714
ag1722
ag1730
ag1738
ag1746
ag1754
ag1762
ag1770
ag1778
ag1786
ag1794
ag1802
ag1810
ag1818
ag1826
ag1834
ag1837
ag1851
ag1859
ag1867
ag243
ag1882
asS'group_by'
p1898
(lp1899
Vcontractor.dev_is_looking
p1900
asS'target_variable'
p1901
g1511
sS'schema_name'
p1902
Vbestmatch
p1903
sS'_named_feature_types'
p1904
(dp1905
Vstr_to_timezone
p1906
g1596
ssS'classifier_cls'
p1907
g1461
sS'classifier'
p1908
(dp1909
g1471
g1472
ssg1247
g1248
sbsS'_features'
p1910
(dp1911
g8
g1508
((lp1912
(lp1913
g1511
a(dp1914
g1515
Nsg21
g1511
sg1517
g1
(g1518
g3
NtRp1915
(dp1916
g1521
I01
sg1522
g1523
sbsg1460
Nsg1524
I01
sg1513
g1514
sg1516
Nsg1525
g1
(g1526
g3
NtRp1917
(dp1918
g1529
g1530
sg1532
(lp1919
sg1534
Nsg1531
Nsg1535
(dp1920
g1537
(dp1921
g1539
I0
sg1540
I1
sssbsaa(lp1922
g1542
a(dp1923
g1515
Nsg21
g1542
sg1517
Nsg1460
Nsg1524
I01
sg1513
g1514
sg1516
Nsg1525
g1
(g1544
g3
NtRp1924
(dp1925
g1529
Nsg1532
g1919
sg1534
g1
(g1547
g3
NtRp1926
(dp1927
g1550
g1551
sg1554
Nsg1556
g1557
sg1558
g1559
sg1561
g1562
sg1564
g1565
sg1534
Nsg1560
F1
sg1566
I0
sg1567
NsS'fixed_vocabulary_'
p1928
I00
sS'stop_words_'
p1929
c__builtin__
set
p1930
((ltRp1931
sg1563
I01
sg1552
I01
sg1553
Nsg1555
NsS'vocabulary_'
p1932
(dp1933
Vunited kingdom,sri lanka
p1934
g17
(g18
(S'i8'
I0
I1
tRp1935
(I3
S'<'
NNNI-1
I-1
I0
tbS'\x15\x00\x00\x00\x00\x00\x00\x00'
tRp1936
sVunited kingdom,bangladesh
p1937
g17
(g1935
S'\x13\x00\x00\x00\x00\x00\x00\x00'
tRp1938
sVaustralia,india
p1939
g17
(g1935
S'\x01\x00\x00\x00\x00\x00\x00\x00'
tRp1940
sVunited states,nepal
p1941
g17
(g1935
S'\x1c\x00\x00\x00\x00\x00\x00\x00'
tRp1942
sVegypt,india
p1943
g17
(g1935
S'\n\x00\x00\x00\x00\x00\x00\x00'
tRp1944
sVaustralia,bangladesh
p1945
g17
(g1935
S'\x00\x00\x00\x00\x00\x00\x00\x00'
tRp1946
sVcanada,philippines
p1947
g17
(g1935
S'\x07\x00\x00\x00\x00\x00\x00\x00'
tRp1948
sVunited states,united states
p1949
g17
(g1935
S'!\x00\x00\x00\x00\x00\x00\x00'
tRp1950
sVnew zealand,philippines
p1951
g17
(g1935
S'\x0e\x00\x00\x00\x00\x00\x00\x00'
tRp1952
sVaustralia,united kingdom
p1953
g17
(g1935
S'\x04\x00\x00\x00\x00\x00\x00\x00'
tRp1954
sVsri lanka,bangladesh
p1955
g17
(g1935
S'\x0f\x00\x00\x00\x00\x00\x00\x00'
tRp1956
sVunited states,india
p1957
g17
(g1935
S'\x19\x00\x00\x00\x00\x00\x00\x00'
tRp1958
sVsri lanka,philippines
p1959
g17
(g1935
S'\x10\x00\x00\x00\x00\x00\x00\x00'
tRp1960
sVfrance,netherlands
p1961
g17
(g1935
S'\x0b\x00\x00\x00\x00\x00\x00\x00'
tRp1962
sVunited states,nigeria
p1963
g17
(g1935
S'\x1d\x00\x00\x00\x00\x00\x00\x00'
tRp1964
sVunited states,bangladesh
p1965
g17
(g1935
S'\x16\x00\x00\x00\x00\x00\x00\x00'
tRp1966
sVbangladesh,philippines
p1967
g17
(g1935
S'\x06\x00\x00\x00\x00\x00\x00\x00'
tRp1968
sVunited states,pakistan
p1969
g17
(g1935
S'\x1e\x00\x00\x00\x00\x00\x00\x00'
tRp1970
sVunited states,morocco
p1971
g17
(g1935
S'\x1b\x00\x00\x00\x00\x00\x00\x00'
tRp1972
sVcanada,united states
p1973
g17
(g1935
S'\x08\x00\x00\x00\x00\x00\x00\x00'
tRp1974
sVbangladesh,bangladesh
p1975
g17
(g1935
S'\x05\x00\x00\x00\x00\x00\x00\x00'
tRp1976
sVunited states,china
p1977
g17
(g1935
S'\x18\x00\x00\x00\x00\x00\x00\x00'
tRp1978
sVindia,china
p1979
g17
(g1935
S'\r\x00\x00\x00\x00\x00\x00\x00'
tRp1980
sVunited states,philippines
p1981
g17
(g1935
S'\x1f\x00\x00\x00\x00\x00\x00\x00'
tRp1982
sVunited arab emirates,united states
p1983
g17
(g1935
S'\x12\x00\x00\x00\x00\x00\x00\x00'
tRp1984
sVunited states,ukraine
p1985
g17
(g1935
S' \x00\x00\x00\x00\x00\x00\x00'
tRp1986
sVaustralia,pakistan
p1987
g17
(g1935
S'\x02\x00\x00\x00\x00\x00\x00\x00'
tRp1988
sVunited states,kenya
p1989
g17
(g1935
S'\x1a\x00\x00\x00\x00\x00\x00\x00'
tRp1990
sVcroatia,pakistan
p1991
g17
(g1935
S'\t\x00\x00\x00\x00\x00\x00\x00'
tRp1992
sVaustralia,philippines
p1993
g17
(g1935
S'\x03\x00\x00\x00\x00\x00\x00\x00'
tRp1994
sVunited kingdom,pakistan
p1995
g17
(g1935
S'\x14\x00\x00\x00\x00\x00\x00\x00'
tRp1996
sVgermany,india
p1997
g17
(g1935
S'\x0c\x00\x00\x00\x00\x00\x00\x00'
tRp1998
sVunited states,canada
p1999
g17
(g1935
S'\x17\x00\x00\x00\x00\x00\x00\x00'
tRp2000
sVunited arab emirates,india
p2001
g17
(g1935
S'\x11\x00\x00\x00\x00\x00\x00\x00'
tRp2002
ssg1570
g1571
sg1568
g1569
sg1572
Nsbsg1531
Nsg1535
Nsbsaa(lp2003
g1574
a(dp2004
g1515
Nsg21
g1574
sg1517
g1
(g1518
g3
NtRp2005
(dp2006
g1521
I01
sg1522
g1579
sbsg1460
F0.33000000000000002
sg1524
I00
sg1513
g1576
sg1516
Nsg1525
g1
(g1580
g3
NtRp2007
(dp2008
g1529
g1530
sg1532
g1919
sg1531
Nsg1583
g1584
sg1460
F0
sg1535
Nsg1534
g1
(g1585
g3
NtRp2009
(dp2010
g1588
I01
sS'feature_names_'
p2011
(lp2012
V3ds Max 7.0 Test
p2013
aV3ds Max 9 Test
p2014
aVASP.Net 3.5 using C# Test
p2015
aVAccounting Principles Test
p2016
aVAccounting Skills Test (Assets and Revenue)
p2017
aVAccounting Skills Test (Cash Flow)
p2018
aVAccounts Payable Test
p2019
aVAccounts Receivable Test
p2020
aVAdobe After Effects 7.0 Test
p2021
aVAdobe Flex 3.0 Test
p2022
aVAdobe Illustrator CS3 Test
p2023
aVAdobe Illustrator CS4 Test
p2024
aVAdobe Illustrator Test
p2025
aVAdobe Photoshop 6.0
p2026
aVAdobe Photoshop CS3 Test
p2027
aVAdobe Photoshop CS4 Test
p2028
aVAdobe Premiere Test
p2029
aVAdvanced PHP Test
p2030
aVAnalytical Skills Test
p2031
aVAutoCad 2007 Test
p2032
aVBook keeping Test
p2033
aVBusiness Mathematics Test
p2034
aVCSS 2.0 Test
p2035
aVCSS 3 Test
p2036
aVCall Center Skills Test
p2037
aVChrome Product Test
p2038
aVCocoa programming for Mac OS X 10.5 Test
p2039
aVContent Writing Skills Test
p2040
aVCreative Writing Test - Fiction (U.S. Version)
p2041
aVCreative Writing Test - Non-fiction (U.S. Version)
p2042
aVCustomer Service Test
p2043
aVDreamweaver 8 Test
p2044
aVDrupal 6.14 Test
p2045
aVEmail Etiquette Certification
p2046
aVEnglish Spelling Test (U.S. Version)
p2047
aVEnglish Spelling Test (UK Version)
p2048
aVEnglish To French Translation Skills Test
p2049
aVEnglish To Russian Translation Skills Test
p2050
aVEnglish To Tagalog (Filipino) Translation Skills Test
p2051
aVEnglish Vocabulary Test (U.S. Version)
p2052
aVEnglish Vocabulary Test (UK Version)
p2053
aVFacebook Connect Test
p2054
aVFrench Spelling Skills Test
p2055
aVFrench To English Translation Skills Test
p2056
aVGenerally Accepted Accounting Principles (GAAP) Test
p2057
aVGmail Product Test
p2058
aVGoogle AdWords Test
p2059
aVGoogle Android Programming Test
p2060
aVHTML 4.01 Test
p2061
aVHTML 5 Test
p2062
aVHelp Desk Certification
p2063
aVHospitality Terminology Test
p2064
aVInternet Marketing Test
p2065
aVJSON Test
p2066
aVJSP 2.0 Test
p2067
aVJava Test
p2068
aVJavaScript 1.3 Test
p2069
aVJavaScript 1.8 Test
p2070
aVJoomla 1.5 Test
p2071
aVKnowledge of Microsoft Silverlight Skills Test
p2072
aVKnowledge of Windows 7 Skills Test
p2073
aVKnowledge of jQuery 1.3.2 Skills Test
p2074
aVMS Excel 2003 Test
p2075
aVMS Excel 2007 Test
p2076
aVMS PowerPoint 2007 Test
p2077
aVMS Word 2003 Test
p2078
aVMS Word 2007 Test
p2079
aVMagento eCommerce Test
p2080
aVManagement Skills Test
p2081
aVMaya 7.0 Test
p2082
aVMedical Billing Certification
p2083
aVMicrosoft Excel 2010 Test
p2084
aVMySQL 5.0 Test
p2085
aVNetworking Concepts Test
p2086
aVObjective C Test
p2087
aVOffice Skills Test
p2088
aVOnline Article Writing and Blogging Test (U.S. Version)
p2089
aVOrganizational Behavior Test
p2090
aVOutbound Sales Skills Test
p2091
aVPC Graphics Test
p2092
aVPHP4 Test
p2093
aVPHP5 Test
p2094
aVPerl 5 Test
p2095
aVProgramming with C++ Test
p2096
aVPython 2.x Test
p2097
aVQuick Books Pro 2008 Test
p2098
aVReport Writing Test
p2099
aVResume Writing Skills Test
p2100
aVRuby on Rails Test
p2101
aVSearch Engine Optimization Test
p2102
aVSlideshow Product Test
p2103
aVSocial Media Marketing Test
p2104
aVSoftware Testing Test
p2105
aVSpanish To English Translation Skills Test
p2106
aVTechnical Writing Skills Certification
p2107
aVTelephone Etiquette Certification
p2108
aVU.S. English Basic Skills Test
p2109
aVU.S. English Chicago Style Editing Skills Test (For Writing Professionals)
p2110
aVU.S. English Punctuation and Mechanics Test
p2111
aVU.S. English Sentence Structure Test (For Writing Professionals)
p2112
aVU.S. Word Usage Test
p2113
aVUK English Basic Skills Test
p2114
aVUK English Grammar Test (For Writing Professionals)
p2115
aVWindows XP Test
p2116
aVWordPress 2.8 Test
p2117
aVWordpress Test
p2118
aVXHTML 1.0 Test
p2119
aVXML 1.0 Test
p2120
aViPhone Programming OS 4.0 Test
p2121
aVoDesk Readiness Test for Agency Contractors
p2122
aVoDesk Readiness Test for Independent Contractors and Company Managers
p2123
aVoDesk Readiness Test for Independent Contractors and Staffing Managers
p2124
asg1570
g1589
sg1932
(dp2125
g2085
I72
sg2046
I33
sg2050
I37
sg2123
I110
sg2058
I45
sg2079
I66
sg2054
I41
sg2062
I49
sg2111
I98
sg2089
I76
sg2031
I18
sg2118
I105
sg2101
I88
sg2120
I107
sg2048
I35
sg2097
I84
sg2116
I103
sg2119
I106
sg2030
I17
sg2061
I48
sg2081
I68
sg2092
I79
sg2091
I78
sg2110
I97
sg2106
I93
sg2014
I1
sg2026
I13
sg2104
I91
sg2018
I5
sg2073
I60
sg2083
I70
sg2087
I74
sg2051
I38
sg2070
I57
sg2084
I71
sg2088
I75
sg2109
I96
sg2122
I109
sg2124
I111
sg2057
I44
sg2019
I6
sg2053
I40
sg2102
I89
sg2029
I16
sg2121
I108
sg2033
I20
sg2099
I86
sg2069
I56
sg2113
I100
sg2049
I36
sg2025
I12
sg2064
I51
sg2056
I43
sg2068
I55
sg2103
I90
sg2082
I69
sg2094
I81
sg2117
I104
sg2115
I102
sg2105
I92
sg2020
I7
sg2096
I83
sg2074
I61
sg2017
I4
sg2080
I67
sg2013
I0
sg2032
I19
sg2114
I101
sg2098
I85
sg2023
I10
sg2028
I15
sg2063
I50
sg2055
I42
sg2034
I21
sg2035
I22
sg2016
I3
sg2027
I14
sg2076
I63
sg2059
I46
sg2038
I25
sg2036
I23
sg2042
I29
sg2041
I28
sg2086
I73
sg2040
I27
sg2044
I31
sg2077
I64
sg2037
I24
sg2047
I34
sg2112
I99
sg2067
I54
sg2100
I87
sg2039
I26
sg2107
I94
sg2072
I59
sg2045
I32
sg2015
I2
sg2078
I65
sg2108
I95
sg2022
I9
sg2043
I30
sg2075
I62
sg2071
I58
sg2095
I82
sg2060
I47
sg2066
I53
sg2021
I8
sg2052
I39
sg2065
I52
sg2090
I77
sg2093
I80
sg2024
I11
ssg1590
S'='
sg1591
I01
sbsbsaa(lp2126
g1593
a(dp2127
g1515
NsS'imputer'
p2128
g1
(csklearn.preprocessing.imputation
Imputer
p2129
g3
NtRp2130
(dp2131
g1465
I0
sS'missing_values'
p2132
S'NaN'
p2133
sS'strategy'
p2134
S'median'
p2135
sS'statistics_'
p2136
g1481
(g1482
(I0
tS'b'
tRp2137
(I1
(I1
tg19
I00
S'\x00\x00\x00\x00\x00\x00\x14\xc0'
tbsg1521
I01
sS'axis'
p2138
I0
sbsg21
g1593
sg1517
Nsg1460
Nsg1524
I01
sg1513
g1514
sg1516
Nsg1525
g1
(g1595
g3
NtRp2139
(dp2140
g1532
Nsg1534
Nsg1531
Nsg1529
Nsg1598
(lp2141
g1
(g1600
g3
NtRp2142
(dp2143
g1529
g1530
sg1532
g1919
sg1534
Nsg1531
Nsg1535
(dp2144
g1604
g1605
ssbag1
(g1580
g3
NtRp2145
(dp2146
g1529
g1530
sg1532
g1919
sg1531
Nsg1583
g1608
sg1460
I0
sg1535
Nsg1534
Nsbasg1535
Nsbsaa(lp2147
g1610
a(dp2148
g1515
Nsg2128
g1
(g2129
g3
NtRp2149
(dp2150
g1465
I0
sg2132
g2133
sg2134
g2135
sg2136
g1481
(g1482
(I0
tS'b'
tRp2151
(I1
(I1
tg19
I00
S'\x00\x00\x00\x00\x00\x00\x14\xc0'
tbsg1521
I01
sg2138
I0
sbsg21
g1610
sg1517
Nsg1460
Nsg1524
I01
sg1513
g1514
sg1516
Nsg1525
g2139
saa(lp2152
g1613
a(dp2153
g1515
Nsg2128
g1
(g2129
g3
NtRp2154
(dp2155
g1465
I0
sg2132
g2133
sg2134
g2135
sg2136
g1481
(g1482
(I0
tS'b'
tRp2156
(I1
(I1
tg19
I00
S'\x00\x00\x00\x00\x00\x00\x10@'
tbsg1521
I01
sg2138
I0
sbsg21
g1613
sg1517
g1
(g1518
g3
NtRp2157
(dp2158
g1522
g1617
sS'scale_'
p2159
g1481
(g1482
(I0
tS'b'
tRp2160
(I1
(I1
tg19
I00
S'P\xabR\x00\xd4\xaa4?'
tbsS'data_range'
p2161
g1481
(g1482
(I0
tS'b'
tRp2162
(I1
(I1
tg19
I00
S'\x00\x00\x00\x00\x00\xc6\xa8@'
tbsS'data_min'
p2163
g1481
(g1482
(I0
tS'b'
tRp2164
(I1
(I1
tg19
I00
S'\x00\x00\x00\x00\x00\x00\x00\x00'
tbsS'min_'
p2165
g1481
(g1482
(I0
tS'b'
tRp2166
(I1
(I1
tg19
I00
S'\x00\x00\x00\x00\x00\x00\x00\x00'
tbsg1521
I01
sbsg1460
Nsg1524
I01
sg1513
g1514
sg1516
Nsg1525
g1
(g1580
g3
NtRp2167
(dp2168
g1529
g1530
sg1532
g1919
sg1531
Nsg1583
g1608
sg1460
I0
sg1535
Nsg1534
Nsbsaa(lp2169
g1621
a(dp2170
g1515
Nsg2128
g1
(g2129
g3
NtRp2171
(dp2172
g1465
I0
sg2132
g2133
sg2134
g2135
sg2136
g1481
(g1482
(I0
tS'b'
tRp2173
(I1
(I1
tg19
I00
S'\xd5)\x89\xf8\xe4\xb4\x12@'
tbsg1521
I01
sg2138
I0
sbsg21
g1621
sg1517
g1
(g1518
g3
NtRp2174
(dp2175
g1522
g1625
sg2159
g1481
(g1482
(I0
tS'b'
tRp2176
(I1
(I1
tg19
I00
S'\x9a\x99\x99\x99\x99\x99\xc9?'
tbsg2161
g1481
(g1482
(I0
tS'b'
tRp2177
(I1
(I1
tg19
I00
S'\x00\x00\x00\x00\x00\x00\x14@'
tbsg2163
g1481
(g1482
(I0
tS'b'
tRp2178
(I1
(I1
tg19
I00
S'\x00\x00\x00\x00\x00\x00\x00\x00'
tbsg2165
g1481
(g1482
(I0
tS'b'
tRp2179
(I1
(I1
tg19
I00
S'\x00\x00\x00\x00\x00\x00\x00\x00'
tbsg1521
I01
sbsg1460
Nsg1524
I01
sg1513
g1514
sg1516
Nsg1525
g1
(g1580
g3
NtRp2180
(dp2181
g1529
g1530
sg1532
g1919
sg1531
Nsg1583
g1584
sg1460
F0
sg1535
Nsg1534
Nsbsaa(lp2182
g1629
a(dp2183
g1515
Nsg21
g1629
sg1517
g1
(g1518
g3
NtRp2184
(dp2185
g1521
I01
sg1522
g1633
sbsg1460
Nsg1524
I01
sg1513
g1514
sg1516
Nsg1525
g1
(g1580
g3
NtRp2186
(dp2187
g1529
g1530
sg1532
g1919
sg1531
Nsg1583
g1636
sg1460
I00
sg1535
Nsg1534
Nsbsaa(lp2188
g1638
a(dp2189
g1515
Nsg2128
g1
(g2129
g3
NtRp2190
(dp2191
g1465
I0
sg2132
g2133
sg2134
g2135
sg2136
g1481
(g1482
(I0
tS'b'
tRp2192
(I1
(I1
tg19
I00
S'\x00\x00\x00\x00\x00\x00;@'
tbsg1521
I01
sg2138
I0
sbsg21
g1638
sg1517
g1
(g1518
g3
NtRp2193
(dp2194
g1522
g1642
sg2159
g1481
(g1482
(I0
tS'b'
tRp2195
(I1
(I1
tg19
I00
S'\x1a\xa4A\x1a\xa4A\x8a?'
tbsg2161
g1481
(g1482
(I0
tS'b'
tRp2196
(I1
(I1
tg19
I00
S'\x00\x00\x00\x00\x00\x80S@'
tbsg2163
g1481
(g1482
(I0
tS'b'
tRp2197
(I1
(I1
tg19
I00
S'\x00\x00\x00\x00\x00\x00\x00\x00'
tbsg2165
g1481
(g1482
(I0
tS'b'
tRp2198
(I1
(I1
tg19
I00
S'\x00\x00\x00\x00\x00\x00\x00\x00'
tbsg1521
I01
sbsg1460
Nsg1524
I01
sg1513
g1514
sg1516
Nsg1525
g1
(g1580
g3
NtRp2199
(dp2200
g1529
g1530
sg1532
g1919
sg1531
Nsg1583
g1584
sg1460
F0
sg1535
Nsg1534
Nsbsaa(lp2201
g1646
a(dp2202
g1515
Nsg2128
g1
(g2129
g3
NtRp2203
(dp2204
g1465
I0
sg2132
g2133
sg2134
g2135
sg2136
g1481
(g1482
(I0
tS'b'
tRp2205
(I1
(I1
tg19
I00
S'\x00\x00\x00\x00\x00\x00\xf0?'
tbsg1521
I01
sg2138
I0
sbsg21
g1646
sg1517
g1
(g1518
g3
NtRp2206
(dp2207
g1522
g1650
sg2159
g1481
(g1482
(I0
tS'b'
tRp2208
(I1
(I1
tg19
I00
S'\xdb\x81\xb9v`\xae\x8d?'
tbsg2161
g1481
(g1482
(I0
tS'b'
tRp2209
(I1
(I1
tg19
I00
S'\x00\x00\x00\x00\x00@Q@'
tbsg2163
g1481
(g1482
(I0
tS'b'
tRp2210
(I1
(I1
tg19
I00
S'\x00\x00\x00\x00\x00\x00\x00\x00'
tbsg2165
g1481
(g1482
(I0
tS'b'
tRp2211
(I1
(I1
tg19
I00
S'\x00\x00\x00\x00\x00\x00\x00\x00'
tbsg1521
I01
sbsg1460
Nsg1524
I01
sg1513
g1514
sg1516
Nsg1525
g1
(g1580
g3
NtRp2212
(dp2213
g1529
g1530
sg1532
g1919
sg1531
Nsg1583
g1608
sg1460
I0
sg1535
Nsg1534
Nsbsaa(lp2214
g1654
a(dp2215
g1515
Nsg2128
g1
(g2129
g3
NtRp2216
(dp2217
g1465
I0
sg2132
g2133
sg2134
g2135
sg2136
g1481
(g1482
(I0
tS'b'
tRp2218
(I1
(I1
tg19
I00
S'\x00\x00\x00\x00\x00\x00\x00\x00'
tbsg1521
I01
sg2138
I0
sbsg21
g1654
sg1517
g1
(g1518
g3
NtRp2219
(dp2220
g1522
g1658
sg2159
g1481
(g1482
(I0
tS'b'
tRp2221
(I1
(I1
tg19
I00
S'@+\x01\xad\x04\xb4R?'
tbsg2161
g1481
(g1482
(I0
tS'b'
tRp2222
(I1
(I1
tg19
I00
S'\x00\x00\x00\x00\x00`\x8b@'
tbsg2163
g1481
(g1482
(I0
tS'b'
tRp2223
(I1
(I1
tg19
I00
S'\x00\x00\x00\x00\x00\x00\x00\x00'
tbsg2165
g1481
(g1482
(I0
tS'b'
tRp2224
(I1
(I1
tg19
I00
S'\x00\x00\x00\x00\x00\x00\x00\x00'
tbsg1521
I01
sbsg1460
Nsg1524
I01
sg1513
g1514
sg1516
Nsg1525
g1
(g1580
g3
NtRp2225
(dp2226
g1529
g1530
sg1532
g1919
sg1531
Nsg1583
g1608
sg1460
I0
sg1535
Nsg1534
Nsbsaa(lp2227
g1662
a(dp2228
g1515
g1
(g1664
g3
NtRp2229
(dp2230
g1550
g1667
sg1554
Nsg1556
g1668
sg1558
g1669
sg1561
g1670
sg1564
g1671
sg1534
Nsg1560
F1
sg1566
I10
sg1567
Nsg1928
I00
sg1929
g1930
((lp2231
Vraphaeljs
p2232
aVdynamic
p2233
aVyellow
p2234
aVrelationships
p2235
aVwhose
p2236
aVpatches
p2237
aVjavaee
p2238
aVunder
p2239
aVstationery
p2240
aVteaching
p2241
aVpride
p2242
aVworth
p2243
aVicecast
p2244
aVevery
p2245
aVvoip
p2246
aVunity3d
p2247
aVschool
p2248
aVadministrating
p2249
aVsolution
p2250
aVsolutios
p2251
aVsamurai
p2252
aVvector
p2253
aVenhance
p2254
aVcms
p2255
aVenjoy
p2256
aVaeronautics
p2257
aVpragmatic
p2258
aVconsistent
p2259
aVdirect
p2260
aVdisciplined
p2261
aVsecond
p2262
aVsubordinate
p2263
aVimplemented
p2264
aVgetacoder
p2265
aVemploy
p2266
aVhp
p2267
aVdecoding
p2268
aVabove
p2269
aVdesigning
p2270
aVsupplier
p2271
aVnet
p2272
aVever
p2273
aVseeks
p2274
aVspecialist
p2275
aVcentric
p2276
aVsimultaneously
p2277
aVnever
p2278
aVhere
p2279
aVmet
p2280
aVstudio
p2281
aVactive
p2282
aVpath
p2283
aV100
p2284
aVpractices
p2285
aVforum
p2286
aVventures
p2287
aVstudy
p2288
aVreports
p2289
aVcredit
p2290
aVchanges
p2291
aVastute
p2292
aVsecure
p2293
aVhighly
p2294
aVpatience
p2295
aVplesk
p2296
aVchartboost
p2297
aVcatchy
p2298
aVtyps
p2299
aVhungry
p2300
aVleaks
p2301
aVcall
p2302
aVasset
p2303
aVtype
p2304
aVuntil
p2305
aVposting
p2306
aVsuccessful
p2307
aVyahoo
p2308
aVaward
p2309
aVglass
p2310
aVexcellent
p2311
aVhole
p2312
aV95
p2313
aVmust
p2314
aV1991
p2315
aVroom
p2316
aV1996
p2317
aVpursue
p2318
aVsetup
p2319
aVspec
p2320
aVms
p2321
aVmr
p2322
aVroot
p2323
aVgoood
p2324
aVgive
p2325
aVturnmill
p2326
aVindia
p2327
aVhoned
p2328
aVinvolve
p2329
aVcaptcha
p2330
aVwant
p2331
aVscheduling
p2332
aVguarantee
p2333
aVend
p2334
aVturn
p2335
aVrhinoceros
p2336
aVhow
p2337
aVwriters
p2338
aVactionscript
p2339
aVplace
p2340
aVordinary
p2341
aVvf3
p2342
aVcadence
p2343
aVgaming
p2344
aVdescription
p2345
aVmanuals
p2346
aVafter
p2347
aVreassess
p2348
aVpresident
p2349
aVlaw
p2350
aVtypes
p2351
aVpurchase
p2352
aVeffective
p2353
aVappreciate
p2354
aVorder
p2355
aVadapts
p2356
aV16mar2011
p2357
aVfeedback
p2358
aVoffice
p2359
aVdevote
p2360
aVdreamed
p2361
aVzen
p2362
aVsatisfied
p2363
aVpartnered
p2364
aVinnovative
p2365
aVresponsive
p2366
aVfit
p2367
aVmypics
p2368
aVpersonal
p2369
aVexpectations
p2370
aVclc
p2371
aVbetter
p2372
aVproduction
p2373
aV400
p2374
aVfotocommunity
p2375
aVthen
p2376
aVthem
p2377
aVenrich
p2378
aVtrevisd
p2379
aVeffects
p2380
aVthey
p2381
aVlifelong
p2382
aVrepresents
p2383
aVeach
p2384
aVside
p2385
aVmean
p2386
aVadobe
p2387
aVindependent
p2388
aVseries
p2389
aVmagneto
p2390
aVaide
p2391
aVlaboratory
p2392
aVchannal
p2393
aVnetwork
p2394
aVcontent
p2395
aVre
p2396
aVsmm
p2397
aVbranch
p2398
aVoscommerce
p2399
aVgot
p2400
aVfoundation
p2401
aVlinear
p2402
aVresume
p2403
aVfree
p2404
aVstandard
p2405
aVputty
p2406
aV45wpm
p2407
aVboosting
p2408
aVwanted
p2409
aVacrobat
p2410
aVcertified
p2411
aVcreated
p2412
aVsatisfication
p2413
aVdays
p2414
aVmvc
p2415
aVblogging
p2416
aVuser
p2417
aValready
p2418
aVfeatures
p2419
aVresearcher
p2420
aVcoding
p2421
aVrank
p2422
aVcustomization
p2423
aVelectronic
p2424
aVresearched
p2425
aVillustrate
p2426
aVtoy
p2427
aVguinness
p2428
aVtop
p2429
aVneeded
p2430
aVrates
p2431
aVtoo
p2432
aVupshot
p2433
aVenhancing
p2434
aVoverhead
p2435
aVserve
p2436
aVtook
p2437
aVcollaterals
p2438
aVpakistani
p2439
aVtarget
p2440
aVroles
p2441
aVzero
p2442
aVebay
p2443
aVpreparation
p2444
aVmatter
p2445
aVcoregraphics
p2446
aVperspective
p2447
aVrewrite
p2448
aVmodern
p2449
aVraj
p2450
aVmanner
p2451
aVseek
p2452
aVdozen
p2453
aVdbms
p2454
aVzoho
p2455
aVresponsible
p2456
aVeagerly
p2457
aVupholding
p2458
aVmaterials
p2459
aVcompleted
p2460
aVdavidson
p2461
aVcommitting
p2462
aVthough
p2463
aVobject
p2464
aVtranslator
p2465
aVchangeworkssystem
p2466
aVoptimized
p2467
aVinvolving
p2468
aVodesk
p2469
aVscripts
p2470
aVpromotions
p2471
aVassisting
p2472
aVdon
p2473
aVmedical
p2474
aVfineartprint
p2475
aVcrowd
p2476
aVconsumer
p2477
aVmeetings
p2478
aV1521986
p2479
aVsolutions
p2480
aVperconal
p2481
aVearth
p2482
aVsolusvm
p2483
aVnortheast
p2484
aVimplementation
p2485
aVsummarizing
p2486
aVmatters
p2487
aVpursuing
p2488
aVprofessionals
p2489
aVde
p2490
aVdb
p2491
aVscalable
p2492
aVpreferred
p2493
aVgeek
p2494
aVamazon
p2495
aVreport
p2496
aVtoolbox
p2497
aVdr
p2498
aVcomply
p2499
aVfields
p2500
aVarchitecture
p2501
aVanalytical
p2502
aVtrevis
p2503
aVfair
p2504
aVbranding
p2505
aVtesting
p2506
aVresult
p2507
aVtechniques
p2508
aVsaid
p2509
aVupgraded
p2510
aVnarrates
p2511
aVbookmarking
p2512
aVapproach
p2513
aVhandwritten
p2514
aVwe
p2515
aVterms
p2516
aVextend
p2517
aVhowever
p2518
aVhtml5
p2519
aVdedication
p2520
aVnews
p2521
aVmotto
p2522
aVpackages
p2523
aVimprove
p2524
aVreceived
p2525
aVgames
p2526
aVexceeds
p2527
aVchina
p2528
aVlogin
p2529
aVskill
p2530
aVhardworking
p2531
aVvexel
p2532
aVkohana
p2533
aVspeak
p2534
aVcustomisation
p2535
aVstrong
p2536
aVproceeded
p2537
aVengines
p2538
aVbasis
p2539
aVunion
p2540
aVfrm
p2541
aVquickly
p2542
aVconfident
p2543
aVmuch
p2544
aVdreamweaver
p2545
aVflexible
p2546
aVpro
p2547
aVlife
p2548
aVworker
p2549
aVcatering
p2550
aVcraft
p2551
aVpersonally
p2552
aVworked
p2553
aVspin
p2554
aVcommerce
p2555
aVwfl
p2556
aVsubmissions
p2557
aVprofessionally
p2558
aVaim
p2559
aVadwirl
p2560
aVemployees
p2561
aVnodejs
p2562
aVip
p2563
aVplayer
p2564
aVid
p2565
aVtrusted
p2566
aVhone
p2567
aVspecialization
p2568
aVperform
p2569
aVthings
p2570
aVmake
p2571
aVlinked
p2572
aVcraigslist
p2573
aVcomplex
p2574
aVseveral
p2575
aVevolve
p2576
aVsocial
p2577
aVqualifications
p2578
aVworkforce
p2579
aVhand
p2580
aVportal
p2581
aVbitkeeper
p2582
aVpotentials
p2583
aVopportunity
p2584
aVnit
p2585
aVcycle
p2586
aVpracticed
p2587
aVlucas
p2588
aVthy
p2589
aVprograms
p2590
aVuploading
p2591
aVezinearticles
p2592
aVcontact
p2593
aVgreatest
p2594
aVqualities
p2595
aVclaims
p2596
aVcorporate
p2597
aVyours
p2598
aVseasonal
p2599
aVetiquette
p2600
aVisourceph
p2601
aVjust
p2602
aVversed
p2603
aVphoto
p2604
aVgrades
p2605
aVthanks
p2606
aVhuman
p2607
aVyet
p2608
aVprevious
p2609
aVsuccessfactors
p2610
aVhad
p2611
aVadvancement
p2612
aVpotential
p2613
aVbrainstorming
p2614
aVeasy
p2615
aVhas
p2616
aVhat
p2617
aVpossible
p2618
aVbackground
p2619
aVclustered
p2620
aVunique
p2621
aV328
p2622
aVadvanced
p2623
aVdesire
p2624
aVgifs
p2625
aVperforming
p2626
aVmanual
p2627
aV50
p2628
aVbpo
p2629
aVspecific
p2630
aVmajored
p2631
aVdimention
p2632
aVsecurity
p2633
aVwww
p2634
aVright
p2635
aVhonored
p2636
aVcentos
p2637
aVpeople
p2638
aVsuccessfully
p2639
aVborn
p2640
aVdear
p2641
aVcarts
p2642
aVfox
p2643
aVcreative
p2644
aVeverything
p2645
aVtracker
p2646
aVbooking
p2647
aVcore
p2648
aVexprience
p2649
aVplz
p2650
aVauthkey
p2651
aVanimtor
p2652
aVgraduated
p2653
aVplm
p2654
aVmanufacturing
p2655
aVpostgresql
p2656
aVmonths
p2657
aVjoomla
p2658
aVplus
p2659
aVconsulting
p2660
aVfaint
p2661
aVcivic
p2662
aVsugarcrm
p2663
aVprofession
p2664
aVsergij
p2665
aVparsing
p2666
aVdown
p2667
aVlies
p2668
aVold
p2669
aVgit
p2670
aVfabric
p2671
aVwhy
p2672
aVeditor
p2673
aVway
p2674
aVmusic
p2675
aVwas
p2676
aVhead
p2677
aVmedium
p2678
aVamateur
p2679
aVoffer
p2680
aVbecoming
p2681
aVanalyse
p2682
aVlanding
p2683
aVencoder
p2684
aVfreelancer
p2685
aVtalents
p2686
aVresponding
p2687
aVsophienczuk
p2688
aVwebs
p2689
aVtell
p2690
aVzend
p2691
aVproven
p2692
aVdrive
p2693
aVexpertise
p2694
aVaccounting
p2695
aVmold
p2696
aVcheck
p2697
aVspecially
p2698
aVnl
p2699
aVno
p2700
aVnc
p2701
aVwhen
p2702
aVnx
p2703
aVinterested
p2704
aVrole
p2705
aVpapers
p2706
aVtest
p2707
aVjenkins
p2708
aVdevelopers
p2709
aVwelcome
p2710
aVnotepad
p2711
aVconcurrent
p2712
aVsql
p2713
aVhappening
p2714
aVphone
p2715
aVbanners
p2716
aVpaced
p2717
aVanimator
p2718
aVconcept
p2719
aVmanaged
p2720
aVremarkable
p2721
aVswitched
p2722
aVfocus
p2723
aVmanager
p2724
aVllc
p2725
aVror
p2726
aVvarnish
p2727
aVdepend
p2728
aVgraph
p2729
aVfreelance
p2730
aVflash
p2731
aVgigs
p2732
aVenvironment
p2733
aVpeachtree
p2734
aVfoursquare
p2735
aVjvm
p2736
aVtext
p2737
aVadvantage
p2738
aVunfamiliar
p2739
aVchoice
p2740
aV21dec2011
p2741
aVartwork
p2742
aVexact
p2743
aVimpressive
p2744
aVsolver
p2745
aVphilippines
p2746
aVwowza
p2747
aVstandards
p2748
aVleave
p2749
aVexcellence
p2750
aVteam
p2751
aVquick
p2752
aVsays
p2753
aVdealing
p2754
aVhtm
p2755
aVdiscover
p2756
aVprofessionalism
p2757
aVcost
p2758
aVpmb
p2759
aVcurrent
p2760
aVremembered
p2761
aVgoes
p2762
aVrelational
p2763
aVenthusiast
p2764
aVheavily
p2765
aVassertive
p2766
aVfrench
p2767
aVmarkkiessling
p2768
aVaddress
p2769
aVapache
p2770
aValong
p2771
aVchange
p2772
aVwait
p2773
aVbox
p2774
aVweb2
p2775
aVthirty
p2776
aVhealthy
p2777
aV6500
p2778
aVexams
p2779
aVtasks
p2780
aVlove
p2781
aVconfidentiality
p2782
aVapd62ohyvblhm0u
p2783
aVlogical
p2784
aVsincerely
p2785
aVxero
p2786
aV1st
p2787
aVforefront
p2788
aVshould
p2789
aVpost
p2790
aVmarket
p2791
aVhandled
p2792
aVprove
p2793
aVby
p2794
aVlive
p2795
aViphone
p2796
aVhttps
p2797
aVmemory
p2798
aVtoday
p2799
aVafford
p2800
aVorganized
p2801
aVacceptable
p2802
aVenvelope
p2803
aVdistribution
p2804
aVvisual
p2805
aVeverywhere
p2806
aVoop
p2807
aVcases
p2808
aVeffort
p2809
aVeasiest
p2810
aVorganizations
p2811
aVgraphic
p2812
aVdhtml
p2813
aVtitanium
p2814
aVpretend
p2815
aVreviews
p2816
aVvalues
p2817
aVhope
p2818
aVcam
p2819
aVgrowing
p2820
aVmaking
p2821
aVcae
p2822
aVcad
p2823
aVdedicated
p2824
aVnursing
p2825
aVnexus
p2826
aVnewsletters
p2827
aVagent
p2828
aVcritic
p2829
aVproductive
p2830
aVmonitoring
p2831
aVexceptional
p2832
aVmagazine
p2833
aVwrite
p2834
aVtill
p2835
aVxhtml
p2836
aVspeaks
p2837
aVeconomy
p2838
aVmap
p2839
aVproduct
p2840
aV140
p2841
aVinformation
p2842
aVmay
p2843
aVmax
p2844
aVbrazen
p2845
aVapplications
p2846
aVmac
p2847
aVproduce
p2848
aVdesigned
p2849
aVimproving
p2850
aVsuch
p2851
aVsuck
p2852
aVgrow
p2853
aVman
p2854
aVsucceeded
p2855
aVconscious
p2856
aVcorona
p2857
aVfluent
p2858
aVrather
p2859
aVso
p2860
aVrepresentation
p2861
aVse
p2862
aVssh
p2863
aVspreadsheets
p2864
aVhiring
p2865
aVcold
p2866
aVmachine
p2867
aVgroup
p2868
aVthank
p2869
aVrossica
p2870
aVencompasses
p2871
aVforms
p2872
aVplatform
p2873
aVlisting
p2874
aVmail
p2875
aVmain
p2876
aVviews
p2877
aVscaling
p2878
aVrecords
p2879
aVqualified
p2880
aVcourse
p2881
aV1950
p2882
aVhalf
p2883
aVispconfig
p2884
aVmaintaining
p2885
aVpossess
p2886
aVexecute
p2887
aVname
p2888
aVadmob
p2889
aVoffshore
p2890
aVshowcasing
p2891
aVtopsolid
p2892
aVdomain
p2893
aVsquare
p2894
aVmysql5
p2895
aVchallenges
p2896
aVyear
p2897
aVteams
p2898
aVcanada
p2899
aVliving
p2900
aVcanvas
p2901
aVaccomplish
p2902
aV3rd
p2903
aVmultiplayer
p2904
aVincrease
p2905
aVinternet
p2906
aVassurance
p2907
aVsuperiors
p2908
aVcart
p2909
aVquite
p2910
aVajax
p2911
aVmimi
p2912
aVorg
p2913
aVcare
p2914
aVlanguage
p2915
aVselections
p2916
aVlistings
p2917
aVprogramming
p2918
aVhonest
p2919
aVmotion
p2920
aVthing
p2921
aVyum
p2922
aVpromotion
p2923
aVthink
p2924
aVprograming
p2925
aVfirst
p2926
aVenhances
p2927
aVclause
p2928
aVone
p2929
aVfast
p2930
aVdirectly
p2931
aVcarry
p2932
aVopen
p2933
aVgeorge
p2934
aVengineer
p2935
aVsurveys
p2936
aVnecessarily
p2937
aViad
p2938
aVyii
p2939
aVrenderings
p2940
aVreturns
p2941
aVtyping
p2942
aVwhite
p2943
aVspeaking
p2944
aVmining
p2945
aVreleases
p2946
aVcontinuous
p2947
aVcerebro
p2948
aVspecialists
p2949
aVcopy
p2950
aVintrinsically
p2951
aVwide
p2952
aV12
p2953
aV15
p2954
aV18
p2955
aVrequire
p2956
aVtypography
p2957
aVventure
p2958
aVcards
p2959
aVpre
p2960
aVregister
p2961
aVtopics
p2962
aVlocations
p2963
aVant
p2964
aVsay
p2965
aVworksheets
p2966
aVsap
p2967
aVany
p2968
aVcassandra
p2969
aVconversion
p2970
aVefficient
p2971
aVtranscription
p2972
aVediting
p2973
aVanswering
p2974
aVideas
p2975
aVnote
p2976
aVacumen
p2977
aVanimation
p2978
aVtranscribed
p2979
aVtake
p2980
aVonline
p2981
aVcreatively
p2982
aVperformance
p2983
aVstrengths
p2984
aVhanding
p2985
aVsure
p2986
aVmultiple
p2987
aVukrainian
p2988
aVtrack
p2989
aVprice
p2990
aVvisitors
p2991
aVprinted
p2992
aVremarks
p2993
aVpages
p2994
aVproud
p2995
aVsale
p2996
aVsenior
p2997
aVshop
p2998
aVnextag
p2999
aVoutsourcing
p3000
aVinjection
p3001
aVground
p3002
aVxml
p3003
aVratio
p3004
aVbehind
p3005
aVonly
p3006
aVgoing
p3007
aVblack
p3008
aVequipped
p3009
aVget
p3010
aVassistant
p3011
aVtrustworty
p3012
aVoverdeliver
p3013
aVemployers
p3014
aVnearly
p3015
aVhonours
p3016
aVsecondary
p3017
aVresource
p3018
aVintuitive
p3019
aVartist
p3020
aVrounder
p3021
aVsummary
p3022
aVadvertisor
p3023
aVsource
p3024
aVwhere
p3025
aVkeyboard
p3026
aVcollege
p3027
aVpebble
p3028
aVenhacement
p3029
aVsatisfying
p3030
aVmorocco
p3031
aVmanaging
p3032
aVrajeev
p3033
aVsites
p3034
aVcuello022206
p3035
aVwojczyszyn
p3036
aVoutside
p3037
aVbetween
p3038
aVinfrastructure
p3039
aVflow
p3040
aVjs
p3041
aVjd
p3042
aVarticle
p3043
aVcome
p3044
aVassess
p3045
aVconcentrated
p3046
aVfliers
p3047
aVmany
p3048
aVsolidworks
p3049
aVenabling
p3050
aVcolumnist
p3051
aVworkplace
p3052
aVcomes
p3053
aVsymfony
p3054
aVamong
p3055
aV60
p3056
aVcoredata
p3057
aVlearning
p3058
aVmoreover
p3059
aVendeavor
p3060
aVconsidering
p3061
aVarts
p3062
aVtuning
p3063
aVcapable
p3064
aVmark
p3065
aVdelcam
p3066
aVglassfish
p3067
aVdependable
p3068
aVtheam
p3069
aV500
p3070
aVengine
p3071
aVenable
p3072
aVshopping
p3073
aVoffered
p3074
aVcreo
p3075
aVcovers
p3076
aVebusiness
p3077
aVattentive
p3078
aVruby
p3079
aVformer
p3080
aVprotocols
p3081
aVsound
p3082
aVmyself
p3083
aVdeveloping
p3084
aVthese
p3085
aVadmin
p3086
aVpromising
p3087
aVnewspaper
p3088
aVsituation
p3089
aVcoolest
p3090
aVtelephone
p3091
aVconverts
p3092
aVsomebody
p3093
aVtechnology
p3094
aVdifferent
p3095
aVdevelop
p3096
aVetc
p3097
aVpay
p3098
aVsame
p3099
aVauthentication
p3100
aVgeodatix
p3101
aVlite
p3102
aVdocument
p3103
aVweek
p3104
aVassist
p3105
aVdriven
p3106
aVwpm
p3107
aVchanging
p3108
aVcck
p3109
aVmodel
p3110
aVdimension
p3111
aVresearchers
p3112
aVedwards
p3113
aVnosql
p3114
aVpakistan
p3115
aVbeing
p3116
aVknowledgeable
p3117
aVvaluable
p3118
aVreputable
p3119
aVgreetings
p3120
aV6days
p3121
aVsummed
p3122
aVtouch
p3123
aVspeed
p3124
aVweekly
p3125
aVautocad
p3126
aVthinking
p3127
aVdesktop
p3128
aVblog
p3129
aVcomplements
p3130
aVextensive
p3131
aVreal
p3132
aVaspects
p3133
aVaround
p3134
aVdelhi
p3135
aVpsd
p3136
aVbreedlove
p3137
aVtraffic
p3138
aVmom
p3139
aVworld
p3140
aVweb2py
p3141
aVdisappointed
p3142
aVmod
p3143
aVsatisfaction
p3144
aVfortune
p3145
aVidentifying
p3146
aVserver
p3147
aVbenefit
p3148
aVeither
p3149
aVoutput
p3150
aVpassionate
p3151
aVsatisfactory
p3152
aVverbal
p3153
aVcompetition
p3154
aVspecified
p3155
aVimages
p3156
aVorganizing
p3157
aVprovided
p3158
aVhighest
p3159
aVredis
p3160
aVredir
p3161
aVlegal
p3162
aVpioneer
p3163
aVcritical
p3164
aVprovider
p3165
aVdirector
p3166
aVspecializing
p3167
aVkvm
p3168
aVscientific
p3169
aVpower
p3170
aVconvincing
p3171
aVliveshare
p3172
aVflyers
p3173
aVknowleadge
p3174
aVcentral
p3175
aVindustry
p3176
aVhiatus
p3177
aVhardcopies
p3178
aVstand
p3179
aVbackup
p3180
aVprocessor
p3181
aVpsh2html
p3182
aVcommunication
p3183
aVimage
p3184
aVskilled
p3185
aVreferences
p3186
aVfinancial
p3187
aVtechnically
p3188
aVbuds
p3189
aVprepare
p3190
aVarea
p3191
aVremoving
p3192
aVthere
p3193
aVdeadlines
p3194
aVbangladeshi
p3195
aVstrict
p3196
aVlow
p3197
aVlot
p3198
aVshoutcast
p3199
aVapis
p3200
aVtechnologies
p3201
aVtrying
p3202
aVhire
p3203
aVcacti
p3204
aVillustrator
p3205
aVdetailed
p3206
aVad
p3207
aVvideos
p3208
aVtaste
p3209
aVdescribe
p3210
aVsales
p3211
aVdeep
p3212
aVnagios
p3213
aVreliability
p3214
aVfile
p3215
aVlogo
p3216
aVquickbooks
p3217
aVagain
p3218
aV1562408
p3219
aVpersonnel
p3220
aVinsurance
p3221
aVproductively
p3222
aVfield
p3223
aV28078
p3224
aVmathematics
p3225
aV10
p3226
aVoneself
p3227
aVobsessed
p3228
aVtranslated
p3229
aVpear
p3230
aVincludes
p3231
aVimportant
p3232
aVnapier
p3233
aVsuited
p3234
aVmechanical
p3235
aVbuilding
p3236
aVremote
p3237
aVcalls
p3238
aVcpa
p3239
aVtricks
p3240
aVwebsites
p3241
aVhello
p3242
aVdirectory
p3243
aVoral
p3244
aVoriginal
p3245
aVmigrated
p3246
aValm
p3247
aVb43b054378357819
p3248
aVfounder
p3249
aVmonth
p3250
aVpostponing
p3251
aVdeadline
p3252
aVfollow
p3253
aVdecisions
p3254
aVsmo
p3255
aVhunting
p3256
aVicons
p3257
aVtv
p3258
aVopportunities
p3259
aVprogram
p3260
aVopensource
p3261
aVpresentation
p3262
aVfax
p3263
aVreturned
p3264
aVreturning
p3265
aVminded
p3266
aVdifference
p3267
aVcondition
p3268
aVlist
p3269
aVapplicable
p3270
aVlarge
p3271
aVscrapping
p3272
aVsmall
p3273
aVten
p3274
aVpast
p3275
aVrate
p3276
aVenhancement
p3277
aVfurther
p3278
aVfunctioning
p3279
aVwhat
p3280
aVpinterest
p3281
aVsun
p3282
aVsection
p3283
aVassociate
p3284
aVlearner
p3285
aVversion
p3286
aVlearned
p3287
aVmemcached
p3288
aVpublic
p3289
aV5002
p3290
aVfull
p3291
aVtags
p3292
aV21st
p3293
aVhours
p3294
aVoperating
p3295
aVdirections
p3296
aVmanagerial
p3297
aVobserving
p3298
aVhass
p3299
aVsearch
p3300
aVahead
p3301
aVinspired
p3302
aVcompliance
p3303
aVprior
p3304
aVadvertising
p3305
aVpublished
p3306
aVaction
p3307
aVformation
p3308
aVvia
p3309
aVfamily
p3310
aVtoyo
p3311
aVput
p3312
aVanalyzing
p3313
aVtrained
p3314
aVestablish
p3315
aVselect
p3316
aVintensive
p3317
aVeye
p3318
aVobjectives
p3319
aVtarpaulin
p3320
aVtwo
p3321
aVsaasu
p3322
aVmarkets
p3323
aVachieving
p3324
aVdiamond
p3325
aVdoor
p3326
aVopenvz
p3327
aVcompany
p3328
aVparticular
p3329
aVproducing
p3330
aVwebmaster
p3331
aVkeeping
p3332
aVsalesforce
p3333
aVscience
p3334
aVequation
p3335
aVspecializes
p3336
aVfronted
p3337
aVlearn
p3338
aVstrategies
p3339
aVchallenging
p3340
aVstated
p3341
aVshare
p3342
aVvirtuemart
p3343
aVminimum
p3344
aVmagento
p3345
aVaxis
p3346
aVhuge
p3347
aVneeds
p3348
aVcapistrano
p3349
aVutilize
p3350
aVmaps
p3351
aVjustin
p3352
aVtibay
p3353
aVreflect
p3354
aVcatalog
p3355
aVdisable
p3356
aVlighting
p3357
aVcairngorm
p3358
aVresponse
p3359
aVshort
p3360
aVpostfix
p3361
aVmeticulous
p3362
aVdocumentation
p3363
aVbugs
p3364
aVdjango
p3365
aVresponsibility
p3366
aVmedia
p3367
aVcs5
p3368
aVdream
p3369
aVplaying
p3370
aVcs3
p3371
aVreplied
p3372
aVphotoshop
p3373
aVhelp
p3374
aVdeveloped
p3375
aVmission
p3376
aVlicensure
p3377
aVattitude
p3378
aVpaper
p3379
aVthrough
p3380
aVcommitted
p3381
aVits
p3382
aVdeveloper
p3383
aV25
p3384
aVstyle
p3385
aV20
p3386
aV22
p3387
aV23
p3388
aVsolving
p3389
aV29
p3390
aVparts
p3391
aVsystems
p3392
aVbox2d
p3393
aVmotivated
p3394
aVseeking
p3395
aVtranscribing
p3396
aVscheglov
p3397
aVframework
p3398
aVfoot
p3399
aVformulating
p3400
aVyr
p3401
aVbigger
p3402
aVinstructions
p3403
aVeasily
p3404
aVlevel
p3405
aV2d
p3406
aVuploads
p3407
aVgnucash
p3408
aVeveryone
p3409
aVgeneration
p3410
aVhard
p3411
aVnumeric
p3412
aVclockwork
p3413
aVexpect
p3414
aVoperation
p3415
aVscribe
p3416
aVevent
p3417
aVreally
p3418
aVftp
p3419
aVcatia
p3420
aVconceptualizing
p3421
aVsencha
p3422
aVsince
p3423
aVhealth
p3424
aVprint
p3425
aVoffline
p3426
aVasp
p3427
aVupon
p3428
aVreason
p3429
aVbase
p3430
aVmembers
p3431
aVcss
p3432
aVask
p3433
aVteach
p3434
aVash
p3435
aVrevolutionary
p3436
aVcheers
p3437
aVdrupal
p3438
aVdashcommerce
p3439
aVneeding
p3440
aVamerican
p3441
aVexpecting
p3442
aVthrows
p3443
aVmajor
p3444
aVv6
p3445
aVencoding
p3446
aVfeel
p3447
aVnumber
p3448
aVzurb
p3449
aVdone
p3450
aVdefects
p3451
aVmiss
p3452
aVecommerce
p3453
aVleast
p3454
aVweblogic
p3455
aVpassed
p3456
aV1077457
p3457
aVstore
p3458
aVgps
p3459
aVrelationship
p3460
aVpart
p3461
aVtranslation
p3462
aVbelieve
p3463
aVonetieva
p3464
aVjquery
p3465
aVkind
p3466
aVkindly
p3467
aValphanumeric
p3468
aVglusterfs
p3469
aVaims
p3470
aVrecording
p3471
aVveportal
p3472
aVmaintainability
p3473
aVhurco
p3474
aVinteractive
p3475
aVmotivation
p3476
aVoutstanding
p3477
aVchipmunk
p3478
aVmootools
p3479
aVw4m
p3480
aVself
p3481
aVclient
p3482
aVdianwei
p3483
aVbuild
p3484
aVplay
p3485
aVcompetencies
p3486
aVcomponents
p3487
aVenglish
p3488
aVchart
p3489
aVmost
p3490
aVexperiences
p3491
aVplan
p3492
aVservices
p3493
aVextremely
p3494
aVachievement
p3495
aVwindows
p3496
aVpopularity
p3497
aVtieva
p3498
aVgiving
p3499
aVartistic
p3500
aVclean
p3501
aVnotch
p3502
aVphysics
p3503
aVmicrosoft
p3504
aVjoining
p3505
aVperseverance
p3506
aVrelation
p3507
aVheadlines
p3508
aVfind
p3509
aVmorisiki
p3510
aVaccess
p3511
aVdepended
p3512
aVwriter
p3513
aVdistributed
p3514
aVfailed
p3515
aVpretty
p3516
aVmoney
p3517
aVdarwin
p3518
aVaccurate
p3519
aVhis
p3520
aVprowess
p3521
aVexpress
p3522
aVfastest
p3523
aVinternational
p3524
aVduring
p3525
aVbanner
p3526
aVhim
p3527
aVexhibiting
p3528
aVkeyword
p3529
aVsleeve
p3530
aVrfx
p3531
aVweaver
p3532
aVcrm
p3533
aVset
p3534
aVart
p3535
aVcocos2d
p3536
aVcreator
p3537
aV317
p3538
aVsee
p3539
aVindividual
p3540
aVsem
p3541
aVbudypress
p3542
aVproject
p3543
aVthreats
p3544
aVexpert
p3545
aVmovie
p3546
aVcurrently
p3547
aVkeepalived
p3548
aVcoffee
p3549
aVrepresentatives
p3550
aVvarious
p3551
aVeurope
p3552
aVprofiling
p3553
aVrecently
p3554
aVcreating
p3555
aVjavascript
p3556
aVpolishing
p3557
aVrapid
p3558
aVmentoring
p3559
aVscriptlance
p3560
aVfluently
p3561
aVvasilisbankov
p3562
aVleague
p3563
aVannual
p3564
aVexplore
p3565
aVhsphere
p3566
aVpdm
p3567
aVbecame
p3568
aVhesitand
p3569
aVpdf
p3570
aVlancing
p3571
aVload
p3572
aVpoint
p3573
aVsimple
p3574
aVcomposting
p3575
aVwhatever
p3576
aVdimensional
p3577
aVheader
p3578
aVsimply
p3579
aVlikes
p3580
aVlinux
p3581
aVthroughout
p3582
aVexpensive
p3583
aVpr
p3584
aVjava
p3585
aVpublishing
p3586
aVcreate
p3587
aVcreativity
p3588
aVdue
p3589
aVstrategy
p3590
aVpc
p3591
aVmaintenance
p3592
aVmeeting
p3593
aVfirm
p3594
aVflight
p3595
aVfreelancing
p3596
aVmind
p3597
aVproprietary
p3598
aVprecision
p3599
aVdetermination
p3600
aVrepresentative
p3601
aVinstructor
p3602
aVresid
p3603
aVhonestly
p3604
aVhandling
p3605
aVlook
p3606
aVsolid
p3607
aVreliable
p3608
aVbudget
p3609
aVreceive
p3610
aVwhile
p3611
aVoptimization
p3612
aVkick
p3613
aVbehavior
p3614
aVfun
p3615
aVanimated
p3616
aVstudied
p3617
aVcentury
p3618
aVitself
p3619
aVskype
p3620
aVready
p3621
aVria
p3622
aVclerical
p3623
aVshirt
p3624
aVmint
p3625
aVmailing
p3626
aVorders
p3627
aVorientated
p3628
aVcopying
p3629
aVpeoples
p3630
aVcomposition
p3631
aVused
p3632
aVinterpersonal
p3633
aVflurry
p3634
aV000
p3635
aVpurpose
p3636
aVstack
p3637
aVlower
p3638
aVtask
p3639
aVdatabase
p3640
aVpersuasive
p3641
aVspent
p3642
aVanalysis
p3643
aVnoisymusic
p3644
aVperson
p3645
aVsavvy
p3646
aVparametric
p3647
aVwhmcs
p3648
aVabilities
p3649
aVendeavour
p3650
aVlistening
p3651
aVphotoworks
p3652
aVcompetitive
p3653
aVopenstack
p3654
aVgems
p3655
aVadvertisements
p3656
aVcontractor
p3657
aVeager
p3658
aVdixon
p3659
aVinput
p3660
aVcum
p3661
aVadministrative
p3662
aVcustomers
p3663
aVdemands
p3664
aVbig
p3665
aVunlimited
p3666
aVnginx
p3667
aVgame
p3668
aVfalcon
p3669
aVbit
p3670
aVprojects
p3671
aVoutright
p3672
aVsorting
p3673
aVsubmission
p3674
aVconfront
p3675
aVfacets
p3676
aVcontinue
p3677
aVpopular
p3678
aVgoogle
p3679
aVoften
p3680
aVspring
p3681
aVcreation
p3682
aVsome
p3683
aVback
p3684
aVstreaming
p3685
aVtrends
p3686
aVtowards
p3687
aVdepartmental
p3688
aVshall
p3689
aVintegration
p3690
aVper
p3691
aVscalr
p3692
aVprod
p3693
aVminimal
p3694
aVinclination
p3695
aV300
p3696
aVopencart
p3697
aVprocessing
p3698
aVrus
p3699
aVwsdl
p3700
aVreadability
p3701
aVhamra
p3702
aVtensionmanagementinstitute
p3703
aVanything
p3704
aVgraduation
p3705
aVsimulation
p3706
aVrange
p3707
aVjsp
p3708
aVinto
p3709
aVwithin
p3710
aVnonsense
p3711
aVservers
p3712
aVperl
p3713
aVstatistics
p3714
aVinnate
p3715
aVspecifically
p3716
aVcustom
p3717
aVheritage
p3718
aVforward
p3719
aVcarnaudmetalbox
p3720
aVsolanghansen
p3721
aVposter
p3722
aVspecialty
p3723
aV987
p3724
aVlink
p3725
aVpytalhost
p3726
aVrussian
p3727
aVline
p3728
aVdirected
p3729
aVconsist
p3730
aVmunin
p3731
aVup
p3732
aVus
p3733
aVmobile
p3734
aVthose
p3735
aVceridian
p3736
aVindividuality
p3737
aVvekperevoda
p3738
aVwilled
p3739
aVbeckoning
p3740
aVdoesn
p3741
aVassociates
p3742
aVchat
p3743
aVorganizational
p3744
aVhuron
p3745
aVmssql
p3746
aVstreamlining
p3747
aVpeace
p3748
aVgooglemap
p3749
aVrewriting
p3750
aVapplication
p3751
aVincome
p3752
aVdepartment
p3753
aVnice
p3754
aVusers
p3755
aVfavourite
p3756
aVmongodb
p3757
aVproblems
p3758
aVrestoration
p3759
aVposters
p3760
aVsvn
p3761
aVhappier
p3762
aVsvg
p3763
aVrequired
p3764
aVmonit
p3765
aV2003
p3766
aVdepth
p3767
aV2006
p3768
aVpresenting
p3769
aV2005
p3770
aVoracle
p3771
aV2008
p3772
aV2009
p3773
aVhaving
p3774
aVcode
p3775
aVbroaden
p3776
aVresults
p3777
aVexisting
p3778
aVvsftp
p3779
aVgo
p3780
aVsend
p3781
aVsuits
p3782
aVliterary
p3783
aVhelps
p3784
aVsuite
p3785
aVinclude
p3786
aVfriendly
p3787
aVresources
p3788
aVuploaded
p3789
aVlogos
p3790
aVlisted
p3791
aVmastering
p3792
aVfacebook
p3793
aVstackoverflow
p3794
aVmixing
p3795
aVcategories
p3796
aVtimely
p3797
aVmercurial
p3798
aVtry
p3799
aVassignments
p3800
aVsearchability
p3801
aVbusinesses
p3802
aVhardening
p3803
aVrecruitment
p3804
aVlayouts
p3805
aVvideo
p3806
aVdynamics
p3807
aVclick
p3808
aVvmware
p3809
aVuniversities
p3810
aVhourly
p3811
aVchicago
p3812
aVphonegap
p3813
aVassisted
p3814
aVmultimedia
p3815
aVnetworks
p3816
aVjboss
p3817
aVconsistently
p3818
aVturnaround
p3819
aVtapjoy
p3820
aVmarketer
p3821
aVexercise
p3822
aV3d
p3823
aVdegree
p3824
aVdelivering
p3825
aVbachelor
p3826
aVbusy
p3827
aVlet
p3828
aVothers
p3829
aVmaven
p3830
aVgreat
p3831
aVengage
p3832
aVtalent
p3833
aVtechnical
p3834
aVinvolved
p3835
aV30
p3836
aVkiessling
p3837
aVproducts
p3838
aVmakes
p3839
aVhonor
p3840
aVinvolves
p3841
aVapp
p3842
aVmanage
p3843
aVportals
p3844
aVunderpromise
p3845
aVapi
p3846
aVapply
p3847
aVtools
p3848
aVcloud
p3849
aVconfidence
p3850
aVusa
p3851
aVguideline
p3852
aVfew
p3853
aVdoubt
p3854
aVthemselves
p3855
aVgained
p3856
aVjournalists
p3857
aVstarted
p3858
aVarranging
p3859
aVstarter
p3860
aVsubscription
p3861
aVaccount
p3862
aVpracticing
p3863
aVphing
p3864
aVlanguages
p3865
aVthis
p3866
aVchallenge
p3867
aVmeet
p3868
aVcontrol
p3869
aVsqlite
p3870
aVperfecting
p3871
aVreserved
p3872
aVprocess
p3873
aVtax
p3874
aVhigh
p3875
aVsomething
p3876
aVtab
p3877
aVeducational
p3878
aVpoetry
p3879
aVarrangement
p3880
aVlamp
p3881
aVrevision
p3882
aVprofile
p3883
aVadministrator
p3884
aVwatch
p3885
aVfits
p3886
aVcommunicator
p3887
aVmarrow
p3888
aVefficiently
p3889
aVzenoss
p3890
aVzbrush
p3891
aVtexturing
p3892
aVelement
p3893
aVencyclopedia
p3894
aVallow
p3895
aVtenure
p3896
aVlooking
p3897
aVpreparing
p3898
aVresearching
p3899
aVincluding
p3900
aVconverting
p3901
aVhbase
p3902
aVchosen
p3903
aVll
p3904
aVemails
p3905
aVwilling
p3906
aVfirmly
p3907
aVchoose
p3908
aVhobby
p3909
aV2011
p3910
aV2012
p3911
aVflex
p3912
aVdesigns
p3913
aVcrash
p3914
aVpython
p3915
aVpractice
p3916
aVindexing
p3917
aVskydrive
p3918
aVeffectatious
p3919
aVhands
p3920
aVcakephp
p3921
aVday
p3922
aVstrive
p3923
aVarticles
p3924
aVmasters
p3925
aVkronos
p3926
aVedit
p3927
aVuniversity
p3928
aV3ds
p3929
aVaccounts
p3930
aVluster
p3931
aVexperienced
p3932
aV709
p3933
aVdoing
p3934
aVrelated
p3935
aVsociety
p3936
aVmeta
p3937
aVstatic
p3938
aVcpanel
p3939
aVmxml
p3940
aVour
p3941
aVprogrammer
p3942
aVspecial
p3943
aVout
p3944
aVproofreader
p3945
aVchaos
p3946
aVricky
p3947
aVmate
p3948
aVimpart
p3949
aVred
p3950
aVproficient
p3951
aVipod
p3952
aVloyola
p3953
aVrelease
p3954
aVcompletely
p3955
aVsurely
p3956
aVorganic
p3957
aVcould
p3958
aVopengl
p3959
aVtimes
p3960
aVkeen
p3961
aVpasting
p3962
aVstimulate
p3963
aVplastics
p3964
aVindesign
p3965
aVblogger
p3966
aVpowerful
p3967
aVstrategic
p3968
aVpuppet
p3969
aVowner
p3970
aVlong
p3971
aVstart
p3972
aVsystem
p3973
aVpriority
p3974
aVtheir
p3975
aVmechnisam
p3976
aVperfectly
p3977
aVfinal
p3978
aVaodrgsiggnrjrzs
p3979
aVexplanation
p3980
aVrsa
p3981
aVregards
p3982
aVmanipulation
p3983
aVhaven
p3984
aVupdating
p3985
aVrss
p3986
aVipad
p3987
aVbother
p3988
aVsubmitted
p3989
aVdmu50
p3990
aVproviding
p3991
aVcollecting
p3992
aVvericut
p3993
aVneed
p3994
aVclearly
p3995
aVcompetency
p3996
aVdocuments
p3997
aVstudying
p3998
aVable
p3999
aVstegloff
p4000
aVconcerns
p4001
aVwhich
p4002
aVlinda
p4003
aVsingh
p4004
aVsubject
p4005
aVsoap
p4006
aVaccuracy
p4007
aVworldwide
p4008
aVunless
p4009
aVcentre
p4010
aVwho
p4011
aVaws
p4012
aVdelve
p4013
aVsegment
p4014
aVclass
p4015
aVvolume
p4016
aVquotations
p4017
aVurl
p4018
aVarchiving
p4019
aVdatabases
p4020
aVgoals
p4021
aVselection
p4022
aVdba
p4023
aVplease
p4024
aVretouching
p4025
aVplanning
p4026
aVmanchester
p4027
aVportfolio
p4028
aVdebate
p4029
aVha
p4030
aVbased
p4031
aVearned
p4032
aVcache
p4033
aVemployer
p4034
aVemployee
p4035
aVlocal
p4036
aVachieve
p4037
aVmeans
p4038
aVwords
p4039
aVdb2
p4040
aVprocedures
p4041
aVareas
p4042
aVnetsuite
p4043
aVcalling
p4044
aVqc
p4045
aVstuff
p4046
aVqueries
p4047
aVgrab
p4048
aVpayments
p4049
aVconversions
p4050
aVavailable
p4051
aVrightscale
p4052
aVacquired
p4053
aVtravis
p4054
aVcomputer
p4055
aVwritten
p4056
aVcopywriting
p4057
aVprogress
p4058
aVemail
p4059
aVattention
p4060
aVability
p4061
aVopening
p4062
aVimportance
p4063
aVdeliver
p4064
aVimplementing
p4065
aVjob
p4066
aVkey
p4067
aVconfiguration
p4068
aVswift
p4069
aVker
p4070
aVdiligent
p4071
aVcareer
p4072
aVtaking
p4073
aVpresentations
p4074
aVassure
p4075
aVmodeling
p4076
aVjson
p4077
aVseasoned
p4078
aVpoet
p4079
aVutilizing
p4080
aVwaste
p4081
aVmike
p4082
aVboth
p4083
aVsufficient
p4084
aVal
p4085
aVgraphics
p4086
aVgeneral
p4087
aVpresent
p4088
aVhmc
p4089
aVmulti
p4090
aVvalue
p4091
aVframeworks
p4092
aVstunning
p4093
aVscanned
p4094
aV2007
p4095
aVve
p4096
aValmost
p4097
aVsite
p4098
aVlinkedin
p4099
aVhelped
p4100
aVarabic
p4101
aVregression
p4102
aVbegan
p4103
aVadministration
p4104
aVmember
p4105
aVunity
p4106
aVimproves
p4107
aVparty
p4108
aVandroid
p4109
aVresiding
p4110
aVhttp
p4111
aVreporting
p4112
aVios
p4113
aVautomation
p4114
aVproficiency
p4115
aVv5
p4116
aVstudent
p4117
aVuni
p4118
aVtransaction
p4119
aVoff
p4120
aVcenter
p4121
aVthought
p4122
aVpatterns
p4123
aVcommand
p4124
aVoops
p4125
aVsets
p4126
aVposition
p4127
aVaudio
p4128
aVdrawing
p4129
aVlatest
p4130
aVrestore
p4131
aVless
p4132
aVxen
p4133
aVexecutive
p4134
aVobtain
p4135
aVdose
p4136
aVsourcer
p4137
aVprotecting
p4138
aVpaul
p4139
aVgraduate
p4140
aVnow
p4141
aVads
p4142
aVadp
p4143
aVcomunications
p4144
aVjeff
p4145
aVcapabilities
p4146
aVnor
p4147
aVusage
p4148
aV280
p4149
aVsuit
p4150
aVsmart
p4151
aVcss3
p4152
aVcss2
p4153
aVcaptivating
p4154
aVample
p4155
aVmolding
p4156
aVmillturn
p4157
aVterm
p4158
aVfive
p4159
aVknow
p4160
aVdeployment
p4161
aVpress
p4162
aVloader
p4163
aVprominent
p4164
aVnecessary
p4165
aVhelpful
p4166
aVsuccess
p4167
aVefficiency
p4168
aVdictionaries
p4169
aVcandy
p4170
aVjournalist
p4171
aVbecome
p4172
aVworks
p4173
aVpage
p4174
aVexceed
p4175
aVbecause
p4176
aVactuarial
p4177
aVtwitter
p4178
aVsearching
p4179
aVplatforms
p4180
aVgrowth
p4181
aV110
p4182
aVconvey
p4183
aVproper
p4184
aVhome
p4185
aVprojection
p4186
aVlead
p4187
aVpassion
p4188
aVcapability
p4189
aVleader
p4190
aVschedule
p4191
aVstellar
p4192
aVpressure
p4193
aValthough
p4194
aVtestflight
p4195
aVshopify
p4196
aVhaproxy
p4197
aVabout
p4198
aVcodeigniter
p4199
aVgetting
p4200
aVcolumn
p4201
aValtb6kgfpg9btvc
p4202
aVpowerpoint
p4203
aVsoftware
p4204
aVown
p4205
aVpolished
p4206
aVcauselle
p4207
aVh2
p4208
aVh1
p4209
aVfunctional
p4210
aVarticulate
p4211
aVcocoa
p4212
aVvirtualbox
p4213
aV1987
p4214
aVnetworking
p4215
aVadditional
p4216
aVtransfer
p4217
aVapps
p4218
aVawarded
p4219
aV704
p4220
aVaccountant
p4221
aVliceanse
p4222
aVblackprojectstudios
p4223
aVbiggest
p4224
aVyrs
p4225
aVelastix
p4226
aVnaturally
p4227
aVinterest
p4228
aVpeechtree
p4229
aVhr
p4230
aVbrand
p4231
aVdelivery
p4232
aVhi
p4233
aVgain
p4234
aVoverflow
p4235
aVsqueeze
p4236
aVbug
p4237
aVversatile
p4238
aVcount
p4239
aVmade
p4240
aVdmg
p4241
aVsmooth
p4242
aVcurrentaly
p4243
aVrecord
p4244
aVbelow
p4245
aVbooks
p4246
aVlimit
p4247
aVproblem
p4248
aVpiece
p4249
aVpim
p4250
aVrecognize
p4251
aVbrochures
p4252
aVcontribute
p4253
aVmyi
p4254
aVeducation
p4255
aVmyd
p4256
aVinc
p4257
aVfunctions
p4258
aVcontest
p4259
aVdetail
p4260
aVvirtual
p4261
aVpeoplesoft
p4262
aVbook
p4263
aVdetails
p4264
aVboon
p4265
aVphp5
p4266
aVasterisk
p4267
aVlearnings
p4268
aVrepeat
p4269
aVchance
p4270
aVadditionally
p4271
aVmultinationals
p4272
aVextjs
p4273
aVlaude
p4274
aVexposure
p4275
aVfocused
p4276
aVsphinx
p4277
aVblogs
p4278
aVcompete
p4279
aVquestionnaires
p4280
aVunderstand
p4281
atRp4282
sg1563
I00
sg1552
I01
sg1553
Nsg1555
Nsg1932
(dp4283
Vskills
p4284
g17
(g1935
S'A\x00\x00\x00\x00\x00\x00\x00'
tRp4285
sVcompanies
p4286
g17
(g1935
S'\x11\x00\x00\x00\x00\x00\x00\x00'
tRp4287
sVnew
p4288
g17
(g1935
S'1\x00\x00\x00\x00\x00\x00\x00'
tRp4289
sVwould
p4290
g17
(g1935
S'T\x00\x00\x00\x00\x00\x00\x00'
tRp4291
sVme
p4292
g17
(g1935
S'-\x00\x00\x00\x00\x00\x00\x00'
tRp4293
sVword
p4294
g17
(g1935
S'P\x00\x00\x00\x00\x00\x00\x00'
tRp4295
sVwork
p4296
g17
(g1935
S'R\x00\x00\x00\x00\x00\x00\x00'
tRp4297
sVprovide
p4298
g17
(g1935
S'<\x00\x00\x00\x00\x00\x00\x00'
tRp4299
sVover
p4300
g17
(g1935
S'9\x00\x00\x00\x00\x00\x00\x00'
tRp4301
sVwriting
p4302
g17
(g1935
S'U\x00\x00\x00\x00\x00\x00\x00'
tRp4303
sVservice
p4304
g17
(g1935
S'@\x00\x00\x00\x00\x00\x00\x00'
tRp4305
sVoriented
p4306
g17
(g1935
S'7\x00\x00\x00\x00\x00\x00\x00'
tRp4307
sVdo
p4308
g17
(g1935
S'\x18\x00\x00\x00\x00\x00\x00\x00'
tRp4309
sVbest
p4310
g17
(g1935
S'\x0b\x00\x00\x00\x00\x00\x00\x00'
tRp4311
sVcom
p4312
g17
(g1935
S'\x10\x00\x00\x00\x00\x00\x00\x00'
tRp4313
sVand
p4314
g17
(g1935
S'\x05\x00\x00\x00\x00\x00\x00\x00'
tRp4315
sVbeen
p4316
g17
(g1935
S'\n\x00\x00\x00\x00\x00\x00\x00'
tRp4317
sVwebsite
p4318
g17
(g1935
S'L\x00\x00\x00\x00\x00\x00\x00'
tRp4319
sVis
p4320
g17
(g1935
S'%\x00\x00\x00\x00\x00\x00\x00'
tRp4321
sVit
p4322
g17
(g1935
S'&\x00\x00\x00\x00\x00\x00\x00'
tRp4323
sVin
p4324
g17
(g1935
S'$\x00\x00\x00\x00\x00\x00\x00'
tRp4325
sVif
p4326
g17
(g1935
S'#\x00\x00\x00\x00\x00\x00\x00'
tRp4327
sVthe
p4328
g17
(g1935
S'E\x00\x00\x00\x00\x00\x00\x00'
tRp4329
sVfor
p4330
g17
(g1935
S'\x1d\x00\x00\x00\x00\x00\x00\x00'
tRp4331
sVmarketing
p4332
g17
(g1935
S',\x00\x00\x00\x00\x00\x00\x00'
tRp4333
sVsupport
p4334
g17
(g1935
S'B\x00\x00\x00\x00\x00\x00\x00'
tRp4335
sVwordpress
p4336
g17
(g1935
S'Q\x00\x00\x00\x00\x00\x00\x00'
tRp4337
sVexcel
p4338
g17
(g1935
S'\x1a\x00\x00\x00\x00\x00\x00\x00'
tRp4339
sVtime
p4340
g17
(g1935
S'F\x00\x00\x00\x00\x00\x00\x00'
tRp4341
sVmy
p4342
g17
(g1935
S'/\x00\x00\x00\x00\x00\x00\x00'
tRp4343
sVworking
p4344
g17
(g1935
S'S\x00\x00\x00\x00\x00\x00\x00'
tRp4345
sVcan
p4346
g17
(g1935
S'\x0e\x00\x00\x00\x00\x00\x00\x00'
tRp4347
sVfollowing
p4348
g17
(g1935
S'\x1c\x00\x00\x00\x00\x00\x00\x00'
tRp4349
sVdesigner
p4350
g17
(g1935
S'\x16\x00\x00\x00\x00\x00\x00\x00'
tRp4351
sVdata
p4352
g17
(g1935
S'\x14\x00\x00\x00\x00\x00\x00\x00'
tRp4353
sVyears
p4354
g17
(g1935
S'V\x00\x00\x00\x00\x00\x00\x00'
tRp4355
sVnot
p4356
g17
(g1935
S'2\x00\x00\x00\x00\x00\x00\x00'
tRp4357
sVthat
p4358
g17
(g1935
S'D\x00\x00\x00\x00\x00\x00\x00'
tRp4359
sVthan
p4360
g17
(g1935
S'C\x00\x00\x00\x00\x00\x00\x00'
tRp4361
sVobjective
p4362
g17
(g1935
S'3\x00\x00\x00\x00\x00\x00\x00'
tRp4363
sVprofessional
p4364
g17
(g1935
S';\x00\x00\x00\x00\x00\x00\x00'
tRp4365
sVjobs
p4366
g17
(g1935
S"'\x00\x00\x00\x00\x00\x00\x00"
tRp4367
sVhtml
p4368
g17
(g1935
S'"\x00\x00\x00\x00\x00\x00\x00'
tRp4369
sVusing
p4370
g17
(g1935
S'I\x00\x00\x00\x00\x00\x00\x00'
tRp4371
sVbusiness
p4372
g17
(g1935
S'\x0c\x00\x00\x00\x00\x00\x00\x00'
tRp4373
sVon
p4374
g17
(g1935
S'5\x00\x00\x00\x00\x00\x00\x00'
tRp4375
sVof
p4376
g17
(g1935
S'4\x00\x00\x00\x00\x00\x00\x00'
tRp4377
sVor
p4378
g17
(g1935
S'6\x00\x00\x00\x00\x00\x00\x00'
tRp4379
sVyour
p4380
g17
(g1935
S'X\x00\x00\x00\x00\x00\x00\x00'
tRp4381
sVcomplete
p4382
g17
(g1935
S'\x12\x00\x00\x00\x00\x00\x00\x00'
tRp4383
sVwith
p4384
g17
(g1935
S'O\x00\x00\x00\x00\x00\x00\x00'
tRp4385
sVam
p4386
g17
(g1935
S'\x03\x00\x00\x00\x00\x00\x00\x00'
tRp4387
sVas
p4388
g17
(g1935
S'\x07\x00\x00\x00\x00\x00\x00\x00'
tRp4389
sVat
p4390
g17
(g1935
S'\x08\x00\x00\x00\x00\x00\x00\x00'
tRp4391
sVyou
p4392
g17
(g1935
S'W\x00\x00\x00\x00\x00\x00\x00'
tRp4393
sVall
p4394
g17
(g1935
S'\x00\x00\x00\x00\x00\x00\x00\x00'
tRp4395
sVto
p4396
g17
(g1935
S'G\x00\x00\x00\x00\x00\x00\x00'
tRp4397
sVvery
p4398
g17
(g1935
S'J\x00\x00\x00\x00\x00\x00\x00'
tRp4399
sVdesign
p4400
g17
(g1935
S'\x15\x00\x00\x00\x00\x00\x00\x00'
tRp4401
sVexperience
p4402
g17
(g1935
S'\x1b\x00\x00\x00\x00\x00\x00\x00'
tRp4403
sVmore
p4404
g17
(g1935
S'.\x00\x00\x00\x00\x00\x00\x00'
tRp4405
sVgoal
p4406
g17
(g1935
S'\x1f\x00\x00\x00\x00\x00\x00\x00'
tRp4407
sVgood
p4408
g17
(g1935
S' \x00\x00\x00\x00\x00\x00\x00'
tRp4409
sValways
p4410
g17
(g1935
S'\x02\x00\x00\x00\x00\x00\x00\x00'
tRp4411
sVresearch
p4412
g17
(g1935
S'>\x00\x00\x00\x00\x00\x00\x00'
tRp4413
sValso
p4414
g17
(g1935
S'\x01\x00\x00\x00\x00\x00\x00\x00'
tRp4415
sVare
p4416
g17
(g1935
S'\x06\x00\x00\x00\x00\x00\x00\x00'
tRp4417
sVseo
p4418
g17
(g1935
S'?\x00\x00\x00\x00\x00\x00\x00'
tRp4419
sVlast
p4420
g17
(g1935
S')\x00\x00\x00\x00\x00\x00\x00'
tRp4421
sVdevelopment
p4422
g17
(g1935
S'\x17\x00\x00\x00\x00\x00\x00\x00'
tRp4423
sVentry
p4424
g17
(g1935
S'\x19\x00\x00\x00\x00\x00\x00\x00'
tRp4425
sVmysql
p4426
g17
(g1935
S'0\x00\x00\x00\x00\x00\x00\x00'
tRp4427
sVlike
p4428
g17
(g1935
S'*\x00\x00\x00\x00\x00\x00\x00'
tRp4429
sVbe
p4430
g17
(g1935
S'\t\x00\x00\x00\x00\x00\x00\x00'
tRp4431
sVuse
p4432
g17
(g1935
S'H\x00\x00\x00\x00\x00\x00\x00'
tRp4433
sVmanagement
p4434
g17
(g1935
S'+\x00\x00\x00\x00\x00\x00\x00'
tRp4435
sVfrom
p4436
g17
(g1935
S'\x1e\x00\x00\x00\x00\x00\x00\x00'
tRp4437
sVcustomer
p4438
g17
(g1935
S'\x13\x00\x00\x00\x00\x00\x00\x00'
tRp4439
sVclients
p4440
g17
(g1935
S'\x0f\x00\x00\x00\x00\x00\x00\x00'
tRp4441
sVquality
p4442
g17
(g1935
S'=\x00\x00\x00\x00\x00\x00\x00'
tRp4443
sVhave
p4444
g17
(g1935
S'!\x00\x00\x00\x00\x00\x00\x00'
tRp4445
sVknowledge
p4446
g17
(g1935
S'(\x00\x00\x00\x00\x00\x00\x00'
tRp4447
sVan
p4448
g17
(g1935
S'\x04\x00\x00\x00\x00\x00\x00\x00'
tRp4449
sVwill
p4450
g17
(g1935
S'N\x00\x00\x00\x00\x00\x00\x00'
tRp4451
sVphp
p4452
g17
(g1935
S':\x00\x00\x00\x00\x00\x00\x00'
tRp4453
sVwell
p4454
g17
(g1935
S'M\x00\x00\x00\x00\x00\x00\x00'
tRp4455
sVweb
p4456
g17
(g1935
S'K\x00\x00\x00\x00\x00\x00\x00'
tRp4457
sVother
p4458
g17
(g1935
S'8\x00\x00\x00\x00\x00\x00\x00'
tRp4459
sVbut
p4460
g17
(g1935
S'\r\x00\x00\x00\x00\x00\x00\x00'
tRp4461
ssg1570
g1571
sg1568
g1672
sg1673
g1
(g1674
g3
NtRp4462
(dp4463
g1677
I01
sg1678
I01
sg1679
I00
sg1680
g1681
sS'_idf_diag'
p4464
g1
(cscipy.sparse.dia
dia_matrix
p4465
g3
NtRp4466
(dp4467
S'data'
p4468
g1481
(g1482
(I0
tS'b'
tRp4469
(I1
(I1
I89
tg19
I00
S"Fc\xc04*'\x05@\x93/\xb6\xf0_C\x04@nV\x89\xcb\x91L\x07@\x046\x00\x11\xda\xdc\xfd?\xc6\xb5(z\xeed\x02@x3\xea\xb7\x99\xef\xf0?\xcf.\xe9\xf8\x17\xbc\x02@z\x85!\xf9\x13M\xfe?Fc\xc04*'\x05@\x0e4Kbgv\x03@nV\x89\xcb\x91L\x07@\xa0\x9am\xbd\x7f'\x06@\x0e4Kbgv\x03@nV\x89\xcb\x91L\x07@\x8cU\xcd\xfeS\x11\x02@\xd0\xa8\xc0\xf7R\xa3\x05@nV\x89\xcb\x91L\x07@s\xab;?\xb2\xa2\x08@BD\xe79\x7f\xf0\x07@nV\x89\xcb\x91L\x07@/^\xb7>\xb6s\x01@\xd0\xa8\xc0\xf7R\xa3\x05@s\xab;?\xb2\xa2\x08@9QO\xbc\x1a\xb2\x04@\xd0\xa8\xc0\xf7R\xa3\x05@\x93/\xb6\xf0_C\x04@BD\xe79\x7f\xf0\x07@\xe3lXba8\xfc?BD\xe79\x7f\xf0\x07@\xa6@Ur\x0ea\xfa?\x18'\xe3\xdf\xcb\xb4\x06@nV\x89\xcb\x91L\x07@BD\xe79\x7f\xf0\x07@\xd0\x10\x11\x91F^\xf9?nV\x89\xcb\x91L\x07@s\xab;?\xb2\xa2\x08@\xfc\xc0\xd8\xc7U\xa9\xf3?z\x85!\xf9\x13M\xfe?\x18'\xe3\xdf\xcb\xb4\x06@s\xab;?\xb2\xa2\x08@\xd0\xa8\xc0\xf7R\xa3\x05@s\xab;?\xb2\xa2\x08@nV\x89\xcb\x91L\x07@\xa0\x9am\xbd\x7f'\x06@s\xab;?\xb2\xa2\x08@\xcf.\xe9\xf8\x17\xbc\x02@9QO\xbc\x1a\xb2\x04@\x12e\xe9I\xe4X\xf5?BD\xe79\x7f\xf0\x07@nV\x89\xcb\x91L\x07@BD\xe79\x7f\xf0\x07@nV\x89\xcb\x91L\x07@\x9c\x1fY\x06\x94e\xf6?$\x0c\xaf\xfd\xee\x9b\x00@\xa0\x9am\xbd\x7f'\x06@BD\xe79\x7f\xf0\x07@BD\xe79\x7f\xf0\x07@\xd0\xa8\xc0\xf7R\xa3\x05@s\xab;?\xb2\xa2\x08@\x93/\xb6\xf0_C\x04@9QO\xbc\x1a\xb2\x04@9QO\xbc\x1a\xb2\x04@\xa0\x9am\xbd\x7f'\x06@s\xab;?\xb2\xa2\x08@\x8cU\xcd\xfeS\x11\x02@\xdcS\xca\x03z\xb1\xff?BD\xe79\x7f\xf0\x07@nV\x89\xcb\x91L\x07@f\xb7)\xae\xc7X\x00@K\x15,A\x08\xdd\xf5?\xf8\x1c}\x7f!\x17\x03@\x83h\xa4y\xf25\xf3?BD\xe79\x7f\xf0\x07@BD\xe79\x7f\xf0\x07@\xa0\x9am\xbd\x7f'\x06@\x9c\x98$ ;)\x01@BD\xe79\x7f\xf0\x07@\xa0\x9am\xbd\x7f'\x06@Fc\xc04*'\x05@\x80\xc3\xd3\xeei\xba\xf8?s\xab;?\xb2\xa2\x08@s\xab;?\xb2\xa2\x08@\xe3lXba8\xfc?\xf8\x1c}\x7f!\x17\x03@BD\xe79\x7f\xf0\x07@Fc\xc04*'\x05@d\xe1\x10w\x85\x9d\xfc?\xf8\x1c}\x7f!\x17\x03@9QO\xbc\x1a\xb2\x04@"
tbsS'maxprint'
p4470
I50
sS'_shape'
p4471
(I89
I89
tp4472
sS'offsets'
p4473
g1481
(g1482
(I0
tS'b'
tRp4474
(I1
(I1
tg1488
I00
S'\x00\x00\x00\x00'
tbsS'format'
p4475
S'dia'
p4476
sbsbsg1572
Nsbsg21
g1662
sg1517
g1
(g1518
g3
NtRp4477
(dp4478
g1521
I01
sg1522
g1685
sbsg1460
Nsg1524
I01
sg1513
g1514
sg1516
g1682
sg1525
g1
(g1580
g3
NtRp4479
(dp4480
g1529
g1530
sg1532
g1919
sg1531
Nsg1583
g1688
sg1460
S''
sg1535
Nsg1534
Nsbsaa(lp4481
g1690
a(dp4482
g1515
Nsg2128
g1
(g2129
g3
NtRp4483
(dp4484
g1465
I0
sg2132
g2133
sg2134
g2135
sg2136
g1481
(g1482
(I0
tS'b'
tRp4485
(I1
(I1
tg19
I00
S'\x00\x00\x00\x00\x00\x00\x10@'
tbsg1521
I01
sg2138
I0
sbsg21
g1690
sg1517
g1
(g1518
g3
NtRp4486
(dp4487
g1522
g1694
sg2159
g1481
(g1482
(I0
tS'b'
tRp4488
(I1
(I1
tg19
I00
S'(\xaf\xa1\xbc\x86\xf2\xaa?'
tbsg2161
g1481
(g1482
(I0
tS'b'
tRp4489
(I1
(I1
tg19
I00
S'\x00\x00\x00\x00\x00\x003@'
tbsg2163
g1481
(g1482
(I0
tS'b'
tRp4490
(I1
(I1
tg19
I00
S'\x00\x00\x00\x00\x00\x00\x00\x00'
tbsg2165
g1481
(g1482
(I0
tS'b'
tRp4491
(I1
(I1
tg19
I00
S'\x00\x00\x00\x00\x00\x00\x00\x00'
tbsg1521
I01
sbsg1460
Nsg1524
I01
sg1513
g1514
sg1516
Nsg1525
g1
(g1580
g3
NtRp4492
(dp4493
g1529
g1530
sg1532
g1919
sg1531
Nsg1583
g1608
sg1460
I0
sg1535
Nsg1534
Nsbsaa(lp4494
g1698
a(dp4495
g1515
Nsg2128
g1
(g2129
g3
NtRp4496
(dp4497
g1465
I0
sg2132
g2133
sg2134
g2135
sg2136
g1481
(g1482
(I0
tS'b'
tRp4498
(I1
(I1
tg19
I00
S'\x00\x00\x00\x00\x00\x00\x08@'
tbsg1521
I01
sg2138
I0
sbsg21
g1698
sg1517
g1
(g1518
g3
NtRp4499
(dp4500
g1522
g1702
sg2159
g1481
(g1482
(I0
tS'b'
tRp4501
(I1
(I1
tg19
I00
S'{\x14\xaeG\xe1z\x94?'
tbsg2161
g1481
(g1482
(I0
tS'b'
tRp4502
(I1
(I1
tg19
I00
S'\x00\x00\x00\x00\x00\x00I@'
tbsg2163
g1481
(g1482
(I0
tS'b'
tRp4503
(I1
(I1
tg19
I00
S'\x00\x00\x00\x00\x00\x00\x00\x00'
tbsg2165
g1481
(g1482
(I0
tS'b'
tRp4504
(I1
(I1
tg19
I00
S'\x00\x00\x00\x00\x00\x00\x00\x00'
tbsg1521
I01
sbsg1460
Nsg1524
I01
sg1513
g1514
sg1516
Nsg1525
g1
(g1580
g3
NtRp4505
(dp4506
g1529
g1530
sg1532
g1919
sg1531
Nsg1583
g1608
sg1460
I0
sg1535
Nsg1534
Nsbsaa(lp4507
g1706
a(dp4508
g1515
Nsg2128
g1
(g2129
g3
NtRp4509
(dp4510
g1465
I0
sg2132
g2133
sg2134
g2135
sg2136
g1481
(g1482
(I0
tS'b'
tRp4511
(I1
(I1
tg19
I00
S'\x00\x00\x00\x00\x00\x00\x00@'
tbsg1521
I01
sg2138
I0
sbsg21
g1706
sg1517
g1
(g1518
g3
NtRp4512
(dp4513
g1522
g1710
sg2159
g1481
(g1482
(I0
tS'b'
tRp4514
(I1
(I1
tg19
I00
S'{\x14\xaeG\xe1z\x94?'
tbsg2161
g1481
(g1482
(I0
tS'b'
tRp4515
(I1
(I1
tg19
I00
S'\x00\x00\x00\x00\x00\x00I@'
tbsg2163
g1481
(g1482
(I0
tS'b'
tRp4516
(I1
(I1
tg19
I00
S'\x00\x00\x00\x00\x00\x00\x00\x00'
tbsg2165
g1481
(g1482
(I0
tS'b'
tRp4517
(I1
(I1
tg19
I00
S'\x00\x00\x00\x00\x00\x00\x00\x00'
tbsg1521
I01
sbsg1460
Nsg1524
I01
sg1513
g1514
sg1516
Nsg1525
g1
(g1580
g3
NtRp4518
(dp4519
g1529
g1530
sg1532
g1919
sg1531
Nsg1583
g1608
sg1460
I0
sg1535
Nsg1534
Nsbsaa(lp4520
g1714
a(dp4521
g1515
Nsg2128
g1
(g2129
g3
NtRp4522
(dp4523
g1465
I0
sg2132
g2133
sg2134
g2135
sg2136
g1481
(g1482
(I0
tS'b'
tRp4524
(I1
(I1
tg19
I00
S'\x00\x00\x00\x00\x00\x00\xf8\x7f'
tbsg1521
I01
sg2138
I0
sbsg21
g1714
sg1517
g1
(g1518
g3
NtRp4525
(dp4526
g1522
g1718
sg2159
g1481
(g1482
(I0
tS'b'
tRp4527
(I1
(I1
tg19
I00
S'\x00\x00\x00\x00\x00\x00\xf0?'
tbsg2161
g1481
(g1482
(I0
tS'b'
tRp4528
(I1
(I1
tg19
I00
S'\x00\x00\x00\x00\x00\x00\xf0?'
tbsg2163
g1481
(g1482
(I0
tS'b'
tRp4529
(I1
(I1
tg19
I00
S'\x00\x00\x00\x00\x00\x00\x00\x00'
tbsg2165
g1481
(g1482
(I0
tS'b'
tRp4530
(I1
(I1
tg19
I00
S'\x00\x00\x00\x00\x00\x00\x00\x00'
tbsg1521
I01
sbsg1460
Nsg1524
I01
sg1513
g1514
sg1516
Nsg1525
g1
(g1580
g3
NtRp4531
(dp4532
g1529
g1530
sg1532
g1919
sg1531
Nsg1583
g1584
sg1460
F0
sg1535
Nsg1534
Nsbsaa(lp4533
g1722
a(dp4534
g1515
Nsg2128
g1
(g2129
g3
NtRp4535
(dp4536
g1465
I0
sg2132
g2133
sg2134
g2135
sg2136
g1481
(g1482
(I0
tS'b'
tRp4537
(I1
(I1
tg19
I00
S'\x00\x00\x00\x00\x00\x00A@'
tbsg1521
I01
sg2138
I0
sbsg21
g1722
sg1517
g1
(g1518
g3
NtRp4538
(dp4539
g1522
g1726
sg2159
g1481
(g1482
(I0
tS'b'
tRp4540
(I1
(I1
tg19
I00
S'\x1a\xa4A\x1a\xa4A\x8a?'
tbsg2161
g1481
(g1482
(I0
tS'b'
tRp4541
(I1
(I1
tg19
I00
S'\x00\x00\x00\x00\x00\x80S@'
tbsg2163
g1481
(g1482
(I0
tS'b'
tRp4542
(I1
(I1
tg19
I00
S'\x00\x00\x00\x00\x00\x00\x00\x00'
tbsg2165
g1481
(g1482
(I0
tS'b'
tRp4543
(I1
(I1
tg19
I00
S'\x00\x00\x00\x00\x00\x00\x00\x00'
tbsg1521
I01
sbsg1460
Nsg1524
I01
sg1513
g1514
sg1516
Nsg1525
g1
(g1580
g3
NtRp4544
(dp4545
g1529
g1530
sg1532
g1919
sg1531
Nsg1583
g1584
sg1460
F0
sg1535
Nsg1534
Nsbsaa(lp4546
g1730
a(dp4547
g1515
Nsg2128
g1
(g2129
g3
NtRp4548
(dp4549
g1465
I0
sg2132
g2133
sg2134
g2135
sg2136
g1481
(g1482
(I0
tS'b'
tRp4550
(I1
(I1
tg19
I00
S'\x00\x00\x00\x00\x00\x00 @'
tbsg1521
I01
sg2138
I0
sbsg21
g1730
sg1517
g1
(g1518
g3
NtRp4551
(dp4552
g1522
g1734
sg2159
g1481
(g1482
(I0
tS'b'
tRp4553
(I1
(I1
tg19
I00
S'ysB\x89\x06nq?'
tbsg2161
g1481
(g1482
(I0
tS'b'
tRp4554
(I1
(I1
tg19
I00
S'\x00\x00\x00\x00\x00`m@'
tbsg2163
g1481
(g1482
(I0
tS'b'
tRp4555
(I1
(I1
tg19
I00
S'\x00\x00\x00\x00\x00\x00\x00\x00'
tbsg2165
g1481
(g1482
(I0
tS'b'
tRp4556
(I1
(I1
tg19
I00
S'\x00\x00\x00\x00\x00\x00\x00\x00'
tbsg1521
I01
sbsg1460
Nsg1524
I01
sg1513
g1514
sg1516
Nsg1525
g1
(g1580
g3
NtRp4557
(dp4558
g1529
g1530
sg1532
g1919
sg1531
Nsg1583
g1608
sg1460
I0
sg1535
Nsg1534
Nsbsaa(lp4559
g1738
a(dp4560
g1515
Nsg2128
g1
(g2129
g3
NtRp4561
(dp4562
g1465
I0
sg2132
g2133
sg2134
g2135
sg2136
g1481
(g1482
(I0
tS'b'
tRp4563
(I1
(I1
tg19
I00
S'\x00\x00\x00\x00\x00\x00\xf0?'
tbsg1521
I01
sg2138
I0
sbsg21
g1738
sg1517
g1
(g1518
g3
NtRp4564
(dp4565
g1522
g1742
sg2159
g1481
(g1482
(I0
tS'b'
tRp4566
(I1
(I1
tg19
I00
S'\x00\x00\x00\x00\x00\x00\xf0?'
tbsg2161
g1481
(g1482
(I0
tS'b'
tRp4567
(I1
(I1
tg19
I00
S'\x00\x00\x00\x00\x00\x00\xf0?'
tbsg2163
g1481
(g1482
(I0
tS'b'
tRp4568
(I1
(I1
tg19
I00
S'\x00\x00\x00\x00\x00\x00\x00\x00'
tbsg2165
g1481
(g1482
(I0
tS'b'
tRp4569
(I1
(I1
tg19
I00
S'\x00\x00\x00\x00\x00\x00\x00\x00'
tbsg1521
I01
sbsg1460
Nsg1524
I01
sg1513
g1514
sg1516
Nsg1525
g1
(g1580
g3
NtRp4570
(dp4571
g1529
g1530
sg1532
g1919
sg1531
Nsg1583
g1636
sg1460
I00
sg1535
Nsg1534
Nsbsaa(lp4572
g1746
a(dp4573
g1515
Nsg2128
g1
(g2129
g3
NtRp4574
(dp4575
g1465
I0
sg2132
g2133
sg2134
g2135
sg2136
g1481
(g1482
(I0
tS'b'
tRp4576
(I1
(I1
tg19
I00
S'\x00\x00\x00\x00\x00\x80A@'
tbsg1521
I01
sg2138
I0
sbsg21
g1746
sg1517
g1
(g1518
g3
NtRp4577
(dp4578
g1522
g1750
sg2159
g1481
(g1482
(I0
tS'b'
tRp4579
(I1
(I1
tg19
I00
S'\x9a\x99\x99\x99\x99\x99\x99?'
tbsg2161
g1481
(g1482
(I0
tS'b'
tRp4580
(I1
(I1
tg19
I00
S'\x00\x00\x00\x00\x00\x00D@'
tbsg2163
g1481
(g1482
(I0
tS'b'
tRp4581
(I1
(I1
tg19
I00
S'\x00\x00\x00\x00\x00\x00\x00\x00'
tbsg2165
g1481
(g1482
(I0
tS'b'
tRp4582
(I1
(I1
tg19
I00
S'\x00\x00\x00\x00\x00\x00\x00\x00'
tbsg1521
I01
sbsg1460
Nsg1524
I01
sg1513
g1514
sg1516
Nsg1525
g1
(g1580
g3
NtRp4583
(dp4584
g1529
g1530
sg1532
g1919
sg1531
Nsg1583
g1608
sg1460
I0
sg1535
Nsg1534
Nsbsaa(lp4585
g1754
a(dp4586
g1515
Nsg2128
g1
(g2129
g3
NtRp4587
(dp4588
g1465
I0
sg2132
g2133
sg2134
g2135
sg2136
g1481
(g1482
(I0
tS'b'
tRp4589
(I1
(I1
tg19
I00
S'q=\n\xd7\xa3\x16\x84@'
tbsg1521
I01
sg2138
I0
sbsg21
g1754
sg1517
g1
(g1518
g3
NtRp4590
(dp4591
g1522
g1758
sg2159
g1481
(g1482
(I0
tS'b'
tRp4592
(I1
(I1
tg19
I00
S'7\x05\xc5~ \x81\xf2>'
tbsg2161
g1481
(g1482
(I0
tS'b'
tRp4593
(I1
(I1
tg19
I00
S'\x9a\x99\x99\x99I\xab\xeb@'
tbsg2163
g1481
(g1482
(I0
tS'b'
tRp4594
(I1
(I1
tg19
I00
S'\x00\x00\x00\x00\x00\x00\x00\x00'
tbsg2165
g1481
(g1482
(I0
tS'b'
tRp4595
(I1
(I1
tg19
I00
S'\x00\x00\x00\x00\x00\x00\x00\x00'
tbsg1521
I01
sbsg1460
Nsg1524
I01
sg1513
g1514
sg1516
Nsg1525
g1
(g1580
g3
NtRp4596
(dp4597
g1529
g1530
sg1532
g1919
sg1531
Nsg1583
g1584
sg1460
F0
sg1535
Nsg1534
Nsbsaa(lp4598
g1762
a(dp4599
g1515
Nsg2128
g1
(g2129
g3
NtRp4600
(dp4601
g1465
I0
sg2132
g2133
sg2134
g2135
sg2136
g1481
(g1482
(I0
tS'b'
tRp4602
(I1
(I1
tg19
I00
S'\x00\x00\x00\x00\x00\x00\xf8\x7f'
tbsg1521
I01
sg2138
I0
sbsg21
g1762
sg1517
g1
(g1518
g3
NtRp4603
(dp4604
g1522
g1766
sg2159
g1481
(g1482
(I0
tS'b'
tRp4605
(I1
(I1
tg19
I00
S'\x00\x00\x00\x00\x00\x00\xf0?'
tbsg2161
g1481
(g1482
(I0
tS'b'
tRp4606
(I1
(I1
tg19
I00
S'\x00\x00\x00\x00\x00\x00\xf0?'
tbsg2163
g1481
(g1482
(I0
tS'b'
tRp4607
(I1
(I1
tg19
I00
S'\x00\x00\x00\x00\x00\x00\x00\x00'
tbsg2165
g1481
(g1482
(I0
tS'b'
tRp4608
(I1
(I1
tg19
I00
S'\x00\x00\x00\x00\x00\x00\x00\x00'
tbsg1521
I01
sbsg1460
Nsg1524
I00
sg1513
g1514
sg1516
Nsg1525
g1
(g1580
g3
NtRp4609
(dp4610
g1529
g1530
sg1532
g1919
sg1531
Nsg1583
g1608
sg1460
I0
sg1535
Nsg1534
Nsbsaa(lp4611
g1770
a(dp4612
g1515
Nsg2128
g1
(g2129
g3
NtRp4613
(dp4614
g1465
I0
sg2132
g2133
sg2134
g2135
sg2136
g1481
(g1482
(I0
tS'b'
tRp4615
(I1
(I1
tg19
I00
S'=\n\xd7\xa3p=\x16@'
tbsg1521
I01
sg2138
I0
sbsg21
g1770
sg1517
g1
(g1518
g3
NtRp4616
(dp4617
g1522
g1774
sg2159
g1481
(g1482
(I0
tS'b'
tRp4618
(I1
(I1
tg19
I00
S'\xba0\x01C\xed\xb7\x8e?'
tbsg2161
g1481
(g1482
(I0
tS'b'
tRp4619
(I1
(I1
tg19
I00
S'{\x14\xaeG\xe1\xaaP@'
tbsg2163
g1481
(g1482
(I0
tS'b'
tRp4620
(I1
(I1
tg19
I00
S'\x00\x00\x00\x00\x00\x00\x00\x00'
tbsg2165
g1481
(g1482
(I0
tS'b'
tRp4621
(I1
(I1
tg19
I00
S'\x00\x00\x00\x00\x00\x00\x00\x00'
tbsg1521
I01
sbsg1460
Nsg1524
I01
sg1513
g1514
sg1516
Nsg1525
g1
(g1580
g3
NtRp4622
(dp4623
g1529
g1530
sg1532
g1919
sg1531
Nsg1583
g1584
sg1460
F0
sg1535
Nsg1534
Nsbsaa(lp4624
g1778
a(dp4625
g1515
Nsg2128
g1
(g2129
g3
NtRp4626
(dp4627
g1465
I0
sg2132
g2133
sg2134
g2135
sg2136
g1481
(g1482
(I0
tS'b'
tRp4628
(I1
(I1
tg19
I00
S'\x00\x00\x00\x00\x00\x00\x14@'
tbsg1521
I01
sg2138
I0
sbsg21
g1778
sg1517
g1
(g1518
g3
NtRp4629
(dp4630
g1522
g1782
sg2159
g1481
(g1482
(I0
tS'b'
tRp4631
(I1
(I1
tg19
I00
S'\x9a\x99\x99\x99\x99\x99\xa9?'
tbsg2161
g1481
(g1482
(I0
tS'b'
tRp4632
(I1
(I1
tg19
I00
S'\x00\x00\x00\x00\x00\x004@'
tbsg2163
g1481
(g1482
(I0
tS'b'
tRp4633
(I1
(I1
tg19
I00
S'\x00\x00\x00\x00\x00\x00\xf0?'
tbsg2165
g1481
(g1482
(I0
tS'b'
tRp4634
(I1
(I1
tg19
I00
S'\x9a\x99\x99\x99\x99\x99\xa9\xbf'
tbsg1521
I01
sbsg1460
Nsg1524
I01
sg1513
g1514
sg1516
Nsg1525
g1
(g1580
g3
NtRp4635
(dp4636
g1529
g1530
sg1532
g1919
sg1531
Nsg1583
g1608
sg1460
I0
sg1535
Nsg1534
Nsbsaa(lp4637
g1786
a(dp4638
g1515
Nsg2128
g1
(g2129
g3
NtRp4639
(dp4640
g1465
I0
sg2132
g2133
sg2134
g2135
sg2136
g1481
(g1482
(I0
tS'b'
tRp4641
(I1
(I1
tg19
I00
S'\x00\x00\x00\x00\x00\x00\xf0?'
tbsg1521
I01
sg2138
I0
sbsg21
g1786
sg1517
g1
(g1518
g3
NtRp4642
(dp4643
g1522
g1790
sg2159
g1481
(g1482
(I0
tS'b'
tRp4644
(I1
(I1
tg19
I00
S'\x00\x00\x00\x00\x00\x00\xf0?'
tbsg2161
g1481
(g1482
(I0
tS'b'
tRp4645
(I1
(I1
tg19
I00
S'\x00\x00\x00\x00\x00\x00\xf0?'
tbsg2163
g1481
(g1482
(I0
tS'b'
tRp4646
(I1
(I1
tg19
I00
S'\x00\x00\x00\x00\x00\x00\x00\x00'
tbsg2165
g1481
(g1482
(I0
tS'b'
tRp4647
(I1
(I1
tg19
I00
S'\x00\x00\x00\x00\x00\x00\x00\x00'
tbsg1521
I01
sbsg1460
Nsg1524
I00
sg1513
g1514
sg1516
Nsg1525
g1
(g1580
g3
NtRp4648
(dp4649
g1529
g1530
sg1532
g1919
sg1531
Nsg1583
g1584
sg1460
F0
sg1535
Nsg1534
Nsbsaa(lp4650
g1794
a(dp4651
g1515
Nsg2128
g1
(g2129
g3
NtRp4652
(dp4653
g1465
I0
sg2132
g2133
sg2134
g2135
sg2136
g1481
(g1482
(I0
tS'b'
tRp4654
(I1
(I1
tg19
I00
S'\x00\x00\x00\x00\x00\xc0R@'
tbsg1521
I01
sg2138
I0
sbsg21
g1794
sg1517
g1
(g1518
g3
NtRp4655
(dp4656
g1522
g1798
sg2159
g1481
(g1482
(I0
tS'b'
tRp4657
(I1
(I1
tg19
I00
S'\xdd\xcd \xb9\xba8+?'
tbsg2161
g1481
(g1482
(I0
tS'b'
tRp4658
(I1
(I1
tg19
I00
S'\x00\x00\x00\x00\x00\xcf\xb2@'
tbsg2163
g1481
(g1482
(I0
tS'b'
tRp4659
(I1
(I1
tg19
I00
S'\x00\x00\x00\x00\x00\x00\x00\x00'
tbsg2165
g1481
(g1482
(I0
tS'b'
tRp4660
(I1
(I1
tg19
I00
S'\x00\x00\x00\x00\x00\x00\x00\x00'
tbsg1521
I01
sbsg1460
Nsg1524
I01
sg1513
g1514
sg1516
Nsg1525
g1
(g1580
g3
NtRp4661
(dp4662
g1529
g1530
sg1532
g1919
sg1531
Nsg1583
g1608
sg1460
I0
sg1535
Nsg1534
Nsbsaa(lp4663
g1802
a(dp4664
g1515
Nsg2128
g1
(g2129
g3
NtRp4665
(dp4666
g1465
I0
sg2132
g2133
sg2134
g2135
sg2136
g1481
(g1482
(I0
tS'b'
tRp4667
(I1
(I1
tg19
I00
S'\x00\x00\x00\x00\x00\x00\x14@'
tbsg1521
I01
sg2138
I0
sbsg21
g1802
sg1517
g1
(g1518
g3
NtRp4668
(dp4669
g1522
g1806
sg2159
g1481
(g1482
(I0
tS'b'
tRp4670
(I1
(I1
tg19
I00
S'\x96{\x1aa\xb9\xa7\xa1?'
tbsg2161
g1481
(g1482
(I0
tS'b'
tRp4671
(I1
(I1
tg19
I00
S'\x00\x00\x00\x00\x00\x00=@'
tbsg2163
g1481
(g1482
(I0
tS'b'
tRp4672
(I1
(I1
tg19
I00
S'\x00\x00\x00\x00\x00\x00\xf0?'
tbsg2165
g1481
(g1482
(I0
tS'b'
tRp4673
(I1
(I1
tg19
I00
S'\x96{\x1aa\xb9\xa7\xa1\xbf'
tbsg1521
I01
sbsg1460
Nsg1524
I00
sg1513
g1514
sg1516
Nsg1525
g1
(g1580
g3
NtRp4674
(dp4675
g1529
g1530
sg1532
g1919
sg1531
Nsg1583
g1608
sg1460
I0
sg1535
Nsg1534
Nsbsaa(lp4676
g1810
a(dp4677
g1515
Nsg2128
g1
(g2129
g3
NtRp4678
(dp4679
g1465
I0
sg2132
g2133
sg2134
g2135
sg2136
g1481
(g1482
(I0
tS'b'
tRp4680
(I1
(I1
tg19
I00
S'\x00\x00\x00\x00\x00\x00\x10@'
tbsg1521
I01
sg2138
I0
sbsg21
g1810
sg1517
g1
(g1518
g3
NtRp4681
(dp4682
g1522
g1814
sg2159
g1481
(g1482
(I0
tS'b'
tRp4683
(I1
(I1
tg19
I00
S'd!\x0bY\xc8B\x86?'
tbsg2161
g1481
(g1482
(I0
tS'b'
tRp4684
(I1
(I1
tg19
I00
S'\x00\x00\x00\x00\x00\x00W@'
tbsg2163
g1481
(g1482
(I0
tS'b'
tRp4685
(I1
(I1
tg19
I00
S'\x00\x00\x00\x00\x00\x00\x00\x00'
tbsg2165
g1481
(g1482
(I0
tS'b'
tRp4686
(I1
(I1
tg19
I00
S'\x00\x00\x00\x00\x00\x00\x00\x00'
tbsg1521
I01
sbsg1460
Nsg1524
I01
sg1513
g1514
sg1516
Nsg1525
g1
(g1580
g3
NtRp4687
(dp4688
g1529
g1530
sg1532
g1919
sg1531
Nsg1583
g1608
sg1460
I0
sg1535
Nsg1534
Nsbsaa(lp4689
g1818
a(dp4690
g1515
Nsg2128
g1
(g2129
g3
NtRp4691
(dp4692
g1465
I0
sg2132
g2133
sg2134
g2135
sg2136
g1481
(g1482
(I0
tS'b'
tRp4693
(I1
(I1
tg19
I00
S'\x00\x00\x00\x00\x00\x00\x14@'
tbsg1521
I01
sg2138
I0
sbsg21
g1818
sg1517
g1
(g1518
g3
NtRp4694
(dp4695
g1522
g1822
sg2159
g1481
(g1482
(I0
tS'b'
tRp4696
(I1
(I1
tg19
I00
S'UUUUUU\xd5?'
tbsg2161
g1481
(g1482
(I0
tS'b'
tRp4697
(I1
(I1
tg19
I00
S'\x00\x00\x00\x00\x00\x00\x08@'
tbsg2163
g1481
(g1482
(I0
tS'b'
tRp4698
(I1
(I1
tg19
I00
S'\x00\x00\x00\x00\x00\x00\x00@'
tbsg2165
g1481
(g1482
(I0
tS'b'
tRp4699
(I1
(I1
tg19
I00
S'UUUUUU\xe5\xbf'
tbsg1521
I01
sbsg1460
Nsg1524
I01
sg1513
g1514
sg1516
Nsg1525
g1
(g1580
g3
NtRp4700
(dp4701
g1529
g1530
sg1532
g1919
sg1531
Nsg1583
g1608
sg1460
I0
sg1535
Nsg1534
Nsbsaa(lp4702
g1826
a(dp4703
g1515
Nsg2128
g1
(g2129
g3
NtRp4704
(dp4705
g1465
I0
sg2132
g2133
sg2134
g2135
sg2136
g1481
(g1482
(I0
tS'b'
tRp4706
(I1
(I1
tg19
I00
S'\x00\x00\x00\x00\x00\x00\x14@'
tbsg1521
I01
sg2138
I0
sbsg21
g1826
sg1517
g1
(g1518
g3
NtRp4707
(dp4708
g1522
g1830
sg2159
g1481
(g1482
(I0
tS'b'
tRp4709
(I1
(I1
tg19
I00
S'H\x07\xde\xf3\x8dis?'
tbsg2161
g1481
(g1482
(I0
tS'b'
tRp4710
(I1
(I1
tg19
I00
S'\x00\x00\x00\x00\x00`j@'
tbsg2163
g1481
(g1482
(I0
tS'b'
tRp4711
(I1
(I1
tg19
I00
S'\x00\x00\x00\x00\x00\x00\x00\x00'
tbsg2165
g1481
(g1482
(I0
tS'b'
tRp4712
(I1
(I1
tg19
I00
S'\x00\x00\x00\x00\x00\x00\x00\x00'
tbsg1521
I01
sbsg1460
Nsg1524
I01
sg1513
g1514
sg1516
Nsg1525
g1
(g1580
g3
NtRp4713
(dp4714
g1529
g1530
sg1532
g1919
sg1531
Nsg1583
g1608
sg1460
I0
sg1535
Nsg1534
Nsbsaa(lp4715
g1834
a(dp4716
g1515
Nsg2128
g1
(g2129
g3
NtRp4717
(dp4718
g1465
I0
sg2132
g2133
sg2134
g2135
sg2136
g1481
(g1482
(I0
tS'b'
tRp4719
(I1
(I1
tg19
I00
S'\x00\x00\x00\x00\x00\x00\x18@'
tbsg1521
I01
sg2138
I0
sbsg21
g1834
sg1517
Nsg1460
Nsg1524
I01
sg1513
g1514
sg1516
Nsg1525
g2139
saa(lp4720
g1837
a(dp4721
g1515
g1
(g1664
g3
NtRp4722
(dp4723
g1550
g1667
sg1554
Nsg1556
g1668
sg1558
g1669
sg1561
g1670
sg1564
g1841
sg1534
Nsg1560
F1
sg1566
I3
sg1567
Nsg1928
I00
sg1929
g1930
((lp4724
Vproducer
p4725
aVphoto
p4726
aVgraphics
p4727
aVyears
p4728
aVmanager
p4729
aVlailani
p4730
aVmanchester
p4731
aVhuman
p4732
aVmysql
p4733
aVstaff
p4734
aV25
p4735
aVautocad
p4736
aVoffice
p4737
aVzohocrm
p4738
aVflash
p4739
aVjavaee
p4740
aVgigs
p4741
aVto
p4742
aVonly
p4743
aVpro
p4744
aVmvc
p4745
aVsugarcrm
p4746
aVresources
p4747
aV2012
p4748
aVcss3
p4749
aVdo
p4750
aVdesigns
p4751
aVbrowser
p4752
aV10
p4753
aVvery
p4754
aVdesigning
p4755
aVsilverlight
p4756
aVspecailist
p4757
aVgame
p4758
aVqualified
p4759
aVeffects
p4760
aVandriod
p4761
aVpress
p4762
aVbanner
p4763
aVvoip
p4764
aVoutright
p4765
aVskills
p4766
aViphone5
p4767
aVemail
p4768
aVqa
p4769
aVteam
p4770
aVtopsolid
p4771
aVapplication
p4772
aVadobe
p4773
aVwab
p4774
aVcreator
p4775
aVgeneration
p4776
aVecomm
p4777
aVlogo
p4778
aVprogrammer
p4779
aVbest
p4780
aVproofreader
p4781
aVproject
p4782
aVwhat
p4783
aVcatia
p4784
aVnetwork
p4785
aVfor
p4786
aVassistance
p4787
aVminer
p4788
aVcreative
p4789
aVlooking
p4790
aVinternet
p4791
aVprint
p4792
aVprof
p4793
aVnet
p4794
aVcontent
p4795
aVpublic
p4796
aV3d
p4797
aVasp
p4798
aVvedio
p4799
aVvisualization
p4800
aVzend
p4801
aVmarketing
p4802
aVjavascript
p4803
aVdrupal
p4804
aVjob
p4805
aVflyer
p4806
aVhtml5
p4807
aVcompetent
p4808
aVmodeling
p4809
aVteacher
p4810
aVcertified
p4811
aVtranslator
p4812
aVconvert
p4813
aVconnoisseur
p4814
aVtalented
p4815
aVenglish
p4816
aVadmin
p4817
aVof
p4818
aVsolidworks
p4819
aVcopywriter
p4820
aVprovider
p4821
aVexperience
p4822
aVbookkeeper
p4823
aVjoomla
p4824
aVcolumnist
p4825
aVproducts
p4826
aVadvertising
p4827
aVpublished
p4828
aVmixed
p4829
aVpdf
p4830
aVcad
p4831
aVpowerpoint
p4832
aVtypist
p4833
aVppc
p4834
aVdepalog
p4835
aVindustrial
p4836
aVblogger
p4837
aVapp
p4838
aVmba
p4839
aVrank
p4840
aVone
p4841
aVxero
p4842
aVarticle
p4843
aVapply
p4844
aVrep
p4845
aVquality
p4846
aVcloud
p4847
aVspecializing
p4848
aVmanagement
p4849
aVfrom
p4850
aVher
p4851
aVrecruiter
p4852
aVsupport
p4853
aVsystem
p4854
aVknockout
p4855
aVaccountant
p4856
aVpa
p4857
aVmusic
p4858
aViphone
p4859
aVdreamweaver
p4860
aVyrs
p4861
aVespecialist
p4862
aVwebsite
p4863
aVposting
p4864
aVtester
p4865
aVposter
p4866
aVnobody
p4867
aVworker
p4868
aVaca
p4869
aVelse
p4870
aVnirvana
p4871
aVfreelancer
p4872
aVvisual
p4873
aVrepresentative
p4874
aVexcellent
p4875
aVwith
p4876
aVme
p4877
aVcommerce
p4878
aVaccount
p4879
aVillustrator
p4880
aV4500hrsworked
p4881
aVup
p4882
aVwill
p4883
aVtechnical
p4884
aVarchitect
p4885
aVcan
p4886
aVcam
p4887
aVmy
p4888
aVonlinecoupons
p4889
aVva
p4890
aVdedicated
p4891
aVflex
p4892
aVsaasu
p4893
aVnavigate
p4894
aVis
p4895
aVit
p4896
aVlinkedin
p4897
aVan
p4898
aVhigh
p4899
aVmagento
p4900
aVat
p4901
aVchat
p4902
aVin
p4903
aVhonest
p4904
aVmint
p4905
aVhire
p4906
aVtranscriber
p4907
aVquickbooks
p4908
aVauthor
p4909
aVmedia
p4910
aVveteran
p4911
aVwhen
p4912
aVcross
p4913
aVw4m
p4914
aVcraigslist
p4915
aVlamp
p4916
aVcomplex
p4917
aVbuild
p4918
aVonline
p4919
aVleader
p4920
aVxhtml
p4921
aVadministrator
p4922
aVkai
p4923
aVsocial
p4924
aVasterisk
p4925
aVcollection
p4926
aVsys
p4927
aVfb
p4928
aVodesk
p4929
aVstudent
p4930
aVwpf
p4931
aVencoder
p4932
aVsenior
p4933
aVbsc
p4934
aVlead
p4935
aVdatabase
p4936
aVmobile
p4937
aVcpa
p4938
aVuploading
p4939
aVsale
p4940
aVhaving
p4941
aVmarketer
p4942
aVclient
p4943
aVexp
p4944
aVmother
p4945
aVcs5
p4946
aVthe
p4947
aVnotch
p4948
aVphysics
p4949
aVmodeler
p4950
aVanimator
p4951
atRp4952
sg1563
I00
sg1552
I01
sg1553
Nsg1555
Nsg1932
(dp4953
Vresearch
p4954
g17
(g1935
S'\x19\x00\x00\x00\x00\x00\x00\x00'
tRp4955
sVfreelance
p4956
g17
(g1935
S'\x11\x00\x00\x00\x00\x00\x00\x00'
tRp4957
sVwriter
p4958
g17
(g1935
S'&\x00\x00\x00\x00\x00\x00\x00'
tRp4959
sVcustomer
p4960
g17
(g1935
S'\x06\x00\x00\x00\x00\x00\x00\x00'
tRp4961
sVassistant
p4962
g17
(g1935
S'\x04\x00\x00\x00\x00\x00\x00\x00'
tRp4963
sVartist
p4964
g17
(g1935
S'\x03\x00\x00\x00\x00\x00\x00\x00'
tRp4965
sVexcel
p4966
g17
(g1935
S'\x0e\x00\x00\x00\x00\x00\x00\x00'
tRp4967
sVdesign
p4968
g17
(g1935
S'\x08\x00\x00\x00\x00\x00\x00\x00'
tRp4969
sVseo
p4970
g17
(g1935
S'\x1c\x00\x00\x00\x00\x00\x00\x00'
tRp4971
sVsem
p4972
g17
(g1935
S'\x1b\x00\x00\x00\x00\x00\x00\x00'
tRp4973
sVexpert
p4974
g17
(g1935
S'\x10\x00\x00\x00\x00\x00\x00\x00'
tRp4975
sVspecialist
p4976
g17
(g1935
S' \x00\x00\x00\x00\x00\x00\x00'
tRp4977
sVms
p4978
g17
(g1935
S'\x15\x00\x00\x00\x00\x00\x00\x00'
tRp4979
sVgraphic
p4980
g17
(g1935
S'\x12\x00\x00\x00\x00\x00\x00\x00'
tRp4981
sVword
p4982
g17
(g1935
S'$\x00\x00\x00\x00\x00\x00\x00'
tRp4983
sVhtml
p4984
g17
(g1935
S'\x13\x00\x00\x00\x00\x00\x00\x00'
tRp4985
sVcss
p4986
g17
(g1935
S'\x05\x00\x00\x00\x00\x00\x00\x00'
tRp4987
sVdesigner
p4988
g17
(g1935
S'\t\x00\x00\x00\x00\x00\x00\x00'
tRp4989
sVphp
p4990
g17
(g1935
S'\x17\x00\x00\x00\x00\x00\x00\x00'
tRp4991
sVdata
p4992
g17
(g1935
S'\x07\x00\x00\x00\x00\x00\x00\x00'
tRp4993
sVentry
p4994
g17
(g1935
S'\r\x00\x00\x00\x00\x00\x00\x00'
tRp4995
sVphotoshop
p4996
g17
(g1935
S'\x16\x00\x00\x00\x00\x00\x00\x00'
tRp4997
sVtop
p4998
g17
(g1935
S'!\x00\x00\x00\x00\x00\x00\x00'
tRp4999
sVdeveloper
p5000
g17
(g1935
S'\n\x00\x00\x00\x00\x00\x00\x00'
tRp5001
sVweb
p5002
g17
(g1935
S'#\x00\x00\x00\x00\x00\x00\x00'
tRp5003
sVwriting
p5004
g17
(g1935
S"'\x00\x00\x00\x00\x00\x00\x00"
tRp5005
sVadministrative
p5006
g17
(g1935
S'\x00\x00\x00\x00\x00\x00\x00\x00'
tRp5007
sVsmm
p5008
g17
(g1935
S'\x1e\x00\x00\x00\x00\x00\x00\x00'
tRp5009
sVservice
p5010
g17
(g1935
S'\x1d\x00\x00\x00\x00\x00\x00\x00'
tRp5011
sVsoftware
p5012
g17
(g1935
S'\x1f\x00\x00\x00\x00\x00\x00\x00'
tRp5013
sVresearcher
p5014
g17
(g1935
S'\x1a\x00\x00\x00\x00\x00\x00\x00'
tRp5015
sVengineer
p5016
g17
(g1935
S'\x0c\x00\x00\x00\x00\x00\x00\x00'
tRp5017
sVwordpress
p5018
g17
(g1935
S'%\x00\x00\x00\x00\x00\x00\x00'
tRp5019
sVeditor
p5020
g17
(g1935
S'\x0b\x00\x00\x00\x00\x00\x00\x00'
tRp5021
sVanalyst
p5022
g17
(g1935
S'\x01\x00\x00\x00\x00\x00\x00\x00'
tRp5023
sVjquery
p5024
g17
(g1935
S'\x14\x00\x00\x00\x00\x00\x00\x00'
tRp5025
sVand
p5026
g17
(g1935
S'\x02\x00\x00\x00\x00\x00\x00\x00'
tRp5027
sVvirtual
p5028
g17
(g1935
S'"\x00\x00\x00\x00\x00\x00\x00'
tRp5029
sVexperienced
p5030
g17
(g1935
S'\x0f\x00\x00\x00\x00\x00\x00\x00'
tRp5031
sVprofessional
p5032
g17
(g1935
S'\x18\x00\x00\x00\x00\x00\x00\x00'
tRp5033
ssg1570
g1571
sg1568
g1672
sg1673
g1
(g1674
g3
NtRp5034
(dp5035
g1677
I01
sg1678
I01
sg1679
I00
sg1680
g1681
sg4464
g1
(g4465
g3
NtRp5036
(dp5037
g4468
g1481
(g1482
(I0
tS'b'
tRp5038
(I1
(I1
I40
tg19
I00
S"&\x1c\xc4\xfat\xf1\x0e@\xe4\xe2\x9e;:]\x10@s\xab;?\xb2\xa2\x08@\xe4\xe2\x9e;:]\x10@L7\x7f\xb7\xe3.\x0b@L7\x7f\xb7\xe3.\x0b@\xe4\xe2\x9e;:]\x10@\x93/\xb6\xf0_C\x04@\xe4\xe2\x9e;:]\x10@\xb5\xdf\r|\xab=\n@s\xab;?\xb2\xa2\x08@\xbe\xd2\xa5\xf9\x0f|\r@\xe4\xe2\x9e;:]\x10@Fc\xc04*'\x05@&\x1c\xc4\xfat\xf1\x0e@\xbe\xd2\xa5\xf9\x0f|\r@\xaa\x8d\x05;\xe4e\t@\xe4\xe2\x9e;:]\x10@\x93\xb5\xa1\x9f\\@\x0c@\x93\xb5\xa1\x9f\\@\x0c@\xe4\xe2\x9e;:]\x10@\xbe\xd2\xa5\xf9\x0f|\r@\xe4\xe2\x9e;:]\x10@\xb5\xdf\r|\xab=\n@\xb5\xdf\r|\xab=\n@L7\x7f\xb7\xe3.\x0b@s\xab;?\xb2\xa2\x08@\xe4\xe2\x9e;:]\x10@L7\x7f\xb7\xe3.\x0b@\xbe\xd2\xa5\xf9\x0f|\r@\xe4\xe2\x9e;:]\x10@&\x1c\xc4\xfat\xf1\x0e@\xe4\xe2\x9e;:]\x10@\xe4\xe2\x9e;:]\x10@\x93\xb5\xa1\x9f\\@\x0c@\xd0\xa8\xc0\xf7R\xa3\x05@\xe4\xe2\x9e;:]\x10@\xbe\xd2\xa5\xf9\x0f|\r@\xaa\x8d\x05;\xe4e\t@\xe4\xe2\x9e;:]\x10@"
tbsg4470
I50
sg4471
(I40
I40
tp5039
sg4473
g1481
(g1482
(I0
tS'b'
tRp5040
(I1
(I1
tg1488
I00
S'\x00\x00\x00\x00'
tbsg4475
S'dia'
p5041
sbsbsg1572
Nsbsg21
g1837
sg1517
g1
(g1518
g3
NtRp5042
(dp5043
g1521
I01
sg1522
g1847
sbsg1460
Nsg1524
I01
sg1513
g1514
sg1516
g1844
sg1525
g1
(g1580
g3
NtRp5044
(dp5045
g1529
g1530
sg1532
g1919
sg1531
Nsg1583
g1688
sg1460
S''
sg1535
Nsg1534
Nsbsaa(lp5046
g1851
a(dp5047
g1515
Nsg2128
g1
(g2129
g3
NtRp5048
(dp5049
g1465
I0
sg2132
g2133
sg2134
g2135
sg2136
g1481
(g1482
(I0
tS'b'
tRp5050
(I1
(I1
tg19
I00
S'\x00\x00\x00\x00\x00\x00\xf0?'
tbsg1521
I01
sg2138
I0
sbsg21
g1851
sg1517
g1
(g1518
g3
NtRp5051
(dp5052
g1522
g1855
sg2159
g1481
(g1482
(I0
tS'b'
tRp5053
(I1
(I1
tg19
I00
S'\x00\x00\x00\x00\x00\x00\xc0?'
tbsg2161
g1481
(g1482
(I0
tS'b'
tRp5054
(I1
(I1
tg19
I00
S'\x00\x00\x00\x00\x00\x00 @'
tbsg2163
g1481
(g1482
(I0
tS'b'
tRp5055
(I1
(I1
tg19
I00
S'\x00\x00\x00\x00\x00\x00\x00\x00'
tbsg2165
g1481
(g1482
(I0
tS'b'
tRp5056
(I1
(I1
tg19
I00
S'\x00\x00\x00\x00\x00\x00\x00\x00'
tbsg1521
I01
sbsg1460
Nsg1524
I01
sg1513
g1514
sg1516
Nsg1525
g1
(g1580
g3
NtRp5057
(dp5058
g1529
g1530
sg1532
g1919
sg1531
Nsg1583
g1608
sg1460
I0
sg1535
Nsg1534
Nsbsaa(lp5059
g1859
a(dp5060
g1515
Nsg2128
g1
(g2129
g3
NtRp5061
(dp5062
g1465
I0
sg2132
g2133
sg2134
g2135
sg2136
g1481
(g1482
(I0
tS'b'
tRp5063
(I1
(I1
tg19
I00
S'\x00\x00\x00\x00\x00\x00\x00@'
tbsg1521
I01
sg2138
I0
sbsg21
g1859
sg1517
g1
(g1518
g3
NtRp5064
(dp5065
g1522
g1863
sg2159
g1481
(g1482
(I0
tS'b'
tRp5066
(I1
(I1
tg19
I00
S'\x1e\x1e\x1e\x1e\x1e\x1e\x9e?'
tbsg2161
g1481
(g1482
(I0
tS'b'
tRp5067
(I1
(I1
tg19
I00
S'\x00\x00\x00\x00\x00\x00A@'
tbsg2163
g1481
(g1482
(I0
tS'b'
tRp5068
(I1
(I1
tg19
I00
S'\x00\x00\x00\x00\x00\x00\x00\x00'
tbsg2165
g1481
(g1482
(I0
tS'b'
tRp5069
(I1
(I1
tg19
I00
S'\x00\x00\x00\x00\x00\x00\x00\x00'
tbsg1521
I01
sbsg1460
Nsg1524
I01
sg1513
g1514
sg1516
Nsg1525
g1
(g1580
g3
NtRp5070
(dp5071
g1529
g1530
sg1532
g1919
sg1531
Nsg1583
g1608
sg1460
I0
sg1535
Nsg1534
Nsbsaa(lp5072
g1867
a(dp5073
g1515
Nsg2128
g1
(g2129
g3
NtRp5074
(dp5075
g1465
I0
sg2132
g2133
sg2134
g2135
sg2136
g1481
(g1482
(I0
tS'b'
tRp5076
(I1
(I1
tg19
I00
S'\x00\x00\x00\x00\x00\x00\x14@'
tbsg1521
I01
sg2138
I0
sbsg21
g1867
sg1517
g1
(g1518
g3
NtRp5077
(dp5078
g1522
g1871
sg2159
g1481
(g1482
(I0
tS'b'
tRp5079
(I1
(I1
tg19
I00
S'\x11\x11\x11\x11\x11\x11\x91?'
tbsg2161
g1481
(g1482
(I0
tS'b'
tRp5080
(I1
(I1
tg19
I00
S'\x00\x00\x00\x00\x00\x00N@'
tbsg2163
g1481
(g1482
(I0
tS'b'
tRp5081
(I1
(I1
tg19
I00
S'\x00\x00\x00\x00\x00\x00\x00\x00'
tbsg2165
g1481
(g1482
(I0
tS'b'
tRp5082
(I1
(I1
tg19
I00
S'\x00\x00\x00\x00\x00\x00\x00\x00'
tbsg1521
I01
sbsg1460
F0
sg1524
I01
sg1513
g1514
sg1516
Nsg1525
g1
(g1580
g3
NtRp5083
(dp5084
g1529
g1530
sg1532
g1919
sg1531
Nsg1583
g1584
sg1460
F0
sg1535
Nsg1534
Nsbsaa(lp5085
g243
a(dp5086
g1515
Nsg2128
g1
(g2129
g3
NtRp5087
(dp5088
g1465
I0
sg2132
g2133
sg2134
g2135
sg2136
g1481
(g1482
(I0
tS'b'
tRp5089
(I1
(I1
tg19
I00
S'\x00\x00\x00^\xe4\x11\xa8A'
tbsg1521
I01
sg2138
I0
sbsg21
g243
sg1517
g1
(g1518
g3
NtRp5090
(dp5091
g1522
g1878
sg2159
g1481
(g1482
(I0
tS'b'
tRp5092
(I1
(I1
tg19
I00
S'\xa50\x06{\xfcb\xb6>'
tbsg2161
g1481
(g1482
(I0
tS'b'
tRp5093
(I1
(I1
tg19
I00
S'\x00\x00\x00\x00\xea\xde&A'
tbsg2163
g1481
(g1482
(I0
tS'b'
tRp5094
(I1
(I1
tg19
I00
S'\x00\x00\x00\xa8\x17\xfb\xa7A'
tbsg2165
g1481
(g1482
(I0
tS'b'
tRp5095
(I1
(I1
tg19
I00
S'v\x91~q\xce\xc6p\xc0'
tbsg1521
I01
sbsg1460
Nsg1524
I01
sg1513
g1514
sg1516
Nsg1525
g1
(g1580
g3
NtRp5096
(dp5097
g1529
g1530
sg1532
g1919
sg1531
Nsg1583
g1608
sg1460
I0
sg1535
Nsg1534
Nsbsaa(lp5098
g1882
a(dp5099
g1515
Nsg2128
g1
(g2129
g3
NtRp5100
(dp5101
g1465
I0
sg2132
g2133
sg2134
g2135
sg2136
g1481
(g1482
(I0
tS'b'
tRp5102
(I1
(I1
tg19
I00
S'\x00\x00\x00\xa0\x00-\xd4A'
tbsg1521
I01
sg2138
I0
sbsg21
g1882
sg1517
g1
(g1518
g3
NtRp5103
(dp5104
g1522
g1886
sg2159
g1481
(g1482
(I0
tS'b'
tRp5105
(I1
(I1
tg19
I00
S'\xb8\xf3\xdaoq\x11%>'
tbsg2161
g1481
(g1482
(I0
tS'b'
tRp5106
(I1
(I1
tg19
I00
S'\x00\x00\x00\x80VM\xb8A'
tbsg2163
g1481
(g1482
(I0
tS'b'
tRp5107
(I1
(I1
tg19
I00
S'\x00\x00\x00\xc0\xa16\xccA'
tbsg2165
g1481
(g1482
(I0
tS'b'
tRp5108
(I1
(I1
tg19
I00
S'!\xbaw/;\x93\x02\xc0'
tbsg1521
I01
sbsg1460
I946684800
sg1524
I01
sg1513
g1514
sg1516
Nsg1525
g1
(g1887
g3
NtRp5109
(dp5110
g1529
g1530
sg1532
g1919
sg1534
Nsg1531
I946684800
sg1535
(dp5111
g1891
g1892
ssbsaatRp5112
sg1249
g1508
((lp5113
(lp5114
g1511
a(dp5115
g1515
Nsg21
g1511
sg1517
g1
(g1518
g3
NtRp5116
(dp5117
g1521
I01
sg1522
g1523
sbsg1460
Nsg1524
I01
sg1513
g1514
sg1516
Nsg1525
g1
(g1526
g3
NtRp5118
(dp5119
g1529
g1530
sg1532
(lp5120
sg1534
Nsg1531
Nsg1535
(dp5121
g1537
(dp5122
g1539
I0
sg1540
I1
sssbsaa(lp5123
g1542
a(dp5124
g1515
Nsg21
g1542
sg1517
Nsg1460
Nsg1524
I01
sg1513
g1514
sg1516
Nsg1525
g1
(g1544
g3
NtRp5125
(dp5126
g1529
Nsg1532
g5120
sg1534
g1
(g1547
g3
NtRp5127
(dp5128
g1550
g1551
sg1554
Nsg1556
g1557
sg1558
g1559
sg1561
g1562
sg1564
g1565
sg1534
Nsg1560
F1
sg1566
I0
sg1567
Nsg1928
I00
sg1929
g1930
((ltRp5129
sg1563
I01
sg1552
I01
sg1553
Nsg1555
Nsg1932
(dp5130
Vunited states,philippines
p5131
g17
(g1935
S'\x04\x00\x00\x00\x00\x00\x00\x00'
tRp5132
sVunited arab emirates,united states
p5133
g17
(g1935
S'\x02\x00\x00\x00\x00\x00\x00\x00'
tRp5134
sVunited states,ukraine
p5135
g17
(g1935
S'\x05\x00\x00\x00\x00\x00\x00\x00'
tRp5136
sVportugal,argentina
p5137
g17
(g1935
S'\x01\x00\x00\x00\x00\x00\x00\x00'
tRp5138
sVunited states,india
p5139
g17
(g1935
S'\x03\x00\x00\x00\x00\x00\x00\x00'
tRp5140
sVunited states,united states
p5141
g17
(g1935
S'\x06\x00\x00\x00\x00\x00\x00\x00'
tRp5142
sVaustralia,philippines
p5143
g17
(g1935
S'\x00\x00\x00\x00\x00\x00\x00\x00'
tRp5144
ssg1570
g1571
sg1568
g1569
sg1572
Nsbsg1531
Nsg1535
Nsbsaa(lp5145
g1574
a(dp5146
g1515
Nsg21
g1574
sg1517
g1
(g1518
g3
NtRp5147
(dp5148
g1521
I01
sg1522
g1579
sbsg1460
F0.33000000000000002
sg1524
I00
sg1513
g1576
sg1516
Nsg1525
g1
(g1580
g3
NtRp5149
(dp5150
g1529
g1530
sg1532
g5120
sg1531
Nsg1583
g1584
sg1460
F0
sg1535
Nsg1534
g1
(g1585
g3
NtRp5151
(dp5152
g1588
I01
sg2011
(lp5153
VEnglish Spelling Test (U.S. Version)
p5154
aVEnglish Spelling Test (UK Version)
p5155
aVGoogle Android Programming Test
p5156
aVPHP5 Test
p5157
aVPrinciples of  Web Graphics Design Test
p5158
aVRuby on Rails  2.3 Test
p5159
aVSQL Test
p5160
aVU.S. English Basic Skills Test
p5161
aViPhone Programming OS 2.1 Test
p5162
aVoDesk Readiness Test for Affiliated Contractors
p5163
aVoDesk Readiness Test for Agency Contractors
p5164
aVoDesk Readiness Test for Independent Contractors and Company Managers
p5165
aVoDesk Readiness Test for Independent Contractors and Staffing Managers
p5166
asg1570
g1589
sg1932
(dp5167
g5154
I0
sg5156
I2
sg5161
I7
sg5164
I10
sg5162
I8
sg5160
I6
sg5159
I5
sg5157
I3
sg5166
I12
sg5155
I1
sg5163
I9
sg5158
I4
sg5165
I11
ssg1590
S'='
sg1591
I01
sbsbsaa(lp5168
g1593
a(dp5169
g1515
Nsg2128
g1
(g2129
g3
NtRp5170
(dp5171
g1465
I0
sg2132
g2133
sg2134
g2135
sg2136
g1481
(g1482
(I0
tS'b'
tRp5172
(I1
(I1
tg19
I00
S'\x00\x00\x00\x00\x00\x00\x14\xc0'
tbsg1521
I01
sg2138
I0
sbsg21
g1593
sg1517
Nsg1460
Nsg1524
I01
sg1513
g1514
sg1516
Nsg1525
g1
(g1595
g3
NtRp5173
(dp5174
g1532
Nsg1534
Nsg1531
Nsg1529
Nsg1598
(lp5175
g1
(g1600
g3
NtRp5176
(dp5177
g1529
g1530
sg1532
g5120
sg1534
Nsg1531
Nsg1535
(dp5178
g1604
g1605
ssbag1
(g1580
g3
NtRp5179
(dp5180
g1529
g1530
sg1532
g5120
sg1531
Nsg1583
g1608
sg1460
I0
sg1535
Nsg1534
Nsbasg1535
Nsbsaa(lp5181
g1610
a(dp5182
g1515
Nsg2128
g1
(g2129
g3
NtRp5183
(dp5184
g1465
I0
sg2132
g2133
sg2134
g2135
sg2136
g1481
(g1482
(I0
tS'b'
tRp5185
(I1
(I1
tg19
I00
S'\x00\x00\x00\x00\x00\x00\x14\xc0'
tbsg1521
I01
sg2138
I0
sbsg21
g1610
sg1517
Nsg1460
Nsg1524
I01
sg1513
g1514
sg1516
Nsg1525
g5173
saa(lp5186
g1613
a(dp5187
g1515
Nsg2128
g1
(g2129
g3
NtRp5188
(dp5189
g1465
I0
sg2132
g2133
sg2134
g2135
sg2136
g1481
(g1482
(I0
tS'b'
tRp5190
(I1
(I1
tg19
I00
S'\x00\x00\x00\x00\x00\x00A@'
tbsg1521
I01
sg2138
I0
sbsg21
g1613
sg1517
g1
(g1518
g3
NtRp5191
(dp5192
g1522
g1617
sg2159
g1481
(g1482
(I0
tS'b'
tRp5193
(I1
(I1
tg19
I00
S'\x8b\x86\xefE\x7f\xac4?'
tbsg2161
g1481
(g1482
(I0
tS'b'
tRp5194
(I1
(I1
tg19
I00
S'\x00\x00\x00\x00\x00\xc4\xa8@'
tbsg2163
g1481
(g1482
(I0
tS'b'
tRp5195
(I1
(I1
tg19
I00
S'\x00\x00\x00\x00\x00\x00\xf0?'
tbsg2165
g1481
(g1482
(I0
tS'b'
tRp5196
(I1
(I1
tg19
I00
S'\x8b\x86\xefE\x7f\xac4\xbf'
tbsg1521
I01
sbsg1460
Nsg1524
I01
sg1513
g1514
sg1516
Nsg1525
g1
(g1580
g3
NtRp5197
(dp5198
g1529
g1530
sg1532
g5120
sg1531
Nsg1583
g1608
sg1460
I0
sg1535
Nsg1534
Nsbsaa(lp5199
g1621
a(dp5200
g1515
Nsg2128
g1
(g2129
g3
NtRp5201
(dp5202
g1465
I0
sg2132
g2133
sg2134
g2135
sg2136
g1481
(g1482
(I0
tS'b'
tRp5203
(I1
(I1
tg19
I00
S'\x00\x00\x00\x00\x00\x00\x00\x00'
tbsg1521
I01
sg2138
I0
sbsg21
g1621
sg1517
g1
(g1518
g3
NtRp5204
(dp5205
g1522
g1625
sg2159
g1481
(g1482
(I0
tS'b'
tRp5206
(I1
(I1
tg19
I00
S'\x9a\x99\x99\x99\x99\x99\xc9?'
tbsg2161
g1481
(g1482
(I0
tS'b'
tRp5207
(I1
(I1
tg19
I00
S'\x00\x00\x00\x00\x00\x00\x14@'
tbsg2163
g1481
(g1482
(I0
tS'b'
tRp5208
(I1
(I1
tg19
I00
S'\x00\x00\x00\x00\x00\x00\x00\x00'
tbsg2165
g1481
(g1482
(I0
tS'b'
tRp5209
(I1
(I1
tg19
I00
S'\x00\x00\x00\x00\x00\x00\x00\x00'
tbsg1521
I01
sbsg1460
Nsg1524
I01
sg1513
g1514
sg1516
Nsg1525
g1
(g1580
g3
NtRp5210
(dp5211
g1529
g1530
sg1532
g5120
sg1531
Nsg1583
g1584
sg1460
F0
sg1535
Nsg1534
Nsbsaa(lp5212
g1629
a(dp5213
g1515
Nsg21
g1629
sg1517
g1
(g1518
g3
NtRp5214
(dp5215
g1521
I01
sg1522
g1633
sbsg1460
Nsg1524
I01
sg1513
g1514
sg1516
Nsg1525
g1
(g1580
g3
NtRp5216
(dp5217
g1529
g1530
sg1532
g5120
sg1531
Nsg1583
g1636
sg1460
I00
sg1535
Nsg1534
Nsbsaa(lp5218
g1638
a(dp5219
g1515
Nsg2128
g1
(g2129
g3
NtRp5220
(dp5221
g1465
I0
sg2132
g2133
sg2134
g2135
sg2136
g1481
(g1482
(I0
tS'b'
tRp5222
(I1
(I1
tg19
I00
S'\x00\x00\x00\x00\x00\x00\x00\x00'
tbsg1521
I01
sg2138
I0
sbsg21
g1638
sg1517
g1
(g1518
g3
NtRp5223
(dp5224
g1522
g1642
sg2159
g1481
(g1482
(I0
tS'b'
tRp5225
(I1
(I1
tg19
I00
S'\x1a\xa4A\x1a\xa4A\x8a?'
tbsg2161
g1481
(g1482
(I0
tS'b'
tRp5226
(I1
(I1
tg19
I00
S'\x00\x00\x00\x00\x00\x80S@'
tbsg2163
g1481
(g1482
(I0
tS'b'
tRp5227
(I1
(I1
tg19
I00
S'\x00\x00\x00\x00\x00\x00\x00\x00'
tbsg2165
g1481
(g1482
(I0
tS'b'
tRp5228
(I1
(I1
tg19
I00
S'\x00\x00\x00\x00\x00\x00\x00\x00'
tbsg1521
I01
sbsg1460
Nsg1524
I01
sg1513
g1514
sg1516
Nsg1525
g1
(g1580
g3
NtRp5229
(dp5230
g1529
g1530
sg1532
g5120
sg1531
Nsg1583
g1584
sg1460
F0
sg1535
Nsg1534
Nsbsaa(lp5231
g1646
a(dp5232
g1515
Nsg2128
g1
(g2129
g3
NtRp5233
(dp5234
g1465
I0
sg2132
g2133
sg2134
g2135
sg2136
g1481
(g1482
(I0
tS'b'
tRp5235
(I1
(I1
tg19
I00
S'\x00\x00\x00\x00\x00\x00\x00\x00'
tbsg1521
I01
sg2138
I0
sbsg21
g1646
sg1517
g1
(g1518
g3
NtRp5236
(dp5237
g1522
g1650
sg2159
g1481
(g1482
(I0
tS'b'
tRp5238
(I1
(I1
tg19
I00
S'\x00\x00\x00\x00\x00\x00\xf0?'
tbsg2161
g1481
(g1482
(I0
tS'b'
tRp5239
(I1
(I1
tg19
I00
S'\x00\x00\x00\x00\x00\x00\xf0?'
tbsg2163
g1481
(g1482
(I0
tS'b'
tRp5240
(I1
(I1
tg19
I00
S'\x00\x00\x00\x00\x00\x00\x00\x00'
tbsg2165
g1481
(g1482
(I0
tS'b'
tRp5241
(I1
(I1
tg19
I00
S'\x00\x00\x00\x00\x00\x00\x00\x00'
tbsg1521
I01
sbsg1460
Nsg1524
I01
sg1513
g1514
sg1516
Nsg1525
g1
(g1580
g3
NtRp5242
(dp5243
g1529
g1530
sg1532
g5120
sg1531
Nsg1583
g1608
sg1460
I0
sg1535
Nsg1534
Nsbsaa(lp5244
g1654
a(dp5245
g1515
Nsg2128
g1
(g2129
g3
NtRp5246
(dp5247
g1465
I0
sg2132
g2133
sg2134
g2135
sg2136
g1481
(g1482
(I0
tS'b'
tRp5248
(I1
(I1
tg19
I00
S'\x00\x00\x00\x00\x00\x00\x00\x00'
tbsg1521
I01
sg2138
I0
sbsg21
g1654
sg1517
g1
(g1518
g3
NtRp5249
(dp5250
g1522
g1658
sg2159
g1481
(g1482
(I0
tS'b'
tRp5251
(I1
(I1
tg19
I00
S'\x00\x00\x00\x00\x00\x00\xf0?'
tbsg2161
g1481
(g1482
(I0
tS'b'
tRp5252
(I1
(I1
tg19
I00
S'\x00\x00\x00\x00\x00\x00\xf0?'
tbsg2163
g1481
(g1482
(I0
tS'b'
tRp5253
(I1
(I1
tg19
I00
S'\x00\x00\x00\x00\x00\x00\x00\x00'
tbsg2165
g1481
(g1482
(I0
tS'b'
tRp5254
(I1
(I1
tg19
I00
S'\x00\x00\x00\x00\x00\x00\x00\x00'
tbsg1521
I01
sbsg1460
Nsg1524
I01
sg1513
g1514
sg1516
Nsg1525
g1
(g1580
g3
NtRp5255
(dp5256
g1529
g1530
sg1532
g5120
sg1531
Nsg1583
g1608
sg1460
I0
sg1535
Nsg1534
Nsbsaa(lp5257
g1662
a(dp5258
S'tranformer'
p5259
(icloudml.trainer.transformers
SuppressTransformer
p5260
(dp5261
bsg1515
g1
(g1664
g3
NtRp5262
(dp5263
g1550
g1667
sg1554
Nsg1556
g1668
sg1558
g1669
sg1561
g1670
sg1564
g1671
sg1534
Nsg1560
F1
sg1566
I10
sg1567
Nsg1928
I00
sg1563
I00
sg1552
I01
sg1553
Nsg1555
Nsg1570
g1571
sg1568
g1672
sg1673
g1
(g1674
g3
NtRp5264
(dp5265
g1677
I01
sg1678
I01
sg1679
I00
sg1680
g1681
sbsg1572
Nsbsg21
g1662
sg1517
g1
(g1518
g3
NtRp5266
(dp5267
g1521
I01
sg1522
g1685
sbsg1460
Nsg1524
I01
sg1513
g1514
sg1516
g1682
sg1525
g1
(g1580
g3
NtRp5268
(dp5269
g1529
g1530
sg1532
g5120
sg1531
Nsg1583
g1688
sg1460
S''
sg1535
Nsg1534
Nsbsaa(lp5270
g1690
a(dp5271
g1515
Nsg2128
g1
(g2129
g3
NtRp5272
(dp5273
g1465
I0
sg2132
g2133
sg2134
g2135
sg2136
g1481
(g1482
(I0
tS'b'
tRp5274
(I1
(I1
tg19
I00
S'\x00\x00\x00\x00\x00\x00\xf0?'
tbsg1521
I01
sg2138
I0
sbsg21
g1690
sg1517
g1
(g1518
g3
NtRp5275
(dp5276
g1522
g1694
sg2159
g1481
(g1482
(I0
tS'b'
tRp5277
(I1
(I1
tg19
I00
S'\x00\x00\x00\x00\x00\x00\xe0?'
tbsg2161
g1481
(g1482
(I0
tS'b'
tRp5278
(I1
(I1
tg19
I00
S'\x00\x00\x00\x00\x00\x00\x00@'
tbsg2163
g1481
(g1482
(I0
tS'b'
tRp5279
(I1
(I1
tg19
I00
S'\x00\x00\x00\x00\x00\x00\x00\x00'
tbsg2165
g1481
(g1482
(I0
tS'b'
tRp5280
(I1
(I1
tg19
I00
S'\x00\x00\x00\x00\x00\x00\x00\x00'
tbsg1521
I01
sbsg1460
Nsg1524
I01
sg1513
g1514
sg1516
Nsg1525
g1
(g1580
g3
NtRp5281
(dp5282
g1529
g1530
sg1532
g5120
sg1531
Nsg1583
g1608
sg1460
I0
sg1535
Nsg1534
Nsbsaa(lp5283
g1698
a(dp5284
g1515
Nsg2128
g1
(g2129
g3
NtRp5285
(dp5286
g1465
I0
sg2132
g2133
sg2134
g2135
sg2136
g1481
(g1482
(I0
tS'b'
tRp5287
(I1
(I1
tg19
I00
S'\x00\x00\x00\x00\x00\x00\x00\x00'
tbsg1521
I01
sg2138
I0
sbsg21
g1698
sg1517
g1
(g1518
g3
NtRp5288
(dp5289
g1522
g1702
sg2159
g1481
(g1482
(I0
tS'b'
tRp5290
(I1
(I1
tg19
I00
S'\x14;\xb1\x13;\xb1\xb3?'
tbsg2161
g1481
(g1482
(I0
tS'b'
tRp5291
(I1
(I1
tg19
I00
S'\x00\x00\x00\x00\x00\x00*@'
tbsg2163
g1481
(g1482
(I0
tS'b'
tRp5292
(I1
(I1
tg19
I00
S'\x00\x00\x00\x00\x00\x00\x00\x00'
tbsg2165
g1481
(g1482
(I0
tS'b'
tRp5293
(I1
(I1
tg19
I00
S'\x00\x00\x00\x00\x00\x00\x00\x00'
tbsg1521
I01
sbsg1460
Nsg1524
I01
sg1513
g1514
sg1516
Nsg1525
g1
(g1580
g3
NtRp5294
(dp5295
g1529
g1530
sg1532
g5120
sg1531
Nsg1583
g1608
sg1460
I0
sg1535
Nsg1534
Nsbsaa(lp5296
g1706
a(dp5297
g1515
Nsg2128
g1
(g2129
g3
NtRp5298
(dp5299
g1465
I0
sg2132
g2133
sg2134
g2135
sg2136
g1481
(g1482
(I0
tS'b'
tRp5300
(I1
(I1
tg19
I00
S'\x00\x00\x00\x00\x00\x00\x00\x00'
tbsg1521
I01
sg2138
I0
sbsg21
g1706
sg1517
g1
(g1518
g3
NtRp5301
(dp5302
g1522
g1710
sg2159
g1481
(g1482
(I0
tS'b'
tRp5303
(I1
(I1
tg19
I00
S'\x00\x00\x00\x00\x00\x00\xe0?'
tbsg2161
g1481
(g1482
(I0
tS'b'
tRp5304
(I1
(I1
tg19
I00
S'\x00\x00\x00\x00\x00\x00\x00@'
tbsg2163
g1481
(g1482
(I0
tS'b'
tRp5305
(I1
(I1
tg19
I00
S'\x00\x00\x00\x00\x00\x00\x00\x00'
tbsg2165
g1481
(g1482
(I0
tS'b'
tRp5306
(I1
(I1
tg19
I00
S'\x00\x00\x00\x00\x00\x00\x00\x00'
tbsg1521
I01
sbsg1460
Nsg1524
I01
sg1513
g1514
sg1516
Nsg1525
g1
(g1580
g3
NtRp5307
(dp5308
g1529
g1530
sg1532
g5120
sg1531
Nsg1583
g1608
sg1460
I0
sg1535
Nsg1534
Nsbsaa(lp5309
g1714
a(dp5310
g1515
Nsg2128
g1
(g2129
g3
NtRp5311
(dp5312
g1465
I0
sg2132
g2133
sg2134
g2135
sg2136
g1481
(g1482
(I0
tS'b'
tRp5313
(I1
(I1
tg19
I00
S'\x00\x00\x00\x00\x00\x00\xf8\x7f'
tbsg1521
I01
sg2138
I0
sbsg21
g1714
sg1517
g1
(g1518
g3
NtRp5314
(dp5315
g1522
g1718
sg2159
g1481
(g1482
(I0
tS'b'
tRp5316
(I1
(I1
tg19
I00
S'\x00\x00\x00\x00\x00\x00\xf0?'
tbsg2161
g1481
(g1482
(I0
tS'b'
tRp5317
(I1
(I1
tg19
I00
S'\x00\x00\x00\x00\x00\x00\xf0?'
tbsg2163
g1481
(g1482
(I0
tS'b'
tRp5318
(I1
(I1
tg19
I00
S'\x00\x00\x00\x00\x00\x00\x00\x00'
tbsg2165
g1481
(g1482
(I0
tS'b'
tRp5319
(I1
(I1
tg19
I00
S'\x00\x00\x00\x00\x00\x00\x00\x00'
tbsg1521
I01
sbsg1460
Nsg1524
I01
sg1513
g1514
sg1516
Nsg1525
g1
(g1580
g3
NtRp5320
(dp5321
g1529
g1530
sg1532
g5120
sg1531
Nsg1583
g1584
sg1460
F0
sg1535
Nsg1534
Nsbsaa(lp5322
g1722
a(dp5323
g1515
Nsg2128
g1
(g2129
g3
NtRp5324
(dp5325
g1465
I0
sg2132
g2133
sg2134
g2135
sg2136
g1481
(g1482
(I0
tS'b'
tRp5326
(I1
(I1
tg19
I00
S'\x00\x00\x00\x00\x00\x00\x00\x00'
tbsg1521
I01
sg2138
I0
sbsg21
g1722
sg1517
g1
(g1518
g3
NtRp5327
(dp5328
g1522
g1726
sg2159
g1481
(g1482
(I0
tS'b'
tRp5329
(I1
(I1
tg19
I00
S'\x1a\xa4A\x1a\xa4A\x8a?'
tbsg2161
g1481
(g1482
(I0
tS'b'
tRp5330
(I1
(I1
tg19
I00
S'\x00\x00\x00\x00\x00\x80S@'
tbsg2163
g1481
(g1482
(I0
tS'b'
tRp5331
(I1
(I1
tg19
I00
S'\x00\x00\x00\x00\x00\x00\x00\x00'
tbsg2165
g1481
(g1482
(I0
tS'b'
tRp5332
(I1
(I1
tg19
I00
S'\x00\x00\x00\x00\x00\x00\x00\x00'
tbsg1521
I01
sbsg1460
Nsg1524
I01
sg1513
g1514
sg1516
Nsg1525
g1
(g1580
g3
NtRp5333
(dp5334
g1529
g1530
sg1532
g5120
sg1531
Nsg1583
g1584
sg1460
F0
sg1535
Nsg1534
Nsbsaa(lp5335
g1730
a(dp5336
g1515
Nsg2128
g1
(g2129
g3
NtRp5337
(dp5338
g1465
I0
sg2132
g2133
sg2134
g2135
sg2136
g1481
(g1482
(I0
tS'b'
tRp5339
(I1
(I1
tg19
I00
S'\x00\x00\x00\x00\x00\x00\x00\x00'
tbsg1521
I01
sg2138
I0
sbsg21
g1730
sg1517
g1
(g1518
g3
NtRp5340
(dp5341
g1522
g1734
sg2159
g1481
(g1482
(I0
tS'b'
tRp5342
(I1
(I1
tg19
I00
S'\x14;\xb1\x13;\xb1\xb3?'
tbsg2161
g1481
(g1482
(I0
tS'b'
tRp5343
(I1
(I1
tg19
I00
S'\x00\x00\x00\x00\x00\x00*@'
tbsg2163
g1481
(g1482
(I0
tS'b'
tRp5344
(I1
(I1
tg19
I00
S'\x00\x00\x00\x00\x00\x00\x00\x00'
tbsg2165
g1481
(g1482
(I0
tS'b'
tRp5345
(I1
(I1
tg19
I00
S'\x00\x00\x00\x00\x00\x00\x00\x00'
tbsg1521
I01
sbsg1460
Nsg1524
I01
sg1513
g1514
sg1516
Nsg1525
g1
(g1580
g3
NtRp5346
(dp5347
g1529
g1530
sg1532
g5120
sg1531
Nsg1583
g1608
sg1460
I0
sg1535
Nsg1534
Nsbsaa(lp5348
g1738
a(dp5349
g1515
Nsg2128
g1
(g2129
g3
NtRp5350
(dp5351
g1465
I0
sg2132
g2133
sg2134
g2135
sg2136
g1481
(g1482
(I0
tS'b'
tRp5352
(I1
(I1
tg19
I00
S'\x00\x00\x00\x00\x00\x00\x00\x00'
tbsg1521
I01
sg2138
I0
sbsg21
g1738
sg1517
g1
(g1518
g3
NtRp5353
(dp5354
g1522
g1742
sg2159
g1481
(g1482
(I0
tS'b'
tRp5355
(I1
(I1
tg19
I00
S'\x00\x00\x00\x00\x00\x00\xf0?'
tbsg2161
g1481
(g1482
(I0
tS'b'
tRp5356
(I1
(I1
tg19
I00
S'\x00\x00\x00\x00\x00\x00\xf0?'
tbsg2163
g1481
(g1482
(I0
tS'b'
tRp5357
(I1
(I1
tg19
I00
S'\x00\x00\x00\x00\x00\x00\x00\x00'
tbsg2165
g1481
(g1482
(I0
tS'b'
tRp5358
(I1
(I1
tg19
I00
S'\x00\x00\x00\x00\x00\x00\x00\x00'
tbsg1521
I01
sbsg1460
Nsg1524
I01
sg1513
g1514
sg1516
Nsg1525
g1
(g1580
g3
NtRp5359
(dp5360
g1529
g1530
sg1532
g5120
sg1531
Nsg1583
g1636
sg1460
I00
sg1535
Nsg1534
Nsbsaa(lp5361
g1746
a(dp5362
g1515
Nsg2128
g1
(g2129
g3
NtRp5363
(dp5364
g1465
I0
sg2132
g2133
sg2134
g2135
sg2136
g1481
(g1482
(I0
tS'b'
tRp5365
(I1
(I1
tg19
I00
S'\x00\x00\x00\x00\x00\x00D@'
tbsg1521
I01
sg2138
I0
sbsg21
g1746
sg1517
g1
(g1518
g3
NtRp5366
(dp5367
g1522
g1750
sg2159
g1481
(g1482
(I0
tS'b'
tRp5368
(I1
(I1
tg19
I00
S'\x9a\x99\x99\x99\x99\x99\xb9?'
tbsg2161
g1481
(g1482
(I0
tS'b'
tRp5369
(I1
(I1
tg19
I00
S'\x00\x00\x00\x00\x00\x00$@'
tbsg2163
g1481
(g1482
(I0
tS'b'
tRp5370
(I1
(I1
tg19
I00
S'\x00\x00\x00\x00\x00\x00>@'
tbsg2165
g1481
(g1482
(I0
tS'b'
tRp5371
(I1
(I1
tg19
I00
S'\x00\x00\x00\x00\x00\x00\x08\xc0'
tbsg1521
I01
sbsg1460
Nsg1524
I01
sg1513
g1514
sg1516
Nsg1525
g1
(g1580
g3
NtRp5372
(dp5373
g1529
g1530
sg1532
g5120
sg1531
Nsg1583
g1608
sg1460
I0
sg1535
Nsg1534
Nsbsaa(lp5374
g1754
a(dp5375
g1515
Nsg2128
g1
(g2129
g3
NtRp5376
(dp5377
g1465
I0
sg2132
g2133
sg2134
g2135
sg2136
g1481
(g1482
(I0
tS'b'
tRp5378
(I1
(I1
tg19
I00
S'\x00\x00\x00\x00\x00\x00\x00\x00'
tbsg1521
I01
sg2138
I0
sbsg21
g1754
sg1517
g1
(g1518
g3
NtRp5379
(dp5380
g1522
g1758
sg2159
g1481
(g1482
(I0
tS'b'
tRp5381
(I1
(I1
tg19
I00
S'\xbdl@1\xb2\xe4\xf0>'
tbsg2161
g1481
(g1482
(I0
tS'b'
tRp5382
(I1
(I1
tg19
I00
S'\x02:m\xa0\xcbN\xee@'
tbsg2163
g1481
(g1482
(I0
tS'b'
tRp5383
(I1
(I1
tg19
I00
S'\x00\x00\x00\x00\x00\x00\x00\x00'
tbsg2165
g1481
(g1482
(I0
tS'b'
tRp5384
(I1
(I1
tg19
I00
S'\x00\x00\x00\x00\x00\x00\x00\x00'
tbsg1521
I01
sbsg1460
Nsg1524
I01
sg1513
g1514
sg1516
Nsg1525
g1
(g1580
g3
NtRp5385
(dp5386
g1529
g1530
sg1532
g5120
sg1531
Nsg1583
g1584
sg1460
F0
sg1535
Nsg1534
Nsbsaa(lp5387
g1762
a(dp5388
g1515
Nsg2128
g1
(g2129
g3
NtRp5389
(dp5390
g1465
I0
sg2132
g2133
sg2134
g2135
sg2136
g1481
(g1482
(I0
tS'b'
tRp5391
(I1
(I1
tg19
I00
S'\x00\x00\x00\x00\x00\x00\xf8\x7f'
tbsg1521
I01
sg2138
I0
sbsg21
g1762
sg1517
g1
(g1518
g3
NtRp5392
(dp5393
g1522
g1766
sg2159
g1481
(g1482
(I0
tS'b'
tRp5394
(I1
(I1
tg19
I00
S'\x00\x00\x00\x00\x00\x00\xf0?'
tbsg2161
g1481
(g1482
(I0
tS'b'
tRp5395
(I1
(I1
tg19
I00
S'\x00\x00\x00\x00\x00\x00\xf0?'
tbsg2163
g1481
(g1482
(I0
tS'b'
tRp5396
(I1
(I1
tg19
I00
S'\x00\x00\x00\x00\x00\x00\x00\x00'
tbsg2165
g1481
(g1482
(I0
tS'b'
tRp5397
(I1
(I1
tg19
I00
S'\x00\x00\x00\x00\x00\x00\x00\x00'
tbsg1521
I01
sbsg1460
Nsg1524
I00
sg1513
g1514
sg1516
Nsg1525
g1
(g1580
g3
NtRp5398
(dp5399
g1529
g1530
sg1532
g5120
sg1531
Nsg1583
g1608
sg1460
I0
sg1535
Nsg1534
Nsbsaa(lp5400
g1770
a(dp5401
g1515
Nsg2128
g1
(g2129
g3
NtRp5402
(dp5403
g1465
I0
sg2132
g2133
sg2134
g2135
sg2136
g1481
(g1482
(I0
tS'b'
tRp5404
(I1
(I1
tg19
I00
S'H\xe1z\x14\xae\xc7!@'
tbsg1521
I01
sg2138
I0
sbsg21
g1770
sg1517
g1
(g1518
g3
NtRp5405
(dp5406
g1522
g1774
sg2159
g1481
(g1482
(I0
tS'b'
tRp5407
(I1
(I1
tg19
I00
S'\xc2\xe0`p08\x98?'
tbsg2161
g1481
(g1482
(I0
tS'b'
tRp5408
(I1
(I1
tg19
I00
S'\xa4p=\n\xd7#E@'
tbsg2163
g1481
(g1482
(I0
tS'b'
tRp5409
(I1
(I1
tg19
I00
S'\xc3\xf5(\\\x8f\xc2\x01@'
tbsg2165
g1481
(g1482
(I0
tS'b'
tRp5410
(I1
(I1
tg19
I00
S'\xd8\x88k\xc45\xe2\xaa\xbf'
tbsg1521
I01
sbsg1460
Nsg1524
I01
sg1513
g1514
sg1516
Nsg1525
g1
(g1580
g3
NtRp5411
(dp5412
g1529
g1530
sg1532
g5120
sg1531
Nsg1583
g1584
sg1460
F0
sg1535
Nsg1534
Nsbsaa(lp5413
g1778
a(dp5414
g1515
Nsg2128
g1
(g2129
g3
NtRp5415
(dp5416
g1465
I0
sg2132
g2133
sg2134
g2135
sg2136
g1481
(g1482
(I0
tS'b'
tRp5417
(I1
(I1
tg19
I00
S'\x00\x00\x00\x00\x00\x00\x00@'
tbsg1521
I01
sg2138
I0
sbsg21
g1778
sg1517
g1
(g1518
g3
NtRp5418
(dp5419
g1522
g1782
sg2159
g1481
(g1482
(I0
tS'b'
tRp5420
(I1
(I1
tg19
I00
S'\x00\x00\x00\x00\x00\x00\xe0?'
tbsg2161
g1481
(g1482
(I0
tS'b'
tRp5421
(I1
(I1
tg19
I00
S'\x00\x00\x00\x00\x00\x00\x00@'
tbsg2163
g1481
(g1482
(I0
tS'b'
tRp5422
(I1
(I1
tg19
I00
S'\x00\x00\x00\x00\x00\x00\xf0?'
tbsg2165
g1481
(g1482
(I0
tS'b'
tRp5423
(I1
(I1
tg19
I00
S'\x00\x00\x00\x00\x00\x00\xe0\xbf'
tbsg1521
I01
sbsg1460
Nsg1524
I01
sg1513
g1514
sg1516
Nsg1525
g1
(g1580
g3
NtRp5424
(dp5425
g1529
g1530
sg1532
g5120
sg1531
Nsg1583
g1608
sg1460
I0
sg1535
Nsg1534
Nsbsaa(lp5426
g1786
a(dp5427
g1515
Nsg2128
g1
(g2129
g3
NtRp5428
(dp5429
g1465
I0
sg2132
g2133
sg2134
g2135
sg2136
g1481
(g1482
(I0
tS'b'
tRp5430
(I1
(I1
tg19
I00
S'\x00\x00\x00\x00\x00\x00\xf0?'
tbsg1521
I01
sg2138
I0
sbsg21
g1786
sg1517
g1
(g1518
g3
NtRp5431
(dp5432
g1522
g1790
sg2159
g1481
(g1482
(I0
tS'b'
tRp5433
(I1
(I1
tg19
I00
S'\x00\x00\x00\x00\x00\x00\xf0?'
tbsg2161
g1481
(g1482
(I0
tS'b'
tRp5434
(I1
(I1
tg19
I00
S'\x00\x00\x00\x00\x00\x00\xf0?'
tbsg2163
g1481
(g1482
(I0
tS'b'
tRp5435
(I1
(I1
tg19
I00
S'\x00\x00\x00\x00\x00\x00\x00\x00'
tbsg2165
g1481
(g1482
(I0
tS'b'
tRp5436
(I1
(I1
tg19
I00
S'\x00\x00\x00\x00\x00\x00\x00\x00'
tbsg1521
I01
sbsg1460
Nsg1524
I00
sg1513
g1514
sg1516
Nsg1525
g1
(g1580
g3
NtRp5437
(dp5438
g1529
g1530
sg1532
g5120
sg1531
Nsg1583
g1584
sg1460
F0
sg1535
Nsg1534
Nsbsaa(lp5439
g1794
a(dp5440
g1515
Nsg2128
g1
(g2129
g3
NtRp5441
(dp5442
g1465
I0
sg2132
g2133
sg2134
g2135
sg2136
g1481
(g1482
(I0
tS'b'
tRp5443
(I1
(I1
tg19
I00
S'\x00\x00\x00\x00\x00\x00\x00\x00'
tbsg1521
I01
sg2138
I0
sbsg21
g1794
sg1517
g1
(g1518
g3
NtRp5444
(dp5445
g1522
g1798
sg2159
g1481
(g1482
(I0
tS'b'
tRp5446
(I1
(I1
tg19
I00
S'\\w\xb8\xa8\xa71.?'
tbsg2161
g1481
(g1482
(I0
tS'b'
tRp5447
(I1
(I1
tg19
I00
S'\x00\x00\x00\x00\x00\xf5\xb0@'
tbsg2163
g1481
(g1482
(I0
tS'b'
tRp5448
(I1
(I1
tg19
I00
S'\x00\x00\x00\x00\x00\x00\x00\x00'
tbsg2165
g1481
(g1482
(I0
tS'b'
tRp5449
(I1
(I1
tg19
I00
S'\x00\x00\x00\x00\x00\x00\x00\x00'
tbsg1521
I01
sbsg1460
Nsg1524
I01
sg1513
g1514
sg1516
Nsg1525
g1
(g1580
g3
NtRp5450
(dp5451
g1529
g1530
sg1532
g5120
sg1531
Nsg1583
g1608
sg1460
I0
sg1535
Nsg1534
Nsbsaa(lp5452
g1802
a(dp5453
g1515
Nsg2128
g1
(g2129
g3
NtRp5454
(dp5455
g1465
I0
sg2132
g2133
sg2134
g2135
sg2136
g1481
(g1482
(I0
tS'b'
tRp5456
(I1
(I1
tg19
I00
S'\x00\x00\x00\x00\x00\x00\x0c@'
tbsg1521
I01
sg2138
I0
sbsg21
g1802
sg1517
g1
(g1518
g3
NtRp5457
(dp5458
g1522
g1806
sg2159
g1481
(g1482
(I0
tS'b'
tRp5459
(I1
(I1
tg19
I00
S'\x00\x00\x00\x00\x00\x00\xd0?'
tbsg2161
g1481
(g1482
(I0
tS'b'
tRp5460
(I1
(I1
tg19
I00
S'\x00\x00\x00\x00\x00\x00\x10@'
tbsg2163
g1481
(g1482
(I0
tS'b'
tRp5461
(I1
(I1
tg19
I00
S'\x00\x00\x00\x00\x00\x00\xf0?'
tbsg2165
g1481
(g1482
(I0
tS'b'
tRp5462
(I1
(I1
tg19
I00
S'\x00\x00\x00\x00\x00\x00\xd0\xbf'
tbsg1521
I01
sbsg1460
Nsg1524
I00
sg1513
g1514
sg1516
Nsg1525
g1
(g1580
g3
NtRp5463
(dp5464
g1529
g1530
sg1532
g5120
sg1531
Nsg1583
g1608
sg1460
I0
sg1535
Nsg1534
Nsbsaa(lp5465
g1810
a(dp5466
g1515
Nsg2128
g1
(g2129
g3
NtRp5467
(dp5468
g1465
I0
sg2132
g2133
sg2134
g2135
sg2136
g1481
(g1482
(I0
tS'b'
tRp5469
(I1
(I1
tg19
I00
S'\x00\x00\x00\x00\x00\x00\x00\x00'
tbsg1521
I01
sg2138
I0
sbsg21
g1810
sg1517
g1
(g1518
g3
NtRp5470
(dp5471
g1522
g1814
sg2159
g1481
(g1482
(I0
tS'b'
tRp5472
(I1
(I1
tg19
I00
S'UUUUUU\xd5?'
tbsg2161
g1481
(g1482
(I0
tS'b'
tRp5473
(I1
(I1
tg19
I00
S'\x00\x00\x00\x00\x00\x00\x08@'
tbsg2163
g1481
(g1482
(I0
tS'b'
tRp5474
(I1
(I1
tg19
I00
S'\x00\x00\x00\x00\x00\x00\x00\x00'
tbsg2165
g1481
(g1482
(I0
tS'b'
tRp5475
(I1
(I1
tg19
I00
S'\x00\x00\x00\x00\x00\x00\x00\x00'
tbsg1521
I01
sbsg1460
Nsg1524
I01
sg1513
g1514
sg1516
Nsg1525
g1
(g1580
g3
NtRp5476
(dp5477
g1529
g1530
sg1532
g5120
sg1531
Nsg1583
g1608
sg1460
I0
sg1535
Nsg1534
Nsbsaa(lp5478
g1818
a(dp5479
g1515
Nsg2128
g1
(g2129
g3
NtRp5480
(dp5481
g1465
I0
sg2132
g2133
sg2134
g2135
sg2136
g1481
(g1482
(I0
tS'b'
tRp5482
(I1
(I1
tg19
I00
S'\x00\x00\x00\x00\x00\x00\x14@'
tbsg1521
I01
sg2138
I0
sbsg21
g1818
sg1517
g1
(g1518
g3
NtRp5483
(dp5484
g1522
g1822
sg2159
g1481
(g1482
(I0
tS'b'
tRp5485
(I1
(I1
tg19
I00
S'\x00\x00\x00\x00\x00\x00\xe0?'
tbsg2161
g1481
(g1482
(I0
tS'b'
tRp5486
(I1
(I1
tg19
I00
S'\x00\x00\x00\x00\x00\x00\x00@'
tbsg2163
g1481
(g1482
(I0
tS'b'
tRp5487
(I1
(I1
tg19
I00
S'\x00\x00\x00\x00\x00\x00\x08@'
tbsg2165
g1481
(g1482
(I0
tS'b'
tRp5488
(I1
(I1
tg19
I00
S'\x00\x00\x00\x00\x00\x00\xf8\xbf'
tbsg1521
I01
sbsg1460
Nsg1524
I01
sg1513
g1514
sg1516
Nsg1525
g1
(g1580
g3
NtRp5489
(dp5490
g1529
g1530
sg1532
g5120
sg1531
Nsg1583
g1608
sg1460
I0
sg1535
Nsg1534
Nsbsaa(lp5491
g1826
a(dp5492
g1515
Nsg2128
g1
(g2129
g3
NtRp5493
(dp5494
g1465
I0
sg2132
g2133
sg2134
g2135
sg2136
g1481
(g1482
(I0
tS'b'
tRp5495
(I1
(I1
tg19
I00
S'\x00\x00\x00\x00\x00\x00\x00\x00'
tbsg1521
I01
sg2138
I0
sbsg21
g1826
sg1517
g1
(g1518
g3
NtRp5496
(dp5497
g1522
g1830
sg2159
g1481
(g1482
(I0
tS'b'
tRp5498
(I1
(I1
tg19
I00
S'\x00\x00\x00\x00\x00\x00\xc0?'
tbsg2161
g1481
(g1482
(I0
tS'b'
tRp5499
(I1
(I1
tg19
I00
S'\x00\x00\x00\x00\x00\x00 @'
tbsg2163
g1481
(g1482
(I0
tS'b'
tRp5500
(I1
(I1
tg19
I00
S'\x00\x00\x00\x00\x00\x00\x00\x00'
tbsg2165
g1481
(g1482
(I0
tS'b'
tRp5501
(I1
(I1
tg19
I00
S'\x00\x00\x00\x00\x00\x00\x00\x00'
tbsg1521
I01
sbsg1460
Nsg1524
I01
sg1513
g1514
sg1516
Nsg1525
g1
(g1580
g3
NtRp5502
(dp5503
g1529
g1530
sg1532
g5120
sg1531
Nsg1583
g1608
sg1460
I0
sg1535
Nsg1534
Nsbsaa(lp5504
g1834
a(dp5505
g1515
Nsg2128
g1
(g2129
g3
NtRp5506
(dp5507
g1465
I0
sg2132
g2133
sg2134
g2135
sg2136
g1481
(g1482
(I0
tS'b'
tRp5508
(I1
(I1
tg19
I00
S'\x00\x00\x00\x00\x00\x00\x08\xc0'
tbsg1521
I01
sg2138
I0
sbsg21
g1834
sg1517
Nsg1460
Nsg1524
I01
sg1513
g1514
sg1516
Nsg1525
g5173
saa(lp5509
g1837
a(dp5510
g5259
(icloudml.trainer.transformers
SuppressTransformer
p5511
(dp5512
bsg1515
g1
(g1664
g3
NtRp5513
(dp5514
g1550
g1667
sg1554
Nsg1556
g1668
sg1558
g1669
sg1561
g1670
sg1564
g1841
sg1534
Nsg1560
F1
sg1566
I3
sg1567
Nsg1928
I00
sg1563
I00
sg1552
I01
sg1553
Nsg1555
Nsg1570
g1571
sg1568
g1672
sg1673
g1
(g1674
g3
NtRp5515
(dp5516
g1677
I01
sg1678
I01
sg1679
I00
sg1680
g1681
sbsg1572
Nsbsg21
g1837
sg1517
g1
(g1518
g3
NtRp5517
(dp5518
g1521
I01
sg1522
g1847
sbsg1460
Nsg1524
I01
sg1513
g1514
sg1516
g1844
sg1525
g1
(g1580
g3
NtRp5519
(dp5520
g1529
g1530
sg1532
g5120
sg1531
Nsg1583
g1688
sg1460
S''
sg1535
Nsg1534
Nsbsaa(lp5521
g1851
a(dp5522
g1515
Nsg2128
g1
(g2129
g3
NtRp5523
(dp5524
g1465
I0
sg2132
g2133
sg2134
g2135
sg2136
g1481
(g1482
(I0
tS'b'
tRp5525
(I1
(I1
tg19
I00
S'\x00\x00\x00\x00\x00\x00\x00\x00'
tbsg1521
I01
sg2138
I0
sbsg21
g1851
sg1517
g1
(g1518
g3
NtRp5526
(dp5527
g1522
g1855
sg2159
g1481
(g1482
(I0
tS'b'
tRp5528
(I1
(I1
tg19
I00
S'\x00\x00\x00\x00\x00\x00\xf0?'
tbsg2161
g1481
(g1482
(I0
tS'b'
tRp5529
(I1
(I1
tg19
I00
S'\x00\x00\x00\x00\x00\x00\xf0?'
tbsg2163
g1481
(g1482
(I0
tS'b'
tRp5530
(I1
(I1
tg19
I00
S'\x00\x00\x00\x00\x00\x00\x00\x00'
tbsg2165
g1481
(g1482
(I0
tS'b'
tRp5531
(I1
(I1
tg19
I00
S'\x00\x00\x00\x00\x00\x00\x00\x00'
tbsg1521
I01
sbsg1460
Nsg1524
I01
sg1513
g1514
sg1516
Nsg1525
g1
(g1580
g3
NtRp5532
(dp5533
g1529
g1530
sg1532
g5120
sg1531
Nsg1583
g1608
sg1460
I0
sg1535
Nsg1534
Nsbsaa(lp5534
g1859
a(dp5535
g1515
Nsg2128
g1
(g2129
g3
NtRp5536
(dp5537
g1465
I0
sg2132
g2133
sg2134
g2135
sg2136
g1481
(g1482
(I0
tS'b'
tRp5538
(I1
(I1
tg19
I00
S'\x00\x00\x00\x00\x00\x00\x00\x00'
tbsg1521
I01
sg2138
I0
sbsg21
g1859
sg1517
g1
(g1518
g3
NtRp5539
(dp5540
g1522
g1863
sg2159
g1481
(g1482
(I0
tS'b'
tRp5541
(I1
(I1
tg19
I00
S'UUUUUU\xc5?'
tbsg2161
g1481
(g1482
(I0
tS'b'
tRp5542
(I1
(I1
tg19
I00
S'\x00\x00\x00\x00\x00\x00\x18@'
tbsg2163
g1481
(g1482
(I0
tS'b'
tRp5543
(I1
(I1
tg19
I00
S'\x00\x00\x00\x00\x00\x00\x00\x00'
tbsg2165
g1481
(g1482
(I0
tS'b'
tRp5544
(I1
(I1
tg19
I00
S'\x00\x00\x00\x00\x00\x00\x00\x00'
tbsg1521
I01
sbsg1460
Nsg1524
I01
sg1513
g1514
sg1516
Nsg1525
g1
(g1580
g3
NtRp5545
(dp5546
g1529
g1530
sg1532
g5120
sg1531
Nsg1583
g1608
sg1460
I0
sg1535
Nsg1534
Nsbsaa(lp5547
g1867
a(dp5548
g1515
Nsg2128
g1
(g2129
g3
NtRp5549
(dp5550
g1465
I0
sg2132
g2133
sg2134
g2135
sg2136
g1481
(g1482
(I0
tS'b'
tRp5551
(I1
(I1
tg19
I00
S'\x00\x00\x00\x00\x00\x00\x08@'
tbsg1521
I01
sg2138
I0
sbsg21
g1867
sg1517
g1
(g1518
g3
NtRp5552
(dp5553
g1522
g1871
sg2159
g1481
(g1482
(I0
tS'b'
tRp5554
(I1
(I1
tg19
I00
S'\xefV\xf0\x10k\x91\x99?'
tbsg2161
g1481
(g1482
(I0
tS'b'
tRp5555
(I1
(I1
tg19
I00
S'fffff\x06D@'
tbsg2163
g1481
(g1482
(I0
tS'b'
tRp5556
(I1
(I1
tg19
I00
S'\x00\x00\x00\x00\x00\x00\x00\x00'
tbsg2165
g1481
(g1482
(I0
tS'b'
tRp5557
(I1
(I1
tg19
I00
S'\x00\x00\x00\x00\x00\x00\x00\x00'
tbsg1521
I01
sbsg1460
F0
sg1524
I01
sg1513
g1514
sg1516
Nsg1525
g1
(g1580
g3
NtRp5558
(dp5559
g1529
g1530
sg1532
g5120
sg1531
Nsg1583
g1584
sg1460
F0
sg1535
Nsg1534
Nsbsaa(lp5560
g243
a(dp5561
g1515
Nsg2128
g1
(g2129
g3
NtRp5562
(dp5563
g1465
I0
sg2132
g2133
sg2134
g2135
sg2136
g1481
(g1482
(I0
tS'b'
tRp5564
(I1
(I1
tg19
I00
S'\x00\x00\x00\xc6\xd2\x11\xa8A'
tbsg1521
I01
sg2138
I0
sbsg21
g243
sg1517
g1
(g1518
g3
NtRp5565
(dp5566
g1522
g1878
sg2159
g1481
(g1482
(I0
tS'b'
tRp5567
(I1
(I1
tg19
I00
S'\x0c\xb6\xbe\x0e\x1a\x0c\xb7>'
tbsg2161
g1481
(g1482
(I0
tS'b'
tRp5568
(I1
(I1
tg19
I00
S'\x00\x00\x00\x00\x187&A'
tbsg2163
g1481
(g1482
(I0
tS'b'
tRp5569
(I1
(I1
tg19
I00
S'\x00\x00\x00>\xb4\xfb\xa7A'
tbsg2165
g1481
(g1482
(I0
tS'b'
tRp5570
(I1
(I1
tg19
I00
S'*\xc0\xb6w\xfbEq\xc0'
tbsg1521
I01
sbsg1460
Nsg1524
I01
sg1513
g1514
sg1516
Nsg1525
g1
(g1580
g3
NtRp5571
(dp5572
g1529
g1530
sg1532
g5120
sg1531
Nsg1583
g1608
sg1460
I0
sg1535
Nsg1534
Nsbsaa(lp5573
g1882
a(dp5574
g1515
Nsg2128
g1
(g2129
g3
NtRp5575
(dp5576
g1465
I0
sg2132
g2133
sg2134
g2135
sg2136
g1481
(g1482
(I0
tS'b'
tRp5577
(I1
(I1
tg19
I00
S'\x00\x00\x00\xc0\xa16\xccA'
tbsg1521
I01
sg2138
I0
sbsg21
g1882
sg1517
g1
(g1518
g3
NtRp5578
(dp5579
g1522
g1886
sg2159
g1481
(g1482
(I0
tS'b'
tRp5580
(I1
(I1
tg19
I00
S'\x94\x1a\xa5\x95W %>'
tbsg2161
g1481
(g1482
(I0
tS'b'
tRp5581
(I1
(I1
tg19
I00
S'\x00\x00\x00\x003<\xb8A'
tbsg2163
g1481
(g1482
(I0
tS'b'
tRp5582
(I1
(I1
tg19
I00
S'\x00\x00\x00\xc0\xa16\xccA'
tbsg2165
g1481
(g1482
(I0
tS'b'
tRp5583
(I1
(I1
tg19
I00
S'G\xb47\x00^\xa0\x02\xc0'
tbsg1521
I01
sbsg1460
I946684800
sg1524
I01
sg1513
g1514
sg1516
Nsg1525
g1
(g1887
g3
NtRp5584
(dp5585
g1529
g1530
sg1532
g5120
sg1534
Nsg1531
I946684800
sg1535
(dp5586
g1891
g1892
ssbsaatRp5587
ssb.