ccopy_reg
_reconstructor
p1
(ccore.trainer.store
TrainerStorage
p2
c__builtin__
object
p3
NtRp4
(dp5
S'visualization'
p6
(dp7
S'weights'
p8
(dp9
I1
(dp10
S'positive'
p11
(lp12
(dp13
S'feature_weight'
p14
cnumpy.core.multiarray
scalar
p15
(cnumpy
dtype
p16
(S'f8'
I0
I1
tRp17
(I3
S'<'
NNNI-1
I-1
I0
tbS'.\xbeE\x85\x06\xea\xe2?'
tRp18
sS'name'
p19
Vtsexams->oDesk Readiness Test for Agency Contractors
p20
sS'weight'
p21
g15
(g17
S'\xd5Y\x07\xe8\xca5\xe8?'
tRp22
sa(dp23
g14
g15
(g17
S'\xc6 \x17\xfb\xc6\xcc\xb2?'
tRp24
sg19
Vtsexams->iPhone Programming OS 4.0 Test
p25
sg21
g15
(g17
S'Y \t\x04\xf0\xef\xd4?'
tRp26
sa(dp27
g14
g15
(g17
S"\x87\xad'W\xdb^~?"
tRp28
sg19
Vtsexams->iPhone Programming OS 2.1 Test
p29
sg21
g15
(g17
S'\xed\xb0zk\xeb8\xc6?'
tRp30
sa(dp31
g14
g15
(g17
S'\x93-\xc0\xde\xf1Iw?'
tRp32
sg19
Vtsexams->Wordpress Test
p33
sg21
g15
(g17
S'\xaeA\x11eh\xd7\xa8?'
tRp34
sa(dp35
g14
g15
(g17
S'9d\x84\xb7\xf66s?'
tRp36
sg19
Vtsexams->UK English Grammar Test (For Writing Professionals)
p37
sg21
g15
(g17
S'Y\x10\xf3\xf2\xa2\x8f\xbd?'
tRp38
sa(dp39
g14
g15
(g17
S'*B\xd5\xc1j\xc5\xc4?'
tRp40
sg19
Vtsexams->U.S. Word Usage Test
p41
sg21
g15
(g17
S'q\x01\xc6\xec\xa8*\xeb?'
tRp42
sa(dp43
g14
g15
(g17
S'57\xde\xf3\xc8\x01\x90?'
tRp44
sg19
Vtsexams->U.S. English Sentence Structure Test (For Writing Professionals)
p45
sg21
g15
(g17
S'\xa5^X4\xc6p\xcb?'
tRp46
sa(dp47
g14
g15
(g17
S'\xeaI\x12g\x155m?'
tRp48
sg19
Vtsexams->U.S. English Chicago Style Editing Skills Test (For Writing Professionals)
p49
sg21
g15
(g17
S'\xde\xe6\xd3<m\xc5\xb9?'
tRp50
sa(dp51
g14
g15
(g17
S'\x86\x81\xd3\n)J\xd5?'
tRp52
sg19
Vtsexams->U.S. English Basic Skills Test
p53
sg21
g15
(g17
S'\xe8\xf5\xf8:0G\xcb?'
tRp54
sa(dp55
g14
g15
(g17
S'{x\xc0\x89\x0bv\xc1?'
tRp56
sg19
Vtsexams->Telephone Etiquette Certification
p57
sg21
g15
(g17
S'\xa6\xf7\x9c|\xb7f\xd3?'
tRp58
sa(dp59
g14
g15
(g17
S'\xac\xa1\x03!L\x97\x8a?'
tRp60
sg19
Vtsexams->Spanish To English Translation Skills Test
p61
sg21
g15
(g17
S'\x8a\xb4\xcf\x80\xd6E\xd5?'
tRp62
sa(dp63
g14
g15
(g17
S'\x0f\x19`\x8d\xfb\xb9\xa4?'
tRp64
sg19
Vtsexams->Software Testing Test
p65
sg21
g15
(g17
S'\x88@\xf5\x1e\xea\x13\xe5?'
tRp66
sa(dp67
g14
g15
(g17
S'ps3\xff\x8a#f?'
tRp68
sg19
Vtsexams->Slideshow Product Test
p69
sg21
g15
(g17
S'\xba\xbd=2\r\x91\xaa?'
tRp70
sa(dp71
g14
g15
(g17
S'n\xb9l\xc1\r\x7fw?'
tRp72
sg19
Vtsexams->Search Engine Optimization Test
p73
sg21
g15
(g17
S'\x95sz\x03L\xf8\x96?'
tRp74
sa(dp75
g14
g15
(g17
S"\xc5'\x12%\x9a]\x8e?"
tRp76
sg19
Vtsexams->SQL Test
p77
sg21
g15
(g17
S'\x85\xfd\xeah\x16\x07\xda?'
tRp78
sa(dp79
g14
g15
(g17
S'\x8c\xa9\rPEkf?'
tRp80
sg19
Vtsexams->Resume Writing Skills Test
p81
sg21
g15
(g17
S'\x95\xd7\xbd\xd3\xc9\xb1\xa4?'
tRp82
sa(dp83
g14
g15
(g17
S'\xd6Fpg\x10\x83}?'
tRp84
sg19
Vtsexams->Report Writing Test
p85
sg21
g15
(g17
S'\xca\xed6\xd9\xb0\x06\xd1?'
tRp86
sa(dp87
g14
g15
(g17
S'\xcc]\r\xfd\xfdj$?'
tRp88
sg19
Vtsexams->Quick Books Pro 2008 Test
p89
sg21
g15
(g17
S'<\t\xe0Y,Fv?'
tRp90
sa(dp91
g14
g15
(g17
S'WX?\xa6\x8e7\x84?'
tRp92
sg19
Vtsexams->Python 2.x Test
p93
sg21
g15
(g17
S'WX?\xa6\x8e7\xd4?'
tRp94
sa(dp95
g14
g15
(g17
S'Uw\xa3\xa2e\xaa\x90?'
tRp96
sg19
Vtsexams->Principles of  Web Graphics Design Test
p97
sg21
g15
(g17
S'o\x83\xaa\xcd\xd2\x91\xdc?'
tRp98
sa(dp99
g14
g15
(g17
S'C\xc9\xd9b\xe5\xdev?'
tRp100
sg19
Vtsexams->PC Graphics Test
p101
sg21
g15
(g17
S'\xc9\xfc\xc5\xfc\xa1\xca\xb4?'
tRp102
sa(dp103
g14
g15
(g17
S'\xdeI~~8K\x88?'
tRp104
sg19
Vtsexams->Online Article Writing and Blogging Test (U.S. Version)
p105
sg21
g15
(g17
S'L_`3\x8co\xa5?'
tRp106
sa(dp107
g14
g15
(g17
S'\x94\xa2\xa4n0\xb4\xa7?'
tRp108
sg19
Vtsexams->Networking Concepts Test
p109
sg21
g15
(g17
S'\xf7^\x03\x7f:=\xe1?'
tRp110
sa(dp111
g14
g15
(g17
S'\x1a&\x01O\xb3\x17\xab?'
tRp112
sg19
Vtsexams->MySQL 5.0 Test
p113
sg21
g15
(g17
S'\xed\x9e\x13\x94\xf9\xa4\xd7?'
tRp114
sa(dp115
g14
g15
(g17
S';h\x85\\\xa0MV?'
tRp116
sg19
Vtsexams->Microsoft Excel 2010 Test
p117
sg21
g15
(g17
S';h\x85\\\xa0M\xa6?'
tRp118
sa(dp119
g14
g15
(g17
S'\xcc\x19-\x11\xed\xe2Q?'
tRp120
sg19
Vtsexams->Medical Billing Certification
p121
sg21
g15
(g17
S'\\\x85\x9c\x14\xb6v\xa5?'
tRp122
sa(dp123
g14
g15
(g17
S'\xaf_\x92\xb8\xf6?\xad?'
tRp124
sg19
Vtsexams->MS Word 2007 Test
p125
sg21
g15
(g17
S'\x13\xcb\xdf\x18\x9f\xa5\xd4?'
tRp126
sa(dp127
g14
g15
(g17
S'\xbd\x1e\xd9>g\xca\xaf?'
tRp128
sg19
Vtsexams->MS Excel 2007 Test
p129
sg21
g15
(g17
S'\x84y\xaf\x8c\xbf\xfa\xd2?'
tRp130
sa(dp131
g14
g15
(g17
S'\xbf\x9f\t\x94\x10\xce\xb2?'
tRp132
sg19
Vtsexams->Joomla 1.5 Test
p133
sg21
g15
(g17
S'R\xb4?\xb8\xd9\xe8\xd6?'
tRp134
sa(dp135
g14
g15
(g17
S'>%U\xfb\xd3\xeb\x98?'
tRp136
sg19
Vtsexams->JavaScript 1.8 Test
p137
sg21
g15
(g17
S'\xa1\xf3\xb8\x1av\xd0\xcf?'
tRp138
sa(dp139
g14
g15
(g17
S'b-\xc7\xb2]v\x86?'
tRp140
sg19
Vtsexams->Internet Marketing Test
p141
sg21
g15
(g17
S'b-\xc7\xb2]v\xd6?'
tRp142
sa(dp143
g14
g15
(g17
S'X\xce\x8f\xd4\xd4\x1e\x89?'
tRp144
sg19
Vtsexams->Hospitality Terminology Test
p145
sg21
g15
(g17
S';4\xb5\x8d8\xbf\xd0?'
tRp146
sa(dp147
g14
g15
(g17
S'\x93\xb2\x1c\x9f\xe7\xdf\x82?'
tRp148
sg19
Vtsexams->Help Desk Certification
p149
sg21
g15
(g17
S'D\x9469+\x97\xd4?'
tRp150
sa(dp151
g14
g15
(g17
S'5L{K,W\xac?'
tRp152
sg19
Vtsexams->Google Android Programming Test
p153
sg21
g15
(g17
S'\xb9v\x8f\xdb\xb9/\xd2?'
tRp154
sa(dp155
g14
g15
(g17
S'\x1c)\xcbm\xfb}\x95?'
tRp156
sg19
Vtsexams->Google AdWords Test
p157
sg21
g15
(g17
S'\x1dT`H\xac\x12\xdf?'
tRp158
sa(dp159
g14
g15
(g17
S'ps3\xff\x8a#f?'
tRp160
sg19
Vtsexams->Gmail Product Test
p161
sg21
g15
(g17
S'\xba\xbd=2\r\x91\xaa?'
tRp162
sa(dp163
g14
g15
(g17
S'>\xae{(\x1fV;?'
tRp164
sg19
Vtsexams->Generally Accepted Accounting Principles (GAAP) Test
p165
sg21
g15
(g17
S'\xd4\x1e\xfd\x1aj9\x82?'
tRp166
sa(dp167
g14
g15
(g17
S'\xf2\x84g\xa7\xe6\xdb\x85?'
tRp168
sg19
Vtsexams->French To English Translation Skills Test
p169
sg21
g15
(g17
S'?fjH\x8fI\xd3?'
tRp170
sa(dp171
g14
g15
(g17
S'i\xcc\x91Kb\xda\x84?'
tRp172
sg19
Vtsexams->English Vocabulary Test (UK Version)
p173
sg21
g15
(g17
S'\x82\xb4w\xebD\x84\xce?'
tRp174
sa(dp175
g14
g15
(g17
S'\x1eb\x1e\xff\xf4\x9d\xb4?'
tRp176
sg19
Vtsexams->English To Tagalog (Filipino) Translation Skills Test
p177
sg21
g15
(g17
S'a\x19\xc3\nF+\xcf?'
tRp178
sa(dp179
g14
g15
(g17
S'\xb6xv:-\xca\x9b?'
tRp180
sg19
Vtsexams->English To Russian Translation Skills Test
p181
sg21
g15
(g17
S'\xa1\x1c3\x81RG\xd1?'
tRp182
sa(dp183
g14
g15
(g17
S'\xd7\xaa\x919\x13\xe4\xcf?'
tRp184
sg19
Vtsexams->Customer Service Test
p185
sg21
g15
(g17
S'|G\xa7\xfa*;\xe5?'
tRp186
sa(dp187
g14
g15
(g17
S'6~\x89\xf0\xe6\xf7c?'
tRp188
sg19
Vtsexams->Content Writing Skills Test
p189
sg21
g15
(g17
S'\xbc\x96u\x1a\x0b\xf3\xaf?'
tRp190
sa(dp191
g14
g15
(g17
S'\xb6\xe1\xa6u\xcd=N?'
tRp192
sg19
Vtsexams->Cocoa programming for Mac OS X 10.5 Test
p193
sg21
g15
(g17
S'U\xf1\xf1W1c\x84?'
tRp194
sa(dp195
g14
g15
(g17
S'\x88[Y\xd95\xa1\xb6?'
tRp196
sg19
Vtsexams->Call Center Skills Test
p197
sg21
g15
(g17
S'\x16\x11#%\xe2o\xcd?'
tRp198
sa(dp199
g14
g15
(g17
S'\xa1\xc3?\x9a\xab\x04\x81?'
tRp200
sg19
Vtsexams->Business Mathematics Test
p201
sg21
g15
(g17
S'\xa1\xc3?\x9a\xab\x04\xd1?'
tRp202
sa(dp203
g14
g15
(g17
S'\x96\xeb\xdb\xb4\xfb\xda\xa3?'
tRp204
sg19
Vtsexams->Book keeping Test
p205
sg21
g15
(g17
S'\xd2\x9b\xa0\x91z\xc7\xd0?'
tRp206
sa(dp207
g14
g15
(g17
S'\x83\x04!\x851\xad\x7f?'
tRp208
sg19
Vtsexams->AutoCad 2007 Test
p209
sg21
g15
(g17
S'\xb0\xb8\xb3\xb1+\xf3\xcb?'
tRp210
sa(dp211
g14
g15
(g17
S'\x88`;\xf0\xe6\xcc\xa0?'
tRp212
sg19
Vtsexams->Adobe Illustrator CS3 Test
p213
sg21
g15
(g17
S'8\xf6b\x90+\x00\xec?'
tRp214
sa(dp215
g14
g15
(g17
S'\x82\xa1\\\x91\xfcT\x8c?'
tRp216
sg19
Vtsexams->Adobe Flex 3.0 Test
p217
sg21
g15
(g17
S'\x02N}\xa7c\xaa\xd6?'
tRp218
sa(dp219
g14
g15
(g17
S'G\xbc\xf2\x8f\xbbPg?'
tRp220
sg19
Vtsexams->Accounts Receivable Test
p221
sg21
g15
(g17
S'\xf3\xe7c\xbd\xfba\xa6?'
tRp222
sa(dp223
g14
g15
(g17
S'\xa9\xee\r9H\tF?'
tRp224
sg19
Vtsexams->Accounting Skills Test (Cash Flow)
p225
sg21
g15
(g17
S'\x1a\xe4-5\x03\xde\x81?'
tRp226
sa(dp227
g14
g15
(g17
S'm\x9d\xd8\x9f\x87\xceD?'
tRp228
sg19
Vtsexams->Accounting Skills Test (Assets and Revenue)
p229
sg21
g15
(g17
S'\xa9\x11@\xf3J\x95\x81?'
tRp230
sa(dp231
g14
g15
(g17
S'\x063\x9d\xa1\x15\xd9\x8e?'
tRp232
sg19
Vtsexams->Accounting Principles Test
p233
sg21
g15
(g17
S'\xedj\xcf\x8cUo\xc6?'
tRp234
sa(dp235
g14
g15
(g17
S'\xb2L\x1e\x882\xb3\x90?'
tRp236
sg19
Vtsexams->3ds Max 7.0 Test
p237
sg21
g15
(g17
S'\x144\xce\x02\xeaC\xcb?'
tRp238
sa(dp239
g14
g15
(g17
S'\xa6\xd9\x18\xc2\xd7\n\x99?'
tRp240
sg19
Vemployer->op_tot_jobs_filled
p241
sg21
g15
(g17
S'\x82t\x16\x931\x9b\xdb?'
tRp242
sa(dp243
g14
g15
(g17
S'\x00\xec\x87\x9c\x92XP?'
tRp244
sg19
Vcountry_pair->united states,ukraine
p245
sg21
g15
(g17
S'\x00\xec\x87\x9c\x92X\xa0?'
tRp246
sa(dp247
g14
g15
(g17
S'\xf8\xdf\xf7\xe8\x10@k?'
tRp248
sg19
Vcountry_pair->united states,pakistan
p249
sg21
g15
(g17
S'\xfa\xe7\xb9\xae\x0cp\xc4?'
tRp250
sa(dp251
g14
g15
(g17
S' \xd4T\xa1R\x9eG?'
tRp252
sg19
Vcountry_pair->united states,nepal
p253
sg21
g15
(g17
S'\x18\x9f\xff\xf8\xbd\xb6\xb1?'
tRp254
sa(dp255
g14
g15
(g17
S'\xf4\x9c"\xf1Q\x97_?'
tRp256
sg19
Vcountry_pair->united states,morocco
p257
sg21
g15
(g17
S'\xb7\xf5\xd9t}\xb1\xb7?'
tRp258
sa(dp259
g14
g15
(g17
S'\xa5;\\D\xd5\xe8\\?'
tRp260
sg19
Vcountry_pair->united states,kenya
p261
sg21
g15
(g17
S'\xbc,E\xf3\x9f\xae\xc5?'
tRp262
sa(dp263
g14
g15
(g17
S'\xd1\x02:\xfe\x06\x8dh?'
tRp264
sg19
Vcountry_pair->united states,india
p265
sg21
g15
(g17
S'\xd1\x02:\xfe\x06\x8d\xa8?'
tRp266
sa(dp267
g14
g15
(g17
S'\x8a\x15\xd4\xed(-T?'
tRp268
sg19
Vcountry_pair->united arab emirates,united states
p269
sg21
g15
(g17
S'\x8a\x15\xd4\xed(-\xa4?'
tRp270
sa(dp271
g14
g15
(g17
S'\xb8U\x15\xf2\x11\xf7w?'
tRp272
sg19
Vcountry_pair->united arab emirates,india
p273
sg21
g15
(g17
S'J\x00\x90uM\xf9\xd1?'
tRp274
sa(dp275
g14
g15
(g17
S'\xae\x8e\xd6>a\xabJ?'
tRp276
sg19
Vcountry_pair->sri lanka,bangladesh
p277
sg21
g15
(g17
S'\x03\xeb \xef\x88\x00\xb4?'
tRp278
sa(dp279
g14
g15
(g17
S'\x85|\xa6\xd9o\xc4U?'
tRp280
sg19
Vcountry_pair->portugal,argentina
p281
sg21
g15
(g17
S'd\xdd<\xe3SS\xc0?'
tRp282
sa(dp283
g14
g15
(g17
S'*\xe2dOa\x99\xf5>'
tRp284
sg19
Vcountry_pair->new zealand,philippines
p285
sg21
g15
(g17
S'\xa0\xa9\x8b\xfb\x083`?'
tRp286
sa(dp287
g14
g15
(g17
S'!n\xfc:\x94\xde/?'
tRp288
sg19
Vcountry_pair->germany,india
p289
sg21
g15
(g17
S'\x99R=,\xef\xe6\x97?'
tRp290
sa(dp291
g14
g15
(g17
S'\xa1Ye7\xba\xb1o?'
tRp292
sg19
Vcountry_pair->egypt,india
p293
sg21
g15
(g17
S'9\x03\x8c\xa9K\xc5\xd7?'
tRp294
sa(dp295
g14
g15
(g17
S'\nu\xdbytV\x1c?'
tRp296
sg19
Vcountry_pair->croatia,pakistan
p297
sg21
g15
(g17
S'\xc8\x97d[\xd7@\x85?'
tRp298
sa(dp299
g14
g15
(g17
S'ggt\xfc\xc7\x89\x93?'
tRp300
sg19
Vcountry_pair->canada,philippines
p301
sg21
g15
(g17
S'ggt\xfc\xc7\x89\xd3?'
tRp302
sa(dp303
g14
g15
(g17
S'\xa2\x15\xaa\xcc~\xf8Q?'
tRp304
sg19
Vcountry_pair->bangladesh,philippines
p305
sg21
g15
(g17
S't \xff2\xbe\xf4\xba?'
tRp306
sa(dp307
g14
g15
(g17
S'\xc2\x10\xb7\x94\xa5d3?'
tRp308
sg19
Vcountry_pair->bangladesh,bangladesh
p309
sg21
g15
(g17
S'#\x99\x12_\xf8\x16\x9d?'
tRp310
sa(dp311
g14
g15
(g17
S'o0\x87\x9cn\x1ba?'
tRp312
sg19
Vcountry_pair->australia,pakistan
p313
sg21
g15
(g17
S'\xa7\xc8\xca\xea%\xa9\xb9?'
tRp314
sa(dp315
g14
g15
(g17
S'\xd1\xc7\x963\xcbc\x92?'
tRp316
sg19
Vcontractor->dev_year_exp
p317
sg21
g15
(g17
S'\x99\x0e\x0c\x83D7\xb6?'
tRp318
sa(dp319
g14
g15
(g17
S'2\xa9Z\x8aa]r?'
tRp320
sg19
Vcontractor->dev_total_hourly_jobs
p321
sg21
g15
(g17
S'T\xa8*\xaa5b\x9d?'
tRp322
sa(dp323
g14
g15
(g17
S'{\x7f\xc0\xb4\xb0F\x95?'
tRp324
sg19
Vcontractor->dev_tot_feedback_recent
p325
sg21
g15
(g17
S'>C\xf4\x04G\xa2\xc9?'
tRp326
sa(dp327
g14
g15
(g17
S'\xf8O\xf0\xf7\xcfE\x8b?'
tRp328
sg19
Vcontractor->dev_tot_feedback
p329
sg21
g15
(g17
S's1\xf2\xc0\x8e\xb2\xc7?'
tRp330
sa(dp331
g14
g15
(g17
S"\xc0A\x9b\xffu'\xd0?"
tRp332
sg19
Vcontractor->dev_timezone
p333
sg21
g15
(g17
S'\x88Y@\x15D\xff\xa5?'
tRp334
sa(dp335
g14
g15
(g17
S"\x96\xae!\x0b'\xbbc?"
tRp336
sg19
Vcontractor->dev_test_passed_count
p337
sg21
g15
(g17
S'\xba\x8agu\x82\x9f\x85?'
tRp338
sa(dp339
g14
g15
(g17
S'a\xdb\xb7\xfd\xca:f?'
tRp340
sg19
Vcontractor->dev_skill_test_passed_count
p341
sg21
g15
(g17
S'\xc4qC}I\xbd\x87?'
tRp342
sa(dp343
g14
g15
(g17
S'\x19}\xd8~D\x1f\xb8?'
tRp344
sg19
Vcontractor->dev_recent_rank_percentile
p345
sg21
g15
(g17
S'\xdc"\x9aAi\xc5\xce?'
tRp346
sa(dp347
g14
g15
(g17
S'aR\x17\xeb\xa7\xb06?'
tRp348
sg19
Vcontractor->dev_recent_hours
p349
sg21
g15
(g17
S'D\xdd\xbd^U\xe3\x82?'
tRp350
sa(dp351
g14
g15
(g17
S'\xe4>\xe6\x00\x0b\x92}?'
tRp352
sg19
Vcontractor->dev_recent_fp_jobs
p353
sg21
g15
(g17
S'!\xdd\xae\xbcl\x9a\xbc?'
tRp354
sa(dp355
g14
g15
(g17
S'\x8b\xdb\xa5D\xd9?\xae?'
tRp356
sg19
Vcontractor->dev_rank_percentile
p357
sg21
g15
(g17
S'\xb2\x0b\x95\xb6*\xf8\xc0?'
tRp358
sa(dp359
g14
g15
(g17
S'\xa2\x03Xzl\xb1p?'
tRp360
sg19
Vcontractor->dev_profile_title->writer
p361
sg21
g15
(g17
S'\xe4h\xcb\xbcC!\xb6?'
tRp362
sa(dp363
g14
g15
(g17
S'EJd\x1c\x97\x03G?'
tRp364
sg19
Vcontractor->dev_profile_title->virtual
p365
sg21
g15
(g17
S'D\x94\xbf\x80\xf6\xfd\x95?'
tRp366
sa(dp367
g14
g15
(g17
S'}\x80_8\xec\x85e?'
tRp368
sg19
Vcontractor->dev_profile_title->top
p369
sg21
g15
(g17
S'q\x05\xe8\xf4\x9c\xc7\xc3?'
tRp370
sa(dp371
g14
g15
(g17
S'\xa6\x8d\x8a\x95wn\x90?'
tRp372
sg19
Vcontractor->dev_profile_title->software
p373
sg21
g15
(g17
S"m\xb4\xb7V'D\xdc?"
tRp374
sa(dp375
g14
g15
(g17
S'\xc6\xe2\xf5a\xf0MY?'
tRp376
sg19
Vcontractor->dev_profile_title->smm
p377
sg21
g15
(g17
S'\x1c\xd7X\roO\xb9?'
tRp378
sa(dp379
g14
g15
(g17
S'\x16\xf3\x8b\xa6E\x12A?'
tRp380
sg19
Vcontractor->dev_profile_title->seo
p381
sg21
g15
(g17
S'x\x12\xa4v\x05u\x90?'
tRp382
sa(dp383
g14
g15
(g17
S'\x8e\xfb\x05\xe6\xe2\x1bb?'
tRp384
sg19
Vcontractor->dev_profile_title->sem
p385
sg21
g15
(g17
S'\x1c_\x9d\x0b\xd9/\xc1?'
tRp386
sa(dp387
g14
g15
(g17
S"\x12v'\xed\xa8\xec\x91?"
tRp388
sg19
Vcontractor->dev_profile_title->researcher
p389
sg21
g15
(g17
S'\xbc\xc8}\xaai8\xd5?'
tRp390
sa(dp391
g14
g15
(g17
S'c\xd7\xf7/T\xa4\x86?'
tRp392
sg19
Vcontractor->dev_profile_title->professional
p393
sg21
g15
(g17
S'\r\x93$\x89\xd9L\xd0?'
tRp394
sa(dp395
g14
g15
(g17
S'[\xc1\xdf(\xdc\xc2K?'
tRp396
sg19
Vcontractor->dev_profile_title->of
p397
sg21
g15
(g17
S'\xc7^\x15\xea\x86\xe7\xa6?'
tRp398
sa(dp399
g14
g15
(g17
S'\xa4\x18\xafh\xe3\x90i?'
tRp400
sg19
Vcontractor->dev_profile_title->ms
p401
sg21
g15
(g17
S'\x8e\x9a\x0e\xe8\xa2"\xbf?'
tRp402
sa(dp403
g14
g15
(g17
S'\x19\xc8\xa4\xc4\xa6\xa4\x8c?'
tRp404
sg19
Vcontractor->dev_profile_title->graphic
p405
sg21
g15
(g17
S'\x99\x89\xad^k\x03\xdb?'
tRp406
sa(dp407
g14
g15
(g17
S'\xdaTK6\xc7?H?'
tRp408
sg19
Vcontractor->dev_profile_title->for
p409
sg21
g15
(g17
S'\xa7P\x846\xc8\xba\xa3?'
tRp410
sa(dp411
g14
g15
(g17
S'\xe6\xff\x8b\x89\xc3\x0ez?'
tRp412
sg19
Vcontractor->dev_profile_title->experienced
p413
sg21
g15
(g17
S'|\x86\xed\xd3BL\xcc?'
tRp414
sa(dp415
g14
g15
(g17
S'\x13\xa2\xe4\x01r\x88=?'
tRp416
sg19
Vcontractor->dev_profile_title->excel
p417
sg21
g15
(g17
S'\x9a\xd6~f\x98\xb2\x91?'
tRp418
sa(dp419
g14
g15
(g17
S'\xfc\xd4)\xcf\x14\x1f\x99?'
tRp420
sg19
Vcontractor->dev_profile_title->entry
p421
sg21
g15
(g17
S'9BxF\x8fq\xd4?'
tRp422
sa(dp423
g14
g15
(g17
S'\x90z\xb0\x92C\xe2q?'
tRp424
sg19
Vcontractor->dev_profile_title->editor
p425
sg21
g15
(g17
S'\xa3\xb1\xdf\xba~\x8a\xc1?'
tRp426
sa(dp427
g14
g15
(g17
S'\xc6\xe30\xf2\x95\x0b\x94?'
tRp428
sg19
Vcontractor->dev_profile_title->designer
p429
sg21
g15
(g17
S'\xf6\xd9\xdeAUI\xd7?'
tRp430
sa(dp431
g14
g15
(g17
S'\x02\xa7\xd2\xcfh\xcft?'
tRp432
sg19
Vcontractor->dev_profile_title->design
p433
sg21
g15
(g17
S'\xd8iH\xb8Q\x85\xd1?'
tRp434
sa(dp435
g14
g15
(g17
S'/\xac\x08\xd6y#\xa2?'
tRp436
sg19
Vcontractor->dev_profile_title->data
p437
sg21
g15
(g17
S'^d[\x07`\xf2\xd9?'
tRp438
sa(dp439
g14
g15
(g17
S'\xa9\xdd~=\xf1as?'
tRp440
sg19
Vcontractor->dev_profile_title->assistant
p441
sg21
g15
(g17
S'\x9f,\xa2\xc7\xd3]\xc0?'
tRp442
sa(dp443
g14
g15
(g17
S'{r\xf8\xb9f\xcfC?'
tRp444
sg19
Vcontractor->dev_profile_title->analyst
p445
sg21
g15
(g17
S'\x1f\x7f\xc3FG\xfe\xa0?'
tRp446
sa(dp447
g14
g15
(g17
S'X\x1a\xcf/\x91\xf5\x80?'
tRp448
sg19
Vcontractor->dev_pay_rate
p449
sg21
g15
(g17
S':\xa4\xe0\xbb\xc2\xa2\xae?'
tRp450
sa(dp451
g14
g15
(g17
S'z\xa5\x0f\xa4\xaa\x8a\xd7?'
tRp452
sg19
Vcontractor->dev_is_looking
p453
sg21
g15
(g17
S'\xc4\xad\x95e\x1d\xfa\xd9?'
tRp454
sa(dp455
g14
g15
(g17
S'\\=\xc1^\x04i\xd5?'
tRp456
sg19
Vcontractor->dev_eng_skill
p457
sg21
g15
(g17
S'j\xe2\x8aV\x0c\x02\xd7?'
tRp458
sa(dp459
g14
g15
(g17
S'\x16\xd29\xa0m\x9a\x83?'
tRp460
sg19
Vcontractor->dev_blurb->you
p461
sg21
g15
(g17
S'\xbd\x9e\x98e\xfa\x97\xc7?'
tRp462
sa(dp463
g14
g15
(g17
S'\x16\xb3\xf5&\xfd\xfbv?'
tRp464
sg19
Vcontractor->dev_blurb->years
p465
sg21
g15
(g17
S'\xb3\xcc\xdb\xf1\xd7\x04\xba?'
tRp466
sa(dp467
g14
g15
(g17
S'=\x16\xb5\x0c\x1d\xc5V?'
tRp468
sg19
Vcontractor->dev_blurb->would
p469
sg21
g15
(g17
S'|\x91\xe8\x88\xaa*\xb3?'
tRp470
sa(dp471
g14
g15
(g17
S'\xc3\xd7\x05\x16j\x19\x92?'
tRp472
sg19
Vcontractor->dev_blurb->work
p473
sg21
g15
(g17
S'0\xfa\xab\xf5Y\xa2\xd0?'
tRp474
sa(dp475
g14
g15
(g17
S'V\xa6\xdcU\x89\x8a~?'
tRp476
sg19
Vcontractor->dev_blurb->with
p477
sg21
g15
(g17
S'\xf5j\xc7\x84\x1f\x1c\xb6?'
tRp478
sa(dp479
g14
g15
(g17
S'\xa3\x7f\xd3\xda\x8b\x8eq?'
tRp480
sg19
Vcontractor->dev_blurb->will
p481
sg21
g15
(g17
S'\x14F\x86\xbe\x80\xaf\xbc?'
tRp482
sa(dp483
g14
g15
(g17
S'\xe5\x19\xbec\xad\x0bY?'
tRp484
sg19
Vcontractor->dev_blurb->what
p485
sg21
g15
(g17
S'q\x053R\x87v\xb8?'
tRp486
sa(dp487
g14
g15
(g17
S'b\x97!J\x88\xc7%?'
tRp488
sg19
Vcontractor->dev_blurb->website
p489
sg21
g15
(g17
S'\x81\xee\xae\xacG\xf6z?'
tRp490
sa(dp491
g14
g15
(g17
S'\xe4\xf4\x99Y\xfe\x1b\x87?'
tRp492
sg19
Vcontractor->dev_blurb->web
p493
sg21
g15
(g17
S'\xb7T\x9fyQ\x18\xc9?'
tRp494
sa(dp495
g14
g15
(g17
S'mm\xbb\xc5\xd7\xad\x82?'
tRp496
sg19
Vcontractor->dev_blurb->very
p497
sg21
g15
(g17
S'\x8c\xec\xc1p\x10\x8e\xd1?'
tRp498
sa(dp499
g14
g15
(g17
S'\xdbp\x9a\r\xbe\xdbl?'
tRp500
sg19
Vcontractor->dev_blurb->using
p501
sg21
g15
(g17
S'G\x9f`\x8c\xac\xd9\xbc?'
tRp502
sa(dp503
g14
g15
(g17
S'\x97\x03\xab\xff&gV?'
tRp504
sg19
Vcontractor->dev_blurb->use
p505
sg21
g15
(g17
S')\x16C-U\xa1\xa9?'
tRp506
sa(dp507
g14
g15
(g17
S'\xf3\x98X:\xe8w\x92?'
tRp508
sg19
Vcontractor->dev_blurb->that
p509
sg21
g15
(g17
S' Y\xbdD!>\xd1?'
tRp510
sa(dp511
g14
g15
(g17
S'\xd8U\x81\x8a\x9a\xb5X?'
tRp512
sg19
Vcontractor->dev_blurb->than
p513
sg21
g15
(g17
S'\xbb\x7f\x8etX\x10\xb8?'
tRp514
sa(dp515
g14
g15
(g17
S'e\xf5\x92\xfe5WY?'
tRp516
sg19
Vcontractor->dev_blurb->some
p517
sg21
g15
(g17
S'\t\xee\x1b\xd9\x12\x9d\xbb?'
tRp518
sa(dp519
g14
g15
(g17
S'\x8f\xd4MP\xe8\xaa??'
tRp520
sg19
Vcontractor->dev_blurb->seo
p521
sg21
g15
(g17
S'\xc1\xc7\xcfEw{\x94?'
tRp522
sa(dp523
g14
g15
(g17
S'\x7f\x94\x06\x11\x13\xe2]?'
tRp524
sg19
Vcontractor->dev_blurb->research
p525
sg21
g15
(g17
S'\xe2\xa4\xc2(\x12M\xb1?'
tRp526
sa(dp527
g14
g15
(g17
S'\xbf\x80m7S\xffW?'
tRp528
sg19
Vcontractor->dev_blurb->project
p529
sg21
g15
(g17
S'!\\R\x17c\x9c\xb1?'
tRp530
sa(dp531
g14
g15
(g17
S'\x7f\xec\xcb(c4|?'
tRp532
sg19
Vcontractor->dev_blurb->professional
p533
sg21
g15
(g17
S'\x0b\xd1\xdb\xeeQ)\xca?'
tRp534
sa(dp535
g14
g15
(g17
S'\xd4\xfb\x86\x16\x99\x04f?'
tRp536
sg19
Vcontractor->dev_blurb->over
p537
sg21
g15
(g17
S'(\x9c\x84\x00\xb5k\xb2?'
tRp538
sa(dp539
g14
g15
(g17
S'\xac\xb5\xa5\x8f`\x1b??'
tRp540
sg19
Vcontractor->dev_blurb->oriented
p541
sg21
g15
(g17
S'U\xacI\x80\x91u\x98?'
tRp542
sa(dp543
g14
g15
(g17
S'\x1f\x12\x04R\xde*4?'
tRp544
sg19
Vcontractor->dev_blurb->one
p545
sg21
g15
(g17
S'=N\x870 F\x99?'
tRp546
sa(dp547
g14
g15
(g17
S'\xf6oU@\xb86S?'
tRp548
sg19
Vcontractor->dev_blurb->objective
p549
sg21
g15
(g17
S'Y\x9e\xc9\x06\xb2\xf0\xab?'
tRp550
sa(dp551
g14
g15
(g17
S'u\xb3\x89*\x9d\x85P?'
tRp552
sg19
Vcontractor->dev_blurb->not
p553
sg21
g15
(g17
S'[\xa8\xfc\xdd=5\xa6?'
tRp554
sa(dp555
g14
g15
(g17
S'S\x91\x82Um\xb5.?'
tRp556
sg19
Vcontractor->dev_blurb->mysql
p557
sg21
g15
(g17
S'^\x8c\x8a\xd7zt\x82?'
tRp558
sa(dp559
g14
g15
(g17
S"\xea'o/\xabw\xa4?"
tRp560
sg19
Vcontractor->dev_blurb->my
p561
sg21
g15
(g17
S'tF\xd5V\xed\xe7\xd3?'
tRp562
sa(dp563
g14
g15
(g17
S'MO\x82i|\xc9~?'
tRp564
sg19
Vcontractor->dev_blurb->more
p565
sg21
g15
(g17
S'i\x0be\x86\xb3\xac\xd1?'
tRp566
sa(dp567
g14
g15
(g17
S'\xdbu\xd4g\x85^\x80?'
tRp568
sg19
Vcontractor->dev_blurb->me
p569
sg21
g15
(g17
S'\x89\xdb\x11Rb\xf1\xca?'
tRp570
sa(dp571
g14
g15
(g17
S'C\xfc\x93\tE\x96:?'
tRp572
sg19
Vcontractor->dev_blurb->management
p573
sg21
g15
(g17
S'\x19c\xda\xdd7\xb9\x8c?'
tRp574
sa(dp575
g14
g15
(g17
S'\xe8\x05Xx\xc3Fh?'
tRp576
sg19
Vcontractor->dev_blurb->looking
p577
sg21
g15
(g17
S'\x83t\xf9w3\x0c\xc2?'
tRp578
sa(dp579
g14
g15
(g17
S'\xc1)Gi\x1bII?'
tRp580
sg19
Vcontractor->dev_blurb->last
p581
sg21
g15
(g17
S'\xb8\xa6\xc0\x96\xef\x15\xa2?'
tRp582
sa(dp583
g14
g15
(g17
S'\xbc?p\x05\x1c.v?'
tRp584
sg19
Vcontractor->dev_blurb->knowledge
p585
sg21
g15
(g17
S'#J\x18\xa7\t\xc2\xc6?'
tRp586
sa(dp587
g14
g15
(g17
S'\x11E\x98\xfa\x14#S?'
tRp588
sg19
Vcontractor->dev_blurb->jobs
p589
sg21
g15
(g17
S'\xa5\xe7!!\x04\xc0\xb0?'
tRp590
sa(dp591
g14
g15
(g17
S'\xb2\xe8\xd0M\xfat\x9a?'
tRp592
sg19
Vcontractor->dev_blurb->in
p593
sg21
g15
(g17
S'uYYY\xd2\xef\xc7?'
tRp594
sa(dp595
g14
g15
(g17
S'\x1a\x86\x8f\xa2\xf2\x96@?'
tRp596
sg19
Vcontractor->dev_blurb->if
p597
sg21
g15
(g17
S'F\x062\x13\x9e\xe5\x9d?'
tRp598
sa(dp599
g14
g15
(g17
S'\xf2\x0cNA\xe3n\x90?'
tRp600
sg19
Vcontractor->dev_blurb->have
p601
sg21
g15
(g17
S'\x1aY\xfeB\xe9H\xca?'
tRp602
sa(dp603
g14
g15
(g17
S'\x99\xbfIL\xcc\t\xe6>'
tRp604
sg19
Vcontractor->dev_blurb->do
p605
sg21
g15
(g17
S'\xc9=\x08\xc5`\x859?'
tRp606
sa(dp607
g14
g15
(g17
S'\x8a\x10\xc4\x1f\x819f?'
tRp608
sg19
Vcontractor->dev_blurb->developed
p609
sg21
g15
(g17
S'\xf2\xd0\x8e\xea`\xfc\xc0?'
tRp610
sa(dp611
g14
g15
(g17
S'\xea\xc8U\x051nw?'
tRp612
sg19
Vcontractor->dev_blurb->designer
p613
sg21
g15
(g17
S'\xddB\xcc\xc7yF\xce?'
tRp614
sa(dp615
g14
g15
(g17
S'\x05\xf1x\xc4\xf7\xa4\x80?'
tRp616
sg19
Vcontractor->dev_blurb->design
p617
sg21
g15
(g17
S'\xd0\x1ao}\xcaK\xc9?'
tRp618
sa(dp619
g14
g15
(g17
S'-\x90&\xa8\xbf\x056?'
tRp620
sg19
Vcontractor->dev_blurb->complete
p621
sg21
g15
(g17
S'W\xb3\xf2\xc3\xda7\x90?'
tRp622
sa(dp623
g14
g15
(g17
S'>\x17\xc1\x16C\xd8C?'
tRp624
sg19
Vcontractor->dev_blurb->companies
p625
sg21
g15
(g17
S'\x1c\xb6X\x0e\xe5\xee\xa3?'
tRp626
sa(dp627
g14
g15
(g17
S'\x0c\xaf^\xbb7ub?'
tRp628
sg19
Vcontractor->dev_blurb->can
p629
sg21
g15
(g17
S'\xb1\xcdDr\x10P\xab?'
tRp630
sa(dp631
g14
g15
(g17
S'\xf0\x08\x0c\xbfX\x9cH?'
tRp632
sg19
Vcontractor->dev_blurb->but
p633
sg21
g15
(g17
S'\xc0%\x8c\xdc:\xf0\xa0?'
tRp634
sa(dp635
g14
g15
(g17
S'\xa9\xd2\xa9\x82^\xf0m?'
tRp636
sg19
Vcontractor->dev_blurb->been
p637
sg21
g15
(g17
S'\x82\x06\x99{\x99\xe7\xc3?'
tRp638
sa(dp639
g14
g15
(g17
S'\x9fd\x82\xcf\xfe\xd7@?'
tRp640
sg19
Vcontractor->dev_blurb->at
p641
sg21
g15
(g17
S'6o\xc1t\xdb\xa1\x94?'
tRp642
sa(dp643
g14
g15
(g17
S'E\x1a\xc8\x19\xde\x1f\x8b?'
tRp644
sg19
Vcontractor->dev_blurb->as
p645
sg21
g15
(g17
S'hQ\x18re\x87\xc6?'
tRp646
sa(dp647
g14
g15
(g17
S'#B\x0c\x86\x87\xeev?'
tRp648
sg19
Vcontractor->dev_blurb->are
p649
sg21
g15
(g17
S'3\x1e\xf6M\xe1]\xc6?'
tRp650
sa(dp651
g14
g15
(g17
S'\x1f\xd51\xd8]\xdf\x95?'
tRp652
sg19
Vcontractor->dev_blurb->and
p653
sg21
g15
(g17
S'\xaf\x9cT\x8ew\xa6\xb7?'
tRp654
sa(dp655
g14
g15
(g17
S'\xc5\xd2\x8e\xae\xf6\xf3r?'
tRp656
sg19
Vcontractor->dev_blurb->am
p657
sg21
g15
(g17
S'\xf9\x96\xcd\xb2\x9e\x9a\xb1?'
tRp658
sa(dp659
g14
g15
(g17
S'\xda3\xca1\x94\xedM?'
tRp660
sg19
Vcontractor->dev_blurb->also
p661
sg21
g15
(g17
S'\xb8\xa9\xd6\x11\x96\n\x9e?'
tRp662
sa(dp663
g14
g15
(g17
S'\xe7Mzn\x10\n\x01?'
tRp664
sg19
Vcontractor->dev_blurb->all
p665
sg21
g15
(g17
S'\x07\x19Ic\xf2vO?'
tRp666
sa(dp667
g14
g15
(g17
S'\x85\x075\xc8\x88h\x8b?'
tRp668
sg19
Vcontractor->dev_billed_assignments
p669
sg21
g15
(g17
S'\xa3\xe9\xc5\xb0\x11\x06\xc4?'
tRp670
sa(dp671
g14
g15
(g17
S'\xcb\xbct0\xd1*l?'
tRp672
sg19
Vcontractor->dev_bill_rate
p673
sg21
g15
(g17
S'\xd4\xa3\xd7e\xc2\xb2\x97?'
tRp674
sa(dp675
g14
g15
(g17
S'N\xc1\x90\xd3u\xa0\x92?'
tRp676
sg19
Vcontractor->dev_active_interviews
p677
sg21
g15
(g17
S'`\xf9*\x06Mo\xc2?'
tRp678
sasS'negative'
p679
(lp680
(dp681
g14
g15
(g17
S'\x00\x00\x00\x00\x00\x00\x00\x00'
tRp682
sg19
Vcontractor->dev_adj_score
p683
sg21
g15
(g17
S'\x00\x00\x00\x00\x00\x00\x00\x00'
tRp684
sa(dp685
g14
g15
(g17
S'\xd7\x94\x90\x88\xfa\x7f\xb0?'
tRp686
sg19
Vcontractor->dev_adj_score_recent
p687
sg21
g15
(g17
S'/\n\x8b\xb8\x91>\xbb\xbf'
tRp688
sa(dp689
g14
g15
(g17
S'\x02(\x8e\x99\t?\xd8?'
tRp690
sg19
Vcontractor->dev_availability
p691
sg21
g15
(g17
S'@\x1cW\x83\x1b\x91\xe0\xbf'
tRp692
sa(dp693
g14
g15
(g17
S"\x01\xad\x16\x8c'Td?"
tRp694
sg19
Vcontractor->dev_blurb->always
p695
sg21
g15
(g17
S'S\xa0\xd0|\xfbi\xc0\xbf'
tRp696
sa(dp697
g14
g15
(g17
S':\xd9\xbd\xf8\r\xa6p?'
tRp698
sg19
Vcontractor->dev_blurb->an
p699
sg21
g15
(g17
S'A\xc5z\x9at\xae\xbd\xbf'
tRp700
sa(dp701
g14
g15
(g17
S':2\x8e\x13R\x03}?'
tRp702
sg19
Vcontractor->dev_blurb->be
p703
sg21
g15
(g17
S'N\xe2N\xc6\x80\xfd\xc2\xbf'
tRp704
sa(dp705
g14
g15
(g17
S'%0\xc0\xcc\xf3\xfbW?'
tRp706
sg19
Vcontractor->dev_blurb->best
p707
sg21
g15
(g17
S'\x9f\x9d3\n\xfaU\xae\xbf'
tRp708
sa(dp709
g14
g15
(g17
S'\xa1\xee\xad\x91\x11\xf3@?'
tRp710
sg19
Vcontractor->dev_blurb->business
p711
sg21
g15
(g17
S'\x19\xc2c\xc8\xd54\x8c\xbf'
tRp712
sa(dp713
g14
g15
(g17
S'\xdf\x8b\x9d\xbce\xc7e?'
tRp714
sg19
Vcontractor->dev_blurb->client
p715
sg21
g15
(g17
S'\x96\xeb)h\xf6;\xc0\xbf'
tRp716
sa(dp717
g14
g15
(g17
S'\xe3\xc8\xd1wR\x17p?'
tRp718
sg19
Vcontractor->dev_blurb->clients
p719
sg21
g15
(g17
S'O|`M\xd1Z\xc0\xbf'
tRp720
sa(dp721
g14
g15
(g17
S'[~s\xdbH\xb6\x87?'
tRp722
sg19
Vcontractor->dev_blurb->com
p723
sg21
g15
(g17
S'\x87LG\xd8\xdb1\xcd\xbf'
tRp724
sa(dp725
g14
g15
(g17
S'\xe1\xab`W\xf6\xb8r?'
tRp726
sg19
Vcontractor->dev_blurb->company
p727
sg21
g15
(g17
S'\xa0\xba\x99K\xedM\xcd\xbf'
tRp728
sa(dp729
g14
g15
(g17
S'\xe6\xebW\xd2=7c?'
tRp730
sg19
Vcontractor->dev_blurb->customer
p731
sg21
g15
(g17
S'\xba&i\xaf*z\xb3\xbf'
tRp732
sa(dp733
g14
g15
(g17
S'\xa1\xa4\x10\x16\xc1\xc9}?'
tRp734
sg19
Vcontractor->dev_blurb->data
p735
sg21
g15
(g17
S'C\r]\xdf\xd6\x9f\xc0\xbf'
tRp736
sa(dp737
g14
g15
(g17
S'\xbc\xe5\x01~\xa9_p?'
tRp738
sg19
Vcontractor->dev_blurb->development
p739
sg21
g15
(g17
S'4\x0f\xb9\xc1\x8f\xa4\xbe\xbf'
tRp740
sa(dp741
g14
g15
(g17
S'.x\xfa|\x94rq?'
tRp742
sg19
Vcontractor->dev_blurb->entry
p743
sg21
g15
(g17
S'awb\x85\xde\xe9\xb8\xbf'
tRp744
sa(dp745
g14
g15
(g17
S'\x81\xab\x01\xb73\xceE?'
tRp746
sg19
Vcontractor->dev_blurb->excel
p747
sg21
g15
(g17
S'\xa5\x82\x81~\xeb0\x9e\xbf'
tRp748
sa(dp749
g14
g15
(g17
S'rN\xd9[\x8b\x95_?'
tRp750
sg19
Vcontractor->dev_blurb->experience
p751
sg21
g15
(g17
S'\xac\x86\xbe\xf7\x180\x9b\xbf'
tRp752
sa(dp753
g14
g15
(g17
S'e\xd2\x07w\x03\x99>?'
tRp754
sg19
Vcontractor->dev_blurb->expertise
p755
sg21
g15
(g17
S'}\xd3\xa5\xcf\xd4\x83\x97\xbf'
tRp756
sa(dp757
g14
g15
(g17
S'*\x89\x07\x1c\x08\x98S?'
tRp758
sg19
Vcontractor->dev_blurb->following
p759
sg21
g15
(g17
S'\x8f\x11\xf9)\xccO\xb3\xbf'
tRp760
sa(dp761
g14
g15
(g17
S'\xd1\xf2\xc4\xf3\xb4\xcf`?'
tRp762
sg19
Vcontractor->dev_blurb->for
p763
sg21
g15
(g17
S'\n=\xe8\xa7!C\x99\xbf'
tRp764
sa(dp765
g14
g15
(g17
S'\x00H)+\xa4\x9a4?'
tRp766
sg19
Vcontractor->dev_blurb->from
p767
sg21
g15
(g17
S'\xb3\xfe\x94\xdd\x9a7\x8d\xbf'
tRp768
sa(dp769
g14
g15
(g17
S'\xcc\xb2\xd8"\x9b\x81O?'
tRp770
sg19
Vcontractor->dev_blurb->goal
p771
sg21
g15
(g17
S'\xbc\xe1T\x074q\xa5\xbf'
tRp772
sa(dp773
g14
g15
(g17
S'z)\xc3a\x84\xe1\x80?'
tRp774
sg19
Vcontractor->dev_blurb->good
p775
sg21
g15
(g17
S'\x84\xe0\xfc\x04L\x84\xc9\xbf'
tRp776
sa(dp777
g14
g15
(g17
S'\x84\xd0\x00\xb96~\\?'
tRp778
sg19
Vcontractor->dev_blurb->html
p779
sg21
g15
(g17
S'Q.\x00\xb5\xfe@\xb0\xbf'
tRp780
sa(dp781
g14
g15
(g17
S'\xcd\xdd\x85R\xaf\xe1_?'
tRp782
sg19
Vcontractor->dev_blurb->is
p783
sg21
g15
(g17
S'\x1c_\xa4w\x83\x95\x9f\xbf'
tRp784
sa(dp785
g14
g15
(g17
S'd\x85vN,(l?'
tRp786
sg19
Vcontractor->dev_blurb->it
p787
sg21
g15
(g17
S'Qj+\xe0\x18\xf3\xc0\xbf'
tRp788
sa(dp789
g14
g15
(g17
S'\xb8C\ro\xabY ?'
tRp790
sg19
Vcontractor->dev_blurb->like
p791
sg21
g15
(g17
S'\xd4\x89]\xf9S?w\xbf'
tRp792
sa(dp793
g14
g15
(g17
S'`\x12\xcf\xce\xf0\x11X?'
tRp794
sg19
Vcontractor->dev_blurb->marketing
p795
sg21
g15
(g17
S'\\\x1cZ\xd7\x8c\xd4\xb1\xbf'
tRp796
sa(dp797
g14
g15
(g17
S'\x84\xfd"fS\x8eT?'
tRp798
sg19
Vcontractor->dev_blurb->new
p799
sg21
g15
(g17
S'*\x92A\xc1=\xdf\xb1\xbf'
tRp800
sa(dp801
g14
g15
(g17
S'\xbe0\xde\xd5;bR?'
tRp802
sg19
Vcontractor->dev_blurb->of
p803
sg21
g15
(g17
S'\xa4\xb0R~v\r\x85\xbf'
tRp804
sa(dp805
g14
g15
(g17
S'\x82D\xc6M\xddqa?'
tRp806
sg19
Vcontractor->dev_blurb->on
p807
sg21
g15
(g17
S'p\x06\x1c\xb9\x15\xaa\xa5\xbf'
tRp808
sa(dp809
g14
g15
(g17
S'\xb0-y\xe2Q\x82J?'
tRp810
sg19
Vcontractor->dev_blurb->or
p811
sg21
g15
(g17
S'\xfb|c9|I\xa0\xbf'
tRp812
sa(dp813
g14
g15
(g17
S'\x9f2:\xc0\x1c\x11J?'
tRp814
sg19
Vcontractor->dev_blurb->other
p815
sg21
g15
(g17
S'z\x03u\x8a\x0c\xf4\xa4\xbf'
tRp816
sa(dp817
g14
g15
(g17
S'#\xaa\xee\x1c\xbc5C?'
tRp818
sg19
Vcontractor->dev_blurb->php
p819
sg21
g15
(g17
S'\xb6\xb3*\x14\x83\xc2\x95\xbf'
tRp820
sa(dp821
g14
g15
(g17
S',\xf1v\xd0\xa7\xbc`?'
tRp822
sg19
Vcontractor->dev_blurb->provide
p823
sg21
g15
(g17
S'\xc9\x117X\xc2\xa4\xb3\xbf'
tRp824
sa(dp825
g14
g15
(g17
S'W5\x12\x08\xb1\x93p?'
tRp826
sg19
Vcontractor->dev_blurb->quality
p827
sg21
g15
(g17
S'C\xe8\xd8E\xd4t\xbd\xbf'
tRp828
sa(dp829
g14
g15
(g17
S'\xcb\x9e\xec1\x900q?'
tRp830
sg19
Vcontractor->dev_blurb->satisfaction
p831
sg21
g15
(g17
S'\xc8mkui\x04\xc9\xbf'
tRp832
sa(dp833
g14
g15
(g17
S'\xcbx\x0f\x0c\xf7\xf2p?'
tRp834
sg19
Vcontractor->dev_blurb->service
p835
sg21
g15
(g17
S'\xc3\x0c\x8c%\xf9\x9b\xb8\xbf'
tRp836
sa(dp837
g14
g15
(g17
S'd?\xe5\xd1:\xccf?'
tRp838
sg19
Vcontractor->dev_blurb->skills
p839
sg21
g15
(g17
S'hn\xa8>\xc1*\xa9\xbf'
tRp840
sa(dp841
g14
g15
(g17
S'X\xaa\x16\xaf["9?'
tRp842
sg19
Vcontractor->dev_blurb->solutions
p843
sg21
g15
(g17
S'*Q\x9b\x9f\xec\xa8\x92\xbf'
tRp844
sa(dp845
g14
g15
(g17
S'\xf2\x81\x1a\x02\xa4ZS?'
tRp846
sg19
Vcontractor->dev_blurb->support
p847
sg21
g15
(g17
S'\t\xa1`\x02j\xb2\xa9\xbf'
tRp848
sa(dp849
g14
g15
(g17
S'\x91\xdc\xa64pJf?'
tRp850
sg19
Vcontractor->dev_blurb->tasks
p851
sg21
g15
(g17
S'o.\x04\x9f\x88m\xbf\xbf'
tRp852
sa(dp853
g14
g15
(g17
S'\xfa\x80\xfd\xc8\xb2Z}?'
tRp854
sg19
Vcontractor->dev_blurb->the
p855
sg21
g15
(g17
S'\x10\xd6\x98\xf6\xa8G\xad\xbf'
tRp856
sa(dp857
g14
g15
(g17
S'Ii\x9f\x94fgi?'
tRp858
sg19
Vcontractor->dev_blurb->time
p859
sg21
g15
(g17
S'\xb9A\x9d\x17\xacd\xb9\xbf'
tRp860
sa(dp861
g14
g15
(g17
S'\xc5\xf9\xb7i\xcc\xab\xab?'
tRp862
sg19
Vcontractor->dev_blurb->to
p863
sg21
g15
(g17
S'\xa9TH)\x13\x01\xd4\xbf'
tRp864
sa(dp865
g14
g15
(g17
S'A\xbf\x85B\xa9F_?'
tRp866
sg19
Vcontractor->dev_blurb->well
p867
sg21
g15
(g17
S'\xf9\xca$\x80\xed\x93\xb4\xbf'
tRp868
sa(dp869
g14
g15
(g17
S')\xdc\xe2\xd2\x1a6\x1a?'
tRp870
sg19
Vcontractor->dev_blurb->where
p871
sg21
g15
(g17
S'\xfcoz\x8a\x1a\xb2v\xbf'
tRp872
sa(dp873
g14
g15
(g17
S')\x01\xa3\x9d\x7f\xeeH?'
tRp874
sg19
Vcontractor->dev_blurb->word
p875
sg21
g15
(g17
S"E'\x14\x9e#e\xa1\xbf"
tRp876
sa(dp877
g14
g15
(g17
S'\xf5\xa4\xff[\x9eYE?'
tRp878
sg19
Vcontractor->dev_blurb->wordpress
p879
sg21
g15
(g17
S'\xdb\xceS\xd2qI\x9c\xbf'
tRp880
sa(dp881
g14
g15
(g17
S'\xca/\xce\xce[E\x04?'
tRp882
sg19
Vcontractor->dev_blurb->working
p883
sg21
g15
(g17
S'\xd9A\xa8\xe4\xfb)O\xbf'
tRp884
sa(dp885
g14
g15
(g17
S'\xc3\x9e\xbaDH\xa2E?'
tRp886
sg19
Vcontractor->dev_blurb->writing
p887
sg21
g15
(g17
S'\xd6\xe34\\\x8d\xf5\x90\xbf'
tRp888
sa(dp889
g14
g15
(g17
S'\x95Bqu\xa2\x95T?'
tRp890
sg19
Vcontractor->dev_blurb->your
p891
sg21
g15
(g17
S'x%\x9a\xf7_\xaa\xa5\xbf'
tRp892
sa(dp893
g14
g15
(g17
S'\x94j\x1e\xc1\xe5\xefv?'
tRp894
sg19
Vcontractor->dev_cur_assignments
p895
sg21
g15
(g17
S'%\x14`\xe5\xddq\xac\xbf'
tRp896
sa(dp897
g14
g15
(g17
S'8\x16\xbf5,_\xb2?'
tRp898
sg19
Vcontractor->dev_expose_full_name
p899
sg21
g15
(g17
S'\xbe\xc5\xd7\xe2c\xf5\xc0\xbf'
tRp900
sa(dp901
g14
g15
(g17
S'E6R\x85n\x91\xd0?'
tRp902
sg19
Vcontractor->dev_is_looking_week
p903
sg21
g15
(g17
S'St/\xd3\xb7\xe1\xd3\xbf'
tRp904
sa(dp905
g14
g15
(g17
S'\xd9\xfe\x89\x05\xb0\x83\xb0?'
tRp906
sg19
Vcontractor->dev_last_worked
p907
sg21
g15
(g17
S"\xf9\x93\x14'\xc6!\xb5\xbf"
tRp908
sa(dp909
g14
g15
(g17
S'\x92\x1a\xf6\xc0|bc?'
tRp910
sg19
Vcontractor->dev_portfolio_items_count
p911
sg21
g15
(g17
S'\xc3x\x9dV\xa6\xd8\x99\xbf'
tRp912
sa(dp913
g14
g15
(g17
S'V\x86\x12/1\x1aT?'
tRp914
sg19
Vcontractor->dev_profile_title->administrative
p915
sg21
g15
(g17
S'\xcc=\xb6q\xfc\xda\xa3\xbf'
tRp916
sa(dp917
g14
g15
(g17
S'zQ\xa5\xe6\xb5\x92`?'
tRp918
sg19
Vcontractor->dev_profile_title->and
p919
sg21
g15
(g17
S'h\xf4\xdc\xddK:\xa2\xbf'
tRp920
sa(dp921
g14
g15
(g17
S'\xfd\xc1\xae\x00\xbe\xa6d?'
tRp922
sg19
Vcontractor->dev_profile_title->architect
p923
sg21
g15
(g17
S'\x0f\x86\x8e\xd1\xe1\xb5\xba\xbf'
tRp924
sa(dp925
g14
g15
(g17
S'\xca\xc8\xb0$\x18\xbby?'
tRp926
sg19
Vcontractor->dev_profile_title->artist
p927
sg21
g15
(g17
S'\xa8\x93\x9bAb|\xd4\xbf'
tRp928
sa(dp929
g14
g15
(g17
S'b\x99@\xab 6T?'
tRp930
sg19
Vcontractor->dev_profile_title->best
p931
sg21
g15
(g17
S'\x04\xdc\x84;|[\xa7\xbf'
tRp932
sa(dp933
g14
g15
(g17
S':\x0c\xb3\xa6\xcf\x10A?'
tRp934
sg19
Vcontractor->dev_profile_title->css
p935
sg21
g15
(g17
S'\x8d\xfeU\xe2\xc7\x95\x90\xbf'
tRp936
sa(dp937
g14
g15
(g17
S'\xcb\xf2\xc7\x82\x92\xefR?'
tRp938
sg19
Vcontractor->dev_profile_title->customer
p939
sg21
g15
(g17
S"\x02`F\xabw'\xae\xbf"
tRp940
sa(dp941
g14
g15
(g17
S'\x0b\x00\n\xc1"\xe4t?'
tRp942
sg19
Vcontractor->dev_profile_title->developer
p943
sg21
g15
(g17
S'-\x17\x1aO\x91\x95\xb5\xbf'
tRp944
sa(dp945
g14
g15
(g17
S'\xa8\xb7\x8eU\xd5\xb7N?'
tRp946
sg19
Vcontractor->dev_profile_title->engineer
p947
sg21
g15
(g17
S'\xfa\x92\x00\xd5{\xc8\xa0\xbf'
tRp948
sa(dp949
g14
g15
(g17
S'\x02^R\xd2\xc3@j?'
tRp950
sg19
Vcontractor->dev_profile_title->expert
p951
sg21
g15
(g17
S'\x0f2\x0e\x93\xd3f\xb0\xbf'
tRp952
sa(dp953
g14
g15
(g17
S'tg\r\x96\x81\xbag?'
tRp954
sg19
Vcontractor->dev_profile_title->freelance
p955
sg21
g15
(g17
S'\x8a{E(\xaf\xfb\xc2\xbf'
tRp956
sa(dp957
g14
g15
(g17
S"'>g\xde\xc5\x10q?"
tRp958
sg19
Vcontractor->dev_profile_title->game
p959
sg21
g15
(g17
S'M|\xe8#\xc4\xb1\xc5\xbf'
tRp960
sa(dp961
g14
g15
(g17
S'\x02\x15+}F\xef]?'
tRp962
sg19
Vcontractor->dev_profile_title->html
p963
sg21
g15
(g17
S'\x1f\xbb\xf2\x8b\xea\x89\xac\xbf'
tRp964
sa(dp965
g14
g15
(g17
S'C\xda\xc7\xebX.:?'
tRp966
sg19
Vcontractor->dev_profile_title->in
p967
sg21
g15
(g17
S'c\xd2]\x15\x9ed\x96\xbf'
tRp968
sa(dp969
g14
g15
(g17
S'\xc0j\xc3U\xfc\x18p?'
tRp970
sg19
Vcontractor->dev_profile_title->jquery
p971
sg21
g15
(g17
S'Z\xa5\xbeb\xf5\x93\xc7\xbf'
tRp972
sa(dp973
g14
g15
(g17
S'\x956\xc5\xc4\xe9~2?'
tRp974
sg19
Vcontractor->dev_profile_title->mysql
p975
sg21
g15
(g17
S'\xa3\x15]"\xa4\x90\x91\xbf'
tRp976
sa(dp977
g14
g15
(g17
S'P\x91@\xb96\xc4j?'
tRp978
sg19
Vcontractor->dev_profile_title->photoshop
p979
sg21
g15
(g17
S'\x17\x16\xf5\x990\x93\xc5\xbf'
tRp980
sa(dp981
g14
g15
(g17
S"\xd1\x8b\r\x00'U]?"
tRp982
sg19
Vcontractor->dev_profile_title->php
p983
sg21
g15
(g17
S'E\xbd\xdd\x9a\xd5\xe2\xa1\xbf'
tRp984
sa(dp985
g14
g15
(g17
S'\xdfNN\xb9H\xfc@?'
tRp986
sg19
Vcontractor->dev_profile_title->research
p987
sg21
g15
(g17
S'=[\xeb\xd8\xd8\xcb\x8c\xbf'
tRp988
sa(dp989
g14
g15
(g17
S'~7uP\xd8\x87i?'
tRp990
sg19
Vcontractor->dev_profile_title->service
p991
sg21
g15
(g17
S'\x7f\xe9\x84V\xdeQ\xba\xbf'
tRp992
sa(dp993
g14
g15
(g17
S'\x07\xae\x18j\xc31\x1e?'
tRp994
sg19
Vcontractor->dev_profile_title->specialist
p995
sg21
g15
(g17
S'\xdc\x1by\x8b\xb3tz\xbf'
tRp996
sa(dp997
g14
g15
(g17
S'\xdd\xa7\x9b,\xe7Be?'
tRp998
sg19
Vcontractor->dev_profile_title->web
p999
sg21
g15
(g17
S'\xcf\x8c\x82\xf0\xe1A\xa2\xbf'
tRp1000
sa(dp1001
g14
g15
(g17
S"u\xd6\xe2\x1bS4'?"
tRp1002
sg19
Vcontractor->dev_profile_title->with
p1003
sg21
g15
(g17
S'\xdao\xee\xa5\x16^\x83\xbf'
tRp1004
sa(dp1005
g14
g15
(g17
S'\x12\xbd\xc0:ARe?'
tRp1006
sg19
Vcontractor->dev_profile_title->word
p1007
sg21
g15
(g17
S'\x81\x9b;\xb3\x88\x93\xc5\xbf'
tRp1008
sa(dp1009
g14
g15
(g17
S'\x9b^\x91\x1dE\xafs?'
tRp1010
sg19
Vcontractor->dev_profile_title->wordpress
p1011
sg21
g15
(g17
S'%\x0e9G \x87\xc0\xbf'
tRp1012
sa(dp1013
g14
g15
(g17
S'\xfd\x85\xf9\xdd2 P?'
tRp1014
sg19
Vcontractor->dev_profile_title->writing
p1015
sg21
g15
(g17
S'\xdfh\xc2\x0b\x9d\xdc\xa6\xbf'
tRp1016
sa(dp1017
g14
g15
(g17
S'\x00\x00\x00\x00\x00\x00\x00\x00'
tRp1018
sg19
Vcontractor->dev_recent_hourly_jobs
p1019
sg21
g15
(g17
S'\x00\x00\x00\x00\x00\x00\x00\x00'
tRp1020
sa(dp1021
g14
g15
(g17
S'eL9\xa9\x80b{?'
tRp1022
sg19
Vcontractor->dev_total_hours_rounded
p1023
sg21
g15
(g17
S'\xa1\x058.\xe3O\xaf\xbf'
tRp1024
sa(dp1025
g14
g15
(g17
S'_\x7f\x16\xed.\xdc\x8c?'
tRp1026
sg19
Vcontractor->dev_total_revenue
p1027
sg21
g15
(g17
S'x\xa3\x15\xa7\xabF\xcc\xbf'
tRp1028
sa(dp1029
g14
g15
(g17
S'\x96\xd1\x16\xc3i\x80\x84?'
tRp1030
sg19
Vcountry_pair->australia,bangladesh
p1031
sg21
g15
(g17
S'\x96\xd1\x16\xc3i\x80\xd4\xbf'
tRp1032
sa(dp1033
g14
g15
(g17
S'\x88\xd7s\xdb\x03%Z?'
tRp1034
sg19
Vcountry_pair->australia,india
p1035
sg21
g15
(g17
S'\xa6\xe1\x96\xe4\xc2\x9b\xc3\xbf'
tRp1036
sa(dp1037
g14
g15
(g17
S'<Nn\x86M\x0bP?'
tRp1038
sg19
Vcountry_pair->australia,philippines
p1039
sg21
g15
(g17
S'[u\xa5I\xf4\x10\xa8\xbf'
tRp1040
sa(dp1041
g14
g15
(g17
S'\x05BL\xf4\x1dDA?'
tRp1042
sg19
Vcountry_pair->australia,united kingdom
p1043
sg21
g15
(g17
S'\x08cr\xee,\xe6\xa9\xbf'
tRp1044
sa(dp1045
g14
g15
(g17
S'\x95m\xc7{m\x14l?'
tRp1046
sg19
Vcountry_pair->canada,united states
p1047
sg21
g15
(g17
S'0\x92\xd5\x1cR\x0f\xc5\xbf'
tRp1048
sa(dp1049
g14
g15
(g17
S'mK0w\xf12\x18?'
tRp1050
sg19
Vcountry_pair->france,netherlands
p1051
sg21
g15
(g17
S'\x928d\x195&\x82\xbf'
tRp1052
sa(dp1053
g14
g15
(g17
S'N\x01\xc6%\xb6iW?'
tRp1054
sg19
Vcountry_pair->india,china
p1055
sg21
g15
(g17
S'\xfb\x80T\x9cH\x8f\xc1\xbf'
tRp1056
sa(dp1057
g14
g15
(g17
S'\x94Y}\x9bV\\W?'
tRp1058
sg19
Vcountry_pair->sri lanka,philippines
p1059
sg21
g15
(g17
S'/\x03\x9e\xf4@\x85\xc1\xbf'
tRp1060
sa(dp1061
g14
g15
(g17
S'\xb6OE\x95%YK?'
tRp1062
sg19
Vcountry_pair->united kingdom,bangladesh
p1063
sg21
g15
(g17
S'\xc9\xfb\xf3/\xdc\x82\xb4\xbf'
tRp1064
sa(dp1065
g14
g15
(g17
S'y\x9f\x8c\x9a\xa7\xc2\n?'
tRp1066
sg19
Vcountry_pair->united kingdom,pakistan
p1067
sg21
g15
(g17
S'\x9bw\xe9\xb3\xfd\x11t\xbf'
tRp1068
sa(dp1069
g14
g15
(g17
S'\x8d[s\t\x07\x03W?'
tRp1070
sg19
Vcountry_pair->united kingdom,sri lanka
p1071
sg21
g15
(g17
S'\xaa\x84\x16GEB\xc1\xbf'
tRp1072
sa(dp1073
g14
g15
(g17
S'\x19\x02\xc0\xcc\x8c\x88-?'
tRp1074
sg19
Vcountry_pair->united states,bangladesh
p1075
sg21
g15
(g17
S'\x93\x01\x90\x99i&\x96\xbf'
tRp1076
sa(dp1077
g14
g15
(g17
S'\x01\xd37\xfc\xbc\xfd6?'
tRp1078
sg19
Vcountry_pair->united states,canada
p1079
sg21
g15
(g17
S'A\xde)\xbdM>\xa1\xbf'
tRp1080
sa(dp1081
g14
g15
(g17
S'\xb0!s\xc1V\xf3\x1e?'
tRp1082
sg19
Vcountry_pair->united states,china
p1083
sg21
g15
(g17
S'DY\x16\x11\x816g\xbf'
tRp1084
sa(dp1085
g14
g15
(g17
S'\x08\xf5x\x9fy\x87p?'
tRp1086
sg19
Vcountry_pair->united states,nigeria
p1087
sg21
g15
(g17
S'\x8co5o6\xcb\xd8\xbf'
tRp1088
sa(dp1089
g14
g15
(g17
S'e\xe8\x87d\x18\x0f\xbb?'
tRp1090
sg19
Vcountry_pair->united states,philippines
p1091
sg21
g15
(g17
S'\xf3\x06!\xbd\xc4d\xd6\xbf'
tRp1092
sa(dp1093
g14
g15
(g17
S'Z\x94\x95\x96\x85\x8a`?'
tRp1094
sg19
Vcountry_pair->united states,united states
p1095
sg21
g15
(g17
S'#\x1brs\x07\x0e\x96\xbf'
tRp1096
sa(dp1097
g14
g15
(g17
S'\xab55/TH\xde?'
tRp1098
sg19
Vemployer->op_country_tz
p1099
sg21
g15
(g17
S'\xe3\xd4\x04)GK\xb4\xbf'
tRp1100
sa(dp1101
g14
g15
(g17
S'\xab55/TH\xde?'
tRp1102
sg19
Vemployer->op_timezone
p1103
sg21
g15
(g17
S'\xe3\xd4\x04)GK\xb4\xbf'
tRp1104
sa(dp1105
g14
g15
(g17
S'\xb8Pt\xd2X$\xd3?'
tRp1106
sg19
Vopening_id
p1107
sg21
g15
(g17
S'~\xdf/\xd8R\x90\xd4\xbf'
tRp1108
sa(dp1109
g14
g15
(g17
S'\xa7\xbbN$r\x9cp?'
tRp1110
sg19
Vtsexams->3ds Max 9 Test
p1111
sg21
g15
(g17
S'\x08-\xc7\xf4PP\xbd\xbf'
tRp1112
sa(dp1113
g14
g15
(g17
S'\xac\xd7\xe7*\xdb\x8ds?'
tRp1114
sg19
Vtsexams->ASP.Net 3.5 using C# Test
p1115
sg21
g15
(g17
S'\xc6\xbd\xbc\xe2\xfc\x8f\xc6\xbf'
tRp1116
sa(dp1117
g14
g15
(g17
S'\x08\x99]Z\x1d\xf0Y?'
tRp1118
sg19
Vtsexams->Accounts Payable Test
p1119
sg21
g15
(g17
S"\n\xc1*\xf8\xe9'\x8a\xbf"
tRp1120
sa(dp1121
g14
g15
(g17
S'\xc4\x07k\xef\x13\xa8\x8c?'
tRp1122
sg19
Vtsexams->Adobe After Effects 7.0 Test
p1123
sg21
g15
(g17
S'\xe4(\xe1\xd6+<\xc7\xbf'
tRp1124
sa(dp1125
g14
g15
(g17
S"('\xb7\xcdn\xfaj?"
tRp1126
sg19
Vtsexams->Adobe Illustrator CS4 Test
p1127
sg21
g15
(g17
S'\xe5}\x07\x15\xdc/\xc0\xbf'
tRp1128
sa(dp1129
g14
g15
(g17
S'\xaaQ\x04Mo\xdeu?'
tRp1130
sg19
Vtsexams->Adobe Illustrator Test
p1131
sg21
g15
(g17
S'\x00F(\x8b\xa8\xbe\xc2\xbf'
tRp1132
sa(dp1133
g14
g15
(g17
S':\xfc l\xc2\xbf\x93?'
tRp1134
sg19
Vtsexams->Adobe Photoshop 6.0
p1135
sg21
g15
(g17
S'!\x11_f\xf9(\xc2\xbf'
tRp1136
sa(dp1137
g14
g15
(g17
S'q\x81\x05QC\xaa\xc0?'
tRp1138
sg19
Vtsexams->Adobe Photoshop CS3 Test
p1139
sg21
g15
(g17
S'\xbe\xeb\x1d\x92\xab/\xd7\xbf'
tRp1140
sa(dp1141
g14
g15
(g17
S'3\xdbm\\XK\xb6?'
tRp1142
sg19
Vtsexams->Adobe Photoshop CS4 Test
p1143
sg21
g15
(g17
S'\xcd\x8c} \xaez\xe9\xbf'
tRp1144
sa(dp1145
g14
g15
(g17
S'`k\x12\xd9O\xd8T?'
tRp1146
sg19
Vtsexams->Adobe Premiere Test
p1147
sg21
g15
(g17
S'k>\x86F<)\xa7\xbf'
tRp1148
sa(dp1149
g14
g15
(g17
S'/a\x92y\x93\xabp?'
tRp1150
sg19
Vtsexams->Advanced PHP Test
p1151
sg21
g15
(g17
S'\xac\x01)3\xd0\x88\xb7\xbf'
tRp1152
sa(dp1153
g14
g15
(g17
S'\x14S\xe8\xaf&\x82]?'
tRp1154
sg19
Vtsexams->Analytical Skills Test
p1155
sg21
g15
(g17
S'\xaauS&R\x9b\xa7\xbf'
tRp1156
sa(dp1157
g14
g15
(g17
S'z\xbb\xa6\xf4\xe9(\x88?'
tRp1158
sg19
Vtsexams->CSS 2.0 Test
p1159
sg21
g15
(g17
S'\xff\xa9)\x1a\x1d\xc2\xc0\xbf'
tRp1160
sa(dp1161
g14
g15
(g17
S'\x96\xc7\xe8\xb2\xcdT\x9d?'
tRp1162
sg19
Vtsexams->CSS 3 Test
p1163
sg21
g15
(g17
S'\x06\xe9\xad\xf3\x1b\x9b\xcb\xbf'
tRp1164
sa(dp1165
g14
g15
(g17
S"('\xb7\xcdn\xfaj?"
tRp1166
sg19
Vtsexams->Chrome Product Test
p1167
sg21
g15
(g17
S'\xe5}\x07\x15\xdc/\xc0\xbf'
tRp1168
sa(dp1169
g14
g15
(g17
S'\x89{\x94*\xbc]\xa4?'
tRp1170
sg19
Vtsexams->Creative Writing Test - Fiction (U.S. Version)
p1171
sg21
g15
(g17
S'x\x1f\x85\xe7\x8dF\xd7\xbf'
tRp1172
sa(dp1173
g14
g15
(g17
S'~k\xf7\x86\x94\xdav?'
tRp1174
sg19
Vtsexams->Creative Writing Test - Non-fiction (U.S. Version)
p1175
sg21
g15
(g17
S"\xb4\x1e'A\xd2!\xc0\xbf"
tRp1176
sa(dp1177
g14
g15
(g17
S'\xed\xba\x1d\xa5\xcc\xe7B?'
tRp1178
sg19
Vtsexams->Dreamweaver 8 Test
p1179
sg21
g15
(g17
S'\xb7F\xbd_\xc2\xaf\x96\xbf'
tRp1180
sa(dp1181
g14
g15
(g17
S'\xa8\x8b\x88\xd7\x81\xfas?'
tRp1182
sg19
Vtsexams->Drupal 6.14 Test
p1183
sg21
g15
(g17
S'6\x81hp\xa9v\xb8\xbf'
tRp1184
sa(dp1185
g14
g15
(g17
S'\xfc\x1c]CE-\xa6?'
tRp1186
sg19
Vtsexams->Email Etiquette Certification
p1187
sg21
g15
(g17
S'\xcb\x0b\xf1\xa3$\x9c\xb2\xbf'
tRp1188
sa(dp1189
g14
g15
(g17
S'6\xed\xe2\xe9Y\xbd\xdc?'
tRp1190
sg19
Vtsexams->English Spelling Test (U.S. Version)
p1191
sg21
g15
(g17
S'\x8c\xe9\x85S#\x9f\xc7\xbf'
tRp1192
sa(dp1193
g14
g15
(g17
S'\xf0\xa5\x19\xf87#\xba?'
tRp1194
sg19
Vtsexams->English Spelling Test (UK Version)
p1195
sg21
g15
(g17
S'l\xf8\xf4\x92\x90\xb2\xd2\xbf'
tRp1196
sa(dp1197
g14
g15
(g17
S'\xa3\x07\xce&Ko\x83?'
tRp1198
sg19
Vtsexams->English To French Translation Skills Test
p1199
sg21
g15
(g17
S'"\xff:\xdb\xcc\xce\xd2\xbf'
tRp1200
sa(dp1201
g14
g15
(g17
S'H\n\xd2\xaa\xd1\xd3\xb6?'
tRp1202
sg19
Vtsexams->English Vocabulary Test (U.S. Version)
p1203
sg21
g15
(g17
S'\x99E\xff\x06\xd9\x87\xba\xbf'
tRp1204
sa(dp1205
g14
g15
(g17
S'w&C\xc1\x0f"\x90?'
tRp1206
sg19
Vtsexams->Facebook Connect Test
p1207
sg21
g15
(g17
S'\x9f\x88Y\xac\xbf\x82\xd5\xbf'
tRp1208
sa(dp1209
g14
g15
(g17
S'\r\\\xa2~{e\x95?'
tRp1210
sg19
Vtsexams->French Spelling Skills Test
p1211
sg21
g15
(g17
S'\xcfa\xb2\xd1\x8a\xe8\xdb\xbf'
tRp1212
sa(dp1213
g14
g15
(g17
S'\x11\x8f\xc6$\x84\xd1\xb6?'
tRp1214
sg19
Vtsexams->HTML 4.01 Test
p1215
sg21
g15
(g17
S'2\xc6<\x1f\xad\xde\xdb\xbf'
tRp1216
sa(dp1217
g14
g15
(g17
S'\xa8\x8b\x88\xd7\x81\xfas?'
tRp1218
sg19
Vtsexams->HTML 5 Test
p1219
sg21
g15
(g17
S'6\x81hp\xa9v\xb8\xbf'
tRp1220
sa(dp1221
g14
g15
(g17
S'*e\x1f\x8bd\xcdt?'
tRp1222
sg19
Vtsexams->JSON Test
p1223
sg21
g15
(g17
S'fy\xf2\xa6x\xf6\xb8\xbf'
tRp1224
sa(dp1225
g14
g15
(g17
S'\x9c_\xd8w\xb5\x12\x85?'
tRp1226
sg19
Vtsexams->JSP 2.0 Test
p1227
sg21
g15
(g17
S'\x15Z\xc5\xb9\xbb\xcc\xd5\xbf'
tRp1228
sa(dp1229
g14
g15
(g17
S'\xca\xd2!\x92\x96\xf9k?'
tRp1230
sg19
Vtsexams->Java Test
p1231
sg21
g15
(g17
S'\xb4\xbf\x18\xbc/x\xb4\xbf'
tRp1232
sa(dp1233
g14
g15
(g17
S'\xc20y\x94i\x9bq?'
tRp1234
sg19
Vtsexams->JavaScript 1.3 Test
p1235
sg21
g15
(g17
S'\xa5\x98\xca\xcc;\xf7\xb6\xbf'
tRp1236
sa(dp1237
g14
g15
(g17
S'\xfb@\ns\xa6\x8d~?'
tRp1238
sg19
Vtsexams->Knowledge of Microsoft Silverlight Skills Test
p1239
sg21
g15
(g17
S'7\xedk\x1b\xfc3\xcc\xbf'
tRp1240
sa(dp1241
g14
g15
(g17
S'\xe1E\xfa\x88\xa2\xf4[?'
tRp1242
sg19
Vtsexams->Knowledge of Windows 7 Skills Test
p1243
sg21
g15
(g17
S'^\x16\x92i*\xfa\xa6\xbf'
tRp1244
sa(dp1245
g14
g15
(g17
S'\xcd\xae\x01\x92\xd9\x02\x97?'
tRp1246
sg19
Vtsexams->Knowledge of jQuery 1.3.2 Skills Test
p1247
sg21
g15
(g17
S'3\xa2Q@F\x0c\xd2\xbf'
tRp1248
sa(dp1249
g14
g15
(g17
S'\xc3$\xe2Zu\x98\x84?'
tRp1250
sg19
Vtsexams->MS Excel 2003 Test
p1251
sg21
g15
(g17
S'\t&\xacoDN\xa5\xbf'
tRp1252
sa(dp1253
g14
g15
(g17
S'\x8d[s\t\x07\x03w?'
tRp1254
sg19
Vtsexams->MS PowerPoint 2007 Test
p1255
sg21
g15
(g17
S'\xaa\x84\x16GEB\xd1\xbf'
tRp1256
sa(dp1257
g14
g15
(g17
S'g]\xae\x08\xde\x19\xb6?'
tRp1258
sg19
Vtsexams->MS Word 2003 Test
p1259
sg21
g15
(g17
S'\xbe\xa2\xf0#A9\xde\xbf'
tRp1260
sa(dp1261
g14
g15
(g17
S'g\xb3\x8aE\t\xf0\x95?'
tRp1262
sg19
Vtsexams->Magento eCommerce Test
p1263
sg21
g15
(g17
S'\xaf=sS>S\xca\xbf'
tRp1264
sa(dp1265
g14
g15
(g17
S'\xb2\x95F\x1by\xb3s?'
tRp1266
sg19
Vtsexams->Management Skills Test
p1267
sg21
g15
(g17
S"\xf9\x92'\xfb\xca4\xb4\xbf"
tRp1268
sa(dp1269
g14
g15
(g17
S'\x84\xb5\xd5\xdc\x86\x83a?'
tRp1270
sg19
Vtsexams->Maya 7.0 Test
p1271
sg21
g15
(g17
S'Q\x80\xb7\xc3\x0b\x06\xae\xbf'
tRp1272
sa(dp1273
g14
g15
(g17
S'L/<\xd4.\xd6\x84?'
tRp1274
sg19
Vtsexams->Objective C Test
p1275
sg21
g15
(g17
S'\xd8#\xe7!\xf3\xa0\xab\xbf'
tRp1276
sa(dp1277
g14
g15
(g17
S'\x9el\x9dI4M\xe0?'
tRp1278
sg19
Vtsexams->Office Skills Test
p1279
sg21
g15
(g17
S'\xb1\x9b\xbc}1\xa3\xea\xbf'
tRp1280
sa(dp1281
g14
g15
(g17
S'm\xeb\xaa\x83\x8e\xbb\x85?'
tRp1282
sg19
Vtsexams->Organizational Behavior Test
p1283
sg21
g15
(g17
S'2r|k\xbd\xff\xbf\xbf'
tRp1284
sa(dp1285
g14
g15
(g17
S'\x0b\xe6\xd3:\xd5\x85w?'
tRp1286
sg19
Vtsexams->Outbound Sales Skills Test
p1287
sg21
g15
(g17
S'\x0b\xe6\xd3:\xd5\x85\xc7\xbf'
tRp1288
sa(dp1289
g14
g15
(g17
S'\x16\xf8[\xa7t~p?'
tRp1290
sg19
Vtsexams->PHP4 Test
p1291
sg21
g15
(g17
S'\xf6\x88\x9bs^\x0e\xa5\xbf'
tRp1292
sa(dp1293
g14
g15
(g17
S'$*\x02\xe9\xe9e\xc0?'
tRp1294
sg19
Vtsexams->PHP5 Test
p1295
sg21
g15
(g17
S'\x80\x9a\xae\xa1\xf9%\xe1\xbf'
tRp1296
sa(dp1297
g14
g15
(g17
S'!\xa7\xec\x19\xf0Oi?'
tRp1298
sg19
Vtsexams->Perl 5 Test
p1299
sg21
g15
(g17
S'U\xcf\x04O\x91x\xb3\xbf'
tRp1300
sa(dp1301
g14
g15
(g17
S'G\xb4\xf2\x99\x8f\xdb\x85?'
tRp1302
sg19
Vtsexams->Programming with C++ Test
p1303
sg21
g15
(g17
S'\xa0\xa8\xf0\x9dj8\xd9\xbf'
tRp1304
sa(dp1305
g14
g15
(g17
S'\xdd\xad\xeb\xc6\xe6\x15\x8f?'
tRp1306
sg19
Vtsexams->Ruby on Rails  2.3 Test
p1307
sg21
g15
(g17
S'\xdd\xad\xeb\xc6\xe6\x15\xdf\xbf'
tRp1308
sa(dp1309
g14
g15
(g17
S'\xb0\xb4\x13\xb2\x80\xa0j?'
tRp1310
sg19
Vtsexams->Ruby on Rails Test
p1311
sg21
g15
(g17
S'\x84\xc7\x8e\x85`\xf8\xb3\xbf'
tRp1312
sa(dp1313
g14
g15
(g17
S'\xee\xa1E\xe0\xe0.\x96?'
tRp1314
sg19
Vtsexams->Social Media Marketing Test
p1315
sg21
g15
(g17
S'{\x9a\xae\xa3\xb4\xa7\xc6\xbf'
tRp1316
sa(dp1317
g14
g15
(g17
S'\x86\xb3\x7f\x98;P\x93?'
tRp1318
sg19
Vtsexams->Technical Writing Skills Certification
p1319
sg21
g15
(g17
S';V\xaf\xd2\xcf\xbb\xc0\xbf'
tRp1320
sa(dp1321
g14
g15
(g17
S'\xa3I\x8a\xfcD`\x9e?'
tRp1322
sg19
Vtsexams->U.S. English Punctuation and Mechanics Test
p1323
sg21
g15
(g17
S'\xef\x1a\xa4}\x00\xb6\xe4\xbf'
tRp1324
sa(dp1325
g14
g15
(g17
S'K\xd0\x0fW+\x7f\xcb?'
tRp1326
sg19
Vtsexams->UK English Basic Skills Test
p1327
sg21
g15
(g17
S'\xd7\xe0\xe4s[\xba\xe9\xbf'
tRp1328
sa(dp1329
g14
g15
(g17
S'"\xc1}*!X\xc8?'
tRp1330
sg19
Vtsexams->Windows XP Test
p1331
sg21
g15
(g17
S'\x8b\xbf\x1e\xa0\xc3\x84\xe2\xbf'
tRp1332
sa(dp1333
g14
g15
(g17
S'\x05\xef\xf3X~\xe1\xa3?'
tRp1334
sg19
Vtsexams->WordPress 2.8 Test
p1335
sg21
g15
(g17
S'\xc7\xea0\xef\xdd\xd9\xd8\xbf'
tRp1336
sa(dp1337
g14
g15
(g17
S'/a\x92y\x93\xabp?'
tRp1338
sg19
Vtsexams->XHTML 1.0 Test
p1339
sg21
g15
(g17
S'\xac\x01)3\xd0\x88\xb7\xbf'
tRp1340
sa(dp1341
g14
g15
(g17
S'm^\xe4\x99:]\xa5?'
tRp1342
sg19
Vtsexams->XML 1.0 Test
p1343
sg21
g15
(g17
S'4h\xfd\x8d\xfeE\xdb\xbf'
tRp1344
sa(dp1345
g14
g15
(g17
S'\x13\xdf\xaaaO-\x9a?'
tRp1346
sg19
Vtsexams->oDesk Readiness Test for Affiliated Contractors
p1347
sg21
g15
(g17
S'\x18r3u\x92i\xdf\xbf'
tRp1348
sa(dp1349
g14
g15
(g17
S'<\xff+.\n\x98\x96?'
tRp1350
sg19
Vtsexams->oDesk Readiness Test for Independent Contractors and Company Managers
p1351
sg21
g15
(g17
S'Y+?J}_\xb7\xbf'
tRp1352
sa(dp1353
g14
g15
(g17
S'xQO\xb1\x10p\xc6?'
tRp1354
sg19
Vtsexams->oDesk Readiness Test for Independent Contractors and Staffing Managers
p1355
sg21
g15
(g17
S'W\xd2\x05\xdb\x90$\xa4\xbf'
tRp1356
sasssS'classifier_type'
p1357
Vlogistic regression
p1358
ssS'_classifier'
p1359
(dp1360
S'default'
p1361
g1
(csklearn.linear_model.logistic
LogisticRegression
p1362
g3
NtRp1363
(dp1364
S'C'
F1
sS'max_iter'
p1365
I100
sS'verbose'
p1366
I0
sS'intercept_scaling'
p1367
I1
sS'dual'
p1368
I00
sS'fit_intercept'
p1369
I01
sS'classes_'
p1370
cnumpy.core.multiarray
_reconstruct
p1371
(cnumpy
ndarray
p1372
(I0
tS'b'
tRp1373
(I1
(I2
tg16
(S'S1'
I0
I1
tRp1374
(I3
S'|'
NNNI1
I1
I0
tbI00
S'01'
tbsS'solver'
p1375
S'liblinear'
p1376
sS'n_iter_'
p1377
g15
(g16
(S'i4'
I0
I1
tRp1378
(I3
S'<'
NNNI-1
I-1
I0
tbS'\x07\x00\x00\x00'
tRp1379
sS'penalty'
p1380
Vl2
p1381
sS'multi_class'
p1382
S'ovr'
p1383
sS'random_state'
p1384
NsS'tol'
p1385
F0.0001
sS'coef_'
p1386
g1371
(g1372
(I0
tS'b'
tRp1387
(I1
(I1
I334
tg17
I01
S'`\xf9*\x06Mo\xc2?\x00\x00\x00\x00\x00\x00\x00\x00/\n\x8b\xb8\x91>\xbb\xbf@\x1cW\x83\x1b\x91\xe0\xbf\xa3\xe9\xc5\xb0\x11\x06\xc4?\xd4\xa3\xd7e\xc2\xb2\x97?\x07\x19Ic\xf2vO?\xb8\xa9\xd6\x11\x96\n\x9e?S\xa0\xd0|\xfbi\xc0\xbf\xf9\x96\xcd\xb2\x9e\x9a\xb1?A\xc5z\x9at\xae\xbd\xbf\xaf\x9cT\x8ew\xa6\xb7?3\x1e\xf6M\xe1]\xc6?hQ\x18re\x87\xc6?6o\xc1t\xdb\xa1\x94?N\xe2N\xc6\x80\xfd\xc2\xbf\x82\x06\x99{\x99\xe7\xc3?\x9f\x9d3\n\xfaU\xae\xbf\x19\xc2c\xc8\xd54\x8c\xbf\xc0%\x8c\xdc:\xf0\xa0?\xb1\xcdDr\x10P\xab?\x96\xeb)h\xf6;\xc0\xbfO|`M\xd1Z\xc0\xbf\x87LG\xd8\xdb1\xcd\xbf\x1c\xb6X\x0e\xe5\xee\xa3?\xa0\xba\x99K\xedM\xcd\xbfW\xb3\xf2\xc3\xda7\x90?\xba&i\xaf*z\xb3\xbfC\r]\xdf\xd6\x9f\xc0\xbf\xd0\x1ao}\xcaK\xc9?\xddB\xcc\xc7yF\xce?\xf2\xd0\x8e\xea`\xfc\xc0?4\x0f\xb9\xc1\x8f\xa4\xbe\xbf\xc9=\x08\xc5`\x859?awb\x85\xde\xe9\xb8\xbf\xa5\x82\x81~\xeb0\x9e\xbf\xac\x86\xbe\xf7\x180\x9b\xbf}\xd3\xa5\xcf\xd4\x83\x97\xbf\x8f\x11\xf9)\xccO\xb3\xbf\n=\xe8\xa7!C\x99\xbf\xb3\xfe\x94\xdd\x9a7\x8d\xbf\xbc\xe1T\x074q\xa5\xbf\x84\xe0\xfc\x04L\x84\xc9\xbf\x1aY\xfeB\xe9H\xca?Q.\x00\xb5\xfe@\xb0\xbfF\x062\x13\x9e\xe5\x9d?uYYY\xd2\xef\xc7?\x1c_\xa4w\x83\x95\x9f\xbfQj+\xe0\x18\xf3\xc0\xbf\xa5\xe7!!\x04\xc0\xb0?#J\x18\xa7\t\xc2\xc6?\xb8\xa6\xc0\x96\xef\x15\xa2?\xd4\x89]\xf9S?w\xbf\x83t\xf9w3\x0c\xc2?\x19c\xda\xdd7\xb9\x8c?\\\x1cZ\xd7\x8c\xd4\xb1\xbf\x89\xdb\x11Rb\xf1\xca?i\x0be\x86\xb3\xac\xd1?tF\xd5V\xed\xe7\xd3?^\x8c\x8a\xd7zt\x82?*\x92A\xc1=\xdf\xb1\xbf[\xa8\xfc\xdd=5\xa6?Y\x9e\xc9\x06\xb2\xf0\xab?\xa4\xb0R~v\r\x85\xbfp\x06\x1c\xb9\x15\xaa\xa5\xbf=N\x870 F\x99?\xfb|c9|I\xa0\xbfU\xacI\x80\x91u\x98?z\x03u\x8a\x0c\xf4\xa4\xbf(\x9c\x84\x00\xb5k\xb2?\xb6\xb3*\x14\x83\xc2\x95\xbf\x0b\xd1\xdb\xeeQ)\xca?!\\R\x17c\x9c\xb1?\xc9\x117X\xc2\xa4\xb3\xbfC\xe8\xd8E\xd4t\xbd\xbf\xe2\xa4\xc2(\x12M\xb1?\xc8mkui\x04\xc9\xbf\xc1\xc7\xcfEw{\x94?\xc3\x0c\x8c%\xf9\x9b\xb8\xbfhn\xa8>\xc1*\xa9\xbf*Q\x9b\x9f\xec\xa8\x92\xbf\t\xee\x1b\xd9\x12\x9d\xbb?\t\xa1`\x02j\xb2\xa9\xbfo.\x04\x9f\x88m\xbf\xbf\xbb\x7f\x8etX\x10\xb8? Y\xbdD!>\xd1?\x10\xd6\x98\xf6\xa8G\xad\xbf\xb9A\x9d\x17\xacd\xb9\xbf\xa9TH)\x13\x01\xd4\xbf)\x16C-U\xa1\xa9?G\x9f`\x8c\xac\xd9\xbc?\x8c\xec\xc1p\x10\x8e\xd1?\xb7T\x9fyQ\x18\xc9?\x81\xee\xae\xacG\xf6z?\xf9\xca$\x80\xed\x93\xb4\xbfq\x053R\x87v\xb8?\xfcoz\x8a\x1a\xb2v\xbf\x14F\x86\xbe\x80\xaf\xbc?\xf5j\xc7\x84\x1f\x1c\xb6?E\'\x14\x9e#e\xa1\xbf\xdb\xceS\xd2qI\x9c\xbf0\xfa\xab\xf5Y\xa2\xd0?\xd9A\xa8\xe4\xfb)O\xbf|\x91\xe8\x88\xaa*\xb3?\xd6\xe34\\\x8d\xf5\x90\xbf\xb3\xcc\xdb\xf1\xd7\x04\xba?\xbd\x9e\x98e\xfa\x97\xc7?x%\x9a\xf7_\xaa\xa5\xbf%\x14`\xe5\xddq\xac\xbfj\xe2\x8aV\x0c\x02\xd7?\xbe\xc5\xd7\xe2c\xf5\xc0\xbf\xc4\xad\x95e\x1d\xfa\xd9?St/\xd3\xb7\xe1\xd3\xbf\xf9\x93\x14\'\xc6!\xb5\xbf:\xa4\xe0\xbb\xc2\xa2\xae?\xc3x\x9dV\xa6\xd8\x99\xbf\xcc=\xb6q\xfc\xda\xa3\xbf\x1f\x7f\xc3FG\xfe\xa0?h\xf4\xdc\xddK:\xa2\xbf\x0f\x86\x8e\xd1\xe1\xb5\xba\xbf\xa8\x93\x9bAb|\xd4\xbf\x9f,\xa2\xc7\xd3]\xc0?\x04\xdc\x84;|[\xa7\xbf\x8d\xfeU\xe2\xc7\x95\x90\xbf\x02`F\xabw\'\xae\xbf^d[\x07`\xf2\xd9?\xd8iH\xb8Q\x85\xd1?\xf6\xd9\xdeAUI\xd7?-\x17\x1aO\x91\x95\xb5\xbf\xa3\xb1\xdf\xba~\x8a\xc1?\xfa\x92\x00\xd5{\xc8\xa0\xbf9BxF\x8fq\xd4?\x9a\xd6~f\x98\xb2\x91?|\x86\xed\xd3BL\xcc?\x0f2\x0e\x93\xd3f\xb0\xbf\xa7P\x846\xc8\xba\xa3?\x8a{E(\xaf\xfb\xc2\xbfM|\xe8#\xc4\xb1\xc5\xbf\x99\x89\xad^k\x03\xdb?\x1f\xbb\xf2\x8b\xea\x89\xac\xbfc\xd2]\x15\x9ed\x96\xbfZ\xa5\xbeb\xf5\x93\xc7\xbf\x8e\x9a\x0e\xe8\xa2"\xbf?\xa3\x15]"\xa4\x90\x91\xbf\xc7^\x15\xea\x86\xe7\xa6?\x17\x16\xf5\x990\x93\xc5\xbfE\xbd\xdd\x9a\xd5\xe2\xa1\xbf\r\x93$\x89\xd9L\xd0?=[\xeb\xd8\xd8\xcb\x8c\xbf\xbc\xc8}\xaai8\xd5?\x1c_\x9d\x0b\xd9/\xc1?x\x12\xa4v\x05u\x90?\x7f\xe9\x84V\xdeQ\xba\xbf\x1c\xd7X\roO\xb9?m\xb4\xb7V\'D\xdc?\xdc\x1by\x8b\xb3tz\xbfq\x05\xe8\xf4\x9c\xc7\xc3?D\x94\xbf\x80\xf6\xfd\x95?\xcf\x8c\x82\xf0\xe1A\xa2\xbf\xdao\xee\xa5\x16^\x83\xbf\x81\x9b;\xb3\x88\x93\xc5\xbf%\x0e9G \x87\xc0\xbf\xe4h\xcb\xbcC!\xb6?\xdfh\xc2\x0b\x9d\xdc\xa6\xbf\xb2\x0b\x95\xb6*\xf8\xc0?!\xdd\xae\xbcl\x9a\xbc?\x00\x00\x00\x00\x00\x00\x00\x00D\xdd\xbd^U\xe3\x82?\xdc"\x9aAi\xc5\xce?\xc4qC}I\xbd\x87?\xba\x8agu\x82\x9f\x85?\x88Y@\x15D\xff\xa5?T\xa8*\xaa5b\x9d?\xa1\x058.\xe3O\xaf\xbfx\xa3\x15\xa7\xabF\xcc\xbfs1\xf2\xc0\x8e\xb2\xc7?>C\xf4\x04G\xa2\xc9?\x99\x0e\x0c\x83D7\xb6?\x96\xd1\x16\xc3i\x80\xd4\xbf\xa6\xe1\x96\xe4\xc2\x9b\xc3\xbf\xa7\xc8\xca\xea%\xa9\xb9?[u\xa5I\xf4\x10\xa8\xbf\x08cr\xee,\xe6\xa9\xbf#\x99\x12_\xf8\x16\x9d?t \xff2\xbe\xf4\xba?ggt\xfc\xc7\x89\xd3?0\x92\xd5\x1cR\x0f\xc5\xbf\xc8\x97d[\xd7@\x85?9\x03\x8c\xa9K\xc5\xd7?\x928d\x195&\x82\xbf\x99R=,\xef\xe6\x97?\xfb\x80T\x9cH\x8f\xc1\xbf\xa0\xa9\x8b\xfb\x083`?d\xdd<\xe3SS\xc0?\x03\xeb \xef\x88\x00\xb4?/\x03\x9e\xf4@\x85\xc1\xbfJ\x00\x90uM\xf9\xd1?\x8a\x15\xd4\xed(-\xa4?\xc9\xfb\xf3/\xdc\x82\xb4\xbf\x9bw\xe9\xb3\xfd\x11t\xbf\xaa\x84\x16GEB\xc1\xbf\x93\x01\x90\x99i&\x96\xbfA\xde)\xbdM>\xa1\xbfDY\x16\x11\x816g\xbf\xd1\x02:\xfe\x06\x8d\xa8?\xbc,E\xf3\x9f\xae\xc5?\xb7\xf5\xd9t}\xb1\xb7?\x18\x9f\xff\xf8\xbd\xb6\xb1?\x8co5o6\xcb\xd8\xbf\xfa\xe7\xb9\xae\x0cp\xc4?\xf3\x06!\xbd\xc4d\xd6\xbf\x00\xec\x87\x9c\x92X\xa0?#\x1brs\x07\x0e\x96\xbf\xe3\xd4\x04)GK\xb4\xbf\xe3\xd4\x04)GK\xb4\xbf\x82t\x16\x931\x9b\xdb?~\xdf/\xd8R\x90\xd4\xbf\x144\xce\x02\xeaC\xcb?\x08-\xc7\xf4PP\xbd\xbf\xc6\xbd\xbc\xe2\xfc\x8f\xc6\xbf\xedj\xcf\x8cUo\xc6?\xa9\x11@\xf3J\x95\x81?\x1a\xe4-5\x03\xde\x81?\n\xc1*\xf8\xe9\'\x8a\xbf\xf3\xe7c\xbd\xfba\xa6?\xe4(\xe1\xd6+<\xc7\xbf\x02N}\xa7c\xaa\xd6?8\xf6b\x90+\x00\xec?\xe5}\x07\x15\xdc/\xc0\xbf\x00F(\x8b\xa8\xbe\xc2\xbf!\x11_f\xf9(\xc2\xbf\xbe\xeb\x1d\x92\xab/\xd7\xbf\xcd\x8c} \xaez\xe9\xbfk>\x86F<)\xa7\xbf\xac\x01)3\xd0\x88\xb7\xbf\xaauS&R\x9b\xa7\xbf\xb0\xb8\xb3\xb1+\xf3\xcb?\xd2\x9b\xa0\x91z\xc7\xd0?\xa1\xc3?\x9a\xab\x04\xd1?\xff\xa9)\x1a\x1d\xc2\xc0\xbf\x06\xe9\xad\xf3\x1b\x9b\xcb\xbf\x16\x11#%\xe2o\xcd?\xe5}\x07\x15\xdc/\xc0\xbfU\xf1\xf1W1c\x84?\xbc\x96u\x1a\x0b\xf3\xaf?x\x1f\x85\xe7\x8dF\xd7\xbf\xb4\x1e\'A\xd2!\xc0\xbf|G\xa7\xfa*;\xe5?\xb7F\xbd_\xc2\xaf\x96\xbf6\x81hp\xa9v\xb8\xbf\xcb\x0b\xf1\xa3$\x9c\xb2\xbf\x8c\xe9\x85S#\x9f\xc7\xbfl\xf8\xf4\x92\x90\xb2\xd2\xbf"\xff:\xdb\xcc\xce\xd2\xbf\xa1\x1c3\x81RG\xd1?a\x19\xc3\nF+\xcf?\x99E\xff\x06\xd9\x87\xba\xbf\x82\xb4w\xebD\x84\xce?\x9f\x88Y\xac\xbf\x82\xd5\xbf\xcfa\xb2\xd1\x8a\xe8\xdb\xbf?fjH\x8fI\xd3?\xd4\x1e\xfd\x1aj9\x82?\xba\xbd=2\r\x91\xaa?\x1dT`H\xac\x12\xdf?\xb9v\x8f\xdb\xb9/\xd2?2\xc6<\x1f\xad\xde\xdb\xbf6\x81hp\xa9v\xb8\xbfD\x9469+\x97\xd4?;4\xb5\x8d8\xbf\xd0?b-\xc7\xb2]v\xd6?fy\xf2\xa6x\xf6\xb8\xbf\x15Z\xc5\xb9\xbb\xcc\xd5\xbf\xb4\xbf\x18\xbc/x\xb4\xbf\xa5\x98\xca\xcc;\xf7\xb6\xbf\xa1\xf3\xb8\x1av\xd0\xcf?R\xb4?\xb8\xd9\xe8\xd6?7\xedk\x1b\xfc3\xcc\xbf^\x16\x92i*\xfa\xa6\xbf3\xa2Q@F\x0c\xd2\xbf\t&\xacoDN\xa5\xbf\x84y\xaf\x8c\xbf\xfa\xd2?\xaa\x84\x16GEB\xd1\xbf\xbe\xa2\xf0#A9\xde\xbf\x13\xcb\xdf\x18\x9f\xa5\xd4?\xaf=sS>S\xca\xbf\xf9\x92\'\xfb\xca4\xb4\xbfQ\x80\xb7\xc3\x0b\x06\xae\xbf\\\x85\x9c\x14\xb6v\xa5?;h\x85\\\xa0M\xa6?\xed\x9e\x13\x94\xf9\xa4\xd7?\xf7^\x03\x7f:=\xe1?\xd8#\xe7!\xf3\xa0\xab\xbf\xb1\x9b\xbc}1\xa3\xea\xbfL_`3\x8co\xa5?2r|k\xbd\xff\xbf\xbf\x0b\xe6\xd3:\xd5\x85\xc7\xbf\xc9\xfc\xc5\xfc\xa1\xca\xb4?\xf6\x88\x9bs^\x0e\xa5\xbf\x80\x9a\xae\xa1\xf9%\xe1\xbfU\xcf\x04O\x91x\xb3\xbfo\x83\xaa\xcd\xd2\x91\xdc?\xa0\xa8\xf0\x9dj8\xd9\xbfWX?\xa6\x8e7\xd4?<\t\xe0Y,Fv?\xca\xed6\xd9\xb0\x06\xd1?\x95\xd7\xbd\xd3\xc9\xb1\xa4?\xdd\xad\xeb\xc6\xe6\x15\xdf\xbf\x84\xc7\x8e\x85`\xf8\xb3\xbf\x85\xfd\xeah\x16\x07\xda?\x95sz\x03L\xf8\x96?\xba\xbd=2\r\x91\xaa?{\x9a\xae\xa3\xb4\xa7\xc6\xbf\x88@\xf5\x1e\xea\x13\xe5?\x8a\xb4\xcf\x80\xd6E\xd5?;V\xaf\xd2\xcf\xbb\xc0\xbf\xa6\xf7\x9c|\xb7f\xd3?\xe8\xf5\xf8:0G\xcb?\xde\xe6\xd3<m\xc5\xb9?\xef\x1a\xa4}\x00\xb6\xe4\xbf\xa5^X4\xc6p\xcb?q\x01\xc6\xec\xa8*\xeb?\xd7\xe0\xe4s[\xba\xe9\xbfY\x10\xf3\xf2\xa2\x8f\xbd?\x8b\xbf\x1e\xa0\xc3\x84\xe2\xbf\xc7\xea0\xef\xdd\xd9\xd8\xbf\xaeA\x11eh\xd7\xa8?\xac\x01)3\xd0\x88\xb7\xbf4h\xfd\x8d\xfeE\xdb\xbf\xed\xb0zk\xeb8\xc6?Y \t\x04\xf0\xef\xd4?\x18r3u\x92i\xdf\xbf\xd5Y\x07\xe8\xca5\xe8?Y+?J}_\xb7\xbfW\xd2\x05\xdb\x90$\xa4\xbf'
tbsS'intercept_'
p1388
g1371
(g1372
(I0
tS'b'
tRp1389
(I1
(I1
tg17
I00
S'H\x13\x1b\xbcL\x87\x89\xbf'
tbsS'class_weight'
p1390
NsbssS'version'
p1391
S'0.0.2-SNAPSHOT'
p1392
sS'_segments'
p1393
(dp1394
g1361
I96
ssS'_feature_model'
p1395
g1
(ccore.trainer.config
FeatureModel
p1396
g3
NtRp1397
(dp1398
S'features'
p1399
ccollections
OrderedDict
p1400
((lp1401
(lp1402
Vcontractor.dev_active_interviews
p1403
a(dp1404
S'input-format'
p1405
S'plain'
p1406
sS'transformer'
p1407
Nsg19
g1403
sS'transformer-type'
p1408
Nsg1361
NsS'scaler'
p1409
g1
(csklearn.preprocessing.data
MinMaxScaler
p1410
g3
NtRp1411
(dp1412
S'copy'
p1413
I01
sS'feature_range'
p1414
(I0
I1
tp1415
sbsS'required'
p1416
I01
sS'type'
p1417
g1
(ccore.trainer.feature_types.primitive_types
PrimitiveFeatureTypeInstance
p1418
g3
NtRp1419
(dp1420
S'_default_params'
p1421
(lp1422
sS'python_type'
p1423
c__builtin__
int
p1424
sS'_default_value'
p1425
NsS'preprocessor'
p1426
NsS'default_scaler'
p1427
S'MinMaxScaler'
p1428
sS'_params'
p1429
Nsbsaa(lp1430
Vcontractor.dev_adj_score
p1431
a(dp1432
g1405
g1406
sg1407
Nsg19
g1431
sg1408
Nsg1361
Nsg1409
g1
(g1410
g3
NtRp1433
(dp1434
g1413
I01
sg1414
(I0
I1
tp1435
sbsg1416
I01
sg1417
g1
(g1418
g3
NtRp1436
(dp1437
g1421
g1422
sg1423
c__builtin__
float
p1438
sg1425
Nsg1426
Nsg1427
g1428
sg1429
Nsbsaa(lp1439
Vcontractor.dev_adj_score_recent
p1440
a(dp1441
g1405
g1406
sg1407
Nsg19
g1440
sg1408
Nsg1361
Nsg1409
g1
(g1410
g3
NtRp1442
(dp1443
g1413
I01
sg1414
(I0
I1
tp1444
sbsg1416
I01
sg1417
g1
(g1418
g3
NtRp1445
(dp1446
g1421
g1422
sg1423
g1438
sg1425
Nsg1426
Nsg1427
g1428
sg1429
Nsbsaa(lp1447
Vcontractor.dev_availability
p1448
a(dp1449
g1405
g1406
sg1407
Nsg19
g1448
sg1408
Nsg1361
Nsg1409
g1
(g1410
g3
NtRp1450
(dp1451
g1413
I01
sg1414
(I0
I1
tp1452
sbsg1416
I01
sg1417
g1
(g1418
g3
NtRp1453
(dp1454
g1421
g1422
sg1423
g1424
sg1425
Nsg1426
Nsg1427
g1428
sg1429
Nsbsaa(lp1455
Vcontractor.dev_billed_assignments
p1456
a(dp1457
g1405
g1406
sg1407
Nsg19
g1456
sg1408
Nsg1361
Nsg1409
g1
(g1410
g3
NtRp1458
(dp1459
g1413
I01
sg1414
(I0
I1
tp1460
sbsg1416
I01
sg1417
g1
(g1418
g3
NtRp1461
(dp1462
g1421
g1422
sg1423
g1424
sg1425
Nsg1426
Nsg1427
g1428
sg1429
Nsbsaa(lp1463
Vcontractor.dev_bill_rate
p1464
a(dp1465
g1405
g1406
sg1407
Nsg19
g1464
sg1408
Nsg1361
Nsg1409
g1
(g1410
g3
NtRp1466
(dp1467
g1413
I01
sg1414
(I0
I1
tp1468
sbsg1416
I01
sg1417
g1
(g1418
g3
NtRp1469
(dp1470
g1421
g1422
sg1423
g1438
sg1425
Nsg1426
Nsg1427
g1428
sg1429
Nsbsaa(lp1471
Vcontractor.dev_blurb
p1472
a(dp1473
g1405
g1406
sg1407
g1
(csklearn.feature_extraction.text
TfidfVectorizer
p1474
g3
NtRp1475
(dp1476
S'decode_error'
p1477
Vstrict
p1478
sS'lowercase'
p1479
I01
sS'stop_words'
p1480
NsS'vocabulary'
p1481
NsS'tokenizer'
p1482
NsS'encoding'
p1483
Vutf-8
p1484
sS'token_pattern'
p1485
V(?u)\u005cb\u005cw\u005cw+\u005cb
p1486
sS'max_df'
p1487
F1
sS'analyzer'
p1488
Vword
p1489
sS'binary'
p1490
I00
sS'ngram_range'
p1491
(I1
I1
tp1492
sg1426
NsS'min_df'
p1493
I10
sS'max_features'
p1494
NsS'input'
p1495
Vcontent
p1496
sS'_tfidf'
p1497
g1
(csklearn.feature_extraction.text
TfidfTransformer
p1498
g3
NtRp1499
(dp1500
S'use_idf'
p1501
I01
sS'smooth_idf'
p1502
I01
sS'sublinear_tf'
p1503
I00
sS'norm'
p1504
Vl2
p1505
sbsS'dtype'
p1506
cnumpy
int64
p1507
sS'strip_accents'
p1508
Nsbsg19
g1472
sg1408
VTfidf
p1509
sg1361
Nsg1409
g1
(g1410
g3
NtRp1510
(dp1511
g1413
I01
sg1414
(I0
I1
tp1512
sbsg1416
I01
sg1417
g1
(g1418
g3
NtRp1513
(dp1514
g1421
g1422
sg1423
c__builtin__
str
p1515
sg1425
Nsg1426
Nsg1427
g1428
sg1429
Nsbsaa(lp1516
Vcontractor.dev_cur_assignments
p1517
a(dp1518
g1405
g1406
sg1407
Nsg19
g1517
sg1408
Nsg1361
Nsg1409
g1
(g1410
g3
NtRp1519
(dp1520
g1413
I01
sg1414
(I0
I1
tp1521
sbsg1416
I01
sg1417
g1
(g1418
g3
NtRp1522
(dp1523
g1421
g1422
sg1423
g1424
sg1425
Nsg1426
Nsg1427
g1428
sg1429
Nsbsaa(lp1524
Vcontractor.dev_eng_skill
p1525
a(dp1526
g1405
g1406
sg1407
Nsg19
g1525
sg1408
Nsg1361
Nsg1409
g1
(g1410
g3
NtRp1527
(dp1528
g1413
I01
sg1414
(I0
I1
tp1529
sbsg1416
I01
sg1417
g1
(g1418
g3
NtRp1530
(dp1531
g1421
g1422
sg1423
g1424
sg1425
Nsg1426
Nsg1427
g1428
sg1429
Nsbsaa(lp1532
Vcontractor.dev_expose_full_name
p1533
a(dp1534
g1405
g1406
sg1407
Nsg19
g1533
sg1408
Nsg1361
Nsg1409
g1
(g1410
g3
NtRp1535
(dp1536
g1413
I01
sg1414
(I0
I1
tp1537
sbsg1416
I01
sg1417
g1
(g1418
g3
NtRp1538
(dp1539
g1421
g1422
sg1423
g1438
sg1425
Nsg1426
Nsg1427
g1428
sg1429
Nsbsaa(lp1540
Vcontractor.dev_is_looking
p1541
a(dp1542
g1405
g1406
sg1407
Nsg19
g1541
sg1408
Nsg1361
Nsg1409
g1
(g1410
g3
NtRp1543
(dp1544
g1413
I01
sg1414
(I0
I1
tp1545
sbsg1416
I01
sg1417
g1
(g1418
g3
NtRp1546
(dp1547
g1421
g1422
sg1423
c__builtin__
bool
p1548
sg1425
Nsg1426
Nsg1427
g1428
sg1429
Nsbsaa(lp1549
Vcontractor.dev_is_looking_week
p1550
a(dp1551
g1405
g1406
sg1407
Nsg19
g1550
sg1408
Nsg1361
Nsg1409
g1
(g1410
g3
NtRp1552
(dp1553
g1413
I01
sg1414
(I0
I1
tp1554
sbsg1416
I01
sg1417
g1
(g1418
g3
NtRp1555
(dp1556
g1421
g1422
sg1423
g1548
sg1425
Nsg1426
Nsg1427
g1428
sg1429
Nsbsaa(lp1557
Vcontractor.dev_last_worked
p1558
a(dp1559
g1405
g1406
sg1407
Nsg19
g1558
sg1408
Nsg1361
I946684800
sg1409
g1
(g1410
g3
NtRp1560
(dp1561
g1413
I01
sg1414
(I0
I1
tp1562
sbsg1416
I01
sg1417
g1
(ccore.trainer.feature_types.date
DateFeatureTypeInstance
p1563
g3
NtRp1564
(dp1565
g1427
g1428
sg1425
I946684800
sg1421
g1422
sg1426
Nsg1429
(dp1566
Vpattern
p1567
V%B %d, %Y
p1568
ssbsaa(lp1569
Vcontractor.dev_pay_rate
p1570
a(dp1571
g1405
g1406
sg1407
Nsg19
g1570
sg1408
Nsg1361
Nsg1409
g1
(g1410
g3
NtRp1572
(dp1573
g1413
I01
sg1414
(I0
I1
tp1574
sbsg1416
I01
sg1417
g1
(g1418
g3
NtRp1575
(dp1576
g1421
g1422
sg1423
g1438
sg1425
Nsg1426
Nsg1427
g1428
sg1429
Nsbsaa(lp1577
Vcontractor.dev_portfolio_items_count
p1578
a(dp1579
g1405
g1406
sg1407
Nsg19
g1578
sg1408
Nsg1361
Nsg1409
g1
(g1410
g3
NtRp1580
(dp1581
g1413
I01
sg1414
(I0
I1
tp1582
sbsg1416
I01
sg1417
g1
(g1418
g3
NtRp1583
(dp1584
g1421
g1422
sg1423
g1424
sg1425
Nsg1426
Nsg1427
g1428
sg1429
Nsbsaa(lp1585
Vcontractor.dev_profile_title
p1586
a(dp1587
g1405
g1406
sg1407
g1
(g1474
g3
NtRp1588
(dp1589
g1477
g1478
sg1479
I01
sg1480
Nsg1481
Nsg1482
Nsg1483
g1484
sg1485
g1486
sg1487
F1
sg1488
g1489
sg1490
I00
sg1491
(I1
I1
tp1590
sg1426
Nsg1493
I3
sg1494
Nsg1495
g1496
sg1497
g1
(g1498
g3
NtRp1591
(dp1592
g1501
I01
sg1502
I01
sg1503
I00
sg1504
g1505
sbsg1506
g1507
sg1508
Nsbsg19
g1586
sg1408
VTfidf
p1593
sg1361
Nsg1409
g1
(g1410
g3
NtRp1594
(dp1595
g1413
I01
sg1414
(I0
I1
tp1596
sbsg1416
I01
sg1417
g1
(g1418
g3
NtRp1597
(dp1598
g1421
g1422
sg1423
g1515
sg1425
Nsg1426
Nsg1427
g1428
sg1429
Nsbsaa(lp1599
Vcontractor.dev_rank_percentile
p1600
a(dp1601
g1405
g1406
sg1407
Nsg19
g1600
sg1408
Nsg1361
Nsg1409
g1
(g1410
g3
NtRp1602
(dp1603
g1413
I01
sg1414
(I0
I1
tp1604
sbsg1416
I01
sg1417
g1
(g1418
g3
NtRp1605
(dp1606
g1421
g1422
sg1423
g1438
sg1425
Nsg1426
Nsg1427
g1428
sg1429
Nsbsaa(lp1607
Vcontractor.dev_recent_fp_jobs
p1608
a(dp1609
g1405
g1406
sg1407
Nsg19
g1608
sg1408
Nsg1361
Nsg1409
g1
(g1410
g3
NtRp1610
(dp1611
g1413
I01
sg1414
(I0
I1
tp1612
sbsg1416
I01
sg1417
g1
(g1418
g3
NtRp1613
(dp1614
g1421
g1422
sg1423
g1424
sg1425
Nsg1426
Nsg1427
g1428
sg1429
Nsbsaa(lp1615
Vcontractor.dev_recent_hourly_jobs
p1616
a(dp1617
g1405
g1406
sg1407
Nsg19
g1616
sg1408
Nsg1361
Nsg1409
g1
(g1410
g3
NtRp1618
(dp1619
g1413
I01
sg1414
(I0
I1
tp1620
sbsg1416
I01
sg1417
g1
(g1418
g3
NtRp1621
(dp1622
g1421
g1422
sg1423
g1424
sg1425
Nsg1426
Nsg1427
g1428
sg1429
Nsbsaa(lp1623
Vcontractor.dev_recent_hours
p1624
a(dp1625
g1405
g1406
sg1407
Nsg19
g1624
sg1408
Nsg1361
Nsg1409
g1
(g1410
g3
NtRp1626
(dp1627
g1413
I01
sg1414
(I0
I1
tp1628
sbsg1416
I01
sg1417
g1
(g1418
g3
NtRp1629
(dp1630
g1421
g1422
sg1423
g1424
sg1425
Nsg1426
Nsg1427
g1428
sg1429
Nsbsaa(lp1631
Vcontractor.dev_recent_rank_percentile
p1632
a(dp1633
g1405
g1406
sg1407
Nsg19
g1632
sg1408
Nsg1361
Nsg1409
g1
(g1410
g3
NtRp1634
(dp1635
g1413
I01
sg1414
(I0
I1
tp1636
sbsg1416
I01
sg1417
g1
(g1418
g3
NtRp1637
(dp1638
g1421
g1422
sg1423
g1438
sg1425
Nsg1426
Nsg1427
g1428
sg1429
Nsbsaa(lp1639
Vcontractor.dev_skill_test_passed_count
p1640
a(dp1641
g1405
g1406
sg1407
Nsg19
g1640
sg1408
Nsg1361
Nsg1409
g1
(g1410
g3
NtRp1642
(dp1643
g1413
I01
sg1414
(I0
I1
tp1644
sbsg1416
I01
sg1417
g1
(g1418
g3
NtRp1645
(dp1646
g1421
g1422
sg1423
g1424
sg1425
Nsg1426
Nsg1427
g1428
sg1429
Nsbsaa(lp1647
Vcontractor.dev_test_passed_count
p1648
a(dp1649
g1405
g1406
sg1407
Nsg19
g1648
sg1408
Nsg1361
Nsg1409
g1
(g1410
g3
NtRp1650
(dp1651
g1413
I01
sg1414
(I0
I1
tp1652
sbsg1416
I01
sg1417
g1
(g1418
g3
NtRp1653
(dp1654
g1421
g1422
sg1423
g1424
sg1425
Nsg1426
Nsg1427
g1428
sg1429
Nsbsaa(lp1655
Vcontractor.dev_timezone
p1656
a(dp1657
g1405
g1406
sg1407
Nsg19
g1656
sg1408
Nsg1361
Nsg1409
Nsg1416
I01
sg1417
g1
(ccore.trainer.feature_types.composite
CompositeFeatureTypeInstance
p1658
g3
NtRp1659
(dp1660
g1421
Nsg1425
Nsg1426
Nsg1427
NsS'strategies'
p1661
(lp1662
g1
(ccore.trainer.feature_types.regex
RegexFeatureTypeInstance
p1663
g3
NtRp1664
(dp1665
g1427
g1428
sg1425
Nsg1421
g1422
sg1426
Nsg1429
(dp1666
Vpattern
p1667
VUTC([-\u005c+]+\u005cd\u005cd).*
p1668
ssbag1
(g1418
g3
NtRp1669
(dp1670
g1421
g1422
sg1423
g1424
sg1425
Nsg1426
Nsg1427
g1428
sg1429
Nsbasg1429
Nsbsaa(lp1671
Vcontractor.dev_total_hourly_jobs
p1672
a(dp1673
g1405
g1406
sg1407
Nsg19
g1672
sg1408
Nsg1361
Nsg1409
g1
(g1410
g3
NtRp1674
(dp1675
g1413
I01
sg1414
(I0
I1
tp1676
sbsg1416
I01
sg1417
g1
(g1418
g3
NtRp1677
(dp1678
g1421
g1422
sg1423
g1424
sg1425
Nsg1426
Nsg1427
g1428
sg1429
Nsbsaa(lp1679
Vcontractor.dev_total_hours_rounded
p1680
a(dp1681
g1405
g1406
sg1407
Nsg19
g1680
sg1408
Nsg1361
Nsg1409
g1
(g1410
g3
NtRp1682
(dp1683
g1413
I01
sg1414
(I0
I1
tp1684
sbsg1416
I01
sg1417
g1
(g1418
g3
NtRp1685
(dp1686
g1421
g1422
sg1423
g1424
sg1425
Nsg1426
Nsg1427
g1428
sg1429
Nsbsaa(lp1687
Vcontractor.dev_total_revenue
p1688
a(dp1689
g1405
g1406
sg1407
Nsg19
g1688
sg1408
Nsg1361
Nsg1409
g1
(g1410
g3
NtRp1690
(dp1691
g1413
I01
sg1414
(I0
I1
tp1692
sbsg1416
I01
sg1417
g1
(g1418
g3
NtRp1693
(dp1694
g1421
g1422
sg1423
g1438
sg1425
Nsg1426
Nsg1427
g1428
sg1429
Nsbsaa(lp1695
Vcontractor.dev_tot_feedback
p1696
a(dp1697
g1405
g1406
sg1407
Nsg19
g1696
sg1408
Nsg1361
Nsg1409
g1
(g1410
g3
NtRp1698
(dp1699
g1413
I01
sg1414
(I0
I1
tp1700
sbsg1416
I01
sg1417
g1
(g1418
g3
NtRp1701
(dp1702
g1421
g1422
sg1423
g1424
sg1425
Nsg1426
Nsg1427
g1428
sg1429
Nsbsaa(lp1703
Vcontractor.dev_tot_feedback_recent
p1704
a(dp1705
g1405
g1406
sg1407
Nsg19
g1704
sg1408
Nsg1361
Nsg1409
g1
(g1410
g3
NtRp1706
(dp1707
g1413
I01
sg1414
(I0
I1
tp1708
sbsg1416
I01
sg1417
g1
(g1418
g3
NtRp1709
(dp1710
g1421
g1422
sg1423
g1424
sg1425
Nsg1426
Nsg1427
g1428
sg1429
Nsbsaa(lp1711
Vcontractor.dev_year_exp
p1712
a(dp1713
g1405
g1406
sg1407
Nsg19
g1712
sg1408
Nsg1361
Nsg1409
g1
(g1410
g3
NtRp1714
(dp1715
g1413
I01
sg1414
(I0
I1
tp1716
sbsg1416
I01
sg1417
g1
(g1418
g3
NtRp1717
(dp1718
g1421
g1422
sg1423
g1424
sg1425
Nsg1426
Nsg1427
g1428
sg1429
Nsbsaa(lp1719
Vcountry_pair
p1720
a(dp1721
g1405
g1406
sg1407
Nsg19
g1720
sg1408
Nsg1361
Nsg1409
Nsg1416
I01
sg1417
g1
(ccore.trainer.feature_types.categorical
CategoricalFeatureTypeInstance
p1722
g3
NtRp1723
(dp1724
g1427
Nsg1425
Nsg1421
g1422
sg1426
g1
(csklearn.feature_extraction.text
CountVectorizer
p1725
g3
NtRp1726
(dp1727
g1477
Vstrict
p1728
sg1479
I01
sg1480
Nsg1481
Nsg1482
Nsg1483
Vutf-8
p1729
sg1485
S'.+'
p1730
sg1487
F1
sg1488
Vword
p1731
sg1490
I01
sg1491
(I1
I1
tp1732
sg1426
Nsg1493
I0
sg1494
Nsg1495
Vcontent
p1733
sg1506
g1507
sg1508
Nsbsg1429
Nsbsaa(lp1734
Vemployer.op_country_tz
p1735
a(dp1736
g1405
g1406
sg1407
Nsg19
g1735
sg1408
Nsg1361
Nsg1409
Nsg1416
I01
sg1417
g1659
saa(lp1737
Vemployer.op_timezone
p1738
a(dp1739
g1405
g1406
sg1407
Nsg19
g1738
sg1408
Nsg1361
Nsg1409
Nsg1416
I01
sg1417
g1659
saa(lp1740
Vemployer.op_tot_jobs_filled
p1741
a(dp1742
g1405
g1406
sg1407
Nsg19
g1741
sg1408
Nsg1361
Nsg1409
g1
(g1410
g3
NtRp1743
(dp1744
g1413
I01
sg1414
(I0
I1
tp1745
sbsg1416
I01
sg1417
g1
(g1418
g3
NtRp1746
(dp1747
g1421
g1422
sg1423
g1424
sg1425
Nsg1426
Nsg1427
g1428
sg1429
Nsbsaa(lp1748
Vhire_outcome
p1749
a(dp1750
g1405
g1406
sg1407
Nsg19
g1749
sg1408
Nsg1361
Nsg1409
g1
(g1410
g3
NtRp1751
(dp1752
g1413
I01
sg1414
(I0
I1
tp1753
sbsg1416
I01
sg1417
g1
(ccore.trainer.feature_types.ordinal
OrdinalFeatureTypeInstance
p1754
g3
NtRp1755
(dp1756
g1427
g1428
sg1425
Nsg1421
g1422
sg1426
Nsg1429
(dp1757
Vmappings
p1758
(dp1759
Vclass2
p1760
I0
sVclass1
p1761
I1
sssbsaa(lp1762
g1107
a(dp1763
g1405
g1406
sg1407
Nsg19
g1107
sg1408
Nsg1361
Nsg1409
g1
(g1410
g3
NtRp1764
(dp1765
g1413
I01
sg1414
(I0
I1
tp1766
sbsg1416
I01
sg1417
g1
(g1418
g3
NtRp1767
(dp1768
g1421
g1422
sg1423
g1424
sg1425
Nsg1426
Nsg1427
g1428
sg1429
Nsbsaa(lp1769
Vtsexams
p1770
a(dp1771
g1405
Vdict
p1772
sg1407
Nsg19
g1770
sg1408
Nsg1361
F0.33000000000000002
sg1409
g1
(g1410
g3
NtRp1773
(dp1774
g1413
I01
sg1414
(I0
I1
tp1775
sbsg1416
I01
sg1417
g1
(g1418
g3
NtRp1776
(dp1777
g1421
g1422
sg1423
g1438
sg1425
Nsg1426
g1
(csklearn.feature_extraction.dict_vectorizer
DictVectorizer
p1778
g3
NtRp1779
(dp1780
S'sort'
p1781
I01
sg1506
cnumpy
float64
p1782
sS'separator'
p1783
S'='
sS'sparse'
p1784
I01
sbsg1427
g1428
sg1429
NsbsaatRp1785
sS'required_feature_names'
p1786
(lp1787
g1403
ag1431
ag1440
ag1448
ag1456
ag1464
ag1472
ag1517
ag1525
ag1533
ag1541
ag1550
ag1558
ag1570
ag1578
ag1586
ag1600
ag1608
ag1616
ag1624
ag1632
ag1640
ag1648
ag1656
ag1672
ag1680
ag1688
ag1696
ag1704
ag1712
ag1720
ag1735
ag1738
ag1741
ag1749
ag1107
ag1770
asS'group_by'
p1788
(lp1789
sS'target_variable'
p1790
g1749
sS'schema_name'
p1791
Vbestmatch
p1792
sS'_named_feature_types'
p1793
(dp1794
Vstr_to_timezone
p1795
g1659
ssS'classifier_cls'
p1796
g1362
sS'classifier'
p1797
(dp1798
g1380
g1381
ssg1357
g1358
sbsS'_features'
p1799
(dp1800
g1361
g1400
((lp1801
(lp1802
g1403
a(dp1803
g1407
Nsg19
g1403
sg1409
g1
(g1410
g3
NtRp1804
(dp1805
g1414
g1415
sS'scale_'
p1806
g1371
(g1372
(I0
tS'b'
tRp1807
(I1
(I1
tg17
I00
S'\x00\x00\x00\x00\x00\x00\xc0?'
tbsS'data_range'
p1808
g1371
(g1372
(I0
tS'b'
tRp1809
(I1
(I1
tg17
I00
S'\x00\x00\x00\x00\x00\x00 @'
tbsS'data_min'
p1810
g1371
(g1372
(I0
tS'b'
tRp1811
(I1
(I1
tg17
I00
S'\x00\x00\x00\x00\x00\x00\x00\x00'
tbsS'min_'
p1812
g1371
(g1372
(I0
tS'b'
tRp1813
(I1
(I1
tg17
I00
S'\x00\x00\x00\x00\x00\x00\x00\x00'
tbsg1413
I01
sbsg1361
Nsg1416
I01
sg1405
g1406
sg1408
Nsg1417
g1
(g1418
g3
NtRp1814
(dp1815
g1421
(lp1816
sg1425
Nsg1423
g1424
sg1427
g1428
sg1429
Nsg1426
Nsbsaa(lp1817
g1431
a(dp1818
g1407
Nsg19
g1431
sg1409
g1
(g1410
g3
NtRp1819
(dp1820
g1414
g1435
sg1806
g1371
(g1372
(I0
tS'b'
tRp1821
(I1
(I1
tg17
I00
S'\x00\x00\x00\x00\x00\x00\xf0?'
tbsg1808
g1371
(g1372
(I0
tS'b'
tRp1822
(I1
(I1
tg17
I00
S'\x00\x00\x00\x00\x00\x00\xf0?'
tbsg1810
g1371
(g1372
(I0
tS'b'
tRp1823
(I1
(I1
tg17
I00
S'\x00\x00\x00\x00\x00\x00\x00\x00'
tbsg1812
g1371
(g1372
(I0
tS'b'
tRp1824
(I1
(I1
tg17
I00
S'\x00\x00\x00\x00\x00\x00\x00\x00'
tbsg1413
I01
sbsg1361
Nsg1416
I01
sg1405
g1406
sg1408
Nsg1417
g1
(g1418
g3
NtRp1825
(dp1826
g1421
g1816
sg1425
Nsg1423
g1438
sg1427
g1428
sg1429
Nsg1426
Nsbsaa(lp1827
g1440
a(dp1828
g1407
Nsg19
g1440
sg1409
g1
(g1410
g3
NtRp1829
(dp1830
g1414
g1444
sg1806
g1371
(g1372
(I0
tS'b'
tRp1831
(I1
(I1
tg17
I00
S'\x9a\x99\x99\x99\x99\x99\xc9?'
tbsg1808
g1371
(g1372
(I0
tS'b'
tRp1832
(I1
(I1
tg17
I00
S'\x00\x00\x00\x00\x00\x00\x14@'
tbsg1810
g1371
(g1372
(I0
tS'b'
tRp1833
(I1
(I1
tg17
I00
S'\x00\x00\x00\x00\x00\x00\x00\x00'
tbsg1812
g1371
(g1372
(I0
tS'b'
tRp1834
(I1
(I1
tg17
I00
S'\x00\x00\x00\x00\x00\x00\x00\x00'
tbsg1413
I01
sbsg1361
Nsg1416
I01
sg1405
g1406
sg1408
Nsg1417
g1
(g1418
g3
NtRp1835
(dp1836
g1421
g1816
sg1425
Nsg1423
g1438
sg1427
g1428
sg1429
Nsg1426
Nsbsaa(lp1837
g1448
a(dp1838
g1407
Nsg19
g1448
sg1409
g1
(g1410
g3
NtRp1839
(dp1840
g1414
g1452
sg1806
g1371
(g1372
(I0
tS'b'
tRp1841
(I1
(I1
tg17
I00
S'\x9a\x99\x99\x99\x99\x99\x99?'
tbsg1808
g1371
(g1372
(I0
tS'b'
tRp1842
(I1
(I1
tg17
I00
S'\x00\x00\x00\x00\x00\x00D@'
tbsg1810
g1371
(g1372
(I0
tS'b'
tRp1843
(I1
(I1
tg17
I00
S'\x00\x00\x00\x00\x00\x00\x00\x00'
tbsg1812
g1371
(g1372
(I0
tS'b'
tRp1844
(I1
(I1
tg17
I00
S'\x00\x00\x00\x00\x00\x00\x00\x00'
tbsg1413
I01
sbsg1361
Nsg1416
I01
sg1405
g1406
sg1408
Nsg1417
g1
(g1418
g3
NtRp1845
(dp1846
g1421
g1816
sg1425
Nsg1423
g1424
sg1427
g1428
sg1429
Nsg1426
Nsbsaa(lp1847
g1456
a(dp1848
g1407
Nsg19
g1456
sg1409
g1
(g1410
g3
NtRp1849
(dp1850
g1414
g1460
sg1806
g1371
(g1372
(I0
tS'b'
tRp1851
(I1
(I1
tg17
I00
S'ysB\x89\x06nq?'
tbsg1808
g1371
(g1372
(I0
tS'b'
tRp1852
(I1
(I1
tg17
I00
S'\x00\x00\x00\x00\x00`m@'
tbsg1810
g1371
(g1372
(I0
tS'b'
tRp1853
(I1
(I1
tg17
I00
S'\x00\x00\x00\x00\x00\x00\x00\x00'
tbsg1812
g1371
(g1372
(I0
tS'b'
tRp1854
(I1
(I1
tg17
I00
S'\x00\x00\x00\x00\x00\x00\x00\x00'
tbsg1413
I01
sbsg1361
Nsg1416
I01
sg1405
g1406
sg1408
Nsg1417
g1
(g1418
g3
NtRp1855
(dp1856
g1421
g1816
sg1425
Nsg1423
g1424
sg1427
g1428
sg1429
Nsg1426
Nsbsaa(lp1857
g1464
a(dp1858
g1407
Nsg19
g1464
sg1409
g1
(g1410
g3
NtRp1859
(dp1860
g1414
g1468
sg1806
g1371
(g1372
(I0
tS'b'
tRp1861
(I1
(I1
tg17
I00
S'\xba0\x01C\xed\xb7\x8e?'
tbsg1808
g1371
(g1372
(I0
tS'b'
tRp1862
(I1
(I1
tg17
I00
S'{\x14\xaeG\xe1\xaaP@'
tbsg1810
g1371
(g1372
(I0
tS'b'
tRp1863
(I1
(I1
tg17
I00
S'\x00\x00\x00\x00\x00\x00\x00\x00'
tbsg1812
g1371
(g1372
(I0
tS'b'
tRp1864
(I1
(I1
tg17
I00
S'\x00\x00\x00\x00\x00\x00\x00\x00'
tbsg1413
I01
sbsg1361
Nsg1416
I01
sg1405
g1406
sg1408
Nsg1417
g1
(g1418
g3
NtRp1865
(dp1866
g1421
g1816
sg1425
Nsg1423
g1438
sg1427
g1428
sg1429
Nsg1426
Nsbsaa(lp1867
g1472
a(dp1868
g1407
g1
(g1474
g3
NtRp1869
(dp1870
g1477
g1478
sg1481
Nsg1483
g1484
sg1485
g1486
sg1488
g1489
sg1491
g1492
sg1426
Nsg1487
F1
sg1493
I10
sg1494
NsS'fixed_vocabulary_'
p1871
I00
sS'stop_words_'
p1872
c__builtin__
set
p1873
((lp1874
Vaided
p1875
aVpersonally
p1876
aVdynamic
p1877
aVyellow
p1878
aVrapid
p1879
aVrelationships
p1880
aVwhose
p1881
aVpatches
p1882
aVjavaee
p1883
aVcreated
p1884
aVunder
p1885
aVstationery
p1886
aVteaching
p1887
aVpride
p1888
aVspec
p1889
aVicecast
p1890
aVevery
p1891
aVvoip
p1892
aVunity3d
p1893
aVschool
p1894
aVadministrating
p1895
aVsolution
p1896
aVsolutios
p1897
aVsamurai
p1898
aVvector
p1899
aVenhance
p1900
aVcms
p1901
aVenjoy
p1902
aVaeronautics
p1903
aVpragmatic
p1904
aVconsistent
p1905
aVdirect
p1906
aVdisciplined
p1907
aVsecond
p1908
aVsubordinate
p1909
aVimplemented
p1910
aVgetacoder
p1911
aVeven
p1912
aVestablished
p1913
aVhp
p1914
aVdecoding
p1915
aVabove
p1916
aVdesigning
p1917
aVsupplier
p1918
aVnet
p1919
aVever
p1920
aVseeks
p1921
aVspecialist
p1922
aVcentric
p1923
aVsimultaneously
p1924
aVnever
p1925
aVhere
p1926
aVmet
p1927
aVstudio
p1928
aVactive
p1929
aVpath
p1930
aV100
p1931
aVpractices
p1932
aVkids
p1933
aVforum
p1934
aVventures
p1935
aVstudy
p1936
aVreports
p1937
aVcredit
p1938
aVchanges
p1939
aVastute
p1940
aVsecure
p1941
aVhighly
p1942
aVpatience
p1943
aVplesk
p1944
aVchartboost
p1945
aVcatchy
p1946
aVtyps
p1947
aVplayed
p1948
aVleaks
p1949
aVcall
p1950
aVasset
p1951
aVtype
p1952
aVuntil
p1953
aVposting
p1954
aVsuccessful
p1955
aVyahoo
p1956
aVaward
p1957
aVglass
p1958
aVexcellent
p1959
aVhole
p1960
aV95
p1961
aVmust
p1962
aV1991
p1963
aVroom
p1964
aV1996
p1965
aVpursue
p1966
aVsetup
p1967
aVworth
p1968
aVms
p1969
aVmr
p1970
aVroot
p1971
aVgoood
p1972
aVgive
p1973
aVturnmill
p1974
aVindia
p1975
aVhoned
p1976
aVinvolve
p1977
aVcaptcha
p1978
aVwant
p1979
aVscheduling
p1980
aVguarantee
p1981
aVend
p1982
aVthing
p1983
aVreturning
p1984
aVrhinoceros
p1985
aVhow
p1986
aVwriters
p1987
aVactionscript
p1988
aVplace
p1989
aVordinary
p1990
aVvf3
p1991
aVcadence
p1992
aVgaming
p1993
aVdescription
p1994
aVmanuals
p1995
aVafter
p1996
aVreassess
p1997
aVpresident
p1998
aVlaw
p1999
aVtypes
p2000
aVpurchase
p2001
aVeffective
p2002
aVappreciate
p2003
aVorder
p2004
aV16mar2011
p2005
aVfeedback
p2006
aVoffice
p2007
aVdevote
p2008
aVdreamed
p2009
aVzen
p2010
aVsatisfied
p2011
aVpartnered
p2012
aVkeyboard
p2013
aVresponsive
p2014
aVfit
p2015
aVmypics
p2016
aVpersonal
p2017
aVexpectations
p2018
aVclc
p2019
aVbetter
p2020
aVproduction
p2021
aV400
p2022
aVfotocommunity
p2023
aVthen
p2024
aVthem
p2025
aVenrich
p2026
aVtrevisd
p2027
aVeffects
p2028
aVthey
p2029
aVlifelong
p2030
aVrepresents
p2031
aVeach
p2032
aVside
p2033
aVmean
p2034
aVadobe
p2035
aVindependent
p2036
aVseries
p2037
aVmagneto
p2038
aVaide
p2039
aVlaboratory
p2040
aVchannal
p2041
aVnetwork
p2042
aVcontent
p2043
aVre
p2044
aVsmm
p2045
aVbranch
p2046
aVoscommerce
p2047
aVgot
p2048
aVfoundation
p2049
aVlinear
p2050
aVresume
p2051
aVlittle
p2052
aVfree
p2053
aVstandard
p2054
aVputty
p2055
aV45wpm
p2056
aVboosting
p2057
aVwanted
p2058
aVacrobat
p2059
aVcertified
p2060
aVshelves
p2061
aVsatisfication
p2062
aVdays
p2063
aVpriorities
p2064
aVmvc
p2065
aVuser
p2066
aValready
p2067
aVfeatures
p2068
aVresearcher
p2069
aVcoding
p2070
aVrank
p2071
aVcustomization
p2072
aVelectronic
p2073
aVresearched
p2074
aVillustrate
p2075
aVtoy
p2076
aVguinness
p2077
aVtop
p2078
aVneeded
p2079
aVrates
p2080
aVtoo
p2081
aVupshot
p2082
aVcycle
p2083
aVenhancing
p2084
aVoverhead
p2085
aVserve
p2086
aVtook
p2087
aVcollaterals
p2088
aVmaintaining
p2089
aVpakistani
p2090
aVtarget
p2091
aVroles
p2092
aVzero
p2093
aVebay
p2094
aVpreparation
p2095
aVmatter
p2096
aVcoregraphics
p2097
aVhacking
p2098
aVperspective
p2099
aVrewrite
p2100
aVmodern
p2101
aVmind
p2102
aVmanner
p2103
aVseek
p2104
aVdozen
p2105
aVdbms
p2106
aVzoho
p2107
aVresponsible
p2108
aVeagerly
p2109
aVupholding
p2110
aVcontact
p2111
aVcompleted
p2112
aVdavidson
p2113
aVcommitting
p2114
aVthough
p2115
aVobject
p2116
aVtranslator
p2117
aVchangeworkssystem
p2118
aVoptimized
p2119
aVinvolving
p2120
aVodesk
p2121
aVscripts
p2122
aVdoj
p2123
aVassisting
p2124
aVdon
p2125
aVmedical
p2126
aVfineartprint
p2127
aVcrowd
p2128
aVconsumer
p2129
aVmeetings
p2130
aVperconal
p2131
aVearth
p2132
aVsolusvm
p2133
aVnortheast
p2134
aVimplementation
p2135
aVsummarizing
p2136
aVmatters
p2137
aVpursuing
p2138
aV10
p2139
aVde
p2140
aVdb
p2141
aVscalable
p2142
aVpreferred
p2143
aVgeek
p2144
aVamazon
p2145
aVreport
p2146
aVtoolbox
p2147
aVdr
p2148
aVcomply
p2149
aVfields
p2150
aVarchitecture
p2151
aVrelease
p2152
aVtrevis
p2153
aVthumbs
p2154
aVfair
p2155
aVbranding
p2156
aVtesting
p2157
aVresult
p2158
aVtechniques
p2159
aVsaid
p2160
aVaway
p2161
aVupgraded
p2162
aVnarrates
p2163
aVbookmarking
p2164
aVapproach
p2165
aVhandwritten
p2166
aVwe
p2167
aVterms
p2168
aVextend
p2169
aVhowever
p2170
aVhtml5
p2171
aVdedication
p2172
aVnews
p2173
aVmotto
p2174
aVpackages
p2175
aVimprove
p2176
aVreceived
p2177
aVgames
p2178
aVexceeds
p2179
aVchina
p2180
aVlogin
p2181
aVskill
p2182
aVhardworking
p2183
aVvexel
p2184
aVkohana
p2185
aVspeak
p2186
aVcustomisation
p2187
aVstrong
p2188
aVproceeded
p2189
aVengines
p2190
aVbasis
p2191
aVunion
p2192
aVfrm
p2193
aVquickly
p2194
aVconfident
p2195
aVmuch
p2196
aVdreamweaver
p2197
aVbasic
p2198
aVflexible
p2199
aVpro
p2200
aVlife
p2201
aVworker
p2202
aVcatering
p2203
aVcraft
p2204
aVraphaeljs
p2205
aVworked
p2206
aVspin
p2207
aVcommerce
p2208
aVwfl
p2209
aVsubmissions
p2210
aVprofessionally
p2211
aVemploy
p2212
aVadwirl
p2213
aVemployees
p2214
aVnodejs
p2215
aVip
p2216
aVplayer
p2217
aVid
p2218
aVtrusted
p2219
aVhone
p2220
aVspecialization
p2221
aVperform
p2222
aVthings
p2223
aVmake
p2224
aVlinked
p2225
aVcraigslist
p2226
aVcomplex
p2227
aVseveral
p2228
aVevolve
p2229
aVsocial
p2230
aVqualifications
p2231
aVworkforce
p2232
aVhand
p2233
aVportal
p2234
aVbitkeeper
p2235
aVpotentials
p2236
aVopportunity
p2237
aVnit
p2238
aVkid
p2239
aVpracticed
p2240
aVlucas
p2241
aVthy
p2242
aVprograms
p2243
aVuploading
p2244
aVezinearticles
p2245
aVmaterials
p2246
aVgreatest
p2247
aVqualities
p2248
aVclaims
p2249
aVcorporate
p2250
aVyours
p2251
aVseasonal
p2252
aVetiquette
p2253
aVisourceph
p2254
aVjust
p2255
aVversed
p2256
aVphoto
p2257
aVgrades
p2258
aVthanks
p2259
aVhuman
p2260
aVyet
p2261
aVprevious
p2262
aVsuccessfactors
p2263
aVhad
p2264
aVadvancement
p2265
aVanimation
p2266
aVbrainstorming
p2267
aVeasy
p2268
aVhas
p2269
aVhat
p2270
aVpossible
p2271
aVbackground
p2272
aVclustered
p2273
aVunique
p2274
aV328
p2275
aVadvanced
p2276
aVdesire
p2277
aVgifs
p2278
aVperforming
p2279
aVmanual
p2280
aV50
p2281
aVbpo
p2282
aVspecific
p2283
aVmajored
p2284
aVdimention
p2285
aVsecurity
p2286
aVwww
p2287
aVright
p2288
aVhonored
p2289
aVcentos
p2290
aVpeople
p2291
aVsuccessfully
p2292
aVborn
p2293
aVdear
p2294
aVcarts
p2295
aVcordoba
p2296
aVfox
p2297
aVcreative
p2298
aVeverything
p2299
aVtracker
p2300
aVbooking
p2301
aVcore
p2302
aVexprience
p2303
aVplz
p2304
aVauthkey
p2305
aVanimtor
p2306
aVarchitectural
p2307
aVgraduated
p2308
aVeye
p2309
aVplm
p2310
aVmanufacturing
p2311
aVpostgresql
p2312
aVmonths
p2313
aVjoomla
p2314
aVplus
p2315
aVconsulting
p2316
aVtarpaulin
p2317
aVcivic
p2318
aVsugarcrm
p2319
aVprofession
p2320
aVsergij
p2321
aVparsing
p2322
aVdown
p2323
aVlies
p2324
aVold
p2325
aVoften
p2326
aVgit
p2327
aVfabric
p2328
aVclass
p2329
aVeditor
p2330
aVway
p2331
aVmusic
p2332
aVwas
p2333
aVhead
p2334
aVmedium
p2335
aVamateur
p2336
aVoffer
p2337
aVbecoming
p2338
aVanalyse
p2339
aVlanding
p2340
aVencoder
p2341
aVfreelancer
p2342
aVtalents
p2343
aVresponding
p2344
aVsophienczuk
p2345
aVwebs
p2346
aVdevices
p2347
aVtell
p2348
aVproud
p2349
aVzend
p2350
aVcovers
p2351
aVdrive
p2352
aVaccounting
p2353
aVmold
p2354
aVcheck
p2355
aVspecially
p2356
aVnl
p2357
aVno
p2358
aVnc
p2359
aVwhen
p2360
aVnx
p2361
aVinterested
p2362
aVrole
p2363
aVpapers
p2364
aVtest
p2365
aVjenkins
p2366
aVdevelopers
p2367
aVmodels
p2368
aVwelcome
p2369
aVnotepad
p2370
aVconcurrent
p2371
aVsql
p2372
aVhappening
p2373
aVphone
p2374
aVserious
p2375
aVbanners
p2376
aVpaced
p2377
aVanimator
p2378
aVconcept
p2379
aVmanaged
p2380
aVremarkable
p2381
aVswitched
p2382
aVfocus
p2383
aVmanager
p2384
aVllc
p2385
aVror
p2386
aVvarnish
p2387
aVdepend
p2388
aVgraph
p2389
aVfreelance
p2390
aVflash
p2391
aVgigs
p2392
aVenvironment
p2393
aVpeachtree
p2394
aVfoursquare
p2395
aVjvm
p2396
aVtext
p2397
aVadvantage
p2398
aVunfamiliar
p2399
aVchoice
p2400
aV21dec2011
p2401
aVartwork
p2402
aVexact
p2403
aVimpressive
p2404
aVsolver
p2405
aVphilippines
p2406
aVwowza
p2407
aVstandards
p2408
aVleave
p2409
aVexcellence
p2410
aVteam
p2411
aVquick
p2412
aVsays
p2413
aVdealing
p2414
aVhtm
p2415
aVdiscover
p2416
aVprofessionalism
p2417
aVcost
p2418
aVpmb
p2419
aVcurrent
p2420
aVremembered
p2421
aVhungry
p2422
aVgoes
p2423
aVrelational
p2424
aVenthusiast
p2425
aVheavily
p2426
aVassertive
p2427
aVfrench
p2428
aVunderstanding
p2429
aVmarkkiessling
p2430
aVaddress
p2431
aVapache
p2432
aValong
p2433
aVchange
p2434
aVwait
p2435
aVbox
p2436
aVweb2
p2437
aVthirty
p2438
aVhealthy
p2439
aV6500
p2440
aVexams
p2441
aVlove
p2442
aVconfidentiality
p2443
aVapd62ohyvblhm0u
p2444
aVlogical
p2445
aVsincerely
p2446
aVxero
p2447
aV1st
p2448
aVforefront
p2449
aVshould
p2450
aVpost
p2451
aVmarket
p2452
aVhandled
p2453
aVprove
p2454
aVby
p2455
aVlive
p2456
aViphone
p2457
aVhttps
p2458
aVmemory
p2459
aVtoday
p2460
aVafford
p2461
aVorganized
p2462
aVacceptable
p2463
aVenvelope
p2464
aVdistribution
p2465
aVvisual
p2466
aVeverywhere
p2467
aVoop
p2468
aVcases
p2469
aVeffort
p2470
aVeasiest
p2471
aVorganizations
p2472
aVgraphic
p2473
aVdhtml
p2474
aVtitanium
p2475
aVpretend
p2476
aVreviews
p2477
aVvalues
p2478
aVhope
p2479
aVcam
p2480
aVgrowing
p2481
aVmaking
p2482
aVcae
p2483
aVcad
p2484
aVdedicated
p2485
aVnursing
p2486
aVfigure
p2487
aVnexus
p2488
aVnewsletters
p2489
aVagent
p2490
aVcritic
p2491
aVproductive
p2492
aVmonitoring
p2493
aVexceptional
p2494
aVmagazine
p2495
aVwrite
p2496
aVtill
p2497
aVxhtml
p2498
aVspeaks
p2499
aVeconomy
p2500
aVmap
p2501
aVproduct
p2502
aV140
p2503
aVinformation
p2504
aVmay
p2505
aVmax
p2506
aVbrazen
p2507
aVapplications
p2508
aVmac
p2509
aVproduce
p2510
aVdesigned
p2511
aVimproving
p2512
aVsuch
p2513
aVsuck
p2514
aVgrow
p2515
aVman
p2516
aVsucceeded
p2517
aVconscious
p2518
aVcorona
p2519
aVfluent
p2520
aVcapistrano
p2521
aVso
p2522
aVrepresentation
p2523
aVse
p2524
aVssh
p2525
aVspreadsheets
p2526
aVhiring
p2527
aVcold
p2528
aVmachine
p2529
aVgroup
p2530
aVthank
p2531
aVrossica
p2532
aVencompasses
p2533
aVforms
p2534
aVplatform
p2535
aVlisting
p2536
aVmail
p2537
aVmain
p2538
aVviews
p2539
aVsooner
p2540
aVscaling
p2541
aVrecords
p2542
aVqualified
p2543
aVcourse
p2544
aV1950
p2545
aVhalf
p2546
aVispconfig
p2547
aVnor
p2548
aVpossess
p2549
aVterm
p2550
aVname
p2551
aVadmob
p2552
aVoffshore
p2553
aVshowcasing
p2554
aVtopsolid
p2555
aVdomain
p2556
aVsquare
p2557
aVmysql5
p2558
aVchallenges
p2559
aVyear
p2560
aVcalling
p2561
aVcanada
p2562
aVliving
p2563
aVcanvas
p2564
aVaccomplish
p2565
aVgamers
p2566
aV3rd
p2567
aVmultiplayer
p2568
aVincrease
p2569
aVinternet
p2570
aVassurance
p2571
aVsuperiors
p2572
aVcart
p2573
aVquite
p2574
aVajax
p2575
aVmimi
p2576
aVorg
p2577
aVcare
p2578
aVtraining
p2579
aVjournalist
p2580
aVlanguage
p2581
aVselections
p2582
aVlistings
p2583
aVprogramming
p2584
aVhonest
p2585
aVmotion
p2586
aVturn
p2587
aVyum
p2588
aVpromotion
p2589
aVthink
p2590
aVprograming
p2591
aVfirst
p2592
aVenhances
p2593
aVclause
p2594
aVfast
p2595
aVdirectly
p2596
aVcarry
p2597
aVopen
p2598
aVgeorge
p2599
aVengineer
p2600
aVsurveys
p2601
aVnecessarily
p2602
aViad
p2603
aVcaught
p2604
aVyii
p2605
aVanyone
p2606
aVrenderings
p2607
aVreturns
p2608
aVtyping
p2609
aVwhite
p2610
aVspeaking
p2611
aVmining
p2612
aVreleases
p2613
aVcontinuous
p2614
aVcerebro
p2615
aVspecialists
p2616
aVcopy
p2617
aVintrinsically
p2618
aVwide
p2619
aV13
p2620
aV12
p2621
aV15
p2622
aV18
p2623
aVrequire
p2624
aVtypography
p2625
aVventure
p2626
aVcards
p2627
aVpre
p2628
aVregister
p2629
aVtopics
p2630
aVlocations
p2631
aVant
p2632
aVsay
p2633
aVworksheets
p2634
aVsap
p2635
aVany
p2636
aVcassandra
p2637
aVconversion
p2638
aVefficient
p2639
aVtranscription
p2640
aVediting
p2641
aVanswering
p2642
aVideas
p2643
aVnote
p2644
aVacumen
p2645
aVsquad
p2646
aVtranscribed
p2647
aVtake
p2648
aVonline
p2649
aVcreatively
p2650
aVperformance
p2651
aVstrengths
p2652
aVhanding
p2653
aVsure
p2654
aVmultiple
p2655
aVukrainian
p2656
aVtrack
p2657
aVprice
p2658
aVvisitors
p2659
aVprinted
p2660
aVremarks
p2661
aVpages
p2662
aVlater
p2663
aVsale
p2664
aVsenior
p2665
aVshop
p2666
aVnextag
p2667
aVshot
p2668
aVoutsourcing
p2669
aVdrawings
p2670
aVinjection
p2671
aVground
p2672
aVxml
p2673
aVratio
p2674
aVoutside
p2675
aVonly
p2676
aVgoing
p2677
aVblack
p2678
aVequipped
p2679
aVget
p2680
aVassistant
p2681
aVtrustworty
p2682
aVoverdeliver
p2683
aVemployers
p2684
aVaim
p2685
aVnearly
p2686
aVhonours
p2687
aVsecondary
p2688
aVresource
p2689
aVintuitive
p2690
aVartist
p2691
aVexplore
p2692
aVrounder
p2693
aVsummary
p2694
aVadvertisor
p2695
aVsource
p2696
aVinnovative
p2697
aVcollege
p2698
aVpebble
p2699
aVenhacement
p2700
aVsatisfying
p2701
aVmorocco
p2702
aVmanaging
p2703
aVrajeev
p2704
aVsites
p2705
aVcuello022206
p2706
aVwojczyszyn
p2707
aVbehind
p2708
aVbetween
p2709
aVinfrastructure
p2710
aVscreen
p2711
aVflow
p2712
aVjs
p2713
aVjd
p2714
aVarticle
p2715
aVcome
p2716
aVassess
p2717
aVconcentrated
p2718
aVfliers
p2719
aVmany
p2720
aVsolidworks
p2721
aVaccording
p2722
aVenabling
p2723
aVcolumnist
p2724
aVworkplace
p2725
aVcomes
p2726
aVsymfony
p2727
aVamong
p2728
aV60
p2729
aVcoredata
p2730
aVlearning
p2731
aVmoreover
p2732
aVendeavor
p2733
aVconsidering
p2734
aVarts
p2735
aVtuning
p2736
aVcapable
p2737
aVmark
p2738
aVdelcam
p2739
aVglassfish
p2740
aVdependable
p2741
aVtheam
p2742
aV500
p2743
aVengine
p2744
aVenable
p2745
aVshopping
p2746
aVoffered
p2747
aVcreo
p2748
aVproven
p2749
aVebusiness
p2750
aVattentive
p2751
aVruby
p2752
aVformer
p2753
aVprotocols
p2754
aVsound
p2755
aVmyself
p2756
aVdeveloping
p2757
aVthese
p2758
aVadmin
p2759
aVpromising
p2760
aVnewspaper
p2761
aVsituation
p2762
aVcoolest
p2763
aVtelephone
p2764
aVsudden
p2765
aVconverts
p2766
aVsomebody
p2767
aVtechnology
p2768
aVdifferent
p2769
aVdevelop
p2770
aVetc
p2771
aVpay
p2772
aVsame
p2773
aVtranscribing
p2774
aVauthentication
p2775
aVgeodatix
p2776
aVlite
p2777
aVdocument
p2778
aVweek
p2779
aVextended
p2780
aVassist
p2781
aVdriven
p2782
aVwpm
p2783
aVchanging
p2784
aVcck
p2785
aVmodel
p2786
aVdimension
p2787
aVresearchers
p2788
aVedwards
p2789
aVnosql
p2790
aVpakistan
p2791
aVbeing
p2792
aVknowledgeable
p2793
aVvaluable
p2794
aVreputable
p2795
aVgreetings
p2796
aV6days
p2797
aVsummed
p2798
aVtouch
p2799
aVspeed
p2800
aVweekly
p2801
aVautocad
p2802
aVhsphere
p2803
aVdesktop
p2804
aVblog
p2805
aVcomplements
p2806
aVextensive
p2807
aVreal
p2808
aVaspects
p2809
aVaround
p2810
aVdelhi
p2811
aVpsd
p2812
aVbreedlove
p2813
aVtraffic
p2814
aVmom
p2815
aVworld
p2816
aVweb2py
p2817
aVdisappointed
p2818
aVmod
p2819
aVfortune
p2820
aVidentifying
p2821
aVserver
p2822
aVbenefit
p2823
aVeither
p2824
aVoutput
p2825
aVpassionate
p2826
aVsatisfactory
p2827
aVverbal
p2828
aVcompetition
p2829
aVspecified
p2830
aVimages
p2831
aVorganizing
p2832
aVthinks
p2833
aVprovided
p2834
aVhighest
p2835
aVredis
p2836
aVredir
p2837
aVlegal
p2838
aVpioneer
p2839
aVcritical
p2840
aVprovider
p2841
aVdirector
p2842
aVspecializing
p2843
aVkvm
p2844
aVscientific
p2845
aVpower
p2846
aVconvincing
p2847
aVliveshare
p2848
aVflyers
p2849
aVknowleadge
p2850
aVcentral
p2851
aVindustry
p2852
aVhiatus
p2853
aVhardcopies
p2854
aVstand
p2855
aVbackup
p2856
aVprocessor
p2857
aVpsh2html
p2858
aVcommunication
p2859
aVimage
p2860
aVskilled
p2861
aVreferences
p2862
aVfinancial
p2863
aVtechnically
p2864
aVbuds
p2865
aVprepare
p2866
aVarea
p2867
aVremoving
p2868
aVthere
p2869
aVdeadlines
p2870
aVbangladeshi
p2871
aVstart
p2872
aVlow
p2873
aVlot
p2874
aVshoutcast
p2875
aVapis
p2876
aVtechnologies
p2877
aVtrying
p2878
aVhire
p2879
aVcacti
p2880
aVillustrator
p2881
aVdetailed
p2882
aVad
p2883
aVvideos
p2884
aVtaste
p2885
aVdescribe
p2886
aVsales
p2887
aVdeep
p2888
aVnagios
p2889
aVreliability
p2890
aVfile
p2891
aVlogo
p2892
aVquickbooks
p2893
aVagain
p2894
aVdrafts
p2895
aV1562408
p2896
aVpersonnel
p2897
aVgraduate
p2898
aVproductively
p2899
aVfield
p2900
aV28078
p2901
aVmathematics
p2902
aV2007
p2903
aVoneself
p2904
aVobsessed
p2905
aVtranslated
p2906
aVpear
p2907
aVincludes
p2908
aVimportant
p2909
aVnapier
p2910
aVsuited
p2911
aVmechanical
p2912
aVbuilding
p2913
aVremote
p2914
aVcalls
p2915
aVwife
p2916
aVcpa
p2917
aVtricks
p2918
aVwebsites
p2919
aVhello
p2920
aVdirectory
p2921
aVoral
p2922
aVoriginal
p2923
aVmigrated
p2924
aValm
p2925
aVb43b054378357819
p2926
aVfounder
p2927
aVmonth
p2928
aVpostponing
p2929
aVdeadline
p2930
aVfollow
p2931
aVdecisions
p2932
aVsmo
p2933
aVhunting
p2934
aVicons
p2935
aVtv
p2936
aVopportunities
p2937
aVprogram
p2938
aVopensource
p2939
aVpresentation
p2940
aVfax
p2941
aVreturned
p2942
aVsitting
p2943
aVminded
p2944
aVdifference
p2945
aVcondition
p2946
aVlist
p2947
aVapplicable
p2948
aVlarge
p2949
aVscrapping
p2950
aVsmall
p2951
aVten
p2952
aVpast
p2953
aVrate
p2954
aVenhancement
p2955
aVfurther
p2956
aVfunctioning
p2957
aVpinterest
p2958
aVsun
p2959
aVsection
p2960
aVassociate
p2961
aVlearner
p2962
aVversion
p2963
aVlearned
p2964
aVmemcached
p2965
aVpublic
p2966
aV5002
p2967
aVfull
p2968
aVtags
p2969
aV21st
p2970
aVhours
p2971
aVoperating
p2972
aVdirections
p2973
aVmanagerial
p2974
aVobserving
p2975
aVhass
p2976
aVsearch
p2977
aVahead
p2978
aVinspired
p2979
aVcompliance
p2980
aVprior
p2981
aVadvertising
p2982
aVpublished
p2983
aVaction
p2984
aVformation
p2985
aVvia
p2986
aVfamily
p2987
aVtoyo
p2988
aVglitch
p2989
aVanalyzing
p2990
aVtrained
p2991
aVestablish
p2992
aVselect
p2993
aVintensive
p2994
aVflaws
p2995
aVtakes
p2996
aVobjectives
p2997
aVfaint
p2998
aVtwo
p2999
aVsaasu
p3000
aVmarkets
p3001
aVachieving
p3002
aVdiamond
p3003
aVdoor
p3004
aVknows
p3005
aVopenvz
p3006
aVbasically
p3007
aVparticular
p3008
aVproducing
p3009
aVwebmaster
p3010
aVglad
p3011
aVkeeping
p3012
aVsalesforce
p3013
aVscience
p3014
aVequation
p3015
aVspecializes
p3016
aVfronted
p3017
aVatari
p3018
aVlearn
p3019
aVstrategies
p3020
aVchallenging
p3021
aVstated
p3022
aVshare
p3023
aVvirtuemart
p3024
aVminimum
p3025
aVmagento
p3026
aVaxis
p3027
aVhuge
p3028
aVneeds
p3029
aVrather
p3030
aVutilize
p3031
aVmaps
p3032
aVbuenos
p3033
aVjustin
p3034
aVtibay
p3035
aVreflect
p3036
aVcatalog
p3037
aVdisable
p3038
aVlighting
p3039
aVcairngorm
p3040
aVresponse
p3041
aVshort
p3042
aVpostfix
p3043
aVmeticulous
p3044
aVdocumentation
p3045
aVbugs
p3046
aVdjango
p3047
aVresponsibility
p3048
aVmedia
p3049
aVcs5
p3050
aVdream
p3051
aVplaying
p3052
aVcs3
p3053
aVreplied
p3054
aVphotoshop
p3055
aVhelp
p3056
aVmission
p3057
aVlicensure
p3058
aVheld
p3059
aVattitude
p3060
aVpaper
p3061
aVthrough
p3062
aVcommitted
p3063
aVits
p3064
aVdeveloper
p3065
aV25
p3066
aVstyle
p3067
aV20
p3068
aV22
p3069
aV23
p3070
aVsolving
p3071
aV29
p3072
aVparts
p3073
aVsystems
p3074
aVbox2d
p3075
aVsomeone
p3076
aVmotivated
p3077
aVseeking
p3078
aVfood
p3079
aVscheglov
p3080
aVframework
p3081
aVfoot
p3082
aVformulating
p3083
aVyr
p3084
aVbigger
p3085
aVinstructions
p3086
aVeasily
p3087
aVlevel
p3088
aV2d
p3089
aVuploads
p3090
aVgnucash
p3091
aVeveryone
p3092
aVgeneration
p3093
aVhard
p3094
aVnumeric
p3095
aVclockwork
p3096
aVexpect
p3097
aVoperation
p3098
aVscribe
p3099
aVinsurance
p3100
aVreally
p3101
aVftp
p3102
aVcatia
p3103
aVconceptualizing
p3104
aVsencha
p3105
aVsince
p3106
aVhealth
p3107
aVprint
p3108
aVoffline
p3109
aVasp
p3110
aVupon
p3111
aVreason
p3112
aVbase
p3113
aVmembers
p3114
aVcss
p3115
aVput
p3116
aVteach
p3117
aVash
p3118
aVrevolutionary
p3119
aVcheers
p3120
aVdrupal
p3121
aVdashcommerce
p3122
aVneeding
p3123
aVamerican
p3124
aVexpecting
p3125
aVthrows
p3126
aVmajor
p3127
aVv6
p3128
aVencoding
p3129
aVfeel
p3130
aVnumber
p3131
aVzurb
p3132
aVdone
p3133
aVdefects
p3134
aVmiss
p3135
aVecommerce
p3136
aVleast
p3137
aV1077457
p3138
aVpassed
p3139
aVweblogic
p3140
aVstore
p3141
aVgps
p3142
aVhim
p3143
aVrelationship
p3144
aVhotel
p3145
aVpart
p3146
aVtranslation
p3147
aVbelieve
p3148
aVonetieva
p3149
aVjquery
p3150
aVkind
p3151
aVdetermines
p3152
aVkindly
p3153
aValphanumeric
p3154
aVglusterfs
p3155
aVaims
p3156
aVrecording
p3157
aVveportal
p3158
aVpolishing
p3159
aVhurco
p3160
aVinteractive
p3161
aVmotivation
p3162
aVoutstanding
p3163
aVchipmunk
p3164
aVmootools
p3165
aVw4m
p3166
aVself
p3167
aVdianwei
p3168
aVbuild
p3169
aVplay
p3170
aVcompetencies
p3171
aVcomponents
p3172
aVsets
p3173
aVchart
p3174
aVmost
p3175
aVexperiences
p3176
aVaires
p3177
aVservices
p3178
aVextremely
p3179
aVachievement
p3180
aVwindows
p3181
aVpopularity
p3182
aVtieva
p3183
aVgiving
p3184
aVartistic
p3185
aVclean
p3186
aVnotch
p3187
aVphysics
p3188
aVmicrosoft
p3189
aVjoining
p3190
aVperseverance
p3191
aVrelation
p3192
aVheadlines
p3193
aVfind
p3194
aVmorisiki
p3195
aVaccess
p3196
aVdepended
p3197
aVwriter
p3198
aVdistributed
p3199
aVfailed
p3200
aVpretty
p3201
aVmoney
p3202
aVdarwin
p3203
aVaccurate
p3204
aVhis
p3205
aVprowess
p3206
aVexpress
p3207
aVrest
p3208
aVinternational
p3209
aVduring
p3210
aVbanner
p3211
aVblogging
p3212
aVexhibiting
p3213
aVadapts
p3214
aVsleeve
p3215
aVrfx
p3216
aVweaver
p3217
aVcrm
p3218
aVbars
p3219
aVset
p3220
aVart
p3221
aVcocos2d
p3222
aVcreator
p3223
aV317
p3224
aVsee
p3225
aVindividual
p3226
aVsem
p3227
aVbudypress
p3228
aVthreats
p3229
aVexpert
p3230
aVmovie
p3231
aVcurrently
p3232
aVkeepalived
p3233
aVrepresentatives
p3234
aVvarious
p3235
aVeurope
p3236
aVprofiling
p3237
aVrecently
p3238
aVcreating
p3239
aVjavascript
p3240
aVmaintainability
p3241
aV1521986
p3242
aVcoffee
p3243
aVscriptlance
p3244
aVfluently
p3245
aVvasilisbankov
p3246
aVleague
p3247
aVrestaurant
p3248
aVannual
p3249
aVevent
p3250
aVthinking
p3251
aVpdm
p3252
aVimproves
p3253
aVhesitand
p3254
aVpdf
p3255
aVlancing
p3256
aVload
p3257
aVpoint
p3258
aVsimple
p3259
aVcomposting
p3260
aVwhatever
p3261
aVdimensional
p3262
aVheader
p3263
aVsimply
p3264
aVlikes
p3265
aVlinux
p3266
aVthroughout
p3267
aVexpensive
p3268
aVpr
p3269
aVjava
p3270
aVpublishing
p3271
aVcreate
p3272
aVcreativity
p3273
aVdue
p3274
aVstrategy
p3275
aVpc
p3276
aVmaintenance
p3277
aVmeeting
p3278
aVfirm
p3279
aVflight
p3280
aVfreelancing
p3281
aVraj
p3282
aVproprietary
p3283
aVprecision
p3284
aVadaptable
p3285
aVdetermination
p3286
aVrepresentative
p3287
aVdemand
p3288
aVinstructor
p3289
aVresid
p3290
aVhandling
p3291
aVlook
p3292
aVsolid
p3293
aVreliable
p3294
aVbudget
p3295
aVtechnical
p3296
aVwhile
p3297
aVoptimization
p3298
aVkick
p3299
aVbehavior
p3300
aVfun
p3301
aVanimated
p3302
aVstudied
p3303
aVcentury
p3304
aVitself
p3305
aVskype
p3306
aVready
p3307
aVria
p3308
aVclerical
p3309
aVshirt
p3310
aVmint
p3311
aVmailing
p3312
aVorders
p3313
aVorientated
p3314
aVcopying
p3315
aVpeoples
p3316
aVcomposition
p3317
aVused
p3318
aVinterpersonal
p3319
aVflurry
p3320
aV000
p3321
aVpurpose
p3322
aVstack
p3323
aVlower
p3324
aVtask
p3325
aVdatabase
p3326
aVpersuasive
p3327
aVspent
p3328
aVanalysis
p3329
aVnoisymusic
p3330
aVperson
p3331
aVsavvy
p3332
aVparametric
p3333
aVspend
p3334
aVwhmcs
p3335
aVabilities
p3336
aVendeavour
p3337
aVlistening
p3338
aVphotoworks
p3339
aVcompetitive
p3340
aVopenstack
p3341
aVgems
p3342
aVcut
p3343
aVadvertisements
p3344
aVcontractor
p3345
aVeager
p3346
aVdixon
p3347
aVinput
p3348
aVcum
p3349
aVadministrative
p3350
aVcustomers
p3351
aVdemands
p3352
aVbig
p3353
aVunlimited
p3354
aVnginx
p3355
aVgame
p3356
aVfalcon
p3357
aVbit
p3358
aVprojects
p3359
aVoutright
p3360
aVsorting
p3361
aVsuccess
p3362
aVsubmission
p3363
aVconfront
p3364
aVfacets
p3365
aVcontinue
p3366
aVpopular
p3367
aVgoogle
p3368
aVmethods
p3369
aVspring
p3370
aVcreation
p3371
aVback
p3372
aVstreaming
p3373
aVtrends
p3374
aVtowards
p3375
aVkeyword
p3376
aVpreparing
p3377
aVdepartmental
p3378
aVshall
p3379
aVintegration
p3380
aVper
p3381
aVscalr
p3382
aVprod
p3383
aVminimal
p3384
aVinclination
p3385
aVprofessionals
p3386
aV300
p3387
aVopencart
p3388
aVprocessing
p3389
aVrus
p3390
aVwsdl
p3391
aVreadability
p3392
aVhamra
p3393
aVtensionmanagementinstitute
p3394
aVanything
p3395
aVgraduation
p3396
aVsimulation
p3397
aVrange
p3398
aVjsp
p3399
aVplan
p3400
aVhometown
p3401
aVinto
p3402
aVwithin
p3403
aVnonsense
p3404
aVservers
p3405
aVperl
p3406
aVcalming
p3407
aVstatistics
p3408
aVinnate
p3409
aVspecifically
p3410
aVcustom
p3411
aVheritage
p3412
aVforward
p3413
aVcarnaudmetalbox
p3414
aVpromotions
p3415
aVsolanghansen
p3416
aVposter
p3417
aVspecialty
p3418
aV987
p3419
aVlink
p3420
aVpytalhost
p3421
aVrussian
p3422
aVline
p3423
aVdirected
p3424
aVconsist
p3425
aVmunin
p3426
aVup
p3427
aVus
p3428
aVmobile
p3429
aVthose
p3430
aVceridian
p3431
aVindividuality
p3432
aVvekperevoda
p3433
aVwilled
p3434
aVbeckoning
p3435
aVdoesn
p3436
aVassociates
p3437
aVchat
p3438
aVorganizational
p3439
aVhuron
p3440
aVmssql
p3441
aVstreamlining
p3442
aVpeace
p3443
aVgooglemap
p3444
aVrewriting
p3445
aVapplication
p3446
aVincome
p3447
aVdepartment
p3448
aVnice
p3449
aVusers
p3450
aVfavourite
p3451
aVmongodb
p3452
aVproblems
p3453
aVrestoration
p3454
aVposters
p3455
aVsvn
p3456
aVhappier
p3457
aVsvg
p3458
aVrequired
p3459
aVdepartments
p3460
aVmonit
p3461
aV2003
p3462
aVdepth
p3463
aV2006
p3464
aVpresenting
p3465
aV2005
p3466
aVoracle
p3467
aV2008
p3468
aV2009
p3469
aVhaving
p3470
aVcode
p3471
aVbroaden
p3472
aVresults
p3473
aVexisting
p3474
aVvsftp
p3475
aVgo
p3476
aVsend
p3477
aVsuits
p3478
aVliterary
p3479
aVhelps
p3480
aVsuite
p3481
aVinclude
p3482
aVfriendly
p3483
aVresources
p3484
aVuploaded
p3485
aVlogos
p3486
aVlisted
p3487
aVmastering
p3488
aVfacebook
p3489
aVstackoverflow
p3490
aVmixing
p3491
aVcategories
p3492
aVtimely
p3493
aVmercurial
p3494
aVtry
p3495
aVassignments
p3496
aVsearchability
p3497
aVbusinesses
p3498
aVhardening
p3499
aVrecruitment
p3500
aVlayouts
p3501
aVvideo
p3502
aVdynamics
p3503
aVclick
p3504
aVvmware
p3505
aVuniversities
p3506
aVhourly
p3507
aVchicago
p3508
aVphonegap
p3509
aVassisted
p3510
aVmultimedia
p3511
aVnetworks
p3512
aVjboss
p3513
aVconsistently
p3514
aVturnaround
p3515
aVtapjoy
p3516
aVfirms
p3517
aVmarketer
p3518
aVexercise
p3519
aV3d
p3520
aVdegree
p3521
aVdelivering
p3522
aVbachelor
p3523
aVbusy
p3524
aVlet
p3525
aVothers
p3526
aVmaven
p3527
aVgreat
p3528
aVengage
p3529
aVtalent
p3530
aVreceive
p3531
aVinvolved
p3532
aV30
p3533
aVkiessling
p3534
aVproducts
p3535
aVmakes
p3536
aVhonor
p3537
aVinvolves
p3538
aVapp
p3539
aVmanage
p3540
aVportals
p3541
aVunderpromise
p3542
aVapi
p3543
aVlodging
p3544
aVapply
p3545
aVtools
p3546
aVcloud
p3547
aVconfidence
p3548
aVhears
p3549
aVusa
p3550
aVguideline
p3551
aVfew
p3552
aVdoubt
p3553
aVthemselves
p3554
aVgained
p3555
aVjournalists
p3556
aVstarted
p3557
aVarranging
p3558
aVpotential
p3559
aVstarter
p3560
aVsubscription
p3561
aVaccount
p3562
aVpracticing
p3563
aVphing
p3564
aVlanguages
p3565
aVthis
p3566
aVchallenge
p3567
aVmeet
p3568
aVcontrol
p3569
aVsqlite
p3570
aVperfecting
p3571
aVreserved
p3572
aVprocess
p3573
aVtax
p3574
aVhigh
p3575
aVsomething
p3576
aVtab
p3577
aVeducational
p3578
aVsit
p3579
aVpoetry
p3580
aVarrangement
p3581
aVlamp
p3582
aVrevision
p3583
aVprofile
p3584
aVadministrator
p3585
aVwatch
p3586
aVfits
p3587
aVcommunicator
p3588
aVmarrow
p3589
aVefficiently
p3590
aVos
p3591
aVzenoss
p3592
aVzbrush
p3593
aVtexturing
p3594
aVelement
p3595
aVencyclopedia
p3596
aVallow
p3597
aVtenure
p3598
aVquotations
p3599
aVfastest
p3600
aVresearching
p3601
aVincluding
p3602
aVlooks
p3603
aVconverting
p3604
aVhbase
p3605
aVchosen
p3606
aVll
p3607
aVemails
p3608
aVwilling
p3609
aVfirmly
p3610
aVchoose
p3611
aVhobby
p3612
aV2011
p3613
aV2012
p3614
aVflex
p3615
aVdesigns
p3616
aVcrash
p3617
aVpython
p3618
aVpractice
p3619
aVindexing
p3620
aVskydrive
p3621
aVeffectatious
p3622
aVsmarty
p3623
aVhands
p3624
aVfront
p3625
aVcakephp
p3626
aVday
p3627
aVstrive
p3628
aVarticles
p3629
aVmasters
p3630
aVkronos
p3631
aVedit
p3632
aVuniversity
p3633
aV3ds
p3634
aVaccounts
p3635
aVluster
p3636
aVexperienced
p3637
aV709
p3638
aVdoing
p3639
aVrelated
p3640
aVsociety
p3641
aVmeta
p3642
aVstatic
p3643
aVcpanel
p3644
aVmxml
p3645
aVour
p3646
aVprogrammer
p3647
aVspecial
p3648
aVout
p3649
aVproofreader
p3650
aVchaos
p3651
aVricky
p3652
aVmate
p3653
aVimpart
p3654
aVred
p3655
aVproficient
p3656
aVipod
p3657
aVloyola
p3658
aVanalytical
p3659
aVcompletely
p3660
aVsurely
p3661
aVtenant
p3662
aVorganic
p3663
aVcould
p3664
aVopengl
p3665
aVask
p3666
aVtimes
p3667
aVkeen
p3668
aVpasting
p3669
aVstimulate
p3670
aVplastics
p3671
aVindesign
p3672
aVblogger
p3673
aVpowerful
p3674
aVstrategic
p3675
aVimprovements
p3676
aVpuppet
p3677
aVhonestly
p3678
aVowner
p3679
aVlong
p3680
aVstrict
p3681
aVdetailing
p3682
aVsystem
p3683
aVpriority
p3684
aVtheir
p3685
aVmechnisam
p3686
aVperfectly
p3687
aVfinal
p3688
aVaodrgsiggnrjrzs
p3689
aVexplanation
p3690
aVrsa
p3691
aVregards
p3692
aVmanipulation
p3693
aVhaven
p3694
aVupdating
p3695
aVrss
p3696
aVipad
p3697
aVbother
p3698
aVsubmitted
p3699
aVdmu50
p3700
aVproviding
p3701
aVcollecting
p3702
aVvericut
p3703
aVneed
p3704
aVclearly
p3705
aVcompetency
p3706
aVdocuments
p3707
aVstudying
p3708
aVable
p3709
aVstegloff
p3710
aVconcerns
p3711
aVwhich
p3712
aVlinda
p3713
aVsingh
p3714
aVsubject
p3715
aVsoap
p3716
aVaccuracy
p3717
aVworldwide
p3718
aVunless
p3719
aVcentre
p3720
aVwho
p3721
aVaws
p3722
aVdelve
p3723
aVsegment
p3724
aVwhy
p3725
aVvolume
p3726
aVurl
p3727
aVarchiving
p3728
aVhi
p3729
aVdatabases
p3730
aVgain
p3731
aVselection
p3732
aVdba
p3733
aVplease
p3734
aVretouching
p3735
aVplanning
p3736
aVmanchester
p3737
aVportfolio
p3738
aVdebate
p3739
aVlitigation
p3740
aVha
p3741
aVbased
p3742
aVearned
p3743
aVcache
p3744
aVemployer
p3745
aVemployee
p3746
aVemployed
p3747
aVlocal
p3748
aVachieve
p3749
aVmeans
p3750
aVfamiliar
p3751
aVones
p3752
aVwords
p3753
aVdb2
p3754
aVprocedures
p3755
aVareas
p3756
aVnetsuite
p3757
aVteams
p3758
aVqc
p3759
aVstuff
p3760
aVshe
p3761
aVqueries
p3762
aVgrab
p3763
aVconversions
p3764
aVavailable
p3765
aVrightscale
p3766
aVacquired
p3767
aVtravis
p3768
aVcomputer
p3769
aVwritten
p3770
aVcopywriting
p3771
aVprogress
p3772
aVemail
p3773
aVattention
p3774
aVability
p3775
aVopening
p3776
aVimportance
p3777
aVdeliver
p3778
aVimplementing
p3779
aVjob
p3780
aVkey
p3781
aVconfiguration
p3782
aVswift
p3783
aVker
p3784
aVdiligent
p3785
aVcareer
p3786
aVtaking
p3787
aVpresentations
p3788
aVassure
p3789
aVwaiters
p3790
aVmentoring
p3791
aVmodeling
p3792
aVjson
p3793
aVseasoned
p3794
aVpoet
p3795
aVutilizing
p3796
aVwaste
p3797
aVmike
p3798
aVboth
p3799
aVsufficient
p3800
aVal
p3801
aVcontroller
p3802
aVgraphics
p3803
aVgeneral
p3804
aVpresent
p3805
aVhmc
p3806
aVmulti
p3807
aVvalue
p3808
aVframeworks
p3809
aVstunning
p3810
aVscanned
p3811
aVve
p3812
aValmost
p3813
aVsite
p3814
aVlinkedin
p3815
aVhelped
p3816
aVarabic
p3817
aVregression
p3818
aVbegan
p3819
aVadministration
p3820
aVmember
p3821
aVunity
p3822
aVbecame
p3823
aVparty
p3824
aVandroid
p3825
aVresiding
p3826
aVhttp
p3827
aVreporting
p3828
aVios
p3829
aVautomation
p3830
aVproficiency
p3831
aVv5
p3832
aVstudent
p3833
aVuni
p3834
aVtransaction
p3835
aVoff
p3836
aVcenter
p3837
aVcontest
p3838
aVthought
p3839
aVpatterns
p3840
aVcommand
p3841
aVoops
p3842
aVenglish
p3843
aVposition
p3844
aVaudio
p3845
aVdrawing
p3846
aVlatest
p3847
aVrestore
p3848
aVless
p3849
aVxen
p3850
aVexecutive
p3851
aVobtain
p3852
aVdose
p3853
aVsourcer
p3854
aVprotecting
p3855
aVpaul
p3856
aVnow
p3857
aVads
p3858
aVadp
p3859
aVcomunications
p3860
aVjeff
p3861
aVcapabilities
p3862
aVdevelopments
p3863
aVusage
p3864
aV280
p3865
aVsuit
p3866
aVsmart
p3867
aVcss3
p3868
aVcss2
p3869
aVcaptivating
p3870
aVample
p3871
aVmolding
p3872
aVmillturn
p3873
aVexecute
p3874
aVfive
p3875
aVknow
p3876
aVdeployment
p3877
aVpress
p3878
aVloader
p3879
aVprominent
p3880
aVnecessary
p3881
aVhelpful
p3882
aVexcluding
p3883
aVefficiency
p3884
aVdictionaries
p3885
aVcandy
p3886
aVpayments
p3887
aVbecome
p3888
aVworks
p3889
aVpage
p3890
aVexceed
p3891
aVbecause
p3892
aVpropel
p3893
aVactuarial
p3894
aVtwitter
p3895
aVsearching
p3896
aVplatforms
p3897
aVgrowth
p3898
aV110
p3899
aVconvey
p3900
aVproper
p3901
aVhome
p3902
aVprojection
p3903
aVlead
p3904
aVsketching
p3905
aVpassion
p3906
aVcapability
p3907
aVleader
p3908
aVschedule
p3909
aVstellar
p3910
aVpressure
p3911
aValthough
p3912
aVtestflight
p3913
aVshopify
p3914
aVhaproxy
p3915
aVabout
p3916
aVcodeigniter
p3917
aVgetting
p3918
aVcolumn
p3919
aValtb6kgfpg9btvc
p3920
aVpowerpoint
p3921
aVsoftware
p3922
aVown
p3923
aVpolished
p3924
aVcauselle
p3925
aVh2
p3926
aVh1
p3927
aVfunctional
p3928
aVarticulate
p3929
aVcocoa
p3930
aVvirtualbox
p3931
aV1987
p3932
aVnetworking
p3933
aVadditional
p3934
aVtransfer
p3935
aVapps
p3936
aVawarded
p3937
aV704
p3938
aVaccountant
p3939
aVliceanse
p3940
aVblackprojectstudios
p3941
aVbiggest
p3942
aVyrs
p3943
aVelastix
p3944
aVnaturally
p3945
aVinterest
p3946
aVpeechtree
p3947
aVhr
p3948
aVbrand
p3949
aVdelivery
p3950
aVconstruction
p3951
aVgoals
p3952
aVoverflow
p3953
aVsqueeze
p3954
aVbug
p3955
aVversatile
p3956
aVcount
p3957
aVmade
p3958
aVdmg
p3959
aVsmooth
p3960
aVcurrentaly
p3961
aVrecord
p3962
aVbelow
p3963
aVbooks
p3964
aVlimit
p3965
aVproblem
p3966
aVpiece
p3967
aVpim
p3968
aVrecognize
p3969
aVbrochures
p3970
aVcontribute
p3971
aVmyi
p3972
aVinn
p3973
aVperiods
p3974
aVeducation
p3975
aVmyd
p3976
aVinc
p3977
aVfunctions
p3978
aVvariety
p3979
aVdetail
p3980
aVvirtual
p3981
aVpeoplesoft
p3982
aVbook
p3983
aVdetails
p3984
aVboon
p3985
aVphp5
p3986
aVasterisk
p3987
aVlearnings
p3988
aVrepeat
p3989
aVchance
p3990
aVadditionally
p3991
aVmultinationals
p3992
aVextjs
p3993
aVlaude
p3994
aVexposure
p3995
aVfocused
p3996
aVsphinx
p3997
aVblogs
p3998
aVcompete
p3999
aVquestionnaires
p4000
aVunderstand
p4001
aVstrategical
p4002
atRp4003
sg1490
I00
sg1479
I01
sg1480
Nsg1482
NsS'vocabulary_'
p4004
(dp4005
Vskills
p4006
g15
(g1378
S'I\x00\x00\x00'
tRp4007
sVcompanies
p4008
g15
(g1378
S'\x12\x00\x00\x00'
tRp4009
sVnew
p4010
g15
(g1378
S'6\x00\x00\x00'
tRp4011
sVwould
p4012
g15
(g1378
S'a\x00\x00\x00'
tRp4013
sVme
p4014
g15
(g1378
S'2\x00\x00\x00'
tRp4015
sVword
p4016
g15
(g1378
S']\x00\x00\x00'
tRp4017
sVwork
p4018
g15
(g1378
S'_\x00\x00\x00'
tRp4019
sVprovide
p4020
g15
(g1378
S'C\x00\x00\x00'
tRp4021
sVover
p4022
g15
(g1378
S'?\x00\x00\x00'
tRp4023
sVwriting
p4024
g15
(g1378
S'b\x00\x00\x00'
tRp4025
sVgood
p4026
g15
(g1378
S'$\x00\x00\x00'
tRp4027
sVservice
p4028
g15
(g1378
S'H\x00\x00\x00'
tRp4029
sVproject
p4030
g15
(g1378
S'B\x00\x00\x00'
tRp4031
sVoriented
p4032
g15
(g1378
S'=\x00\x00\x00'
tRp4033
sVclient
p4034
g15
(g1378
S'\x0f\x00\x00\x00'
tRp4035
sVsolutions
p4036
g15
(g1378
S'J\x00\x00\x00'
tRp4037
sVdo
p4038
g15
(g1378
S'\x1b\x00\x00\x00'
tRp4039
sVbest
p4040
g15
(g1378
S'\x0b\x00\x00\x00'
tRp4041
sVcom
p4042
g15
(g1378
S'\x11\x00\x00\x00'
tRp4043
sVand
p4044
g15
(g1378
S'\x05\x00\x00\x00'
tRp4045
sVbeen
p4046
g15
(g1378
S'\n\x00\x00\x00'
tRp4047
sVwebsite
p4048
g15
(g1378
S'W\x00\x00\x00'
tRp4049
sVis
p4050
g15
(g1378
S')\x00\x00\x00'
tRp4051
sVit
p4052
g15
(g1378
S'*\x00\x00\x00'
tRp4053
sVin
p4054
g15
(g1378
S'(\x00\x00\x00'
tRp4055
sVif
p4056
g15
(g1378
S"'\x00\x00\x00"
tRp4057
sVthe
p4058
g15
(g1378
S'P\x00\x00\x00'
tRp4059
sVfor
p4060
g15
(g1378
S'!\x00\x00\x00'
tRp4061
sVmarketing
p4062
g15
(g1378
S'1\x00\x00\x00'
tRp4063
sVsupport
p4064
g15
(g1378
S'L\x00\x00\x00'
tRp4065
sVwordpress
p4066
g15
(g1378
S'^\x00\x00\x00'
tRp4067
sVexpertise
p4068
g15
(g1378
S'\x1f\x00\x00\x00'
tRp4069
sVexcel
p4070
g15
(g1378
S'\x1d\x00\x00\x00'
tRp4071
sVtime
p4072
g15
(g1378
S'Q\x00\x00\x00'
tRp4073
sVmy
p4074
g15
(g1378
S'4\x00\x00\x00'
tRp4075
sVtasks
p4076
g15
(g1378
S'M\x00\x00\x00'
tRp4077
sVworking
p4078
g15
(g1378
S'`\x00\x00\x00'
tRp4079
sVcan
p4080
g15
(g1378
S'\x0e\x00\x00\x00'
tRp4081
sVfollowing
p4082
g15
(g1378
S' \x00\x00\x00'
tRp4083
sVdesigner
p4084
g15
(g1378
S'\x18\x00\x00\x00'
tRp4085
sVdata
p4086
g15
(g1378
S'\x16\x00\x00\x00'
tRp4087
sVyears
p4088
g15
(g1378
S'c\x00\x00\x00'
tRp4089
sVnot
p4090
g15
(g1378
S'7\x00\x00\x00'
tRp4091
sVone
p4092
g15
(g1378
S';\x00\x00\x00'
tRp4093
sVthat
p4094
g15
(g1378
S'O\x00\x00\x00'
tRp4095
sVthan
p4096
g15
(g1378
S'N\x00\x00\x00'
tRp4097
sVobjective
p4098
g15
(g1378
S'8\x00\x00\x00'
tRp4099
sVprofessional
p4100
g15
(g1378
S'A\x00\x00\x00'
tRp4101
sVwhere
p4102
g15
(g1378
S'Z\x00\x00\x00'
tRp4103
sVjobs
p4104
g15
(g1378
S'+\x00\x00\x00'
tRp4105
sVsatisfaction
p4106
g15
(g1378
S'F\x00\x00\x00'
tRp4107
sVhtml
p4108
g15
(g1378
S'&\x00\x00\x00'
tRp4109
sVbusiness
p4110
g15
(g1378
S'\x0c\x00\x00\x00'
tRp4111
sVon
p4112
g15
(g1378
S':\x00\x00\x00'
tRp4113
sVof
p4114
g15
(g1378
S'9\x00\x00\x00'
tRp4115
sVor
p4116
g15
(g1378
S'<\x00\x00\x00'
tRp4117
sVyour
p4118
g15
(g1378
S'e\x00\x00\x00'
tRp4119
sVcomplete
p4120
g15
(g1378
S'\x14\x00\x00\x00'
tRp4121
sVwith
p4122
g15
(g1378
S'\\\x00\x00\x00'
tRp4123
sVam
p4124
g15
(g1378
S'\x03\x00\x00\x00'
tRp4125
sVas
p4126
g15
(g1378
S'\x07\x00\x00\x00'
tRp4127
sVat
p4128
g15
(g1378
S'\x08\x00\x00\x00'
tRp4129
sVyou
p4130
g15
(g1378
S'd\x00\x00\x00'
tRp4131
sVall
p4132
g15
(g1378
S'\x00\x00\x00\x00'
tRp4133
sVto
p4134
g15
(g1378
S'R\x00\x00\x00'
tRp4135
sVvery
p4136
g15
(g1378
S'U\x00\x00\x00'
tRp4137
sVdesign
p4138
g15
(g1378
S'\x17\x00\x00\x00'
tRp4139
sVwhat
p4140
g15
(g1378
S'Y\x00\x00\x00'
tRp4141
sVexperience
p4142
g15
(g1378
S'\x1e\x00\x00\x00'
tRp4143
sVmore
p4144
g15
(g1378
S'3\x00\x00\x00'
tRp4145
sVcompany
p4146
g15
(g1378
S'\x13\x00\x00\x00'
tRp4147
sVgoal
p4148
g15
(g1378
S'#\x00\x00\x00'
tRp4149
sVdeveloped
p4150
g15
(g1378
S'\x19\x00\x00\x00'
tRp4151
sValways
p4152
g15
(g1378
S'\x02\x00\x00\x00'
tRp4153
sVresearch
p4154
g15
(g1378
S'E\x00\x00\x00'
tRp4155
sValso
p4156
g15
(g1378
S'\x01\x00\x00\x00'
tRp4157
sVare
p4158
g15
(g1378
S'\x06\x00\x00\x00'
tRp4159
sVseo
p4160
g15
(g1378
S'G\x00\x00\x00'
tRp4161
sVlast
p4162
g15
(g1378
S'-\x00\x00\x00'
tRp4163
sVdevelopment
p4164
g15
(g1378
S'\x1a\x00\x00\x00'
tRp4165
sVentry
p4166
g15
(g1378
S'\x1c\x00\x00\x00'
tRp4167
sVmysql
p4168
g15
(g1378
S'5\x00\x00\x00'
tRp4169
sVlike
p4170
g15
(g1378
S'.\x00\x00\x00'
tRp4171
sVsome
p4172
g15
(g1378
S'K\x00\x00\x00'
tRp4173
sVbe
p4174
g15
(g1378
S'\t\x00\x00\x00'
tRp4175
sVuse
p4176
g15
(g1378
S'S\x00\x00\x00'
tRp4177
sVmanagement
p4178
g15
(g1378
S'0\x00\x00\x00'
tRp4179
sVfrom
p4180
g15
(g1378
S'"\x00\x00\x00'
tRp4181
sVcustomer
p4182
g15
(g1378
S'\x15\x00\x00\x00'
tRp4183
sVclients
p4184
g15
(g1378
S'\x10\x00\x00\x00'
tRp4185
sVlooking
p4186
g15
(g1378
S'/\x00\x00\x00'
tRp4187
sVquality
p4188
g15
(g1378
S'D\x00\x00\x00'
tRp4189
sVhave
p4190
g15
(g1378
S'%\x00\x00\x00'
tRp4191
sVknowledge
p4192
g15
(g1378
S',\x00\x00\x00'
tRp4193
sVan
p4194
g15
(g1378
S'\x04\x00\x00\x00'
tRp4195
sVwill
p4196
g15
(g1378
S'[\x00\x00\x00'
tRp4197
sVphp
p4198
g15
(g1378
S'@\x00\x00\x00'
tRp4199
sVwell
p4200
g15
(g1378
S'X\x00\x00\x00'
tRp4201
sVweb
p4202
g15
(g1378
S'V\x00\x00\x00'
tRp4203
sVother
p4204
g15
(g1378
S'>\x00\x00\x00'
tRp4205
sVbut
p4206
g15
(g1378
S'\r\x00\x00\x00'
tRp4207
sVusing
p4208
g15
(g1378
S'T\x00\x00\x00'
tRp4209
ssg1506
g1507
sg1495
g1496
sg1497
g1
(g1498
g3
NtRp4210
(dp4211
g1501
I01
sg1502
I01
sg1503
I00
sg1504
g1505
sS'_idf_diag'
p4212
g1
(cscipy.sparse.dia
dia_matrix
p4213
g3
NtRp4214
(dp4215
S'data'
p4216
g1371
(g1372
(I0
tS'b'
tRp4217
(I1
(I1
I102
tg17
I00
S'j\x06_\xd7\x86y\x05@?\xe9Z}\xd3=\x04@\x9f\x0b\x99\xe6\xfd\x13\x08@D\xd7w\x989\xc7\xfd?\xbc\n\xdd\x19\xc0\xd8\x02@\xe7\xbc\xff\x1e\x89\x05\xf1?\xf8j8\x95Z,\x03@\x90\xac\x0e\x98v\xfe\xfe?j\x06_\xd7\x86y\x05@(\xd2\x8c\x9a\x8d\xde\x03@H\xdc\xf2\xfa7|\x07@\xd1O}\xd8\xeb\xee\x06@\xf8j8\x95Z,\x03@H\xdc\xf2\xfa7|\x07@`\x13\xc7Y";\x02@\xa4`KZ\x1ej\t@\x01^\xd0\x12\xbfj\x06@\x9f\x0b\x99\xe6\xfd\x13\x08@s\xf9\xf6T\xeb\xb7\x08@\xa4`KZ\x1ej\t@H\xdc\xf2\xfa7|\x07@\x9f\x0b\x99\xe6\xfd\x13\x08@`\x13\xc7Y";\x02@j\x06_\xd7\x86y\x05@s\xf9\xf6T\xeb\xb7\x08@\xa4`KZ\x1ej\t@\xc4\xe4\xc5\x0b\xcc\n\x05@v\x18\xd0O\x96\xee\x05@\xc4\xe4\xc5\x0b\xcc\n\x05@s\xf9\xf6T\xeb\xb7\x08@Z\x87\x9c\xb5\xf9\xa5\xfc?\xa4`KZ\x1ej\t@\x9f\x0b\x99\xe6\xfd\x13\x08@\xe2-\xf3$BI\xfa?\x01^\xd0\x12\xbfj\x06@H\xdc\xf2\xfa7|\x07@\x9f\x0b\x99\xe6\xfd\x13\x08@\xc8\t\x114#_\xf9?H\xdc\xf2\xfa7|\x07@s\xf9\xf6T\xeb\xb7\x08@\x98\x8f\x91\x18U\xe7\xf3?4\x14\x85R\x11\x94\xfe?\xd1O}\xd8\xeb\xee\x06@\xa4`KZ\x1ej\t@\x01^\xd0\x12\xbfj\x06@s\xf9\xf6T\xeb\xb7\x08@H\xdc\xf2\xfa7|\x07@\xa4`KZ\x1ej\t@\xd1O}\xd8\xeb\xee\x06@\xa4`KZ\x1ej\t@\xbc\n\xdd\x19\xc0\xd8\x02@j\x06_\xd7\x86y\x05@\xfd\xf6\xa5\xa0\xe9\xae\xf5?\x9f\x0b\x99\xe6\xfd\x13\x08@\x9f\x0b\x99\xe6\xfd\x13\x08@\x9f\x0b\x99\xe6\xfd\x13\x08@H\xdc\xf2\xfa7|\x07@\x12\x82\xa6&;\xa7\xf6?\xfa\x89\x11\x90\x05c\x00@\xa4`KZ\x1ej\t@\x01^\xd0\x12\xbfj\x06@s\xf9\xf6T\xeb\xb7\x08@H\xdc\xf2\xfa7|\x07@^\xb4V\x96\xbf\xa1\x04@s\xf9\xf6T\xeb\xb7\x08@\xc4\xe4\xc5\x0b\xcc\n\x05@\xa4`KZ\x1ej\t@j\x06_\xd7\x86y\x05@^\xb4V\x96\xbf\xa1\x04@\xd1O}\xd8\xeb\xee\x06@\xa4`KZ\x1ej\t@\xa4`KZ\x1ej\t@\xbc\n\xdd\x19\xc0\xd8\x02@\xdc\xef@/\xec\xdb\xff?s\xf9\xf6T\xeb\xb7\x08@\xa4`KZ\x1ej\t@\x9f\x0b\x99\xe6\xfd\x13\x08@\xa4`KZ\x1ej\t@H\xdc\xf2\xfa7|\x07@\x1f\xdf\xf4\x1c)\xa0\x00@*\xeb\xf4^\x98\xeb\xf5?\x00\xe4\xf8\x13\x84\x83\x03@<\xf7\x07\xd3\xef|\xf3?H\xdc\xf2\xfa7|\x07@H\xdc\xf2\xfa7|\x07@\x01^\xd0\x12\xbfj\x06@\xd1\x99\xfcE\xc9\xa8\x01@\x9f\x0b\x99\xe6\xfd\x13\x08@\x01^\xd0\x12\xbfj\x06@\xa4`KZ\x1ej\t@s\xf9\xf6T\xeb\xb7\x08@j\x06_\xd7\x86y\x05@\xa2~\xeb\xf6,\xca\xf8?\xa4`KZ\x1ej\t@\xa4`KZ\x1ej\t@\xbeWk\xf7#\x04\xfd?\xf8j8\x95Z,\x03@s\xf9\xf6T\xeb\xb7\x08@v\x18\xd0O\x96\xee\x05@\x97\x9cM6\xedI\xfc?\xbc\n\xdd\x19\xc0\xd8\x02@\xc4\xe4\xc5\x0b\xcc\n\x05@'
tbsS'maxprint'
p4218
I50
sS'_shape'
p4219
(I102
I102
tp4220
sS'offsets'
p4221
g1371
(g1372
(I0
tS'b'
tRp4222
(I1
(I1
tg1378
I00
S'\x00\x00\x00\x00'
tbsS'format'
p4223
S'dia'
p4224
sbsbsg1508
Nsbsg19
g1472
sg1409
g1
(g1410
g3
NtRp4225
(dp4226
g1413
I01
sg1414
g1512
sbsg1361
Nsg1416
I01
sg1405
g1406
sg1408
g1509
sg1417
g1
(g1418
g3
NtRp4227
(dp4228
g1421
g1816
sg1425
Nsg1423
g1515
sg1427
g1428
sg1429
Nsg1426
Nsbsaa(lp4229
g1517
a(dp4230
g1407
Nsg19
g1517
sg1409
g1
(g1410
g3
NtRp4231
(dp4232
g1414
g1521
sg1806
g1371
(g1372
(I0
tS'b'
tRp4233
(I1
(I1
tg17
I00
S'\x1e\x1e\x1e\x1e\x1e\x1e\x9e?'
tbsg1808
g1371
(g1372
(I0
tS'b'
tRp4234
(I1
(I1
tg17
I00
S'\x00\x00\x00\x00\x00\x00A@'
tbsg1810
g1371
(g1372
(I0
tS'b'
tRp4235
(I1
(I1
tg17
I00
S'\x00\x00\x00\x00\x00\x00\x00\x00'
tbsg1812
g1371
(g1372
(I0
tS'b'
tRp4236
(I1
(I1
tg17
I00
S'\x00\x00\x00\x00\x00\x00\x00\x00'
tbsg1413
I01
sbsg1361
Nsg1416
I01
sg1405
g1406
sg1408
Nsg1417
g1
(g1418
g3
NtRp4237
(dp4238
g1421
g1816
sg1425
Nsg1423
g1424
sg1427
g1428
sg1429
Nsg1426
Nsbsaa(lp4239
g1525
a(dp4240
g1407
Nsg19
g1525
sg1409
g1
(g1410
g3
NtRp4241
(dp4242
g1414
g1529
sg1806
g1371
(g1372
(I0
tS'b'
tRp4243
(I1
(I1
tg17
I00
S'UUUUUU\xd5?'
tbsg1808
g1371
(g1372
(I0
tS'b'
tRp4244
(I1
(I1
tg17
I00
S'\x00\x00\x00\x00\x00\x00\x08@'
tbsg1810
g1371
(g1372
(I0
tS'b'
tRp4245
(I1
(I1
tg17
I00
S'\x00\x00\x00\x00\x00\x00\x00@'
tbsg1812
g1371
(g1372
(I0
tS'b'
tRp4246
(I1
(I1
tg17
I00
S'UUUUUU\xe5\xbf'
tbsg1413
I01
sbsg1361
Nsg1416
I01
sg1405
g1406
sg1408
Nsg1417
g1
(g1418
g3
NtRp4247
(dp4248
g1421
g1816
sg1425
Nsg1423
g1424
sg1427
g1428
sg1429
Nsg1426
Nsbsaa(lp4249
g1533
a(dp4250
g1407
Nsg19
g1533
sg1409
g1
(g1410
g3
NtRp4251
(dp4252
g1414
g1537
sg1806
g1371
(g1372
(I0
tS'b'
tRp4253
(I1
(I1
tg17
I00
S'\x00\x00\x00\x00\x00\x00\xf0?'
tbsg1808
g1371
(g1372
(I0
tS'b'
tRp4254
(I1
(I1
tg17
I00
S'\x00\x00\x00\x00\x00\x00\xf0?'
tbsg1810
g1371
(g1372
(I0
tS'b'
tRp4255
(I1
(I1
tg17
I00
S'\x00\x00\x00\x00\x00\x00\x00\x00'
tbsg1812
g1371
(g1372
(I0
tS'b'
tRp4256
(I1
(I1
tg17
I00
S'\x00\x00\x00\x00\x00\x00\x00\x00'
tbsg1413
I01
sbsg1361
Nsg1416
I01
sg1405
g1406
sg1408
Nsg1417
g1
(g1418
g3
NtRp4257
(dp4258
g1421
g1816
sg1425
Nsg1423
g1438
sg1427
g1428
sg1429
Nsg1426
Nsbsaa(lp4259
g1541
a(dp4260
g1407
Nsg19
g1541
sg1409
g1
(g1410
g3
NtRp4261
(dp4262
g1414
g1545
sg1806
g1371
(g1372
(I0
tS'b'
tRp4263
(I1
(I1
tg17
I00
S'\x00\x00\x00\x00\x00\x00\xf0?'
tbsg1808
g1371
(g1372
(I0
tS'b'
tRp4264
(I1
(I1
tg17
I00
S'\x00\x00\x00\x00\x00\x00\xf0?'
tbsg1810
g1371
(g1372
(I0
tS'b'
tRp4265
(I1
(I1
tg17
I00
S'\x00\x00\x00\x00\x00\x00\x00\x00'
tbsg1812
g1371
(g1372
(I0
tS'b'
tRp4266
(I1
(I1
tg17
I00
S'\x00\x00\x00\x00\x00\x00\x00\x00'
tbsg1413
I01
sbsg1361
Nsg1416
I01
sg1405
g1406
sg1408
Nsg1417
g1
(g1418
g3
NtRp4267
(dp4268
g1421
g1816
sg1425
Nsg1423
g1548
sg1427
g1428
sg1429
Nsg1426
Nsbsaa(lp4269
g1550
a(dp4270
g1407
Nsg19
g1550
sg1409
g1
(g1410
g3
NtRp4271
(dp4272
g1414
g1554
sg1806
g1371
(g1372
(I0
tS'b'
tRp4273
(I1
(I1
tg17
I00
S'\x00\x00\x00\x00\x00\x00\xf0?'
tbsg1808
g1371
(g1372
(I0
tS'b'
tRp4274
(I1
(I1
tg17
I00
S'\x00\x00\x00\x00\x00\x00\xf0?'
tbsg1810
g1371
(g1372
(I0
tS'b'
tRp4275
(I1
(I1
tg17
I00
S'\x00\x00\x00\x00\x00\x00\x00\x00'
tbsg1812
g1371
(g1372
(I0
tS'b'
tRp4276
(I1
(I1
tg17
I00
S'\x00\x00\x00\x00\x00\x00\x00\x00'
tbsg1413
I01
sbsg1361
Nsg1416
I01
sg1405
g1406
sg1408
Nsg1417
g1
(g1418
g3
NtRp4277
(dp4278
g1421
g1816
sg1425
Nsg1423
g1548
sg1427
g1428
sg1429
Nsg1426
Nsbsaa(lp4279
g1558
a(dp4280
g1407
Nsg19
g1558
sg1409
g1
(g1410
g3
NtRp4281
(dp4282
g1414
g1562
sg1806
g1371
(g1372
(I0
tS'b'
tRp4283
(I1
(I1
tg17
I00
S'\xb8\xf3\xdaoq\x11%>'
tbsg1808
g1371
(g1372
(I0
tS'b'
tRp4284
(I1
(I1
tg17
I00
S'\x00\x00\x00\x80VM\xb8A'
tbsg1810
g1371
(g1372
(I0
tS'b'
tRp4285
(I1
(I1
tg17
I00
S'\x00\x00\x00\xc0\xa16\xccA'
tbsg1812
g1371
(g1372
(I0
tS'b'
tRp4286
(I1
(I1
tg17
I00
S'!\xbaw/;\x93\x02\xc0'
tbsg1413
I01
sbsg1361
I946684800
sg1416
I01
sg1405
g1406
sg1408
Nsg1417
g1
(g1563
g3
NtRp4287
(dp4288
g1427
g1428
sg1421
g1816
sg1426
Nsg1425
I946684800
sg1429
(dp4289
g1567
g1568
ssbsaa(lp4290
g1570
a(dp4291
g1407
Nsg19
g1570
sg1409
g1
(g1410
g3
NtRp4292
(dp4293
g1414
g1574
sg1806
g1371
(g1372
(I0
tS'b'
tRp4294
(I1
(I1
tg17
I00
S'\x11\x11\x11\x11\x11\x11\x91?'
tbsg1808
g1371
(g1372
(I0
tS'b'
tRp4295
(I1
(I1
tg17
I00
S'\x00\x00\x00\x00\x00\x00N@'
tbsg1810
g1371
(g1372
(I0
tS'b'
tRp4296
(I1
(I1
tg17
I00
S'\x00\x00\x00\x00\x00\x00\x00\x00'
tbsg1812
g1371
(g1372
(I0
tS'b'
tRp4297
(I1
(I1
tg17
I00
S'\x00\x00\x00\x00\x00\x00\x00\x00'
tbsg1413
I01
sbsg1361
Nsg1416
I01
sg1405
g1406
sg1408
Nsg1417
g1
(g1418
g3
NtRp4298
(dp4299
g1421
g1816
sg1425
Nsg1423
g1438
sg1427
g1428
sg1429
Nsg1426
Nsbsaa(lp4300
g1578
a(dp4301
g1407
Nsg19
g1578
sg1409
g1
(g1410
g3
NtRp4302
(dp4303
g1414
g1582
sg1806
g1371
(g1372
(I0
tS'b'
tRp4304
(I1
(I1
tg17
I00
S'd!\x0bY\xc8B\x86?'
tbsg1808
g1371
(g1372
(I0
tS'b'
tRp4305
(I1
(I1
tg17
I00
S'\x00\x00\x00\x00\x00\x00W@'
tbsg1810
g1371
(g1372
(I0
tS'b'
tRp4306
(I1
(I1
tg17
I00
S'\x00\x00\x00\x00\x00\x00\x00\x00'
tbsg1812
g1371
(g1372
(I0
tS'b'
tRp4307
(I1
(I1
tg17
I00
S'\x00\x00\x00\x00\x00\x00\x00\x00'
tbsg1413
I01
sbsg1361
Nsg1416
I01
sg1405
g1406
sg1408
Nsg1417
g1
(g1418
g3
NtRp4308
(dp4309
g1421
g1816
sg1425
Nsg1423
g1424
sg1427
g1428
sg1429
Nsg1426
Nsbsaa(lp4310
g1586
a(dp4311
g1407
g1
(g1474
g3
NtRp4312
(dp4313
g1477
g1478
sg1481
Nsg1483
g1484
sg1485
g1486
sg1488
g1489
sg1491
g1590
sg1426
Nsg1487
F1
sg1493
I3
sg1494
Nsg1871
I00
sg1872
g1873
((lp4314
Vproducer
p4315
aVcowgirl
p4316
aVphoto
p4317
aVexcellent
p4318
aVyears
p4319
aVmanager
p4320
aVlailani
p4321
aVmanchester
p4322
aVhuman
p4323
aVror
p4324
aVstaff
p4325
aV25
p4326
aVautocad
p4327
aVoffice
p4328
aVfield
p4329
aVflash
p4330
aVjavaee
p4331
aVgigs
p4332
aVto
p4333
aVonly
p4334
aVpro
p4335
aVsugarcrm
p4336
aVresources
p4337
aV2012
p4338
aVcss3
p4339
aVdo
p4340
aVdesigns
p4341
aVbrowser
p4342
aV10
p4343
aVvery
p4344
aVdesigning
p4345
aVsilverlight
p4346
aVspecailist
p4347
aVqualified
p4348
aVeffects
p4349
aVandriod
p4350
aVpress
p4351
aVbanner
p4352
aVhaving
p4353
aVvoip
p4354
aVoutright
p4355
aVskills
p4356
aViphone5
p4357
aVemail
p4358
aVqa
p4359
aVteam
p4360
aVtopsolid
p4361
aVapplication
p4362
aVadobe
p4363
aVwab
p4364
aVcreator
p4365
aVgeneration
p4366
aVecomm
p4367
aVlogo
p4368
aVprogrammer
p4369
aVproofreader
p4370
aVproject
p4371
aVwhat
p4372
aVcatia
p4373
aVnetwork
p4374
aVlead
p4375
aVassistance
p4376
aVminer
p4377
aVcreative
p4378
aVlooking
p4379
aVwide
p4380
aVinternet
p4381
aVprint
p4382
aVprof
p4383
aVnet
p4384
aVcontent
p4385
aVpublic
p4386
aV3d
p4387
aVasp
p4388
aVvedio
p4389
aVvisualization
p4390
aVzend
p4391
aVmarketing
p4392
aVjavascript
p4393
aVdrupal
p4394
aVjob
p4395
aVflyer
p4396
aVhtml5
p4397
aVcompetent
p4398
aVmodeling
p4399
aVteacher
p4400
aVcertified
p4401
aVtranslator
p4402
aVconvert
p4403
aVconnoisseur
p4404
aVtalented
p4405
aVenglish
p4406
aVcareer
p4407
aVsolidworks
p4408
aVcopywriter
p4409
aVprovider
p4410
aVexperience
p4411
aVbookkeeper
p4412
aVjoomla
p4413
aVcolumnist
p4414
aVproducts
p4415
aVadvertising
p4416
aVpublished
p4417
aVmixed
p4418
aVpdf
p4419
aVcad
p4420
aVpowerpoint
p4421
aVtypist
p4422
aVppc
p4423
aVdepalog
p4424
aVindustrial
p4425
aVblogger
p4426
aVapp
p4427
aVmba
p4428
aVrank
p4429
aVone
p4430
aVxero
p4431
aVarticle
p4432
aVapply
p4433
aVrep
p4434
aVquality
p4435
aVevaluator
p4436
aVcloud
p4437
aVspecializing
p4438
aVmanagement
p4439
aVfrom
p4440
aVher
p4441
aVrecruiter
p4442
aVsupport
p4443
aVsystem
p4444
aVknockout
p4445
aVaccountant
p4446
aVpa
p4447
aVmusic
p4448
aViphone
p4449
aVdreamweaver
p4450
aVyrs
p4451
aVespecialist
p4452
aVwebsite
p4453
aVposting
p4454
aVtester
p4455
aVposter
p4456
aVnobody
p4457
aVworker
p4458
aVaca
p4459
aVelse
p4460
aVnirvana
p4461
aVfreelancer
p4462
aVvisual
p4463
aVrepresentative
p4464
aVgraphics
p4465
aVme
p4466
aVcommerce
p4467
aVaccount
p4468
aVillustrator
p4469
aVdhtml
p4470
aV4500hrsworked
p4471
aVup
p4472
aVwill
p4473
aVadmin
p4474
aVcan
p4475
aVcam
p4476
aVmy
p4477
aVonlinecoupons
p4478
aVva
p4479
aVdedicated
p4480
aVprocessing
p4481
aVflex
p4482
aVsaasu
p4483
aVnavigate
p4484
aVis
p4485
aVam
p4486
aVit
p4487
aVlinkedin
p4488
aVan
p4489
aVhigh
p4490
aVmagento
p4491
aVat
p4492
aVchat
p4493
aVmvc
p4494
aVhonest
p4495
aVmint
p4496
aVhire
p4497
aVrespective
p4498
aVquickbooks
p4499
aVauthor
p4500
aVmedia
p4501
aVveteran
p4502
aVseeking
p4503
aVwhen
p4504
aVcross
p4505
aVw4m
p4506
aVcraigslist
p4507
aVlamp
p4508
aVcomplex
p4509
aVbuild
p4510
aVonline
p4511
aVleader
p4512
aVxhtml
p4513
aVadministrator
p4514
aVkai
p4515
aVsocial
p4516
aVasterisk
p4517
aVtranscriber
p4518
aVcollection
p4519
aVsys
p4520
aVzohocrm
p4521
aVfb
p4522
aVodesk
p4523
aVstudent
p4524
aVwpf
p4525
aVencoder
p4526
aVsenior
p4527
aVbsc
p4528
aVdatabase
p4529
aVmobile
p4530
aVcpa
p4531
aVvariety
p4532
aVuploading
p4533
aVsale
p4534
aVmodeler
p4535
aVmarketer
p4536
aVclient
p4537
aVexp
p4538
aVmother
p4539
aVcs5
p4540
aVthe
p4541
aVnotch
p4542
aVphysics
p4543
aVtechnical
p4544
aVanimator
p4545
atRp4546
sg1490
I00
sg1479
I01
sg1480
Nsg1482
Nsg4004
(dp4547
Vresearch
p4548
g15
(g1378
S' \x00\x00\x00'
tRp4549
sVfreelance
p4550
g15
(g1378
S'\x14\x00\x00\x00'
tRp4551
sVwriter
p4552
g15
(g1378
S'.\x00\x00\x00'
tRp4553
sVcustomer
p4554
g15
(g1378
S'\x08\x00\x00\x00'
tRp4555
sVassistant
p4556
g15
(g1378
S'\x05\x00\x00\x00'
tRp4557
sVartist
p4558
g15
(g1378
S'\x04\x00\x00\x00'
tRp4559
sVexcel
p4560
g15
(g1378
S'\x10\x00\x00\x00'
tRp4561
sVdesign
p4562
g15
(g1378
S'\n\x00\x00\x00'
tRp4563
sVseo
p4564
g15
(g1378
S'#\x00\x00\x00'
tRp4565
sVsem
p4566
g15
(g1378
S'"\x00\x00\x00'
tRp4567
sVbest
p4568
g15
(g1378
S'\x06\x00\x00\x00'
tRp4569
sVexpert
p4570
g15
(g1378
S'\x12\x00\x00\x00'
tRp4571
sVspecialist
p4572
g15
(g1378
S"'\x00\x00\x00"
tRp4573
sVms
p4574
g15
(g1378
S'\x1a\x00\x00\x00'
tRp4575
sVgraphic
p4576
g15
(g1378
S'\x16\x00\x00\x00'
tRp4577
sVword
p4578
g15
(g1378
S',\x00\x00\x00'
tRp4579
sVin
p4580
g15
(g1378
S'\x18\x00\x00\x00'
tRp4581
sVhtml
p4582
g15
(g1378
S'\x17\x00\x00\x00'
tRp4583
sVcss
p4584
g15
(g1378
S'\x07\x00\x00\x00'
tRp4585
sVdesigner
p4586
g15
(g1378
S'\x0b\x00\x00\x00'
tRp4587
sVphp
p4588
g15
(g1378
S'\x1e\x00\x00\x00'
tRp4589
sVdata
p4590
g15
(g1378
S'\t\x00\x00\x00'
tRp4591
sVentry
p4592
g15
(g1378
S'\x0f\x00\x00\x00'
tRp4593
sVphotoshop
p4594
g15
(g1378
S'\x1d\x00\x00\x00'
tRp4595
sVtop
p4596
g15
(g1378
S'(\x00\x00\x00'
tRp4597
sVmysql
p4598
g15
(g1378
S'\x1b\x00\x00\x00'
tRp4599
sVdeveloper
p4600
g15
(g1378
S'\x0c\x00\x00\x00'
tRp4601
sVweb
p4602
g15
(g1378
S'*\x00\x00\x00'
tRp4603
sVwriting
p4604
g15
(g1378
S'/\x00\x00\x00'
tRp4605
sVadministrative
p4606
g15
(g1378
S'\x00\x00\x00\x00'
tRp4607
sVgame
p4608
g15
(g1378
S'\x15\x00\x00\x00'
tRp4609
sVsmm
p4610
g15
(g1378
S'%\x00\x00\x00'
tRp4611
sVof
p4612
g15
(g1378
S'\x1c\x00\x00\x00'
tRp4613
sVsoftware
p4614
g15
(g1378
S'&\x00\x00\x00'
tRp4615
sVresearcher
p4616
g15
(g1378
S'!\x00\x00\x00'
tRp4617
sVengineer
p4618
g15
(g1378
S'\x0e\x00\x00\x00'
tRp4619
sVservice
p4620
g15
(g1378
S'$\x00\x00\x00'
tRp4621
sVwordpress
p4622
g15
(g1378
S'-\x00\x00\x00'
tRp4623
sVeditor
p4624
g15
(g1378
S'\r\x00\x00\x00'
tRp4625
sVwith
p4626
g15
(g1378
S'+\x00\x00\x00'
tRp4627
sVanalyst
p4628
g15
(g1378
S'\x01\x00\x00\x00'
tRp4629
sVjquery
p4630
g15
(g1378
S'\x19\x00\x00\x00'
tRp4631
sVarchitect
p4632
g15
(g1378
S'\x03\x00\x00\x00'
tRp4633
sVand
p4634
g15
(g1378
S'\x02\x00\x00\x00'
tRp4635
sVvirtual
p4636
g15
(g1378
S')\x00\x00\x00'
tRp4637
sVexperienced
p4638
g15
(g1378
S'\x11\x00\x00\x00'
tRp4639
sVfor
p4640
g15
(g1378
S'\x13\x00\x00\x00'
tRp4641
sVprofessional
p4642
g15
(g1378
S'\x1f\x00\x00\x00'
tRp4643
ssg1506
g1507
sg1495
g1496
sg1497
g1
(g1498
g3
NtRp4644
(dp4645
g1501
I01
sg1502
I01
sg1503
I00
sg1504
g1505
sg4212
g1
(g4213
g3
NtRp4646
(dp4647
g4216
g1371
(g1372
(I0
tS'b'
tRp4648
(I1
(I1
I48
tg17
I00
S'V\xd1\xd3\x15\xe1\xb8\x0f@|\xbd&I\xf0\xc0\x10@\xa4`KZ\x1ej\t@|\xbd&I\xf0\xc0\x10@|\xbd&I\xf0\xc0\x10@}\xec\x8e\xd2O\xf6\x0b@|\xbd&I\xf0\xc0\x10@}\xec\x8e\xd2O\xf6\x0b@|\xbd&I\xf0\xc0\x10@^\xb4V\x96\xbf\xa1\x04@|\xbd&I\xf0\xc0\x10@\xdaB\x15VP-\n@\x9f\x0b\x99\xe6\xfd\x13\x08@\xef\x87\xb5\x14|C\x0e@V\xd1\xd3\x15\xe1\xb8\x0f@j\x06_\xd7\x86y\x05@V\xd1\xd3\x15\xe1\xb8\x0f@\xef\x87\xb5\x14|C\x0e@\xa4`KZ\x1ej\t@|\xbd&I\xf0\xc0\x10@|\xbd&I\xf0\xc0\x10@|\xbd&I\xf0\xc0\x10@\xc4j\xb1\xba\xc8\x07\r@}\xec\x8e\xd2O\xf6\x0b@|\xbd&I\xf0\xc0\x10@|\xbd&I\xf0\xc0\x10@\xef\x87\xb5\x14|C\x0e@|\xbd&I\xf0\xc0\x10@|\xbd&I\xf0\xc0\x10@|\xbd&I\xf0\xc0\x10@\xa4`KZ\x1ej\t@\xe6\x94\x1d\x97\x17\x05\x0b@}\xec\x8e\xd2O\xf6\x0b@\xa4`KZ\x1ej\t@|\xbd&I\xf0\xc0\x10@}\xec\x8e\xd2O\xf6\x0b@\xef\x87\xb5\x14|C\x0e@|\xbd&I\xf0\xc0\x10@\xef\x87\xb5\x14|C\x0e@|\xbd&I\xf0\xc0\x10@|\xbd&I\xf0\xc0\x10@\xc4j\xb1\xba\xc8\x07\r@j\x06_\xd7\x86y\x05@|\xbd&I\xf0\xc0\x10@|\xbd&I\xf0\xc0\x10@\xc4j\xb1\xba\xc8\x07\r@\xdaB\x15VP-\n@|\xbd&I\xf0\xc0\x10@'
tbsg4218
I50
sg4219
(I48
I48
tp4649
sg4221
g1371
(g1372
(I0
tS'b'
tRp4650
(I1
(I1
tg1378
I00
S'\x00\x00\x00\x00'
tbsg4223
S'dia'
p4651
sbsbsg1508
Nsbsg19
g1586
sg1409
g1
(g1410
g3
NtRp4652
(dp4653
g1413
I01
sg1414
g1596
sbsg1361
Nsg1416
I01
sg1405
g1406
sg1408
g1593
sg1417
g1
(g1418
g3
NtRp4654
(dp4655
g1421
g1816
sg1425
Nsg1423
g1515
sg1427
g1428
sg1429
Nsg1426
Nsbsaa(lp4656
g1600
a(dp4657
g1407
Nsg19
g1600
sg1409
g1
(g1410
g3
NtRp4658
(dp4659
g1414
g1604
sg1806
g1371
(g1372
(I0
tS'b'
tRp4660
(I1
(I1
tg17
I00
S'\x1a\xa4A\x1a\xa4A\x8a?'
tbsg1808
g1371
(g1372
(I0
tS'b'
tRp4661
(I1
(I1
tg17
I00
S'\x00\x00\x00\x00\x00\x80S@'
tbsg1810
g1371
(g1372
(I0
tS'b'
tRp4662
(I1
(I1
tg17
I00
S'\x00\x00\x00\x00\x00\x00\x00\x00'
tbsg1812
g1371
(g1372
(I0
tS'b'
tRp4663
(I1
(I1
tg17
I00
S'\x00\x00\x00\x00\x00\x00\x00\x00'
tbsg1413
I01
sbsg1361
Nsg1416
I01
sg1405
g1406
sg1408
Nsg1417
g1
(g1418
g3
NtRp4664
(dp4665
g1421
g1816
sg1425
Nsg1423
g1438
sg1427
g1428
sg1429
Nsg1426
Nsbsaa(lp4666
g1608
a(dp4667
g1407
Nsg19
g1608
sg1409
g1
(g1410
g3
NtRp4668
(dp4669
g1414
g1612
sg1806
g1371
(g1372
(I0
tS'b'
tRp4670
(I1
(I1
tg17
I00
S'\xdb\x81\xb9v`\xae\x8d?'
tbsg1808
g1371
(g1372
(I0
tS'b'
tRp4671
(I1
(I1
tg17
I00
S'\x00\x00\x00\x00\x00@Q@'
tbsg1810
g1371
(g1372
(I0
tS'b'
tRp4672
(I1
(I1
tg17
I00
S'\x00\x00\x00\x00\x00\x00\x00\x00'
tbsg1812
g1371
(g1372
(I0
tS'b'
tRp4673
(I1
(I1
tg17
I00
S'\x00\x00\x00\x00\x00\x00\x00\x00'
tbsg1413
I01
sbsg1361
Nsg1416
I01
sg1405
g1406
sg1408
Nsg1417
g1
(g1418
g3
NtRp4674
(dp4675
g1421
g1816
sg1425
Nsg1423
g1424
sg1427
g1428
sg1429
Nsg1426
Nsbsaa(lp4676
g1616
a(dp4677
g1407
Nsg19
g1616
sg1409
g1
(g1410
g3
NtRp4678
(dp4679
g1414
g1620
sg1806
g1371
(g1372
(I0
tS'b'
tRp4680
(I1
(I1
tg17
I00
S'\x00\x00\x00\x00\x00\x00\xf0?'
tbsg1808
g1371
(g1372
(I0
tS'b'
tRp4681
(I1
(I1
tg17
I00
S'\x00\x00\x00\x00\x00\x00\xf0?'
tbsg1810
g1371
(g1372
(I0
tS'b'
tRp4682
(I1
(I1
tg17
I00
S'\x00\x00\x00\x00\x00\x00\x00\x00'
tbsg1812
g1371
(g1372
(I0
tS'b'
tRp4683
(I1
(I1
tg17
I00
S'\x00\x00\x00\x00\x00\x00\x00\x00'
tbsg1413
I01
sbsg1361
Nsg1416
I01
sg1405
g1406
sg1408
Nsg1417
g1
(g1418
g3
NtRp4684
(dp4685
g1421
g1816
sg1425
Nsg1423
g1424
sg1427
g1428
sg1429
Nsg1426
Nsbsaa(lp4686
g1624
a(dp4687
g1407
Nsg19
g1624
sg1409
g1
(g1410
g3
NtRp4688
(dp4689
g1414
g1628
sg1806
g1371
(g1372
(I0
tS'b'
tRp4690
(I1
(I1
tg17
I00
S'@+\x01\xad\x04\xb4R?'
tbsg1808
g1371
(g1372
(I0
tS'b'
tRp4691
(I1
(I1
tg17
I00
S'\x00\x00\x00\x00\x00`\x8b@'
tbsg1810
g1371
(g1372
(I0
tS'b'
tRp4692
(I1
(I1
tg17
I00
S'\x00\x00\x00\x00\x00\x00\x00\x00'
tbsg1812
g1371
(g1372
(I0
tS'b'
tRp4693
(I1
(I1
tg17
I00
S'\x00\x00\x00\x00\x00\x00\x00\x00'
tbsg1413
I01
sbsg1361
Nsg1416
I01
sg1405
g1406
sg1408
Nsg1417
g1
(g1418
g3
NtRp4694
(dp4695
g1421
g1816
sg1425
Nsg1423
g1424
sg1427
g1428
sg1429
Nsg1426
Nsbsaa(lp4696
g1632
a(dp4697
g1407
Nsg19
g1632
sg1409
g1
(g1410
g3
NtRp4698
(dp4699
g1414
g1636
sg1806
g1371
(g1372
(I0
tS'b'
tRp4700
(I1
(I1
tg17
I00
S'\x1a\xa4A\x1a\xa4A\x8a?'
tbsg1808
g1371
(g1372
(I0
tS'b'
tRp4701
(I1
(I1
tg17
I00
S'\x00\x00\x00\x00\x00\x80S@'
tbsg1810
g1371
(g1372
(I0
tS'b'
tRp4702
(I1
(I1
tg17
I00
S'\x00\x00\x00\x00\x00\x00\x00\x00'
tbsg1812
g1371
(g1372
(I0
tS'b'
tRp4703
(I1
(I1
tg17
I00
S'\x00\x00\x00\x00\x00\x00\x00\x00'
tbsg1413
I01
sbsg1361
Nsg1416
I01
sg1405
g1406
sg1408
Nsg1417
g1
(g1418
g3
NtRp4704
(dp4705
g1421
g1816
sg1425
Nsg1423
g1438
sg1427
g1428
sg1429
Nsg1426
Nsbsaa(lp4706
g1640
a(dp4707
g1407
Nsg19
g1640
sg1409
g1
(g1410
g3
NtRp4708
(dp4709
g1414
g1644
sg1806
g1371
(g1372
(I0
tS'b'
tRp4710
(I1
(I1
tg17
I00
S'(\xaf\xa1\xbc\x86\xf2\xaa?'
tbsg1808
g1371
(g1372
(I0
tS'b'
tRp4711
(I1
(I1
tg17
I00
S'\x00\x00\x00\x00\x00\x003@'
tbsg1810
g1371
(g1372
(I0
tS'b'
tRp4712
(I1
(I1
tg17
I00
S'\x00\x00\x00\x00\x00\x00\x00\x00'
tbsg1812
g1371
(g1372
(I0
tS'b'
tRp4713
(I1
(I1
tg17
I00
S'\x00\x00\x00\x00\x00\x00\x00\x00'
tbsg1413
I01
sbsg1361
Nsg1416
I01
sg1405
g1406
sg1408
Nsg1417
g1
(g1418
g3
NtRp4714
(dp4715
g1421
g1816
sg1425
Nsg1423
g1424
sg1427
g1428
sg1429
Nsg1426
Nsbsaa(lp4716
g1648
a(dp4717
g1407
Nsg19
g1648
sg1409
g1
(g1410
g3
NtRp4718
(dp4719
g1414
g1652
sg1806
g1371
(g1372
(I0
tS'b'
tRp4720
(I1
(I1
tg17
I00
S'\x9a\x99\x99\x99\x99\x99\xa9?'
tbsg1808
g1371
(g1372
(I0
tS'b'
tRp4721
(I1
(I1
tg17
I00
S'\x00\x00\x00\x00\x00\x004@'
tbsg1810
g1371
(g1372
(I0
tS'b'
tRp4722
(I1
(I1
tg17
I00
S'\x00\x00\x00\x00\x00\x00\xf0?'
tbsg1812
g1371
(g1372
(I0
tS'b'
tRp4723
(I1
(I1
tg17
I00
S'\x9a\x99\x99\x99\x99\x99\xa9\xbf'
tbsg1413
I01
sbsg1361
Nsg1416
I01
sg1405
g1406
sg1408
Nsg1417
g1
(g1418
g3
NtRp4724
(dp4725
g1421
g1816
sg1425
Nsg1423
g1424
sg1427
g1428
sg1429
Nsg1426
Nsbsaa(lp4726
g1656
a(dp4727
g1407
Nsg19
g1656
sg1409
Nsg1361
Nsg1416
I01
sg1405
g1406
sg1408
Nsg1417
g1
(g1658
g3
NtRp4728
(dp4729
g1421
Nsg1426
Nsg1425
Nsg1427
Nsg1661
(lp4730
g1
(g1663
g3
NtRp4731
(dp4732
g1427
g1428
sg1421
g1816
sg1426
Nsg1425
Nsg1429
(dp4733
g1667
g1668
ssbag1
(g1418
g3
NtRp4734
(dp4735
g1421
g1816
sg1425
Nsg1423
g1424
sg1427
g1428
sg1429
Nsg1426
Nsbasg1429
Nsbsaa(lp4736
g1672
a(dp4737
g1407
Nsg19
g1672
sg1409
g1
(g1410
g3
NtRp4738
(dp4739
g1414
g1676
sg1806
g1371
(g1372
(I0
tS'b'
tRp4740
(I1
(I1
tg17
I00
S'{\x14\xaeG\xe1z\x94?'
tbsg1808
g1371
(g1372
(I0
tS'b'
tRp4741
(I1
(I1
tg17
I00
S'\x00\x00\x00\x00\x00\x00I@'
tbsg1810
g1371
(g1372
(I0
tS'b'
tRp4742
(I1
(I1
tg17
I00
S'\x00\x00\x00\x00\x00\x00\x00\x00'
tbsg1812
g1371
(g1372
(I0
tS'b'
tRp4743
(I1
(I1
tg17
I00
S'\x00\x00\x00\x00\x00\x00\x00\x00'
tbsg1413
I01
sbsg1361
Nsg1416
I01
sg1405
g1406
sg1408
Nsg1417
g1
(g1418
g3
NtRp4744
(dp4745
g1421
g1816
sg1425
Nsg1423
g1424
sg1427
g1428
sg1429
Nsg1426
Nsbsaa(lp4746
g1680
a(dp4747
g1407
Nsg19
g1680
sg1409
g1
(g1410
g3
NtRp4748
(dp4749
g1414
g1684
sg1806
g1371
(g1372
(I0
tS'b'
tRp4750
(I1
(I1
tg17
I00
S'\xdd\xcd \xb9\xba8+?'
tbsg1808
g1371
(g1372
(I0
tS'b'
tRp4751
(I1
(I1
tg17
I00
S'\x00\x00\x00\x00\x00\xcf\xb2@'
tbsg1810
g1371
(g1372
(I0
tS'b'
tRp4752
(I1
(I1
tg17
I00
S'\x00\x00\x00\x00\x00\x00\x00\x00'
tbsg1812
g1371
(g1372
(I0
tS'b'
tRp4753
(I1
(I1
tg17
I00
S'\x00\x00\x00\x00\x00\x00\x00\x00'
tbsg1413
I01
sbsg1361
Nsg1416
I01
sg1405
g1406
sg1408
Nsg1417
g1
(g1418
g3
NtRp4754
(dp4755
g1421
g1816
sg1425
Nsg1423
g1424
sg1427
g1428
sg1429
Nsg1426
Nsbsaa(lp4756
g1688
a(dp4757
g1407
Nsg19
g1688
sg1409
g1
(g1410
g3
NtRp4758
(dp4759
g1414
g1692
sg1806
g1371
(g1372
(I0
tS'b'
tRp4760
(I1
(I1
tg17
I00
S'\xbdl@1\xb2\xe4\xf0>'
tbsg1808
g1371
(g1372
(I0
tS'b'
tRp4761
(I1
(I1
tg17
I00
S'\x02:m\xa0\xcbN\xee@'
tbsg1810
g1371
(g1372
(I0
tS'b'
tRp4762
(I1
(I1
tg17
I00
S'\x00\x00\x00\x00\x00\x00\x00\x00'
tbsg1812
g1371
(g1372
(I0
tS'b'
tRp4763
(I1
(I1
tg17
I00
S'\x00\x00\x00\x00\x00\x00\x00\x00'
tbsg1413
I01
sbsg1361
Nsg1416
I01
sg1405
g1406
sg1408
Nsg1417
g1
(g1418
g3
NtRp4764
(dp4765
g1421
g1816
sg1425
Nsg1423
g1438
sg1427
g1428
sg1429
Nsg1426
Nsbsaa(lp4766
g1696
a(dp4767
g1407
Nsg19
g1696
sg1409
g1
(g1410
g3
NtRp4768
(dp4769
g1414
g1700
sg1806
g1371
(g1372
(I0
tS'b'
tRp4770
(I1
(I1
tg17
I00
S'H\x07\xde\xf3\x8dis?'
tbsg1808
g1371
(g1372
(I0
tS'b'
tRp4771
(I1
(I1
tg17
I00
S'\x00\x00\x00\x00\x00`j@'
tbsg1810
g1371
(g1372
(I0
tS'b'
tRp4772
(I1
(I1
tg17
I00
S'\x00\x00\x00\x00\x00\x00\x00\x00'
tbsg1812
g1371
(g1372
(I0
tS'b'
tRp4773
(I1
(I1
tg17
I00
S'\x00\x00\x00\x00\x00\x00\x00\x00'
tbsg1413
I01
sbsg1361
Nsg1416
I01
sg1405
g1406
sg1408
Nsg1417
g1
(g1418
g3
NtRp4774
(dp4775
g1421
g1816
sg1425
Nsg1423
g1424
sg1427
g1428
sg1429
Nsg1426
Nsbsaa(lp4776
g1704
a(dp4777
g1407
Nsg19
g1704
sg1409
g1
(g1410
g3
NtRp4778
(dp4779
g1414
g1708
sg1806
g1371
(g1372
(I0
tS'b'
tRp4780
(I1
(I1
tg17
I00
S'{\x14\xaeG\xe1z\x94?'
tbsg1808
g1371
(g1372
(I0
tS'b'
tRp4781
(I1
(I1
tg17
I00
S'\x00\x00\x00\x00\x00\x00I@'
tbsg1810
g1371
(g1372
(I0
tS'b'
tRp4782
(I1
(I1
tg17
I00
S'\x00\x00\x00\x00\x00\x00\x00\x00'
tbsg1812
g1371
(g1372
(I0
tS'b'
tRp4783
(I1
(I1
tg17
I00
S'\x00\x00\x00\x00\x00\x00\x00\x00'
tbsg1413
I01
sbsg1361
Nsg1416
I01
sg1405
g1406
sg1408
Nsg1417
g1
(g1418
g3
NtRp4784
(dp4785
g1421
g1816
sg1425
Nsg1423
g1424
sg1427
g1428
sg1429
Nsg1426
Nsbsaa(lp4786
g1712
a(dp4787
g1407
Nsg19
g1712
sg1409
g1
(g1410
g3
NtRp4788
(dp4789
g1414
g1716
sg1806
g1371
(g1372
(I0
tS'b'
tRp4790
(I1
(I1
tg17
I00
S'\x11\x11\x11\x11\x11\x11\xa1?'
tbsg1808
g1371
(g1372
(I0
tS'b'
tRp4791
(I1
(I1
tg17
I00
S'\x00\x00\x00\x00\x00\x00>@'
tbsg1810
g1371
(g1372
(I0
tS'b'
tRp4792
(I1
(I1
tg17
I00
S'\x00\x00\x00\x00\x00\x00\x00\x00'
tbsg1812
g1371
(g1372
(I0
tS'b'
tRp4793
(I1
(I1
tg17
I00
S'\x00\x00\x00\x00\x00\x00\x00\x00'
tbsg1413
I01
sbsg1361
Nsg1416
I01
sg1405
g1406
sg1408
Nsg1417
g1
(g1418
g3
NtRp4794
(dp4795
g1421
g1816
sg1425
Nsg1423
g1424
sg1427
g1428
sg1429
Nsg1426
Nsbsaa(lp4796
g1720
a(dp4797
g1407
Nsg19
g1720
sg1409
Nsg1361
Nsg1416
I01
sg1405
g1406
sg1408
Nsg1417
g1
(g1722
g3
NtRp4798
(dp4799
g1427
Nsg1421
g1816
sg1426
g1
(g1725
g3
NtRp4800
(dp4801
g1477
g1728
sg1481
Nsg1483
g1729
sg1485
g1730
sg1488
g1731
sg1491
g1732
sg1426
Nsg1487
F1
sg1493
I0
sg1494
Nsg1871
I00
sg1872
g1873
((ltRp4802
sg1490
I01
sg1479
I01
sg1480
Nsg1482
Nsg4004
(dp4803
Vunited kingdom,sri lanka
p4804
g15
(g1378
S'\x16\x00\x00\x00'
tRp4805
sVunited kingdom,bangladesh
p4806
g15
(g1378
S'\x14\x00\x00\x00'
tRp4807
sVaustralia,india
p4808
g15
(g1378
S'\x01\x00\x00\x00'
tRp4809
sVportugal,argentina
p4810
g15
(g1378
S'\x0f\x00\x00\x00'
tRp4811
sVunited states,nepal
p4812
g15
(g1378
S'\x1d\x00\x00\x00'
tRp4813
sVegypt,india
p4814
g15
(g1378
S'\n\x00\x00\x00'
tRp4815
sVaustralia,bangladesh
p4816
g15
(g1378
S'\x00\x00\x00\x00'
tRp4817
sVcanada,philippines
p4818
g15
(g1378
S'\x07\x00\x00\x00'
tRp4819
sVunited states,united states
p4820
g15
(g1378
S'"\x00\x00\x00'
tRp4821
sVnew zealand,philippines
p4822
g15
(g1378
S'\x0e\x00\x00\x00'
tRp4823
sVaustralia,united kingdom
p4824
g15
(g1378
S'\x04\x00\x00\x00'
tRp4825
sVsri lanka,bangladesh
p4826
g15
(g1378
S'\x10\x00\x00\x00'
tRp4827
sVunited states,india
p4828
g15
(g1378
S'\x1a\x00\x00\x00'
tRp4829
sVsri lanka,philippines
p4830
g15
(g1378
S'\x11\x00\x00\x00'
tRp4831
sVfrance,netherlands
p4832
g15
(g1378
S'\x0b\x00\x00\x00'
tRp4833
sVunited states,nigeria
p4834
g15
(g1378
S'\x1e\x00\x00\x00'
tRp4835
sVunited states,bangladesh
p4836
g15
(g1378
S'\x17\x00\x00\x00'
tRp4837
sVbangladesh,philippines
p4838
g15
(g1378
S'\x06\x00\x00\x00'
tRp4839
sVunited states,pakistan
p4840
g15
(g1378
S'\x1f\x00\x00\x00'
tRp4841
sVunited states,morocco
p4842
g15
(g1378
S'\x1c\x00\x00\x00'
tRp4843
sVcanada,united states
p4844
g15
(g1378
S'\x08\x00\x00\x00'
tRp4845
sVbangladesh,bangladesh
p4846
g15
(g1378
S'\x05\x00\x00\x00'
tRp4847
sVunited states,china
p4848
g15
(g1378
S'\x19\x00\x00\x00'
tRp4849
sVindia,china
p4850
g15
(g1378
S'\r\x00\x00\x00'
tRp4851
sVunited states,philippines
p4852
g15
(g1378
S' \x00\x00\x00'
tRp4853
sVunited arab emirates,united states
p4854
g15
(g1378
S'\x13\x00\x00\x00'
tRp4855
sVunited states,ukraine
p4856
g15
(g1378
S'!\x00\x00\x00'
tRp4857
sVaustralia,pakistan
p4858
g15
(g1378
S'\x02\x00\x00\x00'
tRp4859
sVunited states,kenya
p4860
g15
(g1378
S'\x1b\x00\x00\x00'
tRp4861
sVcroatia,pakistan
p4862
g15
(g1378
S'\t\x00\x00\x00'
tRp4863
sVaustralia,philippines
p4864
g15
(g1378
S'\x03\x00\x00\x00'
tRp4865
sVunited kingdom,pakistan
p4866
g15
(g1378
S'\x15\x00\x00\x00'
tRp4867
sVgermany,india
p4868
g15
(g1378
S'\x0c\x00\x00\x00'
tRp4869
sVunited states,canada
p4870
g15
(g1378
S'\x18\x00\x00\x00'
tRp4871
sVunited arab emirates,india
p4872
g15
(g1378
S'\x12\x00\x00\x00'
tRp4873
ssg1506
g1507
sg1495
g1733
sg1508
Nsbsg1425
Nsg1429
Nsbsaa(lp4874
g1735
a(dp4875
g1407
Nsg19
g1735
sg1409
Nsg1361
Nsg1416
I01
sg1405
g1406
sg1408
Nsg1417
g4728
saa(lp4876
g1738
a(dp4877
g1407
Nsg19
g1738
sg1409
Nsg1361
Nsg1416
I01
sg1405
g1406
sg1408
Nsg1417
g4728
saa(lp4878
g1741
a(dp4879
g1407
Nsg19
g1741
sg1409
g1
(g1410
g3
NtRp4880
(dp4881
g1414
g1745
sg1806
g1371
(g1372
(I0
tS'b'
tRp4882
(I1
(I1
tg17
I00
S'P\xabR\x00\xd4\xaa4?'
tbsg1808
g1371
(g1372
(I0
tS'b'
tRp4883
(I1
(I1
tg17
I00
S'\x00\x00\x00\x00\x00\xc6\xa8@'
tbsg1810
g1371
(g1372
(I0
tS'b'
tRp4884
(I1
(I1
tg17
I00
S'\x00\x00\x00\x00\x00\x00\x00\x00'
tbsg1812
g1371
(g1372
(I0
tS'b'
tRp4885
(I1
(I1
tg17
I00
S'\x00\x00\x00\x00\x00\x00\x00\x00'
tbsg1413
I01
sbsg1361
Nsg1416
I01
sg1405
g1406
sg1408
Nsg1417
g1
(g1418
g3
NtRp4886
(dp4887
g1421
g1816
sg1425
Nsg1423
g1424
sg1427
g1428
sg1429
Nsg1426
Nsbsaa(lp4888
g1749
a(dp4889
g1407
Nsg19
g1749
sg1409
g1
(g1410
g3
NtRp4890
(dp4891
g1413
I01
sg1414
g1753
sbsg1361
Nsg1416
I01
sg1405
g1406
sg1408
Nsg1417
g1
(g1754
g3
NtRp4892
(dp4893
g1427
g1428
sg1421
g1816
sg1426
Nsg1425
Nsg1429
(dp4894
g1758
(dp4895
g1760
I0
sg1761
I1
sssbsaa(lp4896
g1107
a(dp4897
g1407
Nsg19
g1107
sg1409
g1
(g1410
g3
NtRp4898
(dp4899
g1414
g1766
sg1806
g1371
(g1372
(I0
tS'b'
tRp4900
(I1
(I1
tg17
I00
S'\xa50\x06{\xfcb\xb6>'
tbsg1808
g1371
(g1372
(I0
tS'b'
tRp4901
(I1
(I1
tg17
I00
S'\x00\x00\x00\x00\xea\xde&A'
tbsg1810
g1371
(g1372
(I0
tS'b'
tRp4902
(I1
(I1
tg17
I00
S'\x00\x00\x00\xa8\x17\xfb\xa7A'
tbsg1812
g1371
(g1372
(I0
tS'b'
tRp4903
(I1
(I1
tg17
I00
S'v\x91~q\xce\xc6p\xc0'
tbsg1413
I01
sbsg1361
Nsg1416
I01
sg1405
g1406
sg1408
Nsg1417
g1
(g1418
g3
NtRp4904
(dp4905
g1421
g1816
sg1425
Nsg1423
g1424
sg1427
g1428
sg1429
Nsg1426
Nsbsaa(lp4906
g1770
a(dp4907
g1407
Nsg19
g1770
sg1409
g1
(g1410
g3
NtRp4908
(dp4909
g1413
I01
sg1414
g1775
sbsg1361
F0.33000000000000002
sg1416
I01
sg1405
g1772
sg1408
Nsg1417
g1
(g1418
g3
NtRp4910
(dp4911
g1421
g1816
sg1425
Nsg1423
g1438
sg1427
g1428
sg1429
Nsg1426
g1
(g1778
g3
NtRp4912
(dp4913
g1781
I01
sS'feature_names_'
p4914
(lp4915
V3ds Max 7.0 Test
p4916
aV3ds Max 9 Test
p4917
aVASP.Net 3.5 using C# Test
p4918
aVAccounting Principles Test
p4919
aVAccounting Skills Test (Assets and Revenue)
p4920
aVAccounting Skills Test (Cash Flow)
p4921
aVAccounts Payable Test
p4922
aVAccounts Receivable Test
p4923
aVAdobe After Effects 7.0 Test
p4924
aVAdobe Flex 3.0 Test
p4925
aVAdobe Illustrator CS3 Test
p4926
aVAdobe Illustrator CS4 Test
p4927
aVAdobe Illustrator Test
p4928
aVAdobe Photoshop 6.0
p4929
aVAdobe Photoshop CS3 Test
p4930
aVAdobe Photoshop CS4 Test
p4931
aVAdobe Premiere Test
p4932
aVAdvanced PHP Test
p4933
aVAnalytical Skills Test
p4934
aVAutoCad 2007 Test
p4935
aVBook keeping Test
p4936
aVBusiness Mathematics Test
p4937
aVCSS 2.0 Test
p4938
aVCSS 3 Test
p4939
aVCall Center Skills Test
p4940
aVChrome Product Test
p4941
aVCocoa programming for Mac OS X 10.5 Test
p4942
aVContent Writing Skills Test
p4943
aVCreative Writing Test - Fiction (U.S. Version)
p4944
aVCreative Writing Test - Non-fiction (U.S. Version)
p4945
aVCustomer Service Test
p4946
aVDreamweaver 8 Test
p4947
aVDrupal 6.14 Test
p4948
aVEmail Etiquette Certification
p4949
aVEnglish Spelling Test (U.S. Version)
p4950
aVEnglish Spelling Test (UK Version)
p4951
aVEnglish To French Translation Skills Test
p4952
aVEnglish To Russian Translation Skills Test
p4953
aVEnglish To Tagalog (Filipino) Translation Skills Test
p4954
aVEnglish Vocabulary Test (U.S. Version)
p4955
aVEnglish Vocabulary Test (UK Version)
p4956
aVFacebook Connect Test
p4957
aVFrench Spelling Skills Test
p4958
aVFrench To English Translation Skills Test
p4959
aVGenerally Accepted Accounting Principles (GAAP) Test
p4960
aVGmail Product Test
p4961
aVGoogle AdWords Test
p4962
aVGoogle Android Programming Test
p4963
aVHTML 4.01 Test
p4964
aVHTML 5 Test
p4965
aVHelp Desk Certification
p4966
aVHospitality Terminology Test
p4967
aVInternet Marketing Test
p4968
aVJSON Test
p4969
aVJSP 2.0 Test
p4970
aVJava Test
p4971
aVJavaScript 1.3 Test
p4972
aVJavaScript 1.8 Test
p4973
aVJoomla 1.5 Test
p4974
aVKnowledge of Microsoft Silverlight Skills Test
p4975
aVKnowledge of Windows 7 Skills Test
p4976
aVKnowledge of jQuery 1.3.2 Skills Test
p4977
aVMS Excel 2003 Test
p4978
aVMS Excel 2007 Test
p4979
aVMS PowerPoint 2007 Test
p4980
aVMS Word 2003 Test
p4981
aVMS Word 2007 Test
p4982
aVMagento eCommerce Test
p4983
aVManagement Skills Test
p4984
aVMaya 7.0 Test
p4985
aVMedical Billing Certification
p4986
aVMicrosoft Excel 2010 Test
p4987
aVMySQL 5.0 Test
p4988
aVNetworking Concepts Test
p4989
aVObjective C Test
p4990
aVOffice Skills Test
p4991
aVOnline Article Writing and Blogging Test (U.S. Version)
p4992
aVOrganizational Behavior Test
p4993
aVOutbound Sales Skills Test
p4994
aVPC Graphics Test
p4995
aVPHP4 Test
p4996
aVPHP5 Test
p4997
aVPerl 5 Test
p4998
aVPrinciples of  Web Graphics Design Test
p4999
aVProgramming with C++ Test
p5000
aVPython 2.x Test
p5001
aVQuick Books Pro 2008 Test
p5002
aVReport Writing Test
p5003
aVResume Writing Skills Test
p5004
aVRuby on Rails  2.3 Test
p5005
aVRuby on Rails Test
p5006
aVSQL Test
p5007
aVSearch Engine Optimization Test
p5008
aVSlideshow Product Test
p5009
aVSocial Media Marketing Test
p5010
aVSoftware Testing Test
p5011
aVSpanish To English Translation Skills Test
p5012
aVTechnical Writing Skills Certification
p5013
aVTelephone Etiquette Certification
p5014
aVU.S. English Basic Skills Test
p5015
aVU.S. English Chicago Style Editing Skills Test (For Writing Professionals)
p5016
aVU.S. English Punctuation and Mechanics Test
p5017
aVU.S. English Sentence Structure Test (For Writing Professionals)
p5018
aVU.S. Word Usage Test
p5019
aVUK English Basic Skills Test
p5020
aVUK English Grammar Test (For Writing Professionals)
p5021
aVWindows XP Test
p5022
aVWordPress 2.8 Test
p5023
aVWordpress Test
p5024
aVXHTML 1.0 Test
p5025
aVXML 1.0 Test
p5026
aViPhone Programming OS 2.1 Test
p5027
aViPhone Programming OS 4.0 Test
p5028
aVoDesk Readiness Test for Affiliated Contractors
p5029
aVoDesk Readiness Test for Agency Contractors
p5030
aVoDesk Readiness Test for Independent Contractors and Company Managers
p5031
aVoDesk Readiness Test for Independent Contractors and Staffing Managers
p5032
asg1506
g1782
sg4004
(dp5033
g4988
I72
sg4949
I33
sg5029
I113
sg4953
I37
sg5031
I115
sg5005
I89
sg4961
I45
sg4982
I66
sg4957
I41
sg4965
I49
sg5017
I101
sg4992
I76
sg4934
I18
sg5024
I108
sg5006
I90
sg5026
I110
sg4951
I35
sg5001
I85
sg5022
I106
sg5025
I109
sg4933
I17
sg4964
I48
sg4984
I68
sg5027
I111
sg4995
I79
sg4994
I78
sg5016
I100
sg5012
I96
sg4917
I1
sg4929
I13
sg5010
I94
sg4921
I5
sg4976
I60
sg4986
I70
sg4990
I74
sg4954
I38
sg4963
I47
sg4987
I71
sg4991
I75
sg5015
I99
sg5030
I114
sg5032
I116
sg5007
I91
sg4960
I44
sg4922
I6
sg4956
I40
sg5008
I92
sg4932
I16
sg5028
I112
sg4936
I20
sg5003
I87
sg4999
I83
sg4972
I56
sg5019
I103
sg4952
I36
sg4928
I12
sg4967
I51
sg4959
I43
sg4971
I55
sg5009
I93
sg4985
I69
sg4997
I81
sg5023
I107
sg5021
I105
sg5011
I95
sg4923
I7
sg5000
I84
sg4977
I61
sg4920
I4
sg4983
I67
sg4916
I0
sg4935
I19
sg5020
I104
sg5002
I86
sg4926
I10
sg4931
I15
sg4966
I50
sg4958
I42
sg4937
I21
sg4938
I22
sg4919
I3
sg4930
I14
sg4979
I63
sg4962
I46
sg4941
I25
sg4939
I23
sg4945
I29
sg4944
I28
sg4989
I73
sg4943
I27
sg4947
I31
sg4980
I64
sg4940
I24
sg4950
I34
sg5018
I102
sg4973
I57
sg4970
I54
sg5004
I88
sg4942
I26
sg5013
I97
sg4975
I59
sg4948
I32
sg4918
I2
sg4981
I65
sg5014
I98
sg4925
I9
sg4946
I30
sg4978
I62
sg4974
I58
sg4998
I82
sg4969
I53
sg4924
I8
sg4955
I39
sg4968
I52
sg4993
I77
sg4996
I80
sg4927
I11
ssg1783
S'='
sg1784
I01
sbsbsaatRp5034
ssb.